; generated by Component: ARM Compiler 5.04 update 1 (build 49) Tool: ArmCC [5040049]
; commandline ArmCC [--cpp --list --split_sections --debug -c --asm --interleave -o.\build\messages.o --asm_dir=.\build\ --list_dir=.\build\ --depend=.\build\messages.d --cpu=Cortex-M4.fp --apcs=interwork -Otime -I.\arm_hal -I.\arm_hal\lib -I..\include -I..\coretech\common\include -I..\coretech\messaging\include -I..\coretech\planning\include -I..\coretech\vision\include -I.\supervisor\src -I..\..\coretech-external\heatshrink -IC:\Keil\ARM\Pack\ARM\CMSIS\3.20.4\Device\ARM\ARMCM4\Include -I.\include -DSTM32F401xC -DUSE_STDPERIPH_DRIVER -DSTM32F411xE -DCOZMO_ROBOT -DROBOT_HARDWARE -DCORETECH_ROBOT -DOFFBOARD_VISION -DSTM32F401xx --omf_browse=.\build\messages.crf supervisor\src\messages.cpp]
                          THUMB

                          AREA ||i._ZN4Anki5Cozmo8Messages12CheckMailboxERNS1_13FaceDetectionE||, CODE, READONLY, ALIGN=2

                  _ZN4Anki5Cozmo8Messages12CheckMailboxERNS1_13FaceDetectionE PROC ; Anki::Cozmo::Messages::CheckMailbox(Anki::Cozmo::Messages::FaceDetection&)
;;;923    
;;;924          bool CheckMailbox(FaceDetection&       msg)
000000  4a13              LDR      r2,|L1.80|
000002  f89210c0          LDRB     r1,[r2,#0xc0]
000006  eb010141          ADD      r1,r1,r1,LSL #1
00000a  eb020181          ADD      r1,r2,r1,LSL #2
00000e  7acb              LDRB     r3,[r1,#0xb]
000010  2b00              CMP      r3,#0
000012  bf07              ITTEE    EQ
000014  7a8b              LDRBEQ   r3,[r1,#0xa]
000016  2b00              CMPEQ    r3,#0
000018  2000              MOVNE    r0,#0
;;;925          {
;;;926            return faceDetectMailbox_.getMessage(msg);
;;;927          }
00001a  4770              BXNE     lr
00001c  2301              MOVS     r3,#1
00001e  f8d1c000          LDR      r12,[r1,#0]
000022  f8c0c000          STR      r12,[r0,#0]
000026  f8d1c004          LDR      r12,[r1,#4]
00002a  f8c0c004          STR      r12,[r0,#4]
00002e  f8b1c008          LDRH     r12,[r1,#8]
000032  f8a0c008          STRH     r12,[r0,#8]
000036  728b              STRB     r3,[r1,#0xa]
000038  2300              MOVS     r3,#0
00003a  72cb              STRB     r3,[r1,#0xb]
00003c  f8120fc0          LDRB     r0,[r2,#0xc0]!
000040  1c40              ADDS     r0,r0,#1
000042  b2c0              UXTB     r0,r0
000044  7010              STRB     r0,[r2,#0]
000046  2810              CMP      r0,#0x10
000048  bf08              IT       EQ
00004a  7013              STRBEQ   r3,[r2,#0]
00004c  2001              MOVS     r0,#1
00004e  4770              BX       lr
;;;928    
                          ENDP

                  |L1.80|
                          DCD      ||.bss||+0x11c

                          AREA ||i._ZN4Anki5Cozmo8Messages12CheckMailboxERNS1_18DockingErrorSignalE||, CODE, READONLY, ALIGN=2

                  _ZN4Anki5Cozmo8Messages12CheckMailboxERNS1_18DockingErrorSignalE PROC ; Anki::Cozmo::Messages::CheckMailbox(Anki::Cozmo::Messages::DockingErrorSignal&)
;;;918    
;;;919          bool CheckMailbox(DockingErrorSignal&  msg)
000000  490a              LDR      r1,|L2.44|
000002  7e4a              LDRB     r2,[r1,#0x19]
000004  2a00              CMP      r2,#0
000006  bf07              ITTEE    EQ
000008  7e0a              LDRBEQ   r2,[r1,#0x18]
00000a  2a00              CMPEQ    r2,#0
00000c  2000              MOVNE    r0,#0
;;;920          {
;;;921            return dockingMailbox_.getMessage(msg);
;;;922          }
00000e  4770              BXNE     lr
000010  b4f0              PUSH     {r4-r7}               ;920
000012  2201              MOVS     r2,#1                 ;920
000014  764a              STRB     r2,[r1,#0x19]         ;920
000016  e89110f8          LDM      r1,{r3-r7,r12}        ;920
00001a  e88010f8          STM      r0,{r3-r7,r12}        ;920
00001e  760a              STRB     r2,[r1,#0x18]         ;920
000020  2000              MOVS     r0,#0                 ;920
000022  7648              STRB     r0,[r1,#0x19]         ;920
000024  bcf0              POP      {r4-r7}
000026  4610              MOV      r0,r2
000028  4770              BX       lr
;;;923    
                          ENDP

00002a  0000              DCW      0x0000
                  |L2.44|
                          DCD      ||.bss||+0x100

                          AREA ||i._ZN4Anki5Cozmo8Messages12ReceivedInitEv||, CODE, READONLY, ALIGN=2

                  _ZN4Anki5Cozmo8Messages12ReceivedInitEv PROC ; Anki::Cozmo::Messages::ReceivedInit()
;;;929    
;;;930          bool ReceivedInit()
000000  4801              LDR      r0,|L3.8|
;;;931          {
;;;932            return initReceived_;
000002  7880              LDRB     r0,[r0,#2]  ; _ZN4Anki5Cozmo8Messages36_GLOBAL__N__12_messages_cpp_0235eab813initReceived_E
;;;933          }
000004  4770              BX       lr
;;;934    
                          ENDP

000006  0000              DCW      0x0000
                  |L3.8|
                          DCD      ||.data||

                          AREA ||i._ZN4Anki5Cozmo8Messages14ProcessMessageENS1_2IDEPKh||, CODE, READONLY, ALIGN=2

                  _ZN4Anki5Cozmo8Messages14ProcessMessageENS1_2IDEPKh PROC ; Anki::Cozmo::Messages::ProcessMessage(Anki::Cozmo::Messages::ID, const unsigned char*)
;;;85     
;;;86           void ProcessMessage(const ID msgID, const u8* buffer)
000000  b570              PUSH     {r4-r6,lr}
;;;87           {
000002  4604              MOV      r4,r0
;;;88             if(LookupTable_[msgID].dispatchFcn != NULL) {
000004  4809              LDR      r0,|L4.44|
;;;89               //PRINT("ProcessMessage(): Dispatching message with ID=%d.\n", msgID);
;;;90     
;;;91               (*LookupTable_[msgID].dispatchFcn)(buffer);
;;;92     
;;;93               // Treat any message as a ping
;;;94               lastPingTime_ = HAL::GetTimeStamp();
000006  4d0a              LDR      r5,|L4.48|
000008  eb0000c4          ADD      r0,r0,r4,LSL #3       ;88
00000c  6842              LDR      r2,[r0,#4]            ;87
00000e  b122              CBZ      r2,|L4.26|
000010  4608              MOV      r0,r1                 ;91
000012  4790              BLX      r2                    ;91
000014  f7fffffe          BL       _ZN4Anki5Cozmo3HAL12GetTimeStampEv ; Anki::Cozmo::HAL::GetTimeStamp()
000018  60a8              STR      r0,[r5,#8]  ; _ZN4Anki5Cozmo8Messages36_GLOBAL__N__12_messages_cpp_0235eab813lastPingTime_E
                  |L4.26|
;;;95               //PRINT("Received message, kicking ping time at %d\n", lastPingTime_);
;;;96             }
;;;97     
;;;98             if(lookForID_ != NO_MESSAGE_ID) {
00001a  7828              LDRB     r0,[r5,#0]  ; _ZN4Anki5Cozmo8Messages36_GLOBAL__N__12_messages_cpp_0235eab810lookForID_E
00001c  2800              CMP      r0,#0
;;;99     
;;;100              // See if this was the message we were told to look for
;;;101              if(msgID == lookForID_) {
;;;102                lookForID_ = NO_MESSAGE_ID;
;;;103              }
;;;104            }
;;;105          } // ProcessMessage()
00001e  bf08              IT       EQ
000020  bd70              POPEQ    {r4-r6,pc}
000022  4284              CMP      r4,r0                 ;101
000024  bf04              ITT      EQ                    ;102
000026  2000              MOVEQ    r0,#0                 ;102
000028  7028              STRBEQ   r0,[r5,#0]            ;102
00002a  bd70              POP      {r4-r6,pc}
;;;106    
                          ENDP

                  |L4.44|
                          DCD      ||.constdata||
                  |L4.48|
                          DCD      ||.data||

                          AREA ||i._ZN4Anki5Cozmo8Messages16GetRobotStateMsgEv||, CODE, READONLY, ALIGN=2

                  _ZN4Anki5Cozmo8Messages16GetRobotStateMsgEv PROC ; Anki::Cozmo::Messages::GetRobotStateMsg()
;;;170    
;;;171          RobotState const& GetRobotStateMsg() {
000000  4800              LDR      r0,|L5.4|
;;;172            return robotState_;
;;;173          }
000002  4770              BX       lr
;;;174    
                          ENDP

                  |L5.4|
                          DCD      ||.bss||+0x1e0

                          AREA ||i._ZN4Anki5Cozmo8Messages17SendRobotStateMsgEPKNS1_10RobotStateE||, CODE, READONLY, ALIGN=2

                  _ZN4Anki5Cozmo8Messages17SendRobotStateMsgEPKNS1_10RobotStateE PROC ; Anki::Cozmo::Messages::SendRobotStateMsg(const Anki::Cozmo::Messages::RobotState*)
;;;833    
;;;834          Result SendRobotStateMsg(const RobotState* msg)
000000  b570              PUSH     {r4-r6,lr}
;;;835          {
;;;836    
;;;837            // Don't send robot state updates unless the init message was received
;;;838            if (!initReceived_) {
000002  4e13              LDR      r6,|L6.80|
000004  78b1              LDRB     r1,[r6,#2]  ; _ZN4Anki5Cozmo8Messages36_GLOBAL__N__12_messages_cpp_0235eab813initReceived_E
000006  b301              CBZ      r1,|L6.74|
;;;839              return RESULT_FAIL;
;;;840            }
;;;841    
;;;842    
;;;843            const RobotState* m = &robotState_;
000008  4c12              LDR      r4,|L6.84|
;;;844            if (msg) {
00000a  2800              CMP      r0,#0
;;;845              m = msg;
00000c  bf18              IT       NE
00000e  4604              MOVNE    r4,r0
;;;846            }
;;;847    
;;;848            // Check if a state message with this timestamp was already sent
;;;849            for (u8 i=0; i < 2; ++i) {
000010  2200              MOVS     r2,#0
;;;850              if (robotStateSendHist_[i] == m->timestamp) {
000012  4d11              LDR      r5,|L6.88|
000014  6820              LDR      r0,[r4,#0]
                  |L6.22|
000016  f8551022          LDR      r1,[r5,r2,LSL #2]
00001a  4281              CMP      r1,r0
00001c  d015              BEQ      |L6.74|
00001e  1c51              ADDS     r1,r2,#1              ;849
000020  b2ca              UXTB     r2,r1                 ;849
000022  2a02              CMP      r2,#2                 ;849
000024  d3f7              BCC      |L6.22|
;;;851                return RESULT_FAIL;
;;;852              }
;;;853            }
;;;854    
;;;855            if(HAL::RadioSendMessage(GET_MESSAGE_ID(Messages::RobotState), m) == true) {
000026  4621              MOV      r1,r4
000028  203d              MOVS     r0,#0x3d
00002a  f7fffffe          BL       _ZN4Anki5Cozmo3HAL16RadioSendMessageENS0_8Messages2IDEPKv ; Anki::Cozmo::HAL::RadioSendMessage(Anki::Cozmo::Messages::ID, const void*)
00002e  b160              CBZ      r0,|L6.74|
;;;856              // Update send history
;;;857              robotStateSendHist_[robotStateSendHistIdx_] = m->timestamp;
000030  7870              LDRB     r0,[r6,#1]  ; _ZN4Anki5Cozmo8Messages36_GLOBAL__N__12_messages_cpp_0235eab822robotStateSendHistIdx_E
000032  6821              LDR      r1,[r4,#0]
000034  f8451020          STR      r1,[r5,r0,LSL #2]
000038  1c40              ADDS     r0,r0,#1
;;;858              if (++robotStateSendHistIdx_ > 1) robotStateSendHistIdx_ = 0;
00003a  b2c0              UXTB     r0,r0
00003c  7070              STRB     r0,[r6,#1]
00003e  2801              CMP      r0,#1
000040  bf84              ITT      HI
000042  2000              MOVHI    r0,#0
000044  7070              STRBHI   r0,[r6,#1]
;;;859              return RESULT_OK;
000046  2000              MOVS     r0,#0
;;;860            } else {
;;;861              return RESULT_FAIL;
;;;862            }
;;;863          }
000048  bd70              POP      {r4-r6,pc}
                  |L6.74|
00004a  2001              MOVS     r0,#1                 ;861
00004c  bd70              POP      {r4-r6,pc}
;;;864    
                          ENDP

00004e  0000              DCW      0x0000
                  |L6.80|
                          DCD      ||.data||
                  |L6.84|
                          DCD      ||.bss||+0x1e0
                  |L6.88|
                          DCD      ||.data||+0x10

                          AREA ||i._ZN4Anki5Cozmo8Messages17StillLookingForIDEv||, CODE, READONLY, ALIGN=2

                  _ZN4Anki5Cozmo8Messages17StillLookingForIDEv PROC ; Anki::Cozmo::Messages::StillLookingForID()
;;;111    
;;;112          bool StillLookingForID(void) {
000000  b510              PUSH     {r4,lr}
;;;113            if(lookForID_ == NO_MESSAGE_ID) {
000002  4c0a              LDR      r4,|L7.44|
000004  7820              LDRB     r0,[r4,#0]  ; _ZN4Anki5Cozmo8Messages36_GLOBAL__N__12_messages_cpp_0235eab810lookForID_E
000006  2800              CMP      r0,#0                 ;112
;;;114              return false;
;;;115            }
;;;116            else if(HAL::GetMicroCounter() - lookingStartTime_ > LOOK_FOR_MESSAGE_TIMEOUT) {
;;;117                PRINT("Timed out waiting for message ID %d.\n", lookForID_);
;;;118                lookForID_ = NO_MESSAGE_ID;
;;;119    
;;;120              return false;
;;;121            }
;;;122    
;;;123            return true;
;;;124    
;;;125          }
000008  bf08              IT       EQ
00000a  bd10              POPEQ    {r4,pc}
00000c  f7fffffe          BL       _ZN4Anki5Cozmo3HAL15GetMicroCounterEv ; Anki::Cozmo::HAL::GetMicroCounter()
000010  6861              LDR      r1,[r4,#4]            ;116  ; _ZN4Anki5Cozmo8Messages36_GLOBAL__N__12_messages_cpp_0235eab817lookingStartTime_E
000012  1a40              SUBS     r0,r0,r1              ;116
000014  4906              LDR      r1,|L7.48|
000016  4288              CMP      r0,r1                 ;116
000018  bf9c              ITT      LS                    ;123
00001a  2001              MOVLS    r0,#1                 ;123
00001c  bd10              POPLS    {r4,pc}
00001e  7821              LDRB     r1,[r4,#0]            ;117  ; _ZN4Anki5Cozmo8Messages36_GLOBAL__N__12_messages_cpp_0235eab810lookForID_E
000020  a004              ADR      r0,|L7.52|
000022  f7fffffe          BL       _ZN4Anki5Cozmo8Messages8SendTextEPKcz ; Anki::Cozmo::Messages::SendText(const char*, ...)
000026  2000              MOVS     r0,#0                 ;118
000028  7020              STRB     r0,[r4,#0]            ;118
00002a  bd10              POP      {r4,pc}
;;;126    
                          ENDP

                  |L7.44|
                          DCD      ||.data||
                  |L7.48|
                          DCD      0x000f4240
                  |L7.52|
000034  54696d65          DCB      "Timed out waiting for message ID %d.\n",0
000038  64206f75
00003c  74207761
000040  6974696e
000044  6720666f
000048  72206d65
00004c  73736167
000050  65204944
000054  2025642e
000058  0a00    
00005a  00                DCB      0
00005b  00                DCB      0

                          AREA ||i._ZN4Anki5Cozmo8Messages18ProcessPingMessageERKNS1_4PingE||, CODE, READONLY, ALIGN=2

                  _ZN4Anki5Cozmo8Messages18ProcessPingMessageERKNS1_4PingE PROC ; Anki::Cozmo::Messages::ProcessPingMessage(const Anki::Cozmo::Messages::Ping&)
;;;487    
;;;488          void ProcessPingMessage(const Ping& msg)
000000  b510              PUSH     {r4,lr}
;;;489          {
;;;490            lastPingTime_ = HAL::GetTimeStamp();
000002  f7fffffe          BL       _ZN4Anki5Cozmo3HAL12GetTimeStampEv ; Anki::Cozmo::HAL::GetTimeStamp()
000006  4901              LDR      r1,|L8.12|
000008  6088              STR      r0,[r1,#8]  ; _ZN4Anki5Cozmo8Messages36_GLOBAL__N__12_messages_cpp_0235eab813lastPingTime_E
;;;491          }
00000a  bd10              POP      {r4,pc}
;;;492    
                          ENDP

                  |L8.12|
                          DCD      ||.data||

                          AREA ||i._ZN4Anki5Cozmo8Messages19ProcessBTLEMessagesEv||, CODE, READONLY, ALIGN=2

                  _ZN4Anki5Cozmo8Messages19ProcessBTLEMessagesEv PROC ; Anki::Cozmo::Messages::ProcessBTLEMessages()
;;;275    
;;;276          void ProcessBTLEMessages()
000000  b5f8              PUSH     {r3-r7,lr}
;;;277          {
;;;278            ID msgID;
;;;279    
;;;280            while((msgID = HAL::RadioGetNextMessage(msgBuffer_)) != NO_MESSAGE_ID)
000002  4819              LDR      r0,|L9.104|
000004  f7fffffe          BL       _ZN4Anki5Cozmo3HAL19RadioGetNextMessageEPh ; Anki::Cozmo::HAL::RadioGetNextMessage(unsigned char*)
000008  2600              MOVS     r6,#0
00000a  4d18              LDR      r5,|L9.108|
00000c  2800              CMP      r0,#0
00000e  bf18              IT       NE
000010  4f17              LDRNE    r7,|L9.112|
000012  d013              BEQ      |L9.60|
                  |L9.20|
;;;281            {
;;;282              ProcessMessage(msgID, msgBuffer_);
000014  4604              MOV      r4,r0
000016  eb0701c4          ADD      r1,r7,r4,LSL #3
00001a  4813              LDR      r0,|L9.104|
00001c  6849              LDR      r1,[r1,#4]
00001e  b119              CBZ      r1,|L9.40|
000020  4788              BLX      r1
000022  f7fffffe          BL       _ZN4Anki5Cozmo3HAL12GetTimeStampEv ; Anki::Cozmo::HAL::GetTimeStamp()
000026  60a8              STR      r0,[r5,#8]  ; _ZN4Anki5Cozmo8Messages36_GLOBAL__N__12_messages_cpp_0235eab813lastPingTime_E
                  |L9.40|
000028  7828              LDRB     r0,[r5,#0]  ; _ZN4Anki5Cozmo8Messages36_GLOBAL__N__12_messages_cpp_0235eab810lookForID_E
00002a  b110              CBZ      r0,|L9.50|
00002c  4284              CMP      r4,r0
00002e  bf08              IT       EQ
000030  702e              STRBEQ   r6,[r5,#0]
                  |L9.50|
000032  480d              LDR      r0,|L9.104|
000034  f7fffffe          BL       _ZN4Anki5Cozmo3HAL19RadioGetNextMessageEPh ; Anki::Cozmo::HAL::RadioGetNextMessage(unsigned char*)
000038  2800              CMP      r0,#0                 ;280
00003a  d1eb              BNE      |L9.20|
                  |L9.60|
;;;283            }
;;;284    
;;;285            // If no messages received for PING_DISCONNECT_TIMEOUT_MS, then set disconnected state
;;;286            if ((lastPingTime_ != 0) && (lastPingTime_ + B2R_PING_DISCONNECT_TIMEOUT_MS < HAL::GetTimeStamp())) {
00003c  68a8              LDR      r0,[r5,#8]  ; _ZN4Anki5Cozmo8Messages36_GLOBAL__N__12_messages_cpp_0235eab813lastPingTime_E
00003e  2800              CMP      r0,#0
;;;287              PRINT("WARN: Disconnecting radio due to ping timeout\n");
;;;288              HAL::DisconnectRadio();
;;;289              lastPingTime_ = 0;
;;;290            }
;;;291    
;;;292          } // ProcessBTLEMessages()
000040  bf08              IT       EQ
000042  bdf8              POPEQ    {r3-r7,pc}
000044  f7fffffe          BL       _ZN4Anki5Cozmo3HAL12GetTimeStampEv ; Anki::Cozmo::HAL::GetTimeStamp()
000048  68a9              LDR      r1,[r5,#8]            ;286  ; _ZN4Anki5Cozmo8Messages36_GLOBAL__N__12_messages_cpp_0235eab813lastPingTime_E
00004a  f60131b8          ADD      r1,r1,#0xbb8          ;286
00004e  4288              CMP      r0,r1                 ;286
000050  bf98              IT       LS
000052  bdf8              POPLS    {r3-r7,pc}
000054  a007              ADR      r0,|L9.116|
000056  a901              ADD      r1,sp,#4              ;287
000058  9000              STR      r0,[sp,#0]            ;287
00005a  f7fffffe          BL       _ZN4Anki5Cozmo8Messages8SendTextEPKcSt9__va_list ; Anki::Cozmo::Messages::SendText(const char*, std::__va_list)
00005e  f7fffffe          BL       _ZN4Anki5Cozmo3HAL15DisconnectRadioEv ; Anki::Cozmo::HAL::DisconnectRadio()
000062  60ae              STR      r6,[r5,#8]            ;289  ; _ZN4Anki5Cozmo8Messages36_GLOBAL__N__12_messages_cpp_0235eab813lastPingTime_E
000064  bdf8              POP      {r3-r7,pc}
;;;293    
                          ENDP

000066  0000              DCW      0x0000
                  |L9.104|
                          DCD      ||.bss||
                  |L9.108|
                          DCD      ||.data||
                  |L9.112|
                          DCD      ||.constdata||
                  |L9.116|
000074  5741524e          DCB      "WARN: Disconnecting radio due to ping timeout\n",0
000078  3a204469
00007c  73636f6e
000080  6e656374
000084  696e6720
000088  72616469
00008c  6f206475
000090  6520746f
000094  2070696e
000098  67207469
00009c  6d656f75
0000a0  740a00  
0000a3  00                DCB      0

                          AREA ||i._ZN4Anki5Cozmo8Messages19UpdateRobotStateMsgEv||, CODE, READONLY, ALIGN=2

                  _ZN4Anki5Cozmo8Messages19UpdateRobotStateMsgEv PROC ; Anki::Cozmo::Messages::UpdateRobotStateMsg()
;;;127    
;;;128          void UpdateRobotStateMsg()
000000  b510              PUSH     {r4,lr}
;;;129          {
000002  b082              SUB      sp,sp,#8
;;;130            robotState_.timestamp = HAL::GetTimeStamp();
000004  f7fffffe          BL       _ZN4Anki5Cozmo3HAL12GetTimeStampEv ; Anki::Cozmo::HAL::GetTimeStamp()
000008  4c50              LDR      r4,|L10.332|
;;;131    
;;;132            Radians poseAngle;
00000a  6020              STR      r0,[r4,#0]  ; _ZN4Anki5Cozmo8Messages36_GLOBAL__N__12_messages_cpp_0235eab811robotState_E
00000c  4668              MOV      r0,sp
00000e  f7fffffe          BL       _ZN4Anki7RadiansC1Ev ; Anki::Radians::Radians()
;;;133    
;;;134            robotState_.pose_frame_id = Localization::GetPoseFrameId();
000012  f7fffffe          BL       _ZN4Anki5Cozmo12Localization14GetPoseFrameIdEv ; Anki::Cozmo::Localization::GetPoseFrameId()
;;;135    
;;;136            Localization::GetCurrentMatPose(robotState_.pose_x, robotState_.pose_y, poseAngle);
000016  f104010c          ADD      r1,r4,#0xc
00001a  6060              STR      r0,[r4,#4]  ; _ZN4Anki5Cozmo8Messages36_GLOBAL__N__12_messages_cpp_0235eab811robotState_E
00001c  466a              MOV      r2,sp
00001e  1f08              SUBS     r0,r1,#4
000020  f7fffffe          BL       _ZN4Anki5Cozmo12Localization17GetCurrentMatPoseERfS2_RNS_7RadiansE ; Anki::Cozmo::Localization::GetCurrentMatPose(float&, float&, Anki::Radians&)
;;;137            robotState_.pose_z = 0;
000024  ed9f0a4a          VLDR     s0,|L10.336|
000028  ed840a04          VSTR     s0,[r4,#0x10]
00002c  ed9d0a00          VLDR     s0,[sp,#0]
;;;138            robotState_.pose_angle = poseAngle.ToFloat();
000030  ed840a05          VSTR     s0,[r4,#0x14]
;;;139            robotState_.pose_pitch_angle = IMUFilter::GetPitch();
000034  f7fffffe          BL       _ZN4Anki5Cozmo9IMUFilter8GetPitchEv ; Anki::Cozmo::IMUFilter::GetPitch()
;;;140    
;;;141            WheelController::GetFilteredWheelSpeeds(robotState_.lwheel_speed_mmps, robotState_.rwheel_speed_mmps);
000038  f1040120          ADD      r1,r4,#0x20
00003c  ed840a06          VSTR     s0,[r4,#0x18]         ;139
000040  1f08              SUBS     r0,r1,#4
000042  f7fffffe          BL       _ZN4Anki5Cozmo15WheelController22GetFilteredWheelSpeedsERfS2_ ; Anki::Cozmo::WheelController::GetFilteredWheelSpeeds(float&, float&)
;;;142    
;;;143            robotState_.headAngle  = HeadController::GetAngleRad();
000046  f7fffffe          BL       _ZN4Anki5Cozmo14HeadController11GetAngleRadEv ; Anki::Cozmo::HeadController::GetAngleRad()
00004a  ed840a09          VSTR     s0,[r4,#0x24]
;;;144            robotState_.liftAngle  = LiftController::GetAngleRad();
00004e  f7fffffe          BL       _ZN4Anki5Cozmo14LiftController11GetAngleRadEv ; Anki::Cozmo::LiftController::GetAngleRad()
000052  ed840a0a          VSTR     s0,[r4,#0x28]
;;;145            robotState_.liftHeight = LiftController::GetHeightMM();
000056  f7fffffe          BL       _ZN4Anki5Cozmo14LiftController11GetHeightMMEv ; Anki::Cozmo::LiftController::GetHeightMM()
;;;146    
;;;147            ProxSensors::GetValues(robotState_.proxLeft, robotState_.proxForward, robotState_.proxRight);
00005a  f1040234          ADD      r2,r4,#0x34
00005e  1e51              SUBS     r1,r2,#1
000060  ed840a0b          VSTR     s0,[r4,#0x2c]         ;145
000064  1e48              SUBS     r0,r1,#1
000066  f7fffffe          BL       _ZN4Anki5Cozmo11ProxSensors9GetValuesERhS2_S2_ ; Anki::Cozmo::ProxSensors::GetValues(unsigned char&, unsigned char&, unsigned char&)
;;;148    
;;;149            robotState_.lastPathID = PathFollower::GetLastPathID();
00006a  f7fffffe          BL       _ZN4Anki5Cozmo12PathFollower13GetLastPathIDEv ; Anki::Cozmo::PathFollower::GetLastPathID()
00006e  8620              STRH     r0,[r4,#0x30]
;;;150    
;;;151            robotState_.currPathSegment = PathFollower::GetCurrPathSegment();
000070  f7fffffe          BL       _ZN4Anki5Cozmo12PathFollower18GetCurrPathSegmentEv ; Anki::Cozmo::PathFollower::GetCurrPathSegment()
000074  f8840035          STRB     r0,[r4,#0x35]
;;;152            robotState_.numFreeSegmentSlots = PathFollower::GetNumFreeSegmentSlots();
000078  f7fffffe          BL       _ZN4Anki5Cozmo12PathFollower22GetNumFreeSegmentSlotsEv ; Anki::Cozmo::PathFollower::GetNumFreeSegmentSlots()
00007c  f8840036          STRB     r0,[r4,#0x36]
;;;153            robotState_.battVolt10x = HAL::BatteryGetVoltage10x();
000080  f7fffffe          BL       _ZN4Anki5Cozmo3HAL20BatteryGetVoltage10xEv ; Anki::Cozmo::HAL::BatteryGetVoltage10x()
000084  f8840037          STRB     r0,[r4,#0x37]
;;;154    
;;;155            robotState_.status = 0;
000088  2000              MOVS     r0,#0
00008a  f8840038          STRB     r0,[r4,#0x38]
;;;156            
;;;157            // TODO: Make this a parameters somewhere?
;;;158            const f32 WHEEL_SPEED_STOPPED = 2.f;
;;;159            robotState_.status |= (HeadController::IsMoving() ||
00008e  f7fffffe          BL       _ZN4Anki5Cozmo14HeadController8IsMovingEv ; Anki::Cozmo::HeadController::IsMoving()
000092  b9b0              CBNZ     r0,|L10.194|
;;;160                                   LiftController::IsMoving() ||
000094  f7fffffe          BL       _ZN4Anki5Cozmo14LiftController8IsMovingEv ; Anki::Cozmo::LiftController::IsMoving()
000098  b998              CBNZ     r0,|L10.194|
;;;161                                   fabs(robotState_.lwheel_speed_mmps) > WHEEL_SPEED_STOPPED ||
00009a  ed940a07          VLDR     s0,[r4,#0x1c]
00009e  eeb00ac0          VABS.F32 s0,s0
0000a2  ee100a10          VMOV     r0,s0
0000a6  f1b04f80          CMP      r0,#0x40000000
0000aa  dc0a              BGT      |L10.194|
;;;162                                   fabs(robotState_.rwheel_speed_mmps) > WHEEL_SPEED_STOPPED ? IS_MOVING : 0);
0000ac  ed940a08          VLDR     s0,[r4,#0x20]
0000b0  eeb00ac0          VABS.F32 s0,s0
0000b4  ee100a10          VMOV     r0,s0
0000b8  f1b04f80          CMP      r0,#0x40000000
0000bc  bfd8              IT       LE
0000be  2000              MOVLE    r0,#0
0000c0  dd00              BLE      |L10.196|
                  |L10.194|
0000c2  2001              MOVS     r0,#1
                  |L10.196|
0000c4  f8941038          LDRB     r1,[r4,#0x38]  ; _ZN4Anki5Cozmo8Messages36_GLOBAL__N__12_messages_cpp_0235eab811robotState_E
0000c8  4308              ORRS     r0,r0,r1
0000ca  f8840038          STRB     r0,[r4,#0x38]
;;;163            robotState_.status |= (PickAndPlaceController::IsCarryingBlock() ? IS_CARRYING_BLOCK : 0);
0000ce  f7fffffe          BL       _ZN4Anki5Cozmo22PickAndPlaceController15IsCarryingBlockEv ; Anki::Cozmo::PickAndPlaceController::IsCarryingBlock()
0000d2  2800              CMP      r0,#0
0000d4  bf18              IT       NE
0000d6  2002              MOVNE    r0,#2
0000d8  f8941038          LDRB     r1,[r4,#0x38]  ; _ZN4Anki5Cozmo8Messages36_GLOBAL__N__12_messages_cpp_0235eab811robotState_E
0000dc  4308              ORRS     r0,r0,r1
0000de  f8840038          STRB     r0,[r4,#0x38]
;;;164            robotState_.status |= (PickAndPlaceController::IsBusy() ? IS_PICKING_OR_PLACING : 0);
0000e2  f7fffffe          BL       _ZN4Anki5Cozmo22PickAndPlaceController6IsBusyEv ; Anki::Cozmo::PickAndPlaceController::IsBusy()
0000e6  2800              CMP      r0,#0
0000e8  bf18              IT       NE
0000ea  2004              MOVNE    r0,#4
0000ec  f8941038          LDRB     r1,[r4,#0x38]  ; _ZN4Anki5Cozmo8Messages36_GLOBAL__N__12_messages_cpp_0235eab811robotState_E
0000f0  4308              ORRS     r0,r0,r1
0000f2  f8840038          STRB     r0,[r4,#0x38]
;;;165            robotState_.status |= (IMUFilter::IsPickedUp() ? IS_PICKED_UP : 0);
0000f6  f7fffffe          BL       _ZN4Anki5Cozmo9IMUFilter10IsPickedUpEv ; Anki::Cozmo::IMUFilter::IsPickedUp()
0000fa  2800              CMP      r0,#0
0000fc  bf18              IT       NE
0000fe  2008              MOVNE    r0,#8
000100  f8941038          LDRB     r1,[r4,#0x38]  ; _ZN4Anki5Cozmo8Messages36_GLOBAL__N__12_messages_cpp_0235eab811robotState_E
000104  4308              ORRS     r0,r0,r1
000106  f8840038          STRB     r0,[r4,#0x38]
;;;166            robotState_.status |= (ProxSensors::IsForwardBlocked() ? IS_PROX_FORWARD_BLOCKED : 0);
00010a  f7fffffe          BL       _ZN4Anki5Cozmo11ProxSensors16IsForwardBlockedEv ; Anki::Cozmo::ProxSensors::IsForwardBlocked()
00010e  2800              CMP      r0,#0
000110  bf18              IT       NE
000112  2010              MOVNE    r0,#0x10
000114  f8941038          LDRB     r1,[r4,#0x38]  ; _ZN4Anki5Cozmo8Messages36_GLOBAL__N__12_messages_cpp_0235eab811robotState_E
000118  4308              ORRS     r0,r0,r1
00011a  f8840038          STRB     r0,[r4,#0x38]
;;;167            robotState_.status |= (ProxSensors::IsSideBlocked() ? IS_PROX_SIDE_BLOCKED : 0);
00011e  f7fffffe          BL       _ZN4Anki5Cozmo11ProxSensors13IsSideBlockedEv ; Anki::Cozmo::ProxSensors::IsSideBlocked()
000122  2800              CMP      r0,#0
000124  bf18              IT       NE
000126  2020              MOVNE    r0,#0x20
000128  f8941038          LDRB     r1,[r4,#0x38]  ; _ZN4Anki5Cozmo8Messages36_GLOBAL__N__12_messages_cpp_0235eab811robotState_E
00012c  4308              ORRS     r0,r0,r1
00012e  f8840038          STRB     r0,[r4,#0x38]
;;;168            robotState_.status |= (AnimationController::IsPlaying() ? IS_ANIMATING : 0);
000132  f7fffffe          BL       _ZN4Anki5Cozmo19AnimationController9IsPlayingEv ; Anki::Cozmo::AnimationController::IsPlaying()
000136  2800              CMP      r0,#0
000138  bf18              IT       NE
00013a  2040              MOVNE    r0,#0x40
00013c  f8941038          LDRB     r1,[r4,#0x38]  ; _ZN4Anki5Cozmo8Messages36_GLOBAL__N__12_messages_cpp_0235eab811robotState_E
000140  4308              ORRS     r0,r0,r1
000142  f8840038          STRB     r0,[r4,#0x38]
;;;169          }
000146  b002              ADD      sp,sp,#8
000148  bd10              POP      {r4,pc}
;;;170    
                          ENDP

00014a  0000              DCW      0x0000
                  |L10.332|
                          DCD      ||.bss||+0x1e0
                  |L10.336|
000150  00000000          DCFS     0x00000000 ; 0

                          AREA ||i._ZN4Anki5Cozmo8Messages22ProcessMoveHeadMessageERKNS1_8MoveHeadE||, CODE, READONLY, ALIGN=1

                  _ZN4Anki5Cozmo8Messages22ProcessMoveHeadMessageERKNS1_8MoveHeadE PROC ; Anki::Cozmo::Messages::ProcessMoveHeadMessage(const Anki::Cozmo::Messages::MoveHead&)
;;;389    
;;;390          void ProcessMoveHeadMessage(const MoveHead& msg) {
000000  ed900a00          VLDR     s0,[r0,#0]
;;;391            HeadController::SetAngularVelocity(msg.speed_rad_per_sec);
000004  f7ffbffe          B.W      _ZN4Anki5Cozmo14HeadController18SetAngularVelocityEf ; Anki::Cozmo::HeadController::SetAngularVelocity(float)
;;;392          }
;;;393    
                          ENDP


                          AREA ||i._ZN4Anki5Cozmo8Messages22ProcessMoveLiftMessageERKNS1_8MoveLiftE||, CODE, READONLY, ALIGN=1

                  _ZN4Anki5Cozmo8Messages22ProcessMoveLiftMessageERKNS1_8MoveLiftE PROC ; Anki::Cozmo::Messages::ProcessMoveLiftMessage(const Anki::Cozmo::Messages::MoveLift&)
;;;385    
;;;386          void ProcessMoveLiftMessage(const MoveLift& msg) {
000000  ed900a00          VLDR     s0,[r0,#0]
;;;387            LiftController::SetAngularVelocity(msg.speed_rad_per_sec);
000004  f7ffbffe          B.W      _ZN4Anki5Cozmo14LiftController18SetAngularVelocityEf ; Anki::Cozmo::LiftController::SetAngularVelocity(float)
;;;388          }
;;;389    
                          ENDP


                          AREA ||i._ZN4Anki5Cozmo8Messages22ProcessSyncTimeMessageERKNS1_8SyncTimeE||, CODE, READONLY, ALIGN=2

                  _ZN4Anki5Cozmo8Messages22ProcessSyncTimeMessageERKNS1_8SyncTimeE PROC ; Anki::Cozmo::Messages::ProcessSyncTimeMessage(const Anki::Cozmo::Messages::SyncTime&)
;;;178    
;;;179          void ProcessSyncTimeMessage(const SyncTime& msg)
000000  b510              PUSH     {r4,lr}
;;;180          {
000002  4604              MOV      r4,r0
000004  b088              SUB      sp,sp,#0x20
;;;181    
;;;182            PRINT("Robot received SyncTime message from basestation with ID=%d and syncTime=%d.\n",
000006  e9d41200          LDRD     r1,r2,[r4,#0]
00000a  481e              LDR      r0,|L13.132|
00000c  f7fffffe          BL       _ZN4Anki5Cozmo8Messages8SendTextEPKcz ; Anki::Cozmo::Messages::SendText(const char*, ...)
;;;183                  msg.robotID, msg.syncTime);
;;;184    
;;;185            initReceived_ = true;
000010  491d              LDR      r1,|L13.136|
000012  2001              MOVS     r0,#1
000014  7088              STRB     r0,[r1,#2]
;;;186    
;;;187            // TODO: Compare message ID to robot ID as a handshake?
;;;188    
;;;189            // Poor-man's time sync to basestation, for now.
;;;190            HAL::SetTimeStamp(msg.syncTime);
000016  6860              LDR      r0,[r4,#4]
000018  f7fffffe          BL       _ZN4Anki5Cozmo3HAL12SetTimeStampEj ; Anki::Cozmo::HAL::SetTimeStamp(unsigned)
;;;191    
;;;192            // Reset pose history and frameID to zero
;;;193            Localization::ResetPoseFrame();
00001c  f7fffffe          BL       _ZN4Anki5Cozmo12Localization14ResetPoseFrameEv ; Anki::Cozmo::Localization::ResetPoseFrame()
;;;194    
;;;195            // Send back camera calibration
;;;196            const HAL::CameraInfo* headCamInfo = HAL::GetHeadCamInfo();
000020  f7fffffe          BL       _ZN4Anki5Cozmo3HAL14GetHeadCamInfoEv ; Anki::Cozmo::HAL::GetHeadCamInfo()
;;;197            if(headCamInfo == NULL) {
000024  2800              CMP      r0,#0
000026  d028              BEQ      |L13.122|
;;;198              PRINT("NULL HeadCamInfo retrieved from HAL.\n");
;;;199            }
;;;200            else {
;;;201              Messages::CameraCalibration headCalibMsg = {
000028  ed900a00          VLDR     s0,[r0,#0]
00002c  ed8d0a00          VSTR     s0,[sp,#0]
000030  ed900a01          VLDR     s0,[r0,#4]
000034  ed8d0a01          VSTR     s0,[sp,#4]
000038  ed900a02          VLDR     s0,[r0,#8]
00003c  ed8d0a02          VSTR     s0,[sp,#8]
000040  ed900a03          VLDR     s0,[r0,#0xc]
000044  ed8d0a03          VSTR     s0,[sp,#0xc]
000048  ed900a04          VLDR     s0,[r0,#0x10]
00004c  ed8d0a04          VSTR     s0,[sp,#0x10]
000050  8a81              LDRH     r1,[r0,#0x14]
000052  f8ad1014          STRH     r1,[sp,#0x14]
000056  8ac0              LDRH     r0,[r0,#0x16]
000058  f8ad0016          STRH     r0,[sp,#0x16]
;;;202                headCamInfo->focalLength_x,
;;;203                headCamInfo->focalLength_y,
;;;204                headCamInfo->center_x,
;;;205                headCamInfo->center_y,
;;;206                headCamInfo->skew,
;;;207                headCamInfo->nrows,
;;;208                headCamInfo->ncols
;;;209              };
;;;210    
;;;211    
;;;212              if(!HAL::RadioSendMessage(CameraCalibration_ID,
00005c  4669              MOV      r1,sp
00005e  2045              MOVS     r0,#0x45
000060  f7fffffe          BL       _ZN4Anki5Cozmo3HAL16RadioSendMessageENS0_8Messages2IDEPKv ; Anki::Cozmo::HAL::RadioSendMessage(Anki::Cozmo::Messages::ID, const void*)
000064  2800              CMP      r0,#0
;;;213                                        &headCalibMsg))
;;;214              {
;;;215                PRINT("Failed to send camera calibration message.\n");
;;;216              }
;;;217            }
;;;218    
;;;219          } // ProcessRobotInit()
000066  bf1c              ITT      NE
000068  b008              ADDNE    sp,sp,#0x20
00006a  bd10              POPNE    {r4,pc}
00006c  a007              ADR      r0,|L13.140|
00006e  a907              ADD      r1,sp,#0x1c           ;215
000070  9006              STR      r0,[sp,#0x18]         ;215
                  |L13.114|
000072  f7fffffe          BL       _ZN4Anki5Cozmo8Messages8SendTextEPKcSt9__va_list ; Anki::Cozmo::Messages::SendText(const char*, std::__va_list)
000076  b008              ADD      sp,sp,#0x20
000078  bd10              POP      {r4,pc}
                  |L13.122|
00007a  a00f              ADR      r0,|L13.184|
00007c  a901              ADD      r1,sp,#4              ;198
00007e  9000              STR      r0,[sp,#0]            ;198
000080  e7f7              B        |L13.114|
;;;220    
                          ENDP

000082  0000              DCW      0x0000
                  |L13.132|
                          DCD      ||.conststring||+0xb8
                  |L13.136|
                          DCD      ||.data||
                  |L13.140|
00008c  4661696c          DCB      "Failed to send camera calibration message.\n",0
000090  65642074
000094  6f207365
000098  6e642063
00009c  616d6572
0000a0  61206361
0000a4  6c696272
0000a8  6174696f
0000ac  6e206d65
0000b0  73736167
0000b4  652e0a00
                  |L13.184|
0000b8  4e554c4c          DCB      "NULL HeadCamInfo retrieved from HAL.\n",0
0000bc  20486561
0000c0  6443616d
0000c4  496e666f
0000c8  20726574
0000cc  72696576
0000d0  65642066
0000d4  726f6d20
0000d8  48414c2e
0000dc  0a00    
0000de  00                DCB      0
0000df  00                DCB      0

                          AREA ||i._ZN4Anki5Cozmo8Messages22ProcessTrimPathMessageERKNS1_8TrimPathE||, CODE, READONLY, ALIGN=1

                  _ZN4Anki5Cozmo8Messages22ProcessTrimPathMessageERKNS1_8TrimPathE PROC ; Anki::Cozmo::Messages::ProcessTrimPathMessage(const Anki::Cozmo::Messages::TrimPath&)
;;;316    
;;;317          void ProcessTrimPathMessage(const TrimPath& msg) {
000000  7841              LDRB     r1,[r0,#1]
;;;318            PathFollower::TrimPath(msg.numPopFrontSegments, msg.numPopBackSegments);
000002  7800              LDRB     r0,[r0,#0]
000004  f7ffbffe          B.W      _ZN4Anki5Cozmo12PathFollower8TrimPathEhh ; Anki::Cozmo::PathFollower::TrimPath(unsigned char, unsigned char)
;;;319          }
;;;320    
                          ENDP


                          AREA ||i._ZN4Anki5Cozmo8Messages23ProcessClearPathMessageERKNS1_9ClearPathE||, CODE, READONLY, ALIGN=1

                  _ZN4Anki5Cozmo8Messages23ProcessClearPathMessageERKNS1_9ClearPathE PROC ; Anki::Cozmo::Messages::ProcessClearPathMessage(const Anki::Cozmo::Messages::ClearPath&)
;;;293    
;;;294          void ProcessClearPathMessage(const ClearPath& msg) {
000000  b510              PUSH     {r4,lr}
;;;295            SpeedController::SetUserCommandedDesiredVehicleSpeed(0);
000002  2000              MOVS     r0,#0
000004  f7fffffe          BL       _ZN4Anki5Cozmo15SpeedController35SetUserCommandedDesiredVehicleSpeedEs ; Anki::Cozmo::SpeedController::SetUserCommandedDesiredVehicleSpeed(short)
;;;296            PathFollower::ClearPath();
000008  e8bd4010          POP      {r4,lr}
00000c  f7ffbffe          B.W      _ZN4Anki5Cozmo12PathFollower9ClearPathEv ; Anki::Cozmo::PathFollower::ClearPath()
;;;297            //SteeringController::ExecuteDirectDrive(0,0);
;;;298          }
;;;299    
                          ENDP


                          AREA ||i._ZN4Anki5Cozmo8Messages24ProcessIMURequestMessageERKNS1_10IMURequestE||, CODE, READONLY, ALIGN=1

                  _ZN4Anki5Cozmo8Messages24ProcessIMURequestMessageERKNS1_10IMURequestE PROC ; Anki::Cozmo::Messages::ProcessIMURequestMessage(const Anki::Cozmo::Messages::IMURequest&)
;;;471    
;;;472          void ProcessIMURequestMessage(const IMURequest& msg) {
000000  6800              LDR      r0,[r0,#0]
;;;473            IMUFilter::RecordAndSend(msg.length_ms);
000002  f7ffbffe          B.W      _ZN4Anki5Cozmo9IMUFilter13RecordAndSendEj ; Anki::Cozmo::IMUFilter::RecordAndSend(unsigned)
;;;474          }
;;;475    
                          ENDP


                          AREA ||i._ZN4Anki5Cozmo8Messages25ProcessDriveWheelsMessageERKNS1_11DriveWheelsE||, CODE, READONLY, ALIGN=2

                  _ZN4Anki5Cozmo8Messages25ProcessDriveWheelsMessageERKNS1_11DriveWheelsE PROC ; Anki::Cozmo::Messages::ProcessDriveWheelsMessage(const Anki::Cozmo::Messages::DriveWheels&)
;;;352    
;;;353          void ProcessDriveWheelsMessage(const DriveWheels& msg) {
000000  b510              PUSH     {r4,lr}
000002  4604              MOV      r4,r0
000004  ed2d8b02          VPUSH    {d8}
000008  b082              SUB      sp,sp,#8
;;;354    
;;;355            // Do not process external drive commands if following a test path
;;;356            if (PathFollower::IsTraversingPath()) {
00000a  f7fffffe          BL       _ZN4Anki5Cozmo12PathFollower16IsTraversingPathEv ; Anki::Cozmo::PathFollower::IsTraversingPath()
00000e  2800              CMP      r0,#0
000010  d02d              BEQ      |L17.110|
;;;357              if (PathFollower::IsInManualSpeedMode()) {
000012  f7fffffe          BL       _ZN4Anki5Cozmo12PathFollower19IsInManualSpeedModeEv ; Anki::Cozmo::PathFollower::IsInManualSpeedMode()
000016  b308              CBZ      r0,|L17.92|
;;;358                // TODO: Maybe want to set manual speed via a different message?
;;;359                //       For now, using average wheel speed.
;;;360                f32 manualSpeed = 0.5f * (msg.lwheel_speed_mmps + msg.rwheel_speed_mmps);
000018  ed940a00          VLDR     s0,[r4,#0]
00001c  edd40a01          VLDR     s1,[r4,#4]
000020  ee300a20          VADD.F32 s0,s0,s1
000024  eef60a00          VMOV.F32 s1,#0.50000000
000028  ee208a20          VMUL.F32 s16,s0,s1
;;;361                PRINT("Commanding manual path speed %f mm/s.\n", manualSpeed);
00002c  ee180a10          VMOV     r0,s16
000030  f7fffffe          BL       __aeabi_f2d
000034  ec410b11          VMOV     d1,r0,r1
000038  a014              ADR      r0,|L17.140|
00003a  ec532b11          VMOV     r2,r3,d1
00003e  f7fffffe          BL       _ZN4Anki5Cozmo8Messages8SendTextEPKcz ; Anki::Cozmo::Messages::SendText(const char*, ...)
;;;362                PathFollower::SetManualPathSpeed(manualSpeed, 1000, 1000);
000042  b002              ADD      sp,sp,#8
000044  eeb00a48          VMOV.F32 s0,s16
000048  eddf0a1a          VLDR     s1,|L17.180|
00004c  ecbd8b02          VPOP     {d8}
000050  eeb01a60          VMOV.F32 s2,s1
000054  e8bd4010          POP      {r4,lr}
000058  f7ffbffe          B.W      _ZN4Anki5Cozmo12PathFollower18SetManualPathSpeedEfff ; Anki::Cozmo::PathFollower::SetManualPathSpeed(float, float, float)
                  |L17.92|
;;;363              } else {
;;;364                PRINT("Ignoring DriveWheels message because robot is currently following a path.\n");
00005c  4816              LDR      r0,|L17.184|
00005e  a901              ADD      r1,sp,#4
000060  9000              STR      r0,[sp,#0]
000062  f7fffffe          BL       _ZN4Anki5Cozmo8Messages8SendTextEPKcSt9__va_list ; Anki::Cozmo::Messages::SendText(const char*, std::__va_list)
;;;365              }
;;;366              return;
;;;367            }
;;;368    
;;;369            //PRINT("Executing DriveWheels message: left=%f, right=%f\n",
;;;370            //      msg.lwheel_speed_mmps, msg.rwheel_speed_mmps);
;;;371    
;;;372            //PathFollower::ClearPath();
;;;373            SteeringController::ExecuteDirectDrive(msg.lwheel_speed_mmps, msg.rwheel_speed_mmps);
;;;374          }
000066  b002              ADD      sp,sp,#8
000068  ecbd8b02          VPOP     {d8}
00006c  bd10              POP      {r4,pc}
                  |L17.110|
00006e  edd40a01          VLDR     s1,[r4,#4]            ;373
000072  ed940a00          VLDR     s0,[r4,#0]            ;373
000076  b002              ADD      sp,sp,#8              ;373
000078  ed9f1a10          VLDR     s2,|L17.188|
00007c  ecbd8b02          VPOP     {d8}                  ;373
000080  eef01a41          VMOV.F32 s3,s2                 ;373
000084  e8bd4010          POP      {r4,lr}               ;373
000088  f7ffbffe          B.W      _ZN4Anki5Cozmo18SteeringController18ExecuteDirectDriveEffff ; Anki::Cozmo::SteeringController::ExecuteDirectDrive(float, float, float, float)
;;;375    
                          ENDP

                  |L17.140|
00008c  436f6d6d          DCB      "Commanding manual path speed %f mm/s.\n",0
000090  616e6469
000094  6e67206d
000098  616e7561
00009c  6c207061
0000a0  74682073
0000a4  70656564
0000a8  20256620
0000ac  6d6d2f73
0000b0  2e0a00  
0000b3  00                DCB      0
                  |L17.180|
0000b4  447a0000          DCFS     0x447a0000 ; 1000
                  |L17.184|
                          DCD      ||.conststring||
                  |L17.188|
0000bc  00000000          DCFS     0x00000000 ; 0

                          AREA ||i._ZN4Anki5Cozmo8Messages25ProcessExecutePathMessageERKNS1_11ExecutePathE||, CODE, READONLY, ALIGN=1

                  _ZN4Anki5Cozmo8Messages25ProcessExecutePathMessageERKNS1_11ExecutePathE PROC ; Anki::Cozmo::Messages::ProcessExecutePathMessage(const Anki::Cozmo::Messages::ExecutePath&)
;;;320    
;;;321          void ProcessExecutePathMessage(const ExecutePath& msg) {
000000  7881              LDRB     r1,[r0,#2]
;;;322            PathFollower::StartPathTraversal(msg.pathID, msg.useManualSpeed);
000002  2900              CMP      r1,#0
000004  bf18              IT       NE
000006  2101              MOVNE    r1,#1
000008  8800              LDRH     r0,[r0,#0]
00000a  f7ffbffe          B.W      _ZN4Anki5Cozmo12PathFollower18StartPathTraversalEtb ; Anki::Cozmo::PathFollower::StartPathTraversal(unsigned short, bool)
;;;323          }
;;;324    
                          ENDP


                          AREA ||i._ZN4Anki5Cozmo8Messages26ProcessAbortDockingMessageERKNS1_12AbortDockingE||, CODE, READONLY, ALIGN=1

                  _ZN4Anki5Cozmo8Messages26ProcessAbortDockingMessageERKNS1_12AbortDockingE PROC ; Anki::Cozmo::Messages::ProcessAbortDockingMessage(const Anki::Cozmo::Messages::AbortDocking&)
;;;493    
;;;494          void ProcessAbortDockingMessage(const AbortDocking& msg)
000000  f7ffbffe          B.W      _ZN4Anki5Cozmo17DockingController11ResetDockerEv ; Anki::Cozmo::DockingController::ResetDocker()
;;;495          {
;;;496            DockingController::ResetDocker();
;;;497          }
;;;498    
                          ENDP


                          AREA ||i._ZN4Anki5Cozmo8Messages26ProcessFaceTrackingMessageERKNS1_12FaceTrackingE||, CODE, READONLY, ALIGN=2

                  _ZN4Anki5Cozmo8Messages26ProcessFaceTrackingMessageERKNS1_12FaceTrackingE PROC ; Anki::Cozmo::Messages::ProcessFaceTrackingMessage(const Anki::Cozmo::Messages::FaceTracking&)
;;;476    
;;;477          void ProcessFaceTrackingMessage(const FaceTracking& msg)
000000  b538              PUSH     {r3-r5,lr}
;;;478          {
000002  4604              MOV      r4,r0
;;;479            if(msg.enabled) {
000004  7800              LDRB     r0,[r0,#0]
000006  b148              CBZ      r0,|L20.28|
;;;480              PRINT("Starting face tracking with timeout = %dsec.\n", msg.timeout_sec);
000008  7861              LDRB     r1,[r4,#1]
00000a  a009              ADR      r0,|L20.48|
00000c  f7fffffe          BL       _ZN4Anki5Cozmo8Messages8SendTextEPKcz ; Anki::Cozmo::Messages::SendText(const char*, ...)
;;;481              FaceTrackingController::StartTracking(FaceTrackingController::LARGEST, msg.timeout_sec);
000010  7861              LDRB     r1,[r4,#1]
000012  e8bd4038          POP      {r3-r5,lr}
000016  2000              MOVS     r0,#0
000018  f7ffbffe          B.W      _ZN4Anki5Cozmo22FaceTrackingController13StartTrackingENS1_19FaceSelectionMethodEj ; Anki::Cozmo::FaceTrackingController::StartTracking(Anki::Cozmo::FaceTrackingController::FaceSelectionMethod, unsigned)
                  |L20.28|
;;;482            } else {
;;;483              PRINT("Stopping face tracking.\n");
00001c  a010              ADR      r0,|L20.96|
00001e  a901              ADD      r1,sp,#4
000020  9000              STR      r0,[sp,#0]
000022  f7fffffe          BL       _ZN4Anki5Cozmo8Messages8SendTextEPKcSt9__va_list ; Anki::Cozmo::Messages::SendText(const char*, std::__va_list)
;;;484              FaceTrackingController::Reset();
000026  e8bd4038          POP      {r3-r5,lr}
00002a  f7ffbffe          B.W      _ZN4Anki5Cozmo22FaceTrackingController5ResetEv ; Anki::Cozmo::FaceTrackingController::Reset()
;;;485            }
;;;486          }
;;;487    
                          ENDP

00002e  0000              DCW      0x0000
                  |L20.48|
000030  53746172          DCB      "Starting face tracking with timeout = %dsec.\n",0
000034  74696e67
000038  20666163
00003c  65207472
000040  61636b69
000044  6e672077
000048  69746820
00004c  74696d65
000050  6f757420
000054  3d202564
000058  7365632e
00005c  0a00    
00005e  00                DCB      0
00005f  00                DCB      0
                  |L20.96|
000060  53746f70          DCB      "Stopping face tracking.\n",0
000064  70696e67
000068  20666163
00006c  65207472
000070  61636b69
000074  6e672e0a
000078  00      
000079  00                DCB      0
00007a  00                DCB      0
00007b  00                DCB      0

                          AREA ||i._ZN4Anki5Cozmo8Messages26ProcessImageRequestMessageERKNS1_12ImageRequestE||, CODE, READONLY, ALIGN=2

                  _ZN4Anki5Cozmo8Messages26ProcessImageRequestMessageERKNS1_12ImageRequestE PROC ; Anki::Cozmo::Messages::ProcessImageRequestMessage(const Anki::Cozmo::Messages::ImageRequest&)
;;;422    
;;;423          void ProcessImageRequestMessage(const ImageRequest& msg) {
000000  b510              PUSH     {r4,lr}
000002  4604              MOV      r4,r0
;;;424            PRINT("Image requested (mode: %d, resolution: %d)\n", msg.imageSendMode, msg.resolution);
000004  7842              LDRB     r2,[r0,#1]
000006  7801              LDRB     r1,[r0,#0]
000008  a004              ADR      r0,|L21.28|
00000a  f7fffffe          BL       _ZN4Anki5Cozmo8Messages8SendTextEPKcz ; Anki::Cozmo::Messages::SendText(const char*, ...)
;;;425            VisionSystem::SetImageSendMode((ImageSendMode_t)msg.imageSendMode, (Vision::CameraResolution)msg.resolution);
00000e  7861              LDRB     r1,[r4,#1]
000010  7820              LDRB     r0,[r4,#0]
000012  e8bd4010          POP      {r4,lr}
000016  f7ffbffe          B.W      _ZN4Anki5Cozmo12VisionSystem16SetImageSendModeENS0_15ImageSendMode_tENS_6Vision16CameraResolutionE ; Anki::Cozmo::VisionSystem::SetImageSendMode(Anki::Cozmo::ImageSendMode_t, Anki::Vision::CameraResolution)
;;;426          }
;;;427    
                          ENDP

00001a  0000              DCW      0x0000
                  |L21.28|
00001c  496d6167          DCB      "Image requested (mode: %d, resolution: %d)\n",0
000020  65207265
000024  71756573
000028  74656420
00002c  286d6f64
000030  653a2025
000034  642c2072
000038  65736f6c
00003c  7574696f
000040  6e3a2025
000044  64290a00

                          AREA ||i._ZN4Anki5Cozmo8Messages26ProcessSetHeadAngleMessageERKNS1_12SetHeadAngleE||, CODE, READONLY, ALIGN=1

                  _ZN4Anki5Cozmo8Messages26ProcessSetHeadAngleMessageERKNS1_12SetHeadAngleE PROC ; Anki::Cozmo::Messages::ProcessSetHeadAngleMessage(const Anki::Cozmo::Messages::SetHeadAngle&)
;;;398    
;;;399          void ProcessSetHeadAngleMessage(const SetHeadAngle& msg) {
000000  b510              PUSH     {r4,lr}
000002  4604              MOV      r4,r0
;;;400            HeadController::SetSpeedAndAccel(msg.max_speed_rad_per_sec, msg.accel_rad_per_sec2);
000004  edd00a02          VLDR     s1,[r0,#8]
000008  ed900a01          VLDR     s0,[r0,#4]
00000c  f7fffffe          BL       _ZN4Anki5Cozmo14HeadController16SetSpeedAndAccelEff ; Anki::Cozmo::HeadController::SetSpeedAndAccel(float, float)
;;;401            HeadController::SetDesiredAngle(msg.angle_rad);
000010  ed940a00          VLDR     s0,[r4,#0]
000014  e8bd4010          POP      {r4,lr}
000018  f7ffbffe          B.W      _ZN4Anki5Cozmo14HeadController15SetDesiredAngleEf ; Anki::Cozmo::HeadController::SetDesiredAngle(float)
;;;402          }
;;;403    
                          ENDP


                          AREA ||i._ZN4Anki5Cozmo8Messages26ProcessSetHeadlightMessageERKNS1_12SetHeadlightE||, CODE, READONLY, ALIGN=1

                  _ZN4Anki5Cozmo8Messages26ProcessSetHeadlightMessageERKNS1_12SetHeadlightE PROC ; Anki::Cozmo::Messages::ProcessSetHeadlightMessage(const Anki::Cozmo::Messages::SetHeadlight&)
;;;427    
;;;428          void ProcessSetHeadlightMessage(const SetHeadlight& msg) {
000000  7800              LDRB     r0,[r0,#0]
;;;429            HAL::SetHeadlights(msg.intensity > 0);
000002  2800              CMP      r0,#0
000004  bf18              IT       NE
000006  2001              MOVNE    r0,#1
000008  f7ffbffe          B.W      _ZN4Anki5Cozmo3HAL13SetHeadlightsEb ; Anki::Cozmo::HAL::SetHeadlights(bool)
;;;430          }
;;;431    
                          ENDP


                          AREA ||i._ZN4Anki5Cozmo8Messages27ProcessFaceDetectionMessageERKNS1_13FaceDetectionE||, CODE, READONLY, ALIGN=2

                  _ZN4Anki5Cozmo8Messages27ProcessFaceDetectionMessageERKNS1_13FaceDetectionE PROC ; Anki::Cozmo::Messages::ProcessFaceDetectionMessage(const Anki::Cozmo::Messages::FaceDetection&)
;;;269    
;;;270          void ProcessFaceDetectionMessage(const FaceDetection& msg)
000000  b083              SUB      sp,sp,#0xc
;;;271          {
;;;272            // Just pass the face detection along to mainExecution to deal with.
;;;273            faceDetectMailbox_.putMessage(msg);
000002  6802              LDR      r2,[r0,#0]
000004  9200              STR      r2,[sp,#0]
000006  6842              LDR      r2,[r0,#4]
000008  4911              LDR      r1,|L24.80|
00000a  9201              STR      r2,[sp,#4]
00000c  8900              LDRH     r0,[r0,#8]
00000e  f8ad0008          STRH     r0,[sp,#8]
000012  f89100c1          LDRB     r0,[r1,#0xc1]
000016  eb000040          ADD      r0,r0,r0,LSL #1
00001a  eb010080          ADD      r0,r1,r0,LSL #2
00001e  7ac2              LDRB     r2,[r0,#0xb]
000020  2a00              CMP      r2,#0                 ;271
;;;274          }
000022  bf1c              ITT      NE
000024  b003              ADDNE    sp,sp,#0xc
000026  4770              BXNE     lr
000028  9a00              LDR      r2,[sp,#0]
00002a  6002              STR      r2,[r0,#0]
00002c  9a01              LDR      r2,[sp,#4]
00002e  6042              STR      r2,[r0,#4]
000030  f8bd2008          LDRH     r2,[sp,#8]
000034  8102              STRH     r2,[r0,#8]
000036  2200              MOVS     r2,#0
000038  7282              STRB     r2,[r0,#0xa]
00003a  72c2              STRB     r2,[r0,#0xb]
00003c  f8110fc1          LDRB     r0,[r1,#0xc1]!
000040  1c40              ADDS     r0,r0,#1
000042  b2c0              UXTB     r0,r0
000044  7008              STRB     r0,[r1,#0]
000046  2810              CMP      r0,#0x10
000048  bf08              IT       EQ
00004a  700a              STRBEQ   r2,[r1,#0]
00004c  b003              ADD      sp,sp,#0xc
00004e  4770              BX       lr
;;;275    
                          ENDP

                  |L24.80|
                          DCD      ||.bss||+0x11c

                          AREA ||i._ZN4Anki5Cozmo8Messages27ProcessFlashBlockIDsMessageERKNS1_13FlashBlockIDsE||, CODE, READONLY, ALIGN=1

                  _ZN4Anki5Cozmo8Messages27ProcessFlashBlockIDsMessageERKNS1_13FlashBlockIDsE PROC ; Anki::Cozmo::Messages::ProcessFlashBlockIDsMessage(const Anki::Cozmo::Messages::FlashBlockIDs&)
;;;814    
;;;815          void ProcessFlashBlockIDsMessage(const FlashBlockIDs& msg)
000000  b508              PUSH     {r3,lr}
;;;816          {
;;;817            // Start flash pattern on blocks
;;;818            HAL::FlashBlockIDs();
000002  f7fffffe          BL       _ZN4Anki5Cozmo3HAL13FlashBlockIDsEv ; Anki::Cozmo::HAL::FlashBlockIDs()
;;;819    
;;;820            // Send timestamp of when flash message was sent to blocks
;;;821            Messages::BlockIDFlashStarted m;
;;;822            m.timestamp = HAL::GetTimeStamp();
000006  f7fffffe          BL       _ZN4Anki5Cozmo3HAL12GetTimeStampEv ; Anki::Cozmo::HAL::GetTimeStamp()
;;;823            HAL::RadioSendMessage(GET_MESSAGE_ID(Messages::BlockIDFlashStarted), &m);
00000a  9000              STR      r0,[sp,#0]
00000c  4669              MOV      r1,sp
00000e  204e              MOVS     r0,#0x4e
000010  f7fffffe          BL       _ZN4Anki5Cozmo3HAL16RadioSendMessageENS0_8Messages2IDEPKv ; Anki::Cozmo::HAL::RadioSendMessage(Anki::Cozmo::Messages::ID, const void*)
;;;824          }
000014  bd08              POP      {r3,pc}
;;;825    
                          ENDP


                          AREA ||i._ZN4Anki5Cozmo8Messages27ProcessPlayAnimationMessageERKNS1_13PlayAnimationE||, CODE, READONLY, ALIGN=1

                  _ZN4Anki5Cozmo8Messages27ProcessPlayAnimationMessageERKNS1_13PlayAnimationE PROC ; Anki::Cozmo::Messages::ProcessPlayAnimationMessage(const Anki::Cozmo::Messages::PlayAnimation&)
;;;502    
;;;503          void ProcessPlayAnimationMessage(const PlayAnimation& msg) {
000000  6801              LDR      r1,[r0,#0]
;;;504            //PRINT("Processing play animation message\n");
;;;505            AnimationController::Play((AnimationID_t)msg.animationID, msg.numLoops);
000002  7900              LDRB     r0,[r0,#4]
000004  f7ffbffe          B.W      _ZN4Anki5Cozmo19AnimationController4PlayEij ; Anki::Cozmo::AnimationController::Play(int, unsigned)
;;;506          }
;;;507    
                          ENDP


                          AREA ||i._ZN4Anki5Cozmo8Messages27ProcessSetLiftHeightMessageERKNS1_13SetLiftHeightE||, CODE, READONLY, ALIGN=1

                  _ZN4Anki5Cozmo8Messages27ProcessSetLiftHeightMessageERKNS1_13SetLiftHeightE PROC ; Anki::Cozmo::Messages::ProcessSetLiftHeightMessage(const Anki::Cozmo::Messages::SetLiftHeight&)
;;;393    
;;;394          void ProcessSetLiftHeightMessage(const SetLiftHeight& msg) {
000000  b510              PUSH     {r4,lr}
000002  4604              MOV      r4,r0
;;;395            LiftController::SetSpeedAndAccel(msg.max_speed_rad_per_sec, msg.accel_rad_per_sec2);
000004  edd00a02          VLDR     s1,[r0,#8]
000008  ed900a01          VLDR     s0,[r0,#4]
00000c  f7fffffe          BL       _ZN4Anki5Cozmo14LiftController16SetSpeedAndAccelEff ; Anki::Cozmo::LiftController::SetSpeedAndAccel(float, float)
;;;396            LiftController::SetDesiredHeight(msg.height_mm);
000010  ed940a00          VLDR     s0,[r4,#0]
000014  e8bd4010          POP      {r4,lr}
000018  f7ffbffe          B.W      _ZN4Anki5Cozmo14LiftController16SetDesiredHeightEf ; Anki::Cozmo::LiftController::SetDesiredHeight(float)
;;;397          }
;;;398    
                          ENDP


                          AREA ||i._ZN4Anki5Cozmo8Messages27ProcessStartTestModeMessageERKNS1_13StartTestModeE||, CODE, READONLY, ALIGN=2

                  _ZN4Anki5Cozmo8Messages27ProcessStartTestModeMessageERKNS1_13StartTestModeE PROC ; Anki::Cozmo::Messages::ProcessStartTestModeMessage(const Anki::Cozmo::Messages::StartTestMode&)
;;;413    
;;;414          void ProcessStartTestModeMessage(const StartTestMode& msg)
000000  f890c00c          LDRB     r12,[r0,#0xc]
;;;415          {
;;;416            if (msg.mode < TM_NUM_TESTS) {
000004  f1bc0f0f          CMP      r12,#0xf
000008  d205              BCS      |L28.22|
;;;417              TestModeController::Start((TestMode)(msg.mode), msg.p1, msg.p2, msg.p3);
00000a  e9d01200          LDRD     r1,r2,[r0,#0]
00000e  6883              LDR      r3,[r0,#8]
000010  4660              MOV      r0,r12
000012  f7ffbffe          B.W      _ZN4Anki5Cozmo18TestModeController5StartENS0_8TestModeEiii ; Anki::Cozmo::TestModeController::Start(Anki::Cozmo::TestMode, int, int, int)
                  |L28.22|
000016  4661              MOV      r1,r12
;;;418            } else {
;;;419              PRINT("Unknown test mode %d received\n", msg.mode);
000018  a001              ADR      r0,|L28.32|
00001a  f7ffbffe          B.W      _ZN4Anki5Cozmo8Messages8SendTextEPKcz ; Anki::Cozmo::Messages::SendText(const char*, ...)
;;;420            }
;;;421          }
;;;422    
                          ENDP

00001e  0000              DCW      0x0000
                  |L28.32|
000020  556e6b6e          DCB      "Unknown test mode %d received\n",0
000024  6f776e20
000028  74657374
00002c  206d6f64
000030  65202564
000034  20726563
000038  65697665
00003c  640a00  
00003f  00                DCB      0

                          AREA ||i._ZN4Anki5Cozmo8Messages27ProcessStopAllMotorsMessageERKNS1_13StopAllMotorsE||, CODE, READONLY, ALIGN=2

                  _ZN4Anki5Cozmo8Messages27ProcessStopAllMotorsMessageERKNS1_13StopAllMotorsE PROC ; Anki::Cozmo::Messages::ProcessStopAllMotorsMessage(const Anki::Cozmo::Messages::StopAllMotors&)
;;;403    
;;;404          void ProcessStopAllMotorsMessage(const StopAllMotors& msg) {
000000  b510              PUSH     {r4,lr}
000002  ed2d8b02          VPUSH    {d8}
;;;405            SteeringController::ExecuteDirectDrive(0,0);
000006  ed9f8a0c          VLDR     s16,|L29.56|
00000a  eef01a48          VMOV.F32 s3,s16
00000e  eeb01a48          VMOV.F32 s2,s16
000012  eef00a48          VMOV.F32 s1,s16
000016  eeb00a48          VMOV.F32 s0,s16
00001a  f7fffffe          BL       _ZN4Anki5Cozmo18SteeringController18ExecuteDirectDriveEffff ; Anki::Cozmo::SteeringController::ExecuteDirectDrive(float, float, float, float)
;;;406            LiftController::SetAngularVelocity(0);
00001e  eeb00a48          VMOV.F32 s0,s16
000022  f7fffffe          BL       _ZN4Anki5Cozmo14LiftController18SetAngularVelocityEf ; Anki::Cozmo::LiftController::SetAngularVelocity(float)
;;;407            HeadController::SetAngularVelocity(0);
000026  eeb00a48          VMOV.F32 s0,s16
00002a  ecbd8b02          VPOP     {d8}
00002e  e8bd4010          POP      {r4,lr}
000032  f7ffbffe          B.W      _ZN4Anki5Cozmo14HeadController18SetAngularVelocityEf ; Anki::Cozmo::HeadController::SetAngularVelocity(float)
;;;408          }
;;;409    
                          ENDP

000036  0000              DCW      0x0000
                  |L29.56|
000038  00000000          DCFS     0x00000000 ; 0

                          AREA ||i._ZN4Anki5Cozmo8Messages28ProcessAbortAnimationMessageERKNS1_14AbortAnimationE||, CODE, READONLY, ALIGN=1

                  _ZN4Anki5Cozmo8Messages28ProcessAbortAnimationMessageERKNS1_14AbortAnimationE PROC ; Anki::Cozmo::Messages::ProcessAbortAnimationMessage(const Anki::Cozmo::Messages::AbortAnimation&)
;;;511    
;;;512          void ProcessAbortAnimationMessage(const AbortAnimation& msg)
000000  f7ffbffe          B.W      _ZN4Anki5Cozmo19AnimationController4StopEv ; Anki::Cozmo::AnimationController::Stop()
;;;513          {
;;;514            AnimationController::Stop();
;;;515          }
;;;516    
                          ENDP


                          AREA ||i._ZN4Anki5Cozmo8Messages28ProcessDockWithObjectMessageERKNS1_14DockWithObjectE||, CODE, READONLY, ALIGN=1

                  _ZN4Anki5Cozmo8Messages28ProcessDockWithObjectMessageERKNS1_14DockWithObjectE PROC ; Anki::Cozmo::Messages::ProcessDockWithObjectMessage(const Anki::Cozmo::Messages::DockWithObject&)
;;;324    
;;;325          void ProcessDockWithObjectMessage(const DockWithObject& msg)
000000  b500              PUSH     {lr}
;;;326          {
;;;327            if (msg.pixel_radius < u8_MAX) {
000002  7b01              LDRB     r1,[r0,#0xc]
000004  b085              SUB      sp,sp,#0x14           ;326
000006  29ff              CMP      r1,#0xff
000008  d222              BCS      |L31.80|
;;;328              Embedded::Point2f markerCenter(static_cast<f32>(msg.image_pixel_x), static_cast<f32>(msg.image_pixel_y));
00000a  8901              LDRH     r1,[r0,#8]
00000c  ee001a10          VMOV     s0,r1
000010  8941              LDRH     r1,[r0,#0xa]
000012  eef80a40          VCVT.F32.U32 s1,s0
000016  ee001a10          VMOV     s0,r1
00001a  edcd0a02          VSTR     s1,[sp,#8]
00001e  eeb80a40          VCVT.F32.U32 s0,s0
000022  ed8d0a03          VSTR     s0,[sp,#0xc]
;;;329    
;;;330              PickAndPlaceController::DockToBlock(static_cast<Vision::MarkerType>(msg.markerType),
000026  7b41              LDRB     r1,[r0,#0xd]
000028  9100              STR      r1,[sp,#0]
00002a  7c01              LDRB     r1,[r0,#0x10]
00002c  2900              CMP      r1,#0
00002e  bf14              ITE      NE
000030  2301              MOVNE    r3,#1
000032  2300              MOVEQ    r3,#0
000034  7b01              LDRB     r1,[r0,#0xc]
000036  aa02              ADD      r2,sp,#8
000038  ee001a10          VMOV     s0,r1
00003c  7bc1              LDRB     r1,[r0,#0xf]
00003e  eef80a40          VCVT.F32.U32 s1,s0
000042  ed900a01          VLDR     s0,[r0,#4]
000046  7b80              LDRB     r0,[r0,#0xe]
000048  f7fffffe          BL       _ZN4Anki5Cozmo22PickAndPlaceController11DockToBlockENS_6Vision10MarkerTypeES3_fRKNS_8Embedded5PointIfEEfbNS0_12DockAction_tE ; Anki::Cozmo::PickAndPlaceController::DockToBlock(Anki::Vision::MarkerType, Anki::Vision::MarkerType, float, const Anki::Embedded::Point<float>&, float, bool, Anki::Cozmo::DockAction_t)
;;;331                                                  static_cast<Vision::MarkerType>(msg.markerType2),
;;;332                                                  msg.markerWidth_mm,
;;;333                                                  markerCenter,
;;;334                                                  msg.pixel_radius,
;;;335                                                  msg.useManualSpeed,
;;;336                                                  static_cast<DockAction_t>(msg.dockAction));
;;;337            } else {
;;;338    
;;;339              PickAndPlaceController::DockToBlock(static_cast<Vision::MarkerType>(msg.markerType),
;;;340                                                  static_cast<Vision::MarkerType>(msg.markerType2),
;;;341                                                  msg.markerWidth_mm,
;;;342                                                  msg.useManualSpeed,
;;;343                                                  static_cast<DockAction_t>(msg.dockAction));
;;;344            }
;;;345          }
00004c  b005              ADD      sp,sp,#0x14
00004e  bd00              POP      {pc}
                  |L31.80|
000050  7c01              LDRB     r1,[r0,#0x10]         ;339
000052  7b43              LDRB     r3,[r0,#0xd]          ;339
000054  2900              CMP      r1,#0                 ;339
000056  bf14              ITE      NE                    ;339
000058  2201              MOVNE    r2,#1                 ;339
00005a  2200              MOVEQ    r2,#0                 ;339
00005c  ed900a01          VLDR     s0,[r0,#4]            ;339
000060  7bc1              LDRB     r1,[r0,#0xf]          ;339
000062  7b80              LDRB     r0,[r0,#0xe]          ;339
000064  b005              ADD      sp,sp,#0x14           ;339
000066  f85deb04          POP      {lr}                  ;339
00006a  f7ffbffe          B.W      _ZN4Anki5Cozmo22PickAndPlaceController11DockToBlockENS_6Vision10MarkerTypeES3_fbNS0_12DockAction_tE ; Anki::Cozmo::PickAndPlaceController::DockToBlock(Anki::Vision::MarkerType, Anki::Vision::MarkerType, float, bool, Anki::Cozmo::DockAction_t)
;;;346    
                          ENDP


                          AREA ||i._ZN4Anki5Cozmo8Messages28ProcessPanAndTiltHeadMessageERKNS1_14PanAndTiltHeadE||, CODE, READONLY, ALIGN=2

                  _ZN4Anki5Cozmo8Messages28ProcessPanAndTiltHeadMessageERKNS1_14PanAndTiltHeadE PROC ; Anki::Cozmo::Messages::ProcessPanAndTiltHeadMessage(const Anki::Cozmo::Messages::PanAndTiltHead&)
;;;777    
;;;778          void ProcessPanAndTiltHeadMessage(const PanAndTiltHead& msg)
000000  b510              PUSH     {r4,lr}
;;;779          {
000002  4604              MOV      r4,r0
000004  ed2d8b02          VPUSH    {d8}
000008  b082              SUB      sp,sp,#8
;;;780            // TODO: Move this to some kind of VisualInterestTrackingController or something
;;;781    
;;;782            HeadController::SetDesiredAngle(msg.relativeHeadTiltAngle_rad + HeadController::GetAngleRad());
00000a  f7fffffe          BL       _ZN4Anki5Cozmo14HeadController11GetAngleRadEv ; Anki::Cozmo::HeadController::GetAngleRad()
00000e  edd40a01          VLDR     s1,[r4,#4]
000012  ee300a20          VADD.F32 s0,s0,s1
000016  f7fffffe          BL       _ZN4Anki5Cozmo14HeadController15SetDesiredAngleEf ; Anki::Cozmo::HeadController::SetDesiredAngle(float)
;;;783    
;;;784            const f32 turnVelocity = (msg.relativePanAngle_rad < 0 ? -50.f : 50.f);
00001a  ed940a00          VLDR     s0,[r4,#0]
00001e  eeb50ac0          VCMPE.F32 s0,#0.0
000022  eef1fa10          VMRS     APSR_nzcv,FPSCR
000026  bf34              ITE      CC
000028  ed9f8a0c          VLDRCC   s16,|L32.92|
00002c  ed9f8a0c          VLDRCS   s16,|L32.96|
;;;785            SteeringController::ExecutePointTurn(msg.relativePanAngle_rad + Localization::GetCurrentMatOrientation().ToFloat(),
000030  4668              MOV      r0,sp
000032  f7fffffe          BL       _ZN4Anki5Cozmo12Localization24GetCurrentMatOrientationEv ; Anki::Cozmo::Localization::GetCurrentMatOrientation()
000036  ed9d0a00          VLDR     s0,[sp,#0]
00003a  ed941a00          VLDR     s2,[r4,#0]
00003e  eef91a04          VMOV.F32 s3,#-5.00000000
000042  eef00a48          VMOV.F32 s1,s16
000046  ee300a01          VADD.F32 s0,s0,s2
00004a  eeb11a04          VMOV.F32 s2,#5.00000000
00004e  f7fffffe          BL       _ZN4Anki5Cozmo18SteeringController16ExecutePointTurnEffff ; Anki::Cozmo::SteeringController::ExecutePointTurn(float, float, float, float)
;;;786                                                 turnVelocity, 5, -5);
;;;787    
;;;788    
;;;789          }
000052  b002              ADD      sp,sp,#8
000054  ecbd8b02          VPOP     {d8}
000058  bd10              POP      {r4,pc}
;;;790    
                          ENDP

00005a  0000              DCW      0x0000
                  |L32.92|
00005c  c2480000          DCFS     0xc2480000 ; -50
                  |L32.96|
000060  42480000          DCFS     0x42480000 ; 50

                          AREA ||i._ZN4Anki5Cozmo8Messages28ProcessSetBlockLightsMessageERKNS1_14SetBlockLightsE||, CODE, READONLY, ALIGN=1

                  _ZN4Anki5Cozmo8Messages28ProcessSetBlockLightsMessageERKNS1_14SetBlockLightsE PROC ; Anki::Cozmo::Messages::ProcessSetBlockLightsMessage(const Anki::Cozmo::Messages::SetBlockLights&)
;;;825    
;;;826          void ProcessSetBlockLightsMessage(const SetBlockLights& msg)
000000  4601              MOV      r1,r0
;;;827          {
;;;828            HAL::SetBlockLight(msg.blockID, msg.color);
000002  f8900020          LDRB     r0,[r0,#0x20]
000006  f7ffbffe          B.W      _ZN4Anki5Cozmo3HAL13SetBlockLightEhPKj ; Anki::Cozmo::HAL::SetBlockLight(unsigned char, const unsigned*)
;;;829          }
;;;830    
                          ENDP


                          AREA ||i._ZN4Anki5Cozmo8Messages29ProcessHeadAngleUpdateMessageERKNS1_15HeadAngleUpdateE||, CODE, READONLY, ALIGN=1

                  _ZN4Anki5Cozmo8Messages29ProcessHeadAngleUpdateMessageERKNS1_15HeadAngleUpdateE PROC ; Anki::Cozmo::Messages::ProcessHeadAngleUpdateMessage(const Anki::Cozmo::Messages::HeadAngleUpdate&)
;;;409    
;;;410          void ProcessHeadAngleUpdateMessage(const HeadAngleUpdate& msg) {
000000  ed900a00          VLDR     s0,[r0,#0]
;;;411            HeadController::SetAngleRad(msg.newAngle);
000004  f7ffbffe          B.W      _ZN4Anki5Cozmo14HeadController11SetAngleRadEf ; Anki::Cozmo::HeadController::SetAngleRad(float)
;;;412          }
;;;413    
                          ENDP


                          AREA ||i._ZN4Anki5Cozmo8Messages30ProcessSetDefaultLightsMessageERKNS1_16SetDefaultLightsE||, CODE, READONLY, ALIGN=1

                  _ZN4Anki5Cozmo8Messages30ProcessSetDefaultLightsMessageERKNS1_16SetDefaultLightsE PROC ; Anki::Cozmo::Messages::ProcessSetDefaultLightsMessage(const Anki::Cozmo::Messages::SetDefaultLights&)
;;;431    
;;;432          void ProcessSetDefaultLightsMessage(const SetDefaultLights& msg) {
000000  b570              PUSH     {r4-r6,lr}
;;;433            u32 lColor = msg.eye_left_color;
;;;434            HAL::SetLED(LED_LEFT_EYE_TOP, lColor);
000002  6805              LDR      r5,[r0,#0]
000004  4604              MOV      r4,r0                 ;432
000006  4629              MOV      r1,r5
000008  2004              MOVS     r0,#4
00000a  f7fffffe          BL       _ZN4Anki5Cozmo3HAL6SetLEDENS0_5LEDIdEj ; Anki::Cozmo::HAL::SetLED(Anki::Cozmo::LEDId, unsigned)
;;;435            HAL::SetLED(LED_LEFT_EYE_RIGHT, lColor);
00000e  4629              MOV      r1,r5
000010  2005              MOVS     r0,#5
000012  f7fffffe          BL       _ZN4Anki5Cozmo3HAL6SetLEDENS0_5LEDIdEj ; Anki::Cozmo::HAL::SetLED(Anki::Cozmo::LEDId, unsigned)
;;;436            HAL::SetLED(LED_LEFT_EYE_BOTTOM, lColor);
000016  4629              MOV      r1,r5
000018  2006              MOVS     r0,#6
00001a  f7fffffe          BL       _ZN4Anki5Cozmo3HAL6SetLEDENS0_5LEDIdEj ; Anki::Cozmo::HAL::SetLED(Anki::Cozmo::LEDId, unsigned)
;;;437            HAL::SetLED(LED_LEFT_EYE_LEFT, lColor);
00001e  4629              MOV      r1,r5
000020  2007              MOVS     r0,#7
000022  f7fffffe          BL       _ZN4Anki5Cozmo3HAL6SetLEDENS0_5LEDIdEj ; Anki::Cozmo::HAL::SetLED(Anki::Cozmo::LEDId, unsigned)
;;;438    
;;;439            u32 rColor = msg.eye_right_color;
000026  6864              LDR      r4,[r4,#4]
;;;440            HAL::SetLED(LED_RIGHT_EYE_TOP, rColor);
000028  2000              MOVS     r0,#0
00002a  4621              MOV      r1,r4
00002c  f7fffffe          BL       _ZN4Anki5Cozmo3HAL6SetLEDENS0_5LEDIdEj ; Anki::Cozmo::HAL::SetLED(Anki::Cozmo::LEDId, unsigned)
;;;441            HAL::SetLED(LED_RIGHT_EYE_RIGHT, rColor);
000030  4621              MOV      r1,r4
000032  2001              MOVS     r0,#1
000034  f7fffffe          BL       _ZN4Anki5Cozmo3HAL6SetLEDENS0_5LEDIdEj ; Anki::Cozmo::HAL::SetLED(Anki::Cozmo::LEDId, unsigned)
;;;442            HAL::SetLED(LED_RIGHT_EYE_BOTTOM, rColor);
000038  4621              MOV      r1,r4
00003a  2002              MOVS     r0,#2
00003c  f7fffffe          BL       _ZN4Anki5Cozmo3HAL6SetLEDENS0_5LEDIdEj ; Anki::Cozmo::HAL::SetLED(Anki::Cozmo::LEDId, unsigned)
;;;443            HAL::SetLED(LED_RIGHT_EYE_LEFT, rColor);
000040  4621              MOV      r1,r4
000042  e8bd4070          POP      {r4-r6,lr}
000046  2003              MOVS     r0,#3
000048  f7ffbffe          B.W      _ZN4Anki5Cozmo3HAL6SetLEDENS0_5LEDIdEj ; Anki::Cozmo::HAL::SetLED(Anki::Cozmo::LEDId, unsigned)
;;;444          }
;;;445    
                          ENDP


                          AREA ||i._ZN4Anki5Cozmo8Messages32ProcessDockingErrorSignalMessageERKNS1_18DockingErrorSignalE||, CODE, READONLY, ALIGN=2

                  _ZN4Anki5Cozmo8Messages32ProcessDockingErrorSignalMessageERKNS1_18DockingErrorSignalE PROC ; Anki::Cozmo::Messages::ProcessDockingErrorSignalMessage(const Anki::Cozmo::Messages::DockingErrorSignal&)
;;;260    
;;;261          void ProcessDockingErrorSignalMessage(const DockingErrorSignal& msg)
000000  b470              PUSH     {r4-r6}
;;;262          {
;;;263            // Just pass the docking error signal along to the mainExecution to
;;;264            // deal with. Note that if the message indicates tracking failed,
;;;265            // the mainExecution thread should handle it, and put the vision
;;;266            // system back in LOOKING_FOR_BLOCKS mode.
;;;267            dockingMailbox_.putMessage(msg);
000002  e9d02300          LDRD     r2,r3,[r0,#0]
000006  e9d04503          LDRD     r4,r5,[r0,#0xc]
00000a  490a              LDR      r1,|L36.52|
00000c  f8d0c008          LDR      r12,[r0,#8]
000010  6940              LDR      r0,[r0,#0x14]
000012  7e4e              LDRB     r6,[r1,#0x19]
000014  2e00              CMP      r6,#0                 ;262
;;;268          }
000016  bf1c              ITT      NE
000018  bc70              POPNE    {r4-r6}
00001a  4770              BXNE     lr
00001c  e9c15004          STRD     r5,r0,[r1,#0x10]
000020  e9c12300          STRD     r2,r3,[r1,#0]
000024  e9c1c402          STRD     r12,r4,[r1,#8]
000028  2000              MOVS     r0,#0
00002a  7608              STRB     r0,[r1,#0x18]
00002c  7648              STRB     r0,[r1,#0x19]
00002e  bc70              POP      {r4-r6}
000030  4770              BX       lr
;;;269    
                          ENDP

000032  0000              DCW      0x0000
                  |L36.52|
                          DCD      ||.bss||+0x100

                          AREA ||i._ZN4Anki5Cozmo8Messages33ProcessPlaceObjectOnGroundMessageERKNS1_19PlaceObjectOnGroundE||, CODE, READONLY, ALIGN=1

                  _ZN4Anki5Cozmo8Messages33ProcessPlaceObjectOnGroundMessageERKNS1_19PlaceObjectOnGroundE PROC ; Anki::Cozmo::Messages::ProcessPlaceObjectOnGroundMessage(const Anki::Cozmo::Messages::PlaceObjectOnGround&)
;;;346    
;;;347          void ProcessPlaceObjectOnGroundMessage(const PlaceObjectOnGround& msg)
000000  7b01              LDRB     r1,[r0,#0xc]
;;;348          {
;;;349            //PRINT("Received PlaceOnGround message.\n");
;;;350            PickAndPlaceController::PlaceOnGround(msg.rel_x_mm, msg.rel_y_mm, msg.rel_angle, msg.useManualSpeed);
000002  2900              CMP      r1,#0
000004  bf18              IT       NE
000006  2101              MOVNE    r1,#1
000008  ed901a02          VLDR     s2,[r0,#8]
00000c  edd00a01          VLDR     s1,[r0,#4]
000010  ed900a00          VLDR     s0,[r0,#0]
000014  4608              MOV      r0,r1
000016  f7ffbffe          B.W      _ZN4Anki5Cozmo22PickAndPlaceController13PlaceOnGroundEfffb ; Anki::Cozmo::PickAndPlaceController::PlaceOnGround(float, float, float, bool)
;;;351          }
;;;352    
                          ENDP


                          AREA ||i._ZN4Anki5Cozmo8Messages33ProcessSetFaceDetectParamsMessageERKNS1_19SetFaceDetectParamsE||, CODE, READONLY, ALIGN=1

                  _ZN4Anki5Cozmo8Messages33ProcessSetFaceDetectParamsMessageERKNS1_19SetFaceDetectParamsE PROC ; Anki::Cozmo::Messages::ProcessSetFaceDetectParamsMessage(const Anki::Cozmo::Messages::SetFaceDetectParams&)
;;;464    
;;;465          void ProcessSetFaceDetectParamsMessage(const SetFaceDetectParams& msg) {
000000  b508              PUSH     {r3,lr}
;;;466            VisionSystem::SetFaceDetectParams(msg.scaleFactor,
000002  6941              LDR      r1,[r0,#0x14]
000004  9100              STR      r1,[sp,#0]
000006  e9d01202          LDRD     r1,r2,[r0,#8]
00000a  f8d0c004          LDR      r12,[r0,#4]
00000e  6903              LDR      r3,[r0,#0x10]
000010  ed900a00          VLDR     s0,[r0,#0]
000014  4660              MOV      r0,r12
000016  f7fffffe          BL       _ZN4Anki5Cozmo12VisionSystem19SetFaceDetectParamsEfiiiii ; Anki::Cozmo::VisionSystem::SetFaceDetectParams(float, int, int, int, int, int)
;;;467                                              msg.minNeighbors,
;;;468                                              msg.minObjectHeight, msg.minObjectWidth,
;;;469                                              msg.maxObjectHeight, msg.maxObjectWidth);
;;;470          }
00001a  bd08              POP      {r3,pc}
;;;471    
                          ENDP


                          AREA ||i._ZN4Anki5Cozmo8Messages34ProcessAppendPathSegmentArcMessageERKNS1_20AppendPathSegmentArcE||, CODE, READONLY, ALIGN=1

                  _ZN4Anki5Cozmo8Messages34ProcessAppendPathSegmentArcMessageERKNS1_20AppendPathSegmentArcE PROC ; Anki::Cozmo::Messages::ProcessAppendPathSegmentArcMessage(const Anki::Cozmo::Messages::AppendPathSegmentArc&)
;;;299    
;;;300          void ProcessAppendPathSegmentArcMessage(const AppendPathSegmentArc& msg) {
000000  ec900a08          VLDM     r0,{s0-s7}
;;;301            PathFollower::AppendPathSegment_Arc(0, msg.x_center_mm, msg.y_center_mm,
000004  2000              MOVS     r0,#0
000006  f7ffbffe          B.W      _ZN4Anki5Cozmo12PathFollower21AppendPathSegment_ArcEjffffffff ; Anki::Cozmo::PathFollower::AppendPathSegment_Arc(unsigned, float, float, float, float, float, float, float, float)
;;;302                                                msg.radius_mm, msg.startRad, msg.sweepRad,
;;;303                                                msg.targetSpeed, msg.accel, msg.decel);
;;;304          }
;;;305    
                          ENDP


                          AREA ||i._ZN4Anki5Cozmo8Messages34ProcessClearCannedAnimationMessageERKNS1_20ClearCannedAnimationE||, CODE, READONLY, ALIGN=1

                  _ZN4Anki5Cozmo8Messages34ProcessClearCannedAnimationMessageERKNS1_20ClearCannedAnimationE PROC ; Anki::Cozmo::Messages::ProcessClearCannedAnimationMessage(const Anki::Cozmo::Messages::ClearCannedAnimation&)
;;;516    
;;;517          void ProcessClearCannedAnimationMessage(const ClearCannedAnimation& msg)
000000  7800              LDRB     r0,[r0,#0]
;;;518          {
;;;519            AnimationController::ClearCannedAnimation(msg.animationID);
000002  f7ffbffe          B.W      _ZN4Anki5Cozmo19AnimationController20ClearCannedAnimationEi ; Anki::Cozmo::AnimationController::ClearCannedAnimation(int)
;;;520          }
;;;521    
                          ENDP


                          AREA ||i._ZN4Anki5Cozmo8Messages34ProcessDriveWheelsCurvatureMessageERKNS1_20DriveWheelsCurvatureE||, CODE, READONLY, ALIGN=1

                  _ZN4Anki5Cozmo8Messages34ProcessDriveWheelsCurvatureMessageERKNS1_20DriveWheelsCurvatureE PROC ; Anki::Cozmo::Messages::ProcessDriveWheelsCurvatureMessage(const Anki::Cozmo::Messages::DriveWheelsCurvature&)
;;;375    
;;;376          void ProcessDriveWheelsCurvatureMessage(const DriveWheelsCurvature& msg) {
000000  4770              BX       lr
;;;377            /*
;;;378            PathFollower::ClearPath();
;;;379    
;;;380            SpeedController::SetUserCommandedDesiredVehicleSpeed(msg.speed_mmPerSec);
;;;381            SpeedController::SetUserCommandedAcceleration(msg.accel_mmPerSec2);
;;;382            SpeedController::SetUserCommandedDeceleration(msg.decel_mmPerSec2);
;;;383            */
;;;384          }
;;;385    
                          ENDP


                          AREA ||i._ZN4Anki5Cozmo8Messages35ProcessAbsLocalizationUpdateMessageERKNS1_21AbsLocalizationUpdateE||, CODE, READONLY, ALIGN=2

                  _ZN4Anki5Cozmo8Messages35ProcessAbsLocalizationUpdateMessageERKNS1_21AbsLocalizationUpdateE PROC ; Anki::Cozmo::Messages::ProcessAbsLocalizationUpdateMessage(const Anki::Cozmo::Messages::AbsLocalizationUpdate&)
;;;221    
;;;222          void ProcessAbsLocalizationUpdateMessage(const AbsLocalizationUpdate& msg)
000000  e92d43f0          PUSH     {r4-r9,lr}
;;;223          {
000004  4604              MOV      r4,r0
000006  ed2d8b02          VPUSH    {d8}
00000a  b089              SUB      sp,sp,#0x24
;;;224            // Don't modify localization while running path following test.
;;;225            // The point of the test is to see how well it follows a path
;;;226            // assuming perfect localization.
;;;227            if (TestModeController::GetMode() == TM_PATH_FOLLOW) {
00000c  f7fffffe          BL       _ZN4Anki5Cozmo18TestModeController7GetModeEv ; Anki::Cozmo::TestModeController::GetMode()
000010  2803              CMP      r0,#3
;;;228              return;
;;;229            }
;;;230    
;;;231            // TODO: Double-check that size matches expected size?
;;;232    
;;;233            // TODO: take advantage of timestamp
;;;234    
;;;235            f32 currentMatX       = msg.xPosition;
;;;236            f32 currentMatY       = msg.yPosition;
;;;237            Radians currentMatHeading = msg.headingAngle;
;;;238            Localization::UpdatePoseWithKeyframe(msg.pose_frame_id, msg.timestamp, currentMatX, currentMatY, currentMatHeading.ToFloat());
;;;239            //Localization::SetCurrentMatPose(currentMatX, currentMatY, currentMatHeading);
;;;240            //Localization::SetPoseFrameId(msg.pose_frame_id);
;;;241    
;;;242    
;;;243            PRINT("Robot received localization update from "
;;;244                  "basestation for time=%d: (%.3f,%.3f) at %.1f degrees (frame = %d)\n",
;;;245                  msg.timestamp,
;;;246                  currentMatX, currentMatY,
;;;247                  currentMatHeading.getDegrees(),
;;;248                  Localization::GetPoseFrameId());
;;;249    #if(USE_OVERLAY_DISPLAY)
;;;250            {
;;;251              using namespace Sim::OverlayDisplay;
;;;252              SetText(CURR_POSE, "Pose: (x,y)=(%.4f,%.4f) at angle=%.1f\n",
;;;253                      currentMatX, currentMatY,
;;;254                      currentMatHeading.getDegrees());
;;;255            }
;;;256    #endif
;;;257    
;;;258          } // ProcessAbsLocalizationUpdateMessage()
000012  bf02              ITTT     EQ
000014  b009              ADDEQ    sp,sp,#0x24
000016  ecbd8b02          VPOPEQ   {d8}
00001a  e8bd83f0          POPEQ    {r4-r9,pc}
00001e  ed948a02          VLDR     s16,[r4,#8]           ;235
000022  edd48a03          VLDR     s17,[r4,#0xc]         ;236
000026  ed940a04          VLDR     s0,[r4,#0x10]         ;237
00002a  a806              ADD      r0,sp,#0x18           ;237
00002c  f7fffffe          BL       _ZN4Anki7RadiansC1Ef ; Anki::Radians::Radians(float)
000030  e9d41000          LDRD     r1,r0,[r4,#0]         ;238
000034  ed9d1a06          VLDR     s2,[sp,#0x18]         ;238
000038  eef00a68          VMOV.F32 s1,s17                ;238
00003c  eeb00a48          VMOV.F32 s0,s16                ;238
000040  f7fffffe          BL       _ZN4Anki5Cozmo12Localization22UpdatePoseWithKeyframeEjjfff ; Anki::Cozmo::Localization::UpdatePoseWithKeyframe(unsigned, unsigned, float, float, float)
000044  f7fffffe          BL       _ZN4Anki5Cozmo12Localization14GetPoseFrameIdEv ; Anki::Cozmo::Localization::GetPoseFrameId()
000048  4681              MOV      r9,r0                 ;243
00004a  a806              ADD      r0,sp,#0x18           ;243
00004c  f7fffffe          BL       _ZNK4Anki7Radians10getDegreesEv ; Anki::Radians::getDegrees() const
000050  ee100a10          VMOV     r0,s0                 ;243
000054  f7fffffe          BL       __aeabi_f2d
000058  4607              MOV      r7,r0                 ;243
00005a  4688              MOV      r8,r1                 ;243
00005c  ee180a90          VMOV     r0,s17                ;243
000060  f7fffffe          BL       __aeabi_f2d
000064  4605              MOV      r5,r0                 ;243
000066  460e              MOV      r6,r1                 ;243
000068  ee180a10          VMOV     r0,s16                ;243
00006c  f7fffffe          BL       __aeabi_f2d
000070  e88d03e0          STM      sp,{r5-r9}            ;243
000074  ec410b10          VMOV     d0,r0,r1              ;243
000078  4805              LDR      r0,|L42.144|
00007a  ec532b10          VMOV     r2,r3,d0              ;243
00007e  6821              LDR      r1,[r4,#0]            ;243
000080  f7fffffe          BL       _ZN4Anki5Cozmo8Messages8SendTextEPKcz ; Anki::Cozmo::Messages::SendText(const char*, ...)
000084  b009              ADD      sp,sp,#0x24
000086  ecbd8b02          VPOP     {d8}
00008a  e8bd83f0          POP      {r4-r9,pc}
;;;259    
                          ENDP

00008e  0000              DCW      0x0000
                  |L42.144|
                          DCD      ||.conststring||+0x4c

                          AREA ||i._ZN4Anki5Cozmo8Messages35ProcessAppendPathSegmentLineMessageERKNS1_21AppendPathSegmentLineE||, CODE, READONLY, ALIGN=1

                  _ZN4Anki5Cozmo8Messages35ProcessAppendPathSegmentLineMessageERKNS1_21AppendPathSegmentLineE PROC ; Anki::Cozmo::Messages::ProcessAppendPathSegmentLineMessage(const Anki::Cozmo::Messages::AppendPathSegmentLine&)
;;;305    
;;;306          void ProcessAppendPathSegmentLineMessage(const AppendPathSegmentLine& msg) {
000000  ec900a07          VLDM     r0,{s0-s6}
;;;307            PathFollower::AppendPathSegment_Line(0, msg.x_start_mm, msg.y_start_mm,
000004  2000              MOVS     r0,#0
000006  f7ffbffe          B.W      _ZN4Anki5Cozmo12PathFollower22AppendPathSegment_LineEjfffffff ; Anki::Cozmo::PathFollower::AppendPathSegment_Line(unsigned, float, float, float, float, float, float, float)
;;;308                                                 msg.x_end_mm, msg.y_end_mm,
;;;309                                                 msg.targetSpeed, msg.accel, msg.decel);
;;;310          }
;;;311    
                          ENDP


                          AREA ||i._ZN4Anki5Cozmo8Messages35ProcessSetVisionSystemParamsMessageERKNS1_21SetVisionSystemParamsE||, CODE, READONLY, ALIGN=1

                  _ZN4Anki5Cozmo8Messages35ProcessSetVisionSystemParamsMessageERKNS1_21SetVisionSystemParamsE PROC ; Anki::Cozmo::Messages::ProcessSetVisionSystemParamsMessage(const Anki::Cozmo::Messages::SetVisionSystemParams&)
;;;453    
;;;454          void ProcessSetVisionSystemParamsMessage(const SetVisionSystemParams& msg) {
000000  6981              LDR      r1,[r0,#0x18]
;;;455            VisionSystem::SetParams(msg.autoexposureOn,
000002  2900              CMP      r1,#0
000004  bf14              ITE      NE
000006  2301              MOVNE    r3,#1
000008  2300              MOVEQ    r3,#0
00000a  edd01a05          VLDR     s3,[r0,#0x14]
00000e  7f02              LDRB     r2,[r0,#0x1c]
000010  ed901a04          VLDR     s2,[r0,#0x10]
000014  edd00a03          VLDR     s1,[r0,#0xc]
000018  6881              LDR      r1,[r0,#8]
00001a  ed900a01          VLDR     s0,[r0,#4]
00001e  6800              LDR      r0,[r0,#0]
000020  2800              CMP      r0,#0
000022  bf18              IT       NE
000024  2001              MOVNE    r0,#1
000026  f7ffbffe          B.W      _ZN4Anki5Cozmo12VisionSystem9SetParamsEbfiffhfb ; Anki::Cozmo::VisionSystem::SetParams(bool, float, int, float, float, unsigned char, float, bool)
;;;456                                    msg.exposureTime,
;;;457                                    msg.integerCountsIncrement,
;;;458                                    msg.minExposureTime,
;;;459                                    msg.maxExposureTime,
;;;460                                    msg.highValue,
;;;461                                    msg.percentileToMakeHigh,
;;;462                                    msg.limitFramerate);
;;;463          }
;;;464    
                          ENDP


                          AREA ||i._ZN4Anki5Cozmo8Messages36ProcessClientConnectionStatusMessageERKNS1_22ClientConnectionStatusE||, CODE, READONLY, ALIGN=2

                  _ZN4Anki5Cozmo8Messages36ProcessClientConnectionStatusMessageERKNS1_22ClientConnectionStatusE PROC ; Anki::Cozmo::Messages::ProcessClientConnectionStatusMessage(const Anki::Cozmo::Messages::ClientConnectionStatus&)
;;;792          // since it comes from the torpedo rather than basestation.
;;;793          void ProcessClientConnectionStatusMessage(const ClientConnectionStatus& msg) {
000000  b510              PUSH     {r4,lr}
;;;794            static bool firstConnectionUpdateSinceBoot = true;
;;;795    
;;;796            HAL::RadioUpdateState(msg.wifiState, msg.bluetoothState);
000002  7841              LDRB     r1,[r0,#1]
000004  7800              LDRB     r0,[r0,#0]
000006  f7fffffe          BL       _ZN4Anki5Cozmo3HAL16RadioUpdateStateEhh ; Anki::Cozmo::HAL::RadioUpdateState(unsigned char, unsigned char)
;;;797    
;;;798            // Simple startup animation so can tell he's ready
;;;799            // TODO: Remove once we have other indicators? This is mostly for dev.
;;;800            if (firstConnectionUpdateSinceBoot)
00000a  480b              LDR      r0,|L45.56|
00000c  78c1              LDRB     r1,[r0,#3]  ; firstConnectionUpdateSinceBoot
00000e  2900              CMP      r1,#0
;;;801            {
;;;802              firstConnectionUpdateSinceBoot = false;
;;;803              HeadController::StartNodding(DEG_TO_RAD(-15), DEG_TO_RAD(15),
;;;804              400, 3, .25f, .25f);
;;;805    
;;;806              //EyeController::SetEyeColor(LED_CYAN);
;;;807              //EyeController::SetBlinkVariability(50);
;;;808              //EyeController::StartBlinking(1000, 100);
;;;809            }
;;;810          }
000010  bf08              IT       EQ
000012  bd10              POPEQ    {r4,pc}
000014  2100              MOVS     r1,#0                 ;802
000016  70c1              STRB     r1,[r0,#3]            ;802
000018  e8bd4010          POP      {r4,lr}               ;803
00001c  eef51a00          VMOV.F32 s3,#0.25000000        ;803
000020  eeb51a00          VMOV.F32 s2,#0.25000000        ;803
000024  2103              MOVS     r1,#3                 ;803
000026  f44f70c8          MOV      r0,#0x190             ;803
00002a  eddf0a04          VLDR     s1,|L45.60|
00002e  ed9f0a04          VLDR     s0,|L45.64|
000032  f7ffbffe          B.W      _ZN4Anki5Cozmo14HeadController12StartNoddingEfftiff ; Anki::Cozmo::HeadController::StartNodding(float, float, unsigned short, int, float, float)
;;;811    
                          ENDP

000036  0000              DCW      0x0000
                  |L45.56|
                          DCD      ||.data||
                  |L45.60|
00003c  3e860a92          DCFS     0x3e860a92 ; 0.2617993950843811
                  |L45.64|
000040  be860a92          DCFS     0xbe860a92 ; -0.2617993950843811

                          AREA ||i._ZN4Anki5Cozmo8Messages36ProcessSetHeadControllerGainsMessageERKNS1_22SetHeadControllerGainsE||, CODE, READONLY, ALIGN=1

                  _ZN4Anki5Cozmo8Messages36ProcessSetHeadControllerGainsMessageERKNS1_22SetHeadControllerGainsE PROC ; Anki::Cozmo::Messages::ProcessSetHeadControllerGainsMessage(const Anki::Cozmo::Messages::SetHeadControllerGains&)
;;;445    
;;;446          void ProcessSetHeadControllerGainsMessage(const SetHeadControllerGains& msg) {
000000  ed901a02          VLDR     s2,[r0,#8]
;;;447            HeadController::SetGains(msg.kp, msg.ki, msg.maxIntegralError);
000004  edd00a01          VLDR     s1,[r0,#4]
000008  ed900a00          VLDR     s0,[r0,#0]
00000c  f7ffbffe          B.W      _ZN4Anki5Cozmo14HeadController8SetGainsEfff ; Anki::Cozmo::HeadController::SetGains(float, float, float)
;;;448          }
;;;449    
                          ENDP


                          AREA ||i._ZN4Anki5Cozmo8Messages36ProcessSetLiftControllerGainsMessageERKNS1_22SetLiftControllerGainsE||, CODE, READONLY, ALIGN=1

                  _ZN4Anki5Cozmo8Messages36ProcessSetLiftControllerGainsMessageERKNS1_22SetLiftControllerGainsE PROC ; Anki::Cozmo::Messages::ProcessSetLiftControllerGainsMessage(const Anki::Cozmo::Messages::SetLiftControllerGains&)
;;;449    
;;;450          void ProcessSetLiftControllerGainsMessage(const SetLiftControllerGains& msg) {
000000  ed901a02          VLDR     s2,[r0,#8]
;;;451            LiftController::SetGains(msg.kp, msg.ki, msg.maxIntegralError);
000004  edd00a01          VLDR     s1,[r0,#4]
000008  ed900a00          VLDR     s0,[r0,#0]
00000c  f7ffbffe          B.W      _ZN4Anki5Cozmo14LiftController8SetGainsEfff ; Anki::Cozmo::LiftController::SetGains(float, float, float)
;;;452          }
;;;453    
                          ENDP


                          AREA ||i._ZN4Anki5Cozmo8Messages38ProcessAddAnimKeyFrame_HoldPoseMessageERKNS1_24AddAnimKeyFrame_HoldPoseE||, CODE, READONLY, ALIGN=2

                  _ZN4Anki5Cozmo8Messages38ProcessAddAnimKeyFrame_HoldPoseMessageERKNS1_24AddAnimKeyFrame_HoldPoseE PROC ; Anki::Cozmo::Messages::ProcessAddAnimKeyFrame_HoldPoseMessage(const Anki::Cozmo::Messages::AddAnimKeyFrame_HoldPose&)
;;;648    
;;;649          void ProcessAddAnimKeyFrame_HoldPoseMessage(const AddAnimKeyFrame_HoldPose& msg)
000000  b530              PUSH     {r4,r5,lr}
;;;650          {
000002  b085              SUB      sp,sp,#0x14
;;;651            KeyFrame kf;
;;;652    
;;;653            kf.type = KeyFrame::HOLD_POSE;
000004  210b              MOVS     r1,#0xb
000006  f88d1000          STRB     r1,[sp,#0]
00000a  4604              MOV      r4,r0                 ;650
00000c  7902              LDRB     r2,[r0,#4]            ;650
;;;654            AddKeyFrameHelper(msg, kf);
00000e  466d              MOV      r5,sp
000010  480b              LDR      r0,|L48.64|
000012  f7fffffe          BL       _ZN4Anki5Cozmo8Messages8SendTextEPKcz ; Anki::Cozmo::Messages::SendText(const char*, ...)
000016  8820              LDRH     r0,[r4,#0]
000018  f8ad0002          STRH     r0,[sp,#2]
00001c  78a0              LDRB     r0,[r4,#2]
00001e  2864              CMP      r0,#0x64
000020  bf88              IT       HI
000022  2064              MOVHI    r0,#0x64
000024  f88d0004          STRB     r0,[sp,#4]
000028  78e0              LDRB     r0,[r4,#3]
00002a  2864              CMP      r0,#0x64
00002c  bf88              IT       HI
00002e  2064              MOVHI    r0,#0x64
000030  f88d0005          STRB     r0,[sp,#5]
000034  7921              LDRB     r1,[r4,#4]
000036  4628              MOV      r0,r5
000038  f7fffffe          BL       _ZN4Anki5Cozmo19AnimationController28AddKeyFrameToCannedAnimationERKNS0_8KeyFrameEi ; Anki::Cozmo::AnimationController::AddKeyFrameToCannedAnimation(const Anki::Cozmo::KeyFrame&, int)
;;;655          }
00003c  b005              ADD      sp,sp,#0x14
00003e  bd30              POP      {r4,r5,pc}
;;;656    
                          ENDP

                  |L48.64|
                          DCD      _ZZN4Anki5Cozmo8Messages17AddKeyFrameHelperINS1_24AddAnimKeyFrame_HoldPoseEEEvRKT_RNS0_8KeyFrameEEs ; Anki::Cozmo::Messages::AddKeyFrameHelper<Anki::Cozmo::Messages::AddAnimKeyFrame_HoldPose>(const T1&, Anki::Cozmo::KeyFrame&)::string

                          AREA ||i._ZN4Anki5Cozmo8Messages39ProcessAddAnimKeyFrame_DriveLineMessageERKNS1_25AddAnimKeyFrame_DriveLineE||, CODE, READONLY, ALIGN=2

                  _ZN4Anki5Cozmo8Messages39ProcessAddAnimKeyFrame_DriveLineMessageERKNS1_25AddAnimKeyFrame_DriveLineE PROC ; Anki::Cozmo::Messages::ProcessAddAnimKeyFrame_DriveLineMessage(const Anki::Cozmo::Messages::AddAnimKeyFrame_DriveLine&)
;;;611    
;;;612          void ProcessAddAnimKeyFrame_DriveLineMessage(const AddAnimKeyFrame_DriveLine& msg)
000000  b530              PUSH     {r4,r5,lr}
;;;613          {
000002  b085              SUB      sp,sp,#0x14
;;;614            KeyFrame kf;
;;;615    
;;;616            kf.type = KeyFrame::DRIVE_LINE_SEGMENT;
000004  2106              MOVS     r1,#6
000006  4604              MOV      r4,r0                 ;613
000008  f88d1000          STRB     r1,[sp,#0]
;;;617            kf.DriveLineSegment.relativeDistance = msg.relativeDistance_mm;
00000c  8800              LDRH     r0,[r0,#0]
00000e  f8ad0008          STRH     r0,[sp,#8]
;;;618    
;;;619            AddKeyFrameHelper(msg, kf);
000012  466d              MOV      r5,sp
000014  79a2              LDRB     r2,[r4,#6]
000016  480c              LDR      r0,|L49.72|
000018  f7fffffe          BL       _ZN4Anki5Cozmo8Messages8SendTextEPKcz ; Anki::Cozmo::Messages::SendText(const char*, ...)
00001c  8860              LDRH     r0,[r4,#2]
00001e  f8ad0002          STRH     r0,[sp,#2]
000022  7920              LDRB     r0,[r4,#4]
000024  2864              CMP      r0,#0x64
000026  bf88              IT       HI
000028  2064              MOVHI    r0,#0x64
00002a  f88d0004          STRB     r0,[sp,#4]
00002e  7960              LDRB     r0,[r4,#5]
000030  2864              CMP      r0,#0x64
000032  bf88              IT       HI
000034  2064              MOVHI    r0,#0x64
000036  f88d0005          STRB     r0,[sp,#5]
00003a  79a1              LDRB     r1,[r4,#6]
00003c  4628              MOV      r0,r5
00003e  f7fffffe          BL       _ZN4Anki5Cozmo19AnimationController28AddKeyFrameToCannedAnimationERKNS0_8KeyFrameEi ; Anki::Cozmo::AnimationController::AddKeyFrameToCannedAnimation(const Anki::Cozmo::KeyFrame&, int)
;;;620          }
000042  b005              ADD      sp,sp,#0x14
000044  bd30              POP      {r4,r5,pc}
;;;621    
                          ENDP

000046  0000              DCW      0x0000
                  |L49.72|
                          DCD      _ZZN4Anki5Cozmo8Messages17AddKeyFrameHelperINS1_25AddAnimKeyFrame_DriveLineEEEvRKT_RNS0_8KeyFrameEEs ; Anki::Cozmo::Messages::AddKeyFrameHelper<Anki::Cozmo::Messages::AddAnimKeyFrame_DriveLine>(const T1&, Anki::Cozmo::KeyFrame&)::string

                          AREA ||i._ZN4Anki5Cozmo8Messages39ProcessAddAnimKeyFrame_PlaySoundMessageERKNS1_25AddAnimKeyFrame_PlaySoundE||, CODE, READONLY, ALIGN=2

                  _ZN4Anki5Cozmo8Messages39ProcessAddAnimKeyFrame_PlaySoundMessageERKNS1_25AddAnimKeyFrame_PlaySoundE PROC ; Anki::Cozmo::Messages::ProcessAddAnimKeyFrame_PlaySoundMessage(const Anki::Cozmo::Messages::AddAnimKeyFrame_PlaySound&)
;;;681    
;;;682          void ProcessAddAnimKeyFrame_PlaySoundMessage(const AddAnimKeyFrame_PlaySound& msg)
000000  b530              PUSH     {r4,r5,lr}
;;;683          {
000002  b085              SUB      sp,sp,#0x14
;;;684            KeyFrame kf;
;;;685    
;;;686            kf.type = KeyFrame::PLAY_SOUND;
000004  210c              MOVS     r1,#0xc
000006  4604              MOV      r4,r0                 ;683
000008  f88d1000          STRB     r1,[sp,#0]
;;;687            kf.PlaySound.soundID  = msg.soundID;
00000c  8800              LDRH     r0,[r0,#0]
00000e  f8ad0008          STRH     r0,[sp,#8]
;;;688            kf.PlaySound.numLoops = msg.numLoops;
000012  79e0              LDRB     r0,[r4,#7]
000014  f88d000a          STRB     r0,[sp,#0xa]
;;;689            kf.PlaySound.volume   = msg.volume;
000018  7a20              LDRB     r0,[r4,#8]
00001a  f88d000b          STRB     r0,[sp,#0xb]
;;;690    
;;;691            AddKeyFrameHelper(msg, kf);
00001e  466d              MOV      r5,sp
000020  79a2              LDRB     r2,[r4,#6]
000022  480c              LDR      r0,|L50.84|
000024  f7fffffe          BL       _ZN4Anki5Cozmo8Messages8SendTextEPKcz ; Anki::Cozmo::Messages::SendText(const char*, ...)
000028  8860              LDRH     r0,[r4,#2]
00002a  f8ad0002          STRH     r0,[sp,#2]
00002e  7920              LDRB     r0,[r4,#4]
000030  2864              CMP      r0,#0x64
000032  bf88              IT       HI
000034  2064              MOVHI    r0,#0x64
000036  f88d0004          STRB     r0,[sp,#4]
00003a  7960              LDRB     r0,[r4,#5]
00003c  2864              CMP      r0,#0x64
00003e  bf88              IT       HI
000040  2064              MOVHI    r0,#0x64
000042  f88d0005          STRB     r0,[sp,#5]
000046  79a1              LDRB     r1,[r4,#6]
000048  4628              MOV      r0,r5
00004a  f7fffffe          BL       _ZN4Anki5Cozmo19AnimationController28AddKeyFrameToCannedAnimationERKNS0_8KeyFrameEi ; Anki::Cozmo::AnimationController::AddKeyFrameToCannedAnimation(const Anki::Cozmo::KeyFrame&, int)
;;;692          }
00004e  b005              ADD      sp,sp,#0x14
000050  bd30              POP      {r4,r5,pc}
;;;693    
                          ENDP

000052  0000              DCW      0x0000
                  |L50.84|
                          DCD      _ZZN4Anki5Cozmo8Messages17AddKeyFrameHelperINS1_25AddAnimKeyFrame_PlaySoundEEEvRKT_RNS0_8KeyFrameEEs ; Anki::Cozmo::Messages::AddKeyFrameHelper<Anki::Cozmo::Messages::AddAnimKeyFrame_PlaySound>(const T1&, Anki::Cozmo::KeyFrame&)::string

                          AREA ||i._ZN4Anki5Cozmo8Messages39ProcessAddAnimKeyFrame_StopSoundMessageERKNS1_25AddAnimKeyFrame_StopSoundE||, CODE, READONLY, ALIGN=2

                  _ZN4Anki5Cozmo8Messages39ProcessAddAnimKeyFrame_StopSoundMessageERKNS1_25AddAnimKeyFrame_StopSoundE PROC ; Anki::Cozmo::Messages::ProcessAddAnimKeyFrame_StopSoundMessage(const Anki::Cozmo::Messages::AddAnimKeyFrame_StopSound&)
;;;702    
;;;703          void ProcessAddAnimKeyFrame_StopSoundMessage(const AddAnimKeyFrame_StopSound& msg)
000000  b530              PUSH     {r4,r5,lr}
;;;704          {
000002  b085              SUB      sp,sp,#0x14
;;;705            KeyFrame kf;
;;;706    
;;;707            kf.type = KeyFrame::STOP_SOUND;
000004  210e              MOVS     r1,#0xe
000006  f88d1000          STRB     r1,[sp,#0]
00000a  4604              MOV      r4,r0                 ;704
00000c  7902              LDRB     r2,[r0,#4]            ;704
;;;708    
;;;709            AddKeyFrameHelper(msg, kf);
00000e  466d              MOV      r5,sp
000010  480b              LDR      r0,|L51.64|
000012  f7fffffe          BL       _ZN4Anki5Cozmo8Messages8SendTextEPKcz ; Anki::Cozmo::Messages::SendText(const char*, ...)
000016  8820              LDRH     r0,[r4,#0]
000018  f8ad0002          STRH     r0,[sp,#2]
00001c  78a0              LDRB     r0,[r4,#2]
00001e  2864              CMP      r0,#0x64
000020  bf88              IT       HI
000022  2064              MOVHI    r0,#0x64
000024  f88d0004          STRB     r0,[sp,#4]
000028  78e0              LDRB     r0,[r4,#3]
00002a  2864              CMP      r0,#0x64
00002c  bf88              IT       HI
00002e  2064              MOVHI    r0,#0x64
000030  f88d0005          STRB     r0,[sp,#5]
000034  7921              LDRB     r1,[r4,#4]
000036  4628              MOV      r0,r5
000038  f7fffffe          BL       _ZN4Anki5Cozmo19AnimationController28AddKeyFrameToCannedAnimationERKNS0_8KeyFrameEi ; Anki::Cozmo::AnimationController::AddKeyFrameToCannedAnimation(const Anki::Cozmo::KeyFrame&, int)
;;;710          }
00003c  b005              ADD      sp,sp,#0x14
00003e  bd30              POP      {r4,r5,pc}
;;;711    
                          ENDP

                  |L51.64|
                          DCD      _ZZN4Anki5Cozmo8Messages17AddKeyFrameHelperINS1_25AddAnimKeyFrame_StopSoundEEEvRKT_RNS0_8KeyFrameEEs ; Anki::Cozmo::Messages::AddKeyFrameHelper<Anki::Cozmo::Messages::AddAnimKeyFrame_StopSound>(const T1&, Anki::Cozmo::KeyFrame&)::string

                          AREA ||i._ZN4Anki5Cozmo8Messages40ProcessAppendPathSegmentPointTurnMessageERKNS1_26AppendPathSegmentPointTurnE||, CODE, READONLY, ALIGN=1

                  _ZN4Anki5Cozmo8Messages40ProcessAppendPathSegmentPointTurnMessageERKNS1_26AppendPathSegmentPointTurnE PROC ; Anki::Cozmo::Messages::ProcessAppendPathSegmentPointTurnMessage(const Anki::Cozmo::Messages::AppendPathSegmentPointTurn&)
;;;311    
;;;312          void ProcessAppendPathSegmentPointTurnMessage(const AppendPathSegmentPointTurn& msg) {
000000  ec900a06          VLDM     r0,{s0-s5}
;;;313            PathFollower::AppendPathSegment_PointTurn(0, msg.x_center_mm, msg.y_center_mm, msg.targetRad,
000004  2000              MOVS     r0,#0
000006  f7ffbffe          B.W      _ZN4Anki5Cozmo12PathFollower27AppendPathSegment_PointTurnEjffffff ; Anki::Cozmo::PathFollower::AppendPathSegment_PointTurn(unsigned, float, float, float, float, float, float)
;;;314                                                      msg.targetSpeed, msg.accel, msg.decel);
;;;315          }
;;;316    
                          ENDP


                          AREA ||i._ZN4Anki5Cozmo8Messages40ProcessTransitionToStateAnimationMessageERKNS1_26TransitionToStateAnimationE||, CODE, READONLY, ALIGN=1

                  _ZN4Anki5Cozmo8Messages40ProcessTransitionToStateAnimationMessageERKNS1_26TransitionToStateAnimationE PROC ; Anki::Cozmo::Messages::ProcessTransitionToStateAnimationMessage(const Anki::Cozmo::Messages::TransitionToStateAnimation&)
;;;507    
;;;508          void ProcessTransitionToStateAnimationMessage(const TransitionToStateAnimation& msg) {
000000  7841              LDRB     r1,[r0,#1]
;;;509            AnimationController::TransitionAndPlay(msg.transitionAnimID, msg.stateAnimID);
000002  7800              LDRB     r0,[r0,#0]
000004  f7ffbffe          B.W      _ZN4Anki5Cozmo19AnimationController17TransitionAndPlayEii ; Anki::Cozmo::AnimationController::TransitionAndPlay(int, int)
;;;510          }
;;;511    
                          ENDP


                          AREA ||i._ZN4Anki5Cozmo8Messages41ProcessAddAnimKeyFrame_StopHeadNodMessageERKNS1_27AddAnimKeyFrame_StopHeadNodE||, CODE, READONLY, ALIGN=2

                  _ZN4Anki5Cozmo8Messages41ProcessAddAnimKeyFrame_StopHeadNodMessageERKNS1_27AddAnimKeyFrame_StopHeadNodE PROC ; Anki::Cozmo::Messages::ProcessAddAnimKeyFrame_StopHeadNodMessage(const Anki::Cozmo::Messages::AddAnimKeyFrame_StopHeadNod&)
;;;570    
;;;571          void ProcessAddAnimKeyFrame_StopHeadNodMessage(const AddAnimKeyFrame_StopHeadNod& msg)
000000  b530              PUSH     {r4,r5,lr}
;;;572          {
000002  b085              SUB      sp,sp,#0x14
;;;573            KeyFrame kf;
;;;574            kf.type = KeyFrame::STOP_HEAD_NOD;
000004  2103              MOVS     r1,#3
000006  4604              MOV      r4,r0                 ;572
000008  f88d1000          STRB     r1,[sp,#0]
;;;575            kf.StopHeadNod.finalAngle_deg = msg.finalAngle_deg;
00000c  7940              LDRB     r0,[r0,#5]
00000e  f88d0008          STRB     r0,[sp,#8]
;;;576    
;;;577            AddKeyFrameHelper(msg, kf);
000012  466d              MOV      r5,sp
000014  7922              LDRB     r2,[r4,#4]
000016  480c              LDR      r0,|L54.72|
000018  f7fffffe          BL       _ZN4Anki5Cozmo8Messages8SendTextEPKcz ; Anki::Cozmo::Messages::SendText(const char*, ...)
00001c  8820              LDRH     r0,[r4,#0]
00001e  f8ad0002          STRH     r0,[sp,#2]
000022  78a0              LDRB     r0,[r4,#2]
000024  2864              CMP      r0,#0x64
000026  bf88              IT       HI
000028  2064              MOVHI    r0,#0x64
00002a  f88d0004          STRB     r0,[sp,#4]
00002e  78e0              LDRB     r0,[r4,#3]
000030  2864              CMP      r0,#0x64
000032  bf88              IT       HI
000034  2064              MOVHI    r0,#0x64
000036  f88d0005          STRB     r0,[sp,#5]
00003a  7921              LDRB     r1,[r4,#4]
00003c  4628              MOV      r0,r5
00003e  f7fffffe          BL       _ZN4Anki5Cozmo19AnimationController28AddKeyFrameToCannedAnimationERKNS0_8KeyFrameEi ; Anki::Cozmo::AnimationController::AddKeyFrameToCannedAnimation(const Anki::Cozmo::KeyFrame&, int)
;;;578          }
000042  b005              ADD      sp,sp,#0x14
000044  bd30              POP      {r4,r5,pc}
;;;579    
                          ENDP

000046  0000              DCW      0x0000
                  |L54.72|
                          DCD      _ZZN4Anki5Cozmo8Messages17AddKeyFrameHelperINS1_27AddAnimKeyFrame_StopHeadNodEEEvRKT_RNS0_8KeyFrameEEs ; Anki::Cozmo::Messages::AddKeyFrameHelper<Anki::Cozmo::Messages::AddAnimKeyFrame_StopHeadNod>(const T1&, Anki::Cozmo::KeyFrame&)::string

                          AREA ||i._ZN4Anki5Cozmo8Messages41ProcessAddAnimKeyFrame_StopLiftNodMessageERKNS1_27AddAnimKeyFrame_StopLiftNodE||, CODE, READONLY, ALIGN=2

                  _ZN4Anki5Cozmo8Messages41ProcessAddAnimKeyFrame_StopLiftNodMessageERKNS1_27AddAnimKeyFrame_StopLiftNodE PROC ; Anki::Cozmo::Messages::ProcessAddAnimKeyFrame_StopLiftNodMessage(const Anki::Cozmo::Messages::AddAnimKeyFrame_StopLiftNod&)
;;;601    
;;;602          void ProcessAddAnimKeyFrame_StopLiftNodMessage(const AddAnimKeyFrame_StopLiftNod& msg)
000000  b530              PUSH     {r4,r5,lr}
;;;603          {
000002  b085              SUB      sp,sp,#0x14
;;;604            KeyFrame kf;
;;;605    
;;;606            kf.type = KeyFrame::STOP_LIFT_NOD;
000004  2115              MOVS     r1,#0x15
000006  4604              MOV      r4,r0                 ;603
000008  f88d1000          STRB     r1,[sp,#0]
;;;607            kf.StopLiftNod.finalHeight  = msg.finalHeight_mm;
00000c  7900              LDRB     r0,[r0,#4]
00000e  f88d0008          STRB     r0,[sp,#8]
;;;608    
;;;609            AddKeyFrameHelper(msg, kf);
000012  466d              MOV      r5,sp
000014  7962              LDRB     r2,[r4,#5]
000016  480c              LDR      r0,|L55.72|
000018  f7fffffe          BL       _ZN4Anki5Cozmo8Messages8SendTextEPKcz ; Anki::Cozmo::Messages::SendText(const char*, ...)
00001c  8820              LDRH     r0,[r4,#0]
00001e  f8ad0002          STRH     r0,[sp,#2]
000022  78a0              LDRB     r0,[r4,#2]
000024  2864              CMP      r0,#0x64
000026  bf88              IT       HI
000028  2064              MOVHI    r0,#0x64
00002a  f88d0004          STRB     r0,[sp,#4]
00002e  78e0              LDRB     r0,[r4,#3]
000030  2864              CMP      r0,#0x64
000032  bf88              IT       HI
000034  2064              MOVHI    r0,#0x64
000036  f88d0005          STRB     r0,[sp,#5]
00003a  7961              LDRB     r1,[r4,#5]
00003c  4628              MOV      r0,r5
00003e  f7fffffe          BL       _ZN4Anki5Cozmo19AnimationController28AddKeyFrameToCannedAnimationERKNS0_8KeyFrameEi ; Anki::Cozmo::AnimationController::AddKeyFrameToCannedAnimation(const Anki::Cozmo::KeyFrame&, int)
;;;610          }
000042  b005              ADD      sp,sp,#0x14
000044  bd30              POP      {r4,r5,pc}
;;;611    
                          ENDP

000046  0000              DCW      0x0000
                  |L55.72|
                          DCD      _ZZN4Anki5Cozmo8Messages17AddKeyFrameHelperINS1_27AddAnimKeyFrame_StopLiftNodEEEvRKT_RNS0_8KeyFrameEEs ; Anki::Cozmo::Messages::AddKeyFrameHelper<Anki::Cozmo::Messages::AddAnimKeyFrame_StopLiftNod>(const T1&, Anki::Cozmo::KeyFrame&)::string

                          AREA ||i._ZN4Anki5Cozmo8Messages41ProcessAddAnimKeyFrame_TurnInPlaceMessageERKNS1_27AddAnimKeyFrame_TurnInPlaceE||, CODE, READONLY, ALIGN=2

                  _ZN4Anki5Cozmo8Messages41ProcessAddAnimKeyFrame_TurnInPlaceMessageERKNS1_27AddAnimKeyFrame_TurnInPlaceE PROC ; Anki::Cozmo::Messages::ProcessAddAnimKeyFrame_TurnInPlaceMessage(const Anki::Cozmo::Messages::AddAnimKeyFrame_TurnInPlace&)
;;;621    
;;;622          void ProcessAddAnimKeyFrame_TurnInPlaceMessage(const AddAnimKeyFrame_TurnInPlace& msg)
000000  b530              PUSH     {r4,r5,lr}
;;;623          {
000002  b085              SUB      sp,sp,#0x14
;;;624            KeyFrame kf;
;;;625    
;;;626            kf.type = KeyFrame::POINT_TURN;
000004  210a              MOVS     r1,#0xa
000006  4604              MOV      r4,r0                 ;623
000008  f88d1000          STRB     r1,[sp,#0]
;;;627            kf.TurnInPlace.relativeAngle_deg = msg.relativeAngle_deg;
00000c  8800              LDRH     r0,[r0,#0]
00000e  f8ad0008          STRH     r0,[sp,#8]
;;;628            kf.TurnInPlace.variability_deg   = msg.variability_deg;
000012  79e0              LDRB     r0,[r4,#7]
000014  f88d000a          STRB     r0,[sp,#0xa]
;;;629    
;;;630            AddKeyFrameHelper(msg, kf);
000018  466d              MOV      r5,sp
00001a  79a2              LDRB     r2,[r4,#6]
00001c  480b              LDR      r0,|L56.76|
00001e  f7fffffe          BL       _ZN4Anki5Cozmo8Messages8SendTextEPKcz ; Anki::Cozmo::Messages::SendText(const char*, ...)
000022  8860              LDRH     r0,[r4,#2]
000024  f8ad0002          STRH     r0,[sp,#2]
000028  7920              LDRB     r0,[r4,#4]
00002a  2864              CMP      r0,#0x64
00002c  bf88              IT       HI
00002e  2064              MOVHI    r0,#0x64
000030  f88d0004          STRB     r0,[sp,#4]
000034  7960              LDRB     r0,[r4,#5]
000036  2864              CMP      r0,#0x64
000038  bf88              IT       HI
00003a  2064              MOVHI    r0,#0x64
00003c  f88d0005          STRB     r0,[sp,#5]
000040  79a1              LDRB     r1,[r4,#6]
000042  4628              MOV      r0,r5
000044  f7fffffe          BL       _ZN4Anki5Cozmo19AnimationController28AddKeyFrameToCannedAnimationERKNS0_8KeyFrameEi ; Anki::Cozmo::AnimationController::AddKeyFrameToCannedAnimation(const Anki::Cozmo::KeyFrame&, int)
;;;631          }
000048  b005              ADD      sp,sp,#0x14
00004a  bd30              POP      {r4,r5,pc}
;;;632    
                          ENDP

                  |L56.76|
                          DCD      _ZZN4Anki5Cozmo8Messages17AddKeyFrameHelperINS1_27AddAnimKeyFrame_TurnInPlaceEEEvRKT_RNS0_8KeyFrameEEs ; Anki::Cozmo::Messages::AddKeyFrameHelper<Anki::Cozmo::Messages::AddAnimKeyFrame_TurnInPlace>(const T1&, Anki::Cozmo::KeyFrame&)::string

                          AREA ||i._ZN4Anki5Cozmo8Messages42ProcessAddAnimKeyFrame_SetHeadAngleMessageERKNS1_28AddAnimKeyFrame_SetHeadAngleE||, CODE, READONLY, ALIGN=2

                  _ZN4Anki5Cozmo8Messages42ProcessAddAnimKeyFrame_SetHeadAngleMessageERKNS1_28AddAnimKeyFrame_SetHeadAngleE PROC ; Anki::Cozmo::Messages::ProcessAddAnimKeyFrame_SetHeadAngleMessage(const Anki::Cozmo::Messages::AddAnimKeyFrame_SetHeadAngle&)
;;;548    
;;;549          void ProcessAddAnimKeyFrame_SetHeadAngleMessage(const AddAnimKeyFrame_SetHeadAngle& msg)
000000  b530              PUSH     {r4,r5,lr}
;;;550          {
000002  b085              SUB      sp,sp,#0x14
;;;551            KeyFrame kf;
;;;552    
;;;553            kf.type = KeyFrame::HEAD_ANGLE;
000004  2100              MOVS     r1,#0
000006  4604              MOV      r4,r0                 ;550
000008  f88d1000          STRB     r1,[sp,#0]
;;;554            kf.SetHeadAngle.angle_deg       = msg.angle_deg;
00000c  7940              LDRB     r0,[r0,#5]
00000e  f88d0008          STRB     r0,[sp,#8]
;;;555            kf.SetHeadAngle.variability_deg = msg.variability_deg;
000012  79a0              LDRB     r0,[r4,#6]
000014  f88d0009          STRB     r0,[sp,#9]
;;;556            AddKeyFrameHelper(msg, kf);
000018  466d              MOV      r5,sp
00001a  7922              LDRB     r2,[r4,#4]
00001c  480b              LDR      r0,|L57.76|
00001e  f7fffffe          BL       _ZN4Anki5Cozmo8Messages8SendTextEPKcz ; Anki::Cozmo::Messages::SendText(const char*, ...)
000022  8820              LDRH     r0,[r4,#0]
000024  f8ad0002          STRH     r0,[sp,#2]
000028  78a0              LDRB     r0,[r4,#2]
00002a  2864              CMP      r0,#0x64
00002c  bf88              IT       HI
00002e  2064              MOVHI    r0,#0x64
000030  f88d0004          STRB     r0,[sp,#4]
000034  78e0              LDRB     r0,[r4,#3]
000036  2864              CMP      r0,#0x64
000038  bf88              IT       HI
00003a  2064              MOVHI    r0,#0x64
00003c  f88d0005          STRB     r0,[sp,#5]
000040  7921              LDRB     r1,[r4,#4]
000042  4628              MOV      r0,r5
000044  f7fffffe          BL       _ZN4Anki5Cozmo19AnimationController28AddKeyFrameToCannedAnimationERKNS0_8KeyFrameEi ; Anki::Cozmo::AnimationController::AddKeyFrameToCannedAnimation(const Anki::Cozmo::KeyFrame&, int)
;;;557          }
000048  b005              ADD      sp,sp,#0x14
00004a  bd30              POP      {r4,r5,pc}
;;;558    
                          ENDP

                  |L57.76|
                          DCD      _ZZN4Anki5Cozmo8Messages17AddKeyFrameHelperINS1_28AddAnimKeyFrame_SetHeadAngleEEEvRKT_RNS0_8KeyFrameEEs ; Anki::Cozmo::Messages::AddKeyFrameHelper<Anki::Cozmo::Messages::AddAnimKeyFrame_SetHeadAngle>(const T1&, Anki::Cozmo::KeyFrame&)::string

                          AREA ||i._ZN4Anki5Cozmo8Messages42ProcessAddAnimKeyFrame_StartHeadNodMessageERKNS1_28AddAnimKeyFrame_StartHeadNodE||, CODE, READONLY, ALIGN=2

                  _ZN4Anki5Cozmo8Messages42ProcessAddAnimKeyFrame_StartHeadNodMessageERKNS1_28AddAnimKeyFrame_StartHeadNodE PROC ; Anki::Cozmo::Messages::ProcessAddAnimKeyFrame_StartHeadNodMessage(const Anki::Cozmo::Messages::AddAnimKeyFrame_StartHeadNod&)
;;;558    
;;;559          void ProcessAddAnimKeyFrame_StartHeadNodMessage(const AddAnimKeyFrame_StartHeadNod& msg)
000000  b530              PUSH     {r4,r5,lr}
;;;560          {
000002  b085              SUB      sp,sp,#0x14
;;;561            KeyFrame kf;
;;;562    
;;;563            kf.type = KeyFrame::START_HEAD_NOD;
000004  2102              MOVS     r1,#2
000006  4604              MOV      r4,r0                 ;560
000008  f88d1000          STRB     r1,[sp,#0]
;;;564            kf.StartHeadNod.highAngle_deg = msg.highAngle_deg;
00000c  7a00              LDRB     r0,[r0,#8]
00000e  f88d0009          STRB     r0,[sp,#9]
;;;565            kf.StartHeadNod.lowAngle_deg  = msg.lowAngle_deg;
000012  79e0              LDRB     r0,[r4,#7]
000014  f88d0008          STRB     r0,[sp,#8]
;;;566            kf.StartHeadNod.period_ms = msg.period_ms;
000018  8860              LDRH     r0,[r4,#2]
00001a  f8ad000a          STRH     r0,[sp,#0xa]
;;;567    
;;;568            AddKeyFrameHelper(msg, kf);
00001e  466d              MOV      r5,sp
000020  79a2              LDRB     r2,[r4,#6]
000022  480c              LDR      r0,|L58.84|
000024  f7fffffe          BL       _ZN4Anki5Cozmo8Messages8SendTextEPKcz ; Anki::Cozmo::Messages::SendText(const char*, ...)
000028  8820              LDRH     r0,[r4,#0]
00002a  f8ad0002          STRH     r0,[sp,#2]
00002e  7920              LDRB     r0,[r4,#4]
000030  2864              CMP      r0,#0x64
000032  bf88              IT       HI
000034  2064              MOVHI    r0,#0x64
000036  f88d0004          STRB     r0,[sp,#4]
00003a  7960              LDRB     r0,[r4,#5]
00003c  2864              CMP      r0,#0x64
00003e  bf88              IT       HI
000040  2064              MOVHI    r0,#0x64
000042  f88d0005          STRB     r0,[sp,#5]
000046  79a1              LDRB     r1,[r4,#6]
000048  4628              MOV      r0,r5
00004a  f7fffffe          BL       _ZN4Anki5Cozmo19AnimationController28AddKeyFrameToCannedAnimationERKNS0_8KeyFrameEi ; Anki::Cozmo::AnimationController::AddKeyFrameToCannedAnimation(const Anki::Cozmo::KeyFrame&, int)
;;;569          }
00004e  b005              ADD      sp,sp,#0x14
000050  bd30              POP      {r4,r5,pc}
;;;570    
                          ENDP

000052  0000              DCW      0x0000
                  |L58.84|
                          DCD      _ZZN4Anki5Cozmo8Messages17AddKeyFrameHelperINS1_28AddAnimKeyFrame_StartHeadNodEEEvRKT_RNS0_8KeyFrameEEs ; Anki::Cozmo::Messages::AddKeyFrameHelper<Anki::Cozmo::Messages::AddAnimKeyFrame_StartHeadNod>(const T1&, Anki::Cozmo::KeyFrame&)::string

                          AREA ||i._ZN4Anki5Cozmo8Messages42ProcessAddAnimKeyFrame_StartLiftNodMessageERKNS1_28AddAnimKeyFrame_StartLiftNodE||, CODE, READONLY, ALIGN=2

                  _ZN4Anki5Cozmo8Messages42ProcessAddAnimKeyFrame_StartLiftNodMessageERKNS1_28AddAnimKeyFrame_StartLiftNodE PROC ; Anki::Cozmo::Messages::ProcessAddAnimKeyFrame_StartLiftNodMessage(const Anki::Cozmo::Messages::AddAnimKeyFrame_StartLiftNod&)
;;;589    
;;;590          void ProcessAddAnimKeyFrame_StartLiftNodMessage(const AddAnimKeyFrame_StartLiftNod& msg)
000000  b530              PUSH     {r4,r5,lr}
;;;591          {
000002  b085              SUB      sp,sp,#0x14
;;;592            KeyFrame kf;
;;;593    
;;;594            kf.type = KeyFrame::START_LIFT_NOD;
000004  2114              MOVS     r1,#0x14
000006  4604              MOV      r4,r0                 ;591
000008  f88d1000          STRB     r1,[sp,#0]
;;;595            kf.StartLiftNod.lowHeight  = msg.lowHeight_mm;
00000c  7980              LDRB     r0,[r0,#6]
00000e  f88d0008          STRB     r0,[sp,#8]
;;;596            kf.StartLiftNod.highHeight = msg.highHeight_mm;
000012  79e0              LDRB     r0,[r4,#7]
000014  f88d0009          STRB     r0,[sp,#9]
;;;597            kf.StartLiftNod.period_ms  = msg.period_ms;
000018  8860              LDRH     r0,[r4,#2]
00001a  f8ad000a          STRH     r0,[sp,#0xa]
;;;598    
;;;599            AddKeyFrameHelper(msg, kf);
00001e  466d              MOV      r5,sp
000020  7a22              LDRB     r2,[r4,#8]
000022  480c              LDR      r0,|L59.84|
000024  f7fffffe          BL       _ZN4Anki5Cozmo8Messages8SendTextEPKcz ; Anki::Cozmo::Messages::SendText(const char*, ...)
000028  8820              LDRH     r0,[r4,#0]
00002a  f8ad0002          STRH     r0,[sp,#2]
00002e  7920              LDRB     r0,[r4,#4]
000030  2864              CMP      r0,#0x64
000032  bf88              IT       HI
000034  2064              MOVHI    r0,#0x64
000036  f88d0004          STRB     r0,[sp,#4]
00003a  7960              LDRB     r0,[r4,#5]
00003c  2864              CMP      r0,#0x64
00003e  bf88              IT       HI
000040  2064              MOVHI    r0,#0x64
000042  f88d0005          STRB     r0,[sp,#5]
000046  7a21              LDRB     r1,[r4,#8]
000048  4628              MOV      r0,r5
00004a  f7fffffe          BL       _ZN4Anki5Cozmo19AnimationController28AddKeyFrameToCannedAnimationERKNS0_8KeyFrameEi ; Anki::Cozmo::AnimationController::AddKeyFrameToCannedAnimation(const Anki::Cozmo::KeyFrame&, int)
;;;600          }
00004e  b005              ADD      sp,sp,#0x14
000050  bd30              POP      {r4,r5,pc}
;;;601    
                          ENDP

000052  0000              DCW      0x0000
                  |L59.84|
                          DCD      _ZZN4Anki5Cozmo8Messages17AddKeyFrameHelperINS1_28AddAnimKeyFrame_StartLiftNodEEEvRKT_RNS0_8KeyFrameEEs ; Anki::Cozmo::Messages::AddKeyFrameHelper<Anki::Cozmo::Messages::AddAnimKeyFrame_StartLiftNod>(const T1&, Anki::Cozmo::KeyFrame&)::string

                          AREA ||i._ZN4Anki5Cozmo8Messages42ProcessAddAnimKeyFrame_WaitForSoundMessageERKNS1_28AddAnimKeyFrame_WaitForSoundE||, CODE, READONLY, ALIGN=2

                  _ZN4Anki5Cozmo8Messages42ProcessAddAnimKeyFrame_WaitForSoundMessageERKNS1_28AddAnimKeyFrame_WaitForSoundE PROC ; Anki::Cozmo::Messages::ProcessAddAnimKeyFrame_WaitForSoundMessage(const Anki::Cozmo::Messages::AddAnimKeyFrame_WaitForSound&)
;;;693    
;;;694          void ProcessAddAnimKeyFrame_WaitForSoundMessage(const AddAnimKeyFrame_WaitForSound& msg)
000000  b530              PUSH     {r4,r5,lr}
;;;695          {
000002  b085              SUB      sp,sp,#0x14
;;;696            KeyFrame kf;
;;;697    
;;;698            kf.type = KeyFrame::WAIT_FOR_SOUND;
000004  210d              MOVS     r1,#0xd
000006  f88d1000          STRB     r1,[sp,#0]
00000a  4604              MOV      r4,r0                 ;695
00000c  7902              LDRB     r2,[r0,#4]            ;695
;;;699    
;;;700            AddKeyFrameHelper(msg, kf);
00000e  466d              MOV      r5,sp
000010  480b              LDR      r0,|L60.64|
000012  f7fffffe          BL       _ZN4Anki5Cozmo8Messages8SendTextEPKcz ; Anki::Cozmo::Messages::SendText(const char*, ...)
000016  8820              LDRH     r0,[r4,#0]
000018  f8ad0002          STRH     r0,[sp,#2]
00001c  78a0              LDRB     r0,[r4,#2]
00001e  2864              CMP      r0,#0x64
000020  bf88              IT       HI
000022  2064              MOVHI    r0,#0x64
000024  f88d0004          STRB     r0,[sp,#4]
000028  78e0              LDRB     r0,[r4,#3]
00002a  2864              CMP      r0,#0x64
00002c  bf88              IT       HI
00002e  2064              MOVHI    r0,#0x64
000030  f88d0005          STRB     r0,[sp,#5]
000034  7921              LDRB     r1,[r4,#4]
000036  4628              MOV      r0,r5
000038  f7fffffe          BL       _ZN4Anki5Cozmo19AnimationController28AddKeyFrameToCannedAnimationERKNS0_8KeyFrameEi ; Anki::Cozmo::AnimationController::AddKeyFrameToCannedAnimation(const Anki::Cozmo::KeyFrame&, int)
;;;701          }
00003c  b005              ADD      sp,sp,#0x14
00003e  bd30              POP      {r4,r5,pc}
;;;702    
                          ENDP

                  |L60.64|
                          DCD      _ZZN4Anki5Cozmo8Messages17AddKeyFrameHelperINS1_28AddAnimKeyFrame_WaitForSoundEEEvRKT_RNS0_8KeyFrameEEs ; Anki::Cozmo::Messages::AddKeyFrameHelper<Anki::Cozmo::Messages::AddAnimKeyFrame_WaitForSound>(const T1&, Anki::Cozmo::KeyFrame&)::string

                          AREA ||i._ZN4Anki5Cozmo8Messages43ProcessAddAnimKeyFrame_HoldHeadAngleMessageERKNS1_29AddAnimKeyFrame_HoldHeadAngleE||, CODE, READONLY, ALIGN=2

                  _ZN4Anki5Cozmo8Messages43ProcessAddAnimKeyFrame_HoldHeadAngleMessageERKNS1_29AddAnimKeyFrame_HoldHeadAngleE PROC ; Anki::Cozmo::Messages::ProcessAddAnimKeyFrame_HoldHeadAngleMessage(const Anki::Cozmo::Messages::AddAnimKeyFrame_HoldHeadAngle&)
;;;632    
;;;633          void ProcessAddAnimKeyFrame_HoldHeadAngleMessage(const AddAnimKeyFrame_HoldHeadAngle& msg)
000000  b530              PUSH     {r4,r5,lr}
;;;634          {
000002  b085              SUB      sp,sp,#0x14
;;;635            KeyFrame kf;
;;;636    
;;;637            kf.type = KeyFrame::HOLD_HEAD_ANGLE;
000004  2101              MOVS     r1,#1
000006  f88d1000          STRB     r1,[sp,#0]
00000a  4604              MOV      r4,r0                 ;634
00000c  7902              LDRB     r2,[r0,#4]            ;634
;;;638            AddKeyFrameHelper(msg, kf);
00000e  466d              MOV      r5,sp
000010  480b              LDR      r0,|L61.64|
000012  f7fffffe          BL       _ZN4Anki5Cozmo8Messages8SendTextEPKcz ; Anki::Cozmo::Messages::SendText(const char*, ...)
000016  8820              LDRH     r0,[r4,#0]
000018  f8ad0002          STRH     r0,[sp,#2]
00001c  78a0              LDRB     r0,[r4,#2]
00001e  2864              CMP      r0,#0x64
000020  bf88              IT       HI
000022  2064              MOVHI    r0,#0x64
000024  f88d0004          STRB     r0,[sp,#4]
000028  78e0              LDRB     r0,[r4,#3]
00002a  2864              CMP      r0,#0x64
00002c  bf88              IT       HI
00002e  2064              MOVHI    r0,#0x64
000030  f88d0005          STRB     r0,[sp,#5]
000034  7921              LDRB     r1,[r4,#4]
000036  4628              MOV      r0,r5
000038  f7fffffe          BL       _ZN4Anki5Cozmo19AnimationController28AddKeyFrameToCannedAnimationERKNS0_8KeyFrameEi ; Anki::Cozmo::AnimationController::AddKeyFrameToCannedAnimation(const Anki::Cozmo::KeyFrame&, int)
;;;639          }
00003c  b005              ADD      sp,sp,#0x14
00003e  bd30              POP      {r4,r5,pc}
;;;640    
                          ENDP

                  |L61.64|
                          DCD      _ZZN4Anki5Cozmo8Messages17AddKeyFrameHelperINS1_29AddAnimKeyFrame_HoldHeadAngleEEEvRKT_RNS0_8KeyFrameEEs ; Anki::Cozmo::Messages::AddKeyFrameHelper<Anki::Cozmo::Messages::AddAnimKeyFrame_HoldHeadAngle>(const T1&, Anki::Cozmo::KeyFrame&)::string

                          AREA ||i._ZN4Anki5Cozmo8Messages43ProcessAddAnimKeyFrame_SetLiftHeightMessageERKNS1_29AddAnimKeyFrame_SetLiftHeightE||, CODE, READONLY, ALIGN=2

                  _ZN4Anki5Cozmo8Messages43ProcessAddAnimKeyFrame_SetLiftHeightMessageERKNS1_29AddAnimKeyFrame_SetLiftHeightE PROC ; Anki::Cozmo::Messages::ProcessAddAnimKeyFrame_SetLiftHeightMessage(const Anki::Cozmo::Messages::AddAnimKeyFrame_SetLiftHeight&)
;;;579    
;;;580          void ProcessAddAnimKeyFrame_SetLiftHeightMessage(const AddAnimKeyFrame_SetLiftHeight& msg)
000000  b530              PUSH     {r4,r5,lr}
;;;581          {
000002  b085              SUB      sp,sp,#0x14
;;;582            KeyFrame kf;
;;;583    
;;;584            kf.type = KeyFrame::LIFT_HEIGHT;
000004  2104              MOVS     r1,#4
000006  4604              MOV      r4,r0                 ;581
000008  f88d1000          STRB     r1,[sp,#0]
;;;585            kf.SetLiftHeight.targetHeight = msg.height_mm;
00000c  8800              LDRH     r0,[r0,#0]
00000e  f8ad0008          STRH     r0,[sp,#8]
;;;586    
;;;587            AddKeyFrameHelper(msg, kf);
000012  466d              MOV      r5,sp
000014  79a2              LDRB     r2,[r4,#6]
000016  480c              LDR      r0,|L62.72|
000018  f7fffffe          BL       _ZN4Anki5Cozmo8Messages8SendTextEPKcz ; Anki::Cozmo::Messages::SendText(const char*, ...)
00001c  8860              LDRH     r0,[r4,#2]
00001e  f8ad0002          STRH     r0,[sp,#2]
000022  7920              LDRB     r0,[r4,#4]
000024  2864              CMP      r0,#0x64
000026  bf88              IT       HI
000028  2064              MOVHI    r0,#0x64
00002a  f88d0004          STRB     r0,[sp,#4]
00002e  7960              LDRB     r0,[r4,#5]
000030  2864              CMP      r0,#0x64
000032  bf88              IT       HI
000034  2064              MOVHI    r0,#0x64
000036  f88d0005          STRB     r0,[sp,#5]
00003a  79a1              LDRB     r1,[r4,#6]
00003c  4628              MOV      r0,r5
00003e  f7fffffe          BL       _ZN4Anki5Cozmo19AnimationController28AddKeyFrameToCannedAnimationERKNS0_8KeyFrameEi ; Anki::Cozmo::AnimationController::AddKeyFrameToCannedAnimation(const Anki::Cozmo::KeyFrame&, int)
;;;588          }
000042  b005              ADD      sp,sp,#0x14
000044  bd30              POP      {r4,r5,pc}
;;;589    
                          ENDP

000046  0000              DCW      0x0000
                  |L62.72|
                          DCD      _ZZN4Anki5Cozmo8Messages17AddKeyFrameHelperINS1_29AddAnimKeyFrame_SetLiftHeightEEEvRKT_RNS0_8KeyFrameEEs ; Anki::Cozmo::Messages::AddKeyFrameHelper<Anki::Cozmo::Messages::AddAnimKeyFrame_SetLiftHeight>(const T1&, Anki::Cozmo::KeyFrame&)::string

                          AREA ||i._ZN4Anki5Cozmo8Messages43ProcessAddAnimKeyFrame_StartBlinkingMessageERKNS1_29AddAnimKeyFrame_StartBlinkingE||, CODE, READONLY, ALIGN=2

                  _ZN4Anki5Cozmo8Messages43ProcessAddAnimKeyFrame_StartBlinkingMessageERKNS1_29AddAnimKeyFrame_StartBlinkingE PROC ; Anki::Cozmo::Messages::ProcessAddAnimKeyFrame_StartBlinkingMessage(const Anki::Cozmo::Messages::AddAnimKeyFrame_StartBlinking&)
;;;723    
;;;724          void ProcessAddAnimKeyFrame_StartBlinkingMessage(const AddAnimKeyFrame_StartBlinking& msg)
000000  b530              PUSH     {r4,r5,lr}
;;;725          {
000002  b085              SUB      sp,sp,#0x14
;;;726            KeyFrame kf;
;;;727    
;;;728            kf.type = KeyFrame::BLINK_EYES;
000004  210f              MOVS     r1,#0xf
000006  4604              MOV      r4,r0                 ;725
000008  f88d1000          STRB     r1,[sp,#0]
00000c  7980              LDRB     r0,[r0,#6]
00000e  79e2              LDRB     r2,[r4,#7]
000010  0400              LSLS     r0,r0,#16
000012  eb002002          ADD      r0,r0,r2,LSL #8
000016  7a22              LDRB     r2,[r4,#8]
;;;729            kf.BlinkEyes.color      = GetU32ColorFromRGB(msg.color);
;;;730            kf.BlinkEyes.timeOn_ms  = msg.onPeriod_ms;
;;;731            kf.BlinkEyes.timeOff_ms = msg.offPeriod_ms;
;;;732            kf.BlinkEyes.variability_ms = msg.variability_ms;
;;;733    
;;;734            AddKeyFrameHelper(msg, kf);
000018  466d              MOV      r5,sp
00001a  4410              ADD      r0,r0,r2
00001c  9003              STR      r0,[sp,#0xc]          ;730
00001e  8820              LDRH     r0,[r4,#0]            ;730
000020  f8ad0008          STRH     r0,[sp,#8]            ;730
000024  8860              LDRH     r0,[r4,#2]            ;731
000026  f8ad000a          STRH     r0,[sp,#0xa]          ;731
00002a  7b20              LDRB     r0,[r4,#0xc]          ;732
00002c  f88d0010          STRB     r0,[sp,#0x10]         ;732
000030  7ae2              LDRB     r2,[r4,#0xb]          ;732
000032  480c              LDR      r0,|L63.100|
000034  f7fffffe          BL       _ZN4Anki5Cozmo8Messages8SendTextEPKcz ; Anki::Cozmo::Messages::SendText(const char*, ...)
000038  88a0              LDRH     r0,[r4,#4]            ;732
00003a  f8ad0002          STRH     r0,[sp,#2]            ;732
00003e  7a60              LDRB     r0,[r4,#9]            ;732
000040  2864              CMP      r0,#0x64              ;732
000042  bf88              IT       HI                    ;732
000044  2064              MOVHI    r0,#0x64              ;732
000046  f88d0004          STRB     r0,[sp,#4]            ;732
00004a  7aa0              LDRB     r0,[r4,#0xa]          ;732
00004c  2864              CMP      r0,#0x64              ;732
00004e  bf88              IT       HI                    ;732
000050  2064              MOVHI    r0,#0x64              ;732
000052  f88d0005          STRB     r0,[sp,#5]            ;732
000056  7ae1              LDRB     r1,[r4,#0xb]          ;732
000058  4628              MOV      r0,r5                 ;732
00005a  f7fffffe          BL       _ZN4Anki5Cozmo19AnimationController28AddKeyFrameToCannedAnimationERKNS0_8KeyFrameEi ; Anki::Cozmo::AnimationController::AddKeyFrameToCannedAnimation(const Anki::Cozmo::KeyFrame&, int)
;;;735          }
00005e  b005              ADD      sp,sp,#0x14
000060  bd30              POP      {r4,r5,pc}
;;;736    
                          ENDP

000062  0000              DCW      0x0000
                  |L63.100|
                          DCD      _ZZN4Anki5Cozmo8Messages17AddKeyFrameHelperINS1_29AddAnimKeyFrame_StartBlinkingEEEvRKT_RNS0_8KeyFrameEEs ; Anki::Cozmo::Messages::AddKeyFrameHelper<Anki::Cozmo::Messages::AddAnimKeyFrame_StartBlinking>(const T1&, Anki::Cozmo::KeyFrame&)::string

                          AREA ||i._ZN4Anki5Cozmo8Messages44ProcessAddAnimKeyFrame_HoldLiftHeightMessageERKNS1_30AddAnimKeyFrame_HoldLiftHeightE||, CODE, READONLY, ALIGN=2

                  _ZN4Anki5Cozmo8Messages44ProcessAddAnimKeyFrame_HoldLiftHeightMessageERKNS1_30AddAnimKeyFrame_HoldLiftHeightE PROC ; Anki::Cozmo::Messages::ProcessAddAnimKeyFrame_HoldLiftHeightMessage(const Anki::Cozmo::Messages::AddAnimKeyFrame_HoldLiftHeight&)
;;;640    
;;;641          void ProcessAddAnimKeyFrame_HoldLiftHeightMessage(const AddAnimKeyFrame_HoldLiftHeight& msg)
000000  b530              PUSH     {r4,r5,lr}
;;;642          {
000002  b085              SUB      sp,sp,#0x14
;;;643            KeyFrame kf;
;;;644    
;;;645            kf.type = KeyFrame::HOLD_LIFT_HEIGHT;
000004  2105              MOVS     r1,#5
000006  f88d1000          STRB     r1,[sp,#0]
00000a  4604              MOV      r4,r0                 ;642
00000c  7902              LDRB     r2,[r0,#4]            ;642
;;;646            AddKeyFrameHelper(msg, kf);
00000e  466d              MOV      r5,sp
000010  480b              LDR      r0,|L64.64|
000012  f7fffffe          BL       _ZN4Anki5Cozmo8Messages8SendTextEPKcz ; Anki::Cozmo::Messages::SendText(const char*, ...)
000016  8820              LDRH     r0,[r4,#0]
000018  f8ad0002          STRH     r0,[sp,#2]
00001c  78a0              LDRB     r0,[r4,#2]
00001e  2864              CMP      r0,#0x64
000020  bf88              IT       HI
000022  2064              MOVHI    r0,#0x64
000024  f88d0004          STRB     r0,[sp,#4]
000028  78e0              LDRB     r0,[r4,#3]
00002a  2864              CMP      r0,#0x64
00002c  bf88              IT       HI
00002e  2064              MOVHI    r0,#0x64
000030  f88d0005          STRB     r0,[sp,#5]
000034  7921              LDRB     r1,[r4,#4]
000036  4628              MOV      r0,r5
000038  f7fffffe          BL       _ZN4Anki5Cozmo19AnimationController28AddKeyFrameToCannedAnimationERKNS0_8KeyFrameEi ; Anki::Cozmo::AnimationController::AddKeyFrameToCannedAnimation(const Anki::Cozmo::KeyFrame&, int)
;;;647          }
00003c  b005              ADD      sp,sp,#0x14
00003e  bd30              POP      {r4,r5,pc}
;;;648    
                          ENDP

                  |L64.64|
                          DCD      _ZZN4Anki5Cozmo8Messages17AddKeyFrameHelperINS1_30AddAnimKeyFrame_HoldLiftHeightEEEvRKT_RNS0_8KeyFrameEEs ; Anki::Cozmo::Messages::AddKeyFrameHelper<Anki::Cozmo::Messages::AddAnimKeyFrame_HoldLiftHeight>(const T1&, Anki::Cozmo::KeyFrame&)::string

                          AREA ||i._ZN4Anki5Cozmo8Messages46ProcessAddAnimKeyFrame_StopEyeAnimationMessageERKNS1_32AddAnimKeyFrame_StopEyeAnimationE||, CODE, READONLY, ALIGN=2

                  _ZN4Anki5Cozmo8Messages46ProcessAddAnimKeyFrame_StopEyeAnimationMessageERKNS1_32AddAnimKeyFrame_StopEyeAnimationE PROC ; Anki::Cozmo::Messages::ProcessAddAnimKeyFrame_StopEyeAnimationMessage(const Anki::Cozmo::Messages::AddAnimKeyFrame_StopEyeAnimation&)
;;;760    
;;;761          void ProcessAddAnimKeyFrame_StopEyeAnimationMessage(const AddAnimKeyFrame_StopEyeAnimation& msg)
000000  b530              PUSH     {r4,r5,lr}
;;;762          {
000002  b085              SUB      sp,sp,#0x14
;;;763            KeyFrame kf;
;;;764            kf.type = KeyFrame::STOP_EYES;
000004  2112              MOVS     r1,#0x12
000006  f88d1000          STRB     r1,[sp,#0]
00000a  4604              MOV      r4,r0                 ;762
00000c  7902              LDRB     r2,[r0,#4]            ;762
;;;765            AddKeyFrameHelper(msg, kf);
00000e  466d              MOV      r5,sp
000010  480b              LDR      r0,|L65.64|
000012  f7fffffe          BL       _ZN4Anki5Cozmo8Messages8SendTextEPKcz ; Anki::Cozmo::Messages::SendText(const char*, ...)
000016  8820              LDRH     r0,[r4,#0]
000018  f8ad0002          STRH     r0,[sp,#2]
00001c  78a0              LDRB     r0,[r4,#2]
00001e  2864              CMP      r0,#0x64
000020  bf88              IT       HI
000022  2064              MOVHI    r0,#0x64
000024  f88d0004          STRB     r0,[sp,#4]
000028  78e0              LDRB     r0,[r4,#3]
00002a  2864              CMP      r0,#0x64
00002c  bf88              IT       HI
00002e  2064              MOVHI    r0,#0x64
000030  f88d0005          STRB     r0,[sp,#5]
000034  7921              LDRB     r1,[r4,#4]
000036  4628              MOV      r0,r5
000038  f7fffffe          BL       _ZN4Anki5Cozmo19AnimationController28AddKeyFrameToCannedAnimationERKNS0_8KeyFrameEi ; Anki::Cozmo::AnimationController::AddKeyFrameToCannedAnimation(const Anki::Cozmo::KeyFrame&, int)
;;;766          }
00003c  b005              ADD      sp,sp,#0x14
00003e  bd30              POP      {r4,r5,pc}
;;;767    
                          ENDP

                  |L65.64|
                          DCD      _ZZN4Anki5Cozmo8Messages17AddKeyFrameHelperINS1_32AddAnimKeyFrame_StopEyeAnimationEEEvRKT_RNS0_8KeyFrameEEs ; Anki::Cozmo::Messages::AddKeyFrameHelper<Anki::Cozmo::Messages::AddAnimKeyFrame_StopEyeAnimation>(const T1&, Anki::Cozmo::KeyFrame&)::string

                          AREA ||i._ZN4Anki5Cozmo8Messages46ProcessAddAnimKeyFrame_TriggerAnimationMessageERKNS1_32AddAnimKeyFrame_TriggerAnimationE||, CODE, READONLY, ALIGN=2

                  _ZN4Anki5Cozmo8Messages46ProcessAddAnimKeyFrame_TriggerAnimationMessageERKNS1_32AddAnimKeyFrame_TriggerAnimationE PROC ; Anki::Cozmo::Messages::ProcessAddAnimKeyFrame_TriggerAnimationMessage(const Anki::Cozmo::Messages::AddAnimKeyFrame_TriggerAnimation&)
;;;767    
;;;768          void ProcessAddAnimKeyFrame_TriggerAnimationMessage(const AddAnimKeyFrame_TriggerAnimation& msg)
000000  b530              PUSH     {r4,r5,lr}
;;;769          {
000002  b085              SUB      sp,sp,#0x14
;;;770            KeyFrame kf;
;;;771            kf.type = KeyFrame::TRIGGER_ANIMATION;
000004  2116              MOVS     r1,#0x16
000006  4604              MOV      r4,r0                 ;769
000008  f88d1000          STRB     r1,[sp,#0]
;;;772            kf.TriggerAnimation.animID   = msg.animToPlay;
00000c  7940              LDRB     r0,[r0,#5]
;;;773            kf.TriggerAnimation.numLoops = msg.numLoops;
00000e  9002              STR      r0,[sp,#8]
000010  79a0              LDRB     r0,[r4,#6]
000012  f88d000c          STRB     r0,[sp,#0xc]
;;;774    
;;;775            AddKeyFrameHelper(msg, kf);
000016  466d              MOV      r5,sp
000018  7922              LDRB     r2,[r4,#4]
00001a  480c              LDR      r0,|L66.76|
00001c  f7fffffe          BL       _ZN4Anki5Cozmo8Messages8SendTextEPKcz ; Anki::Cozmo::Messages::SendText(const char*, ...)
000020  8820              LDRH     r0,[r4,#0]
000022  f8ad0002          STRH     r0,[sp,#2]
000026  78a0              LDRB     r0,[r4,#2]
000028  2864              CMP      r0,#0x64
00002a  bf88              IT       HI
00002c  2064              MOVHI    r0,#0x64
00002e  f88d0004          STRB     r0,[sp,#4]
000032  78e0              LDRB     r0,[r4,#3]
000034  2864              CMP      r0,#0x64
000036  bf88              IT       HI
000038  2064              MOVHI    r0,#0x64
00003a  f88d0005          STRB     r0,[sp,#5]
00003e  7921              LDRB     r1,[r4,#4]
000040  4628              MOV      r0,r5
000042  f7fffffe          BL       _ZN4Anki5Cozmo19AnimationController28AddKeyFrameToCannedAnimationERKNS0_8KeyFrameEi ; Anki::Cozmo::AnimationController::AddKeyFrameToCannedAnimation(const Anki::Cozmo::KeyFrame&, int)
;;;776          }
000046  b005              ADD      sp,sp,#0x14
000048  bd30              POP      {r4,r5,pc}
;;;777    
                          ENDP

00004a  0000              DCW      0x0000
                  |L66.76|
                          DCD      _ZZN4Anki5Cozmo8Messages17AddKeyFrameHelperINS1_32AddAnimKeyFrame_TriggerAnimationEEEvRKT_RNS0_8KeyFrameEEs ; Anki::Cozmo::Messages::AddKeyFrameHelper<Anki::Cozmo::Messages::AddAnimKeyFrame_TriggerAnimation>(const T1&, Anki::Cozmo::KeyFrame&)::string

                          AREA ||i._ZN4Anki5Cozmo8Messages47ProcessAddAnimKeyFrame_StartFlashingEyesMessageERKNS1_33AddAnimKeyFrame_StartFlashingEyesE||, CODE, READONLY, ALIGN=2

                  _ZN4Anki5Cozmo8Messages47ProcessAddAnimKeyFrame_StartFlashingEyesMessageERKNS1_33AddAnimKeyFrame_StartFlashingEyesE PROC ; Anki::Cozmo::Messages::ProcessAddAnimKeyFrame_StartFlashingEyesMessage(const Anki::Cozmo::Messages::AddAnimKeyFrame_StartFlashingEyes&)
;;;736    
;;;737          void ProcessAddAnimKeyFrame_StartFlashingEyesMessage(const AddAnimKeyFrame_StartFlashingEyes& msg)
000000  b530              PUSH     {r4,r5,lr}
;;;738          {
000002  b085              SUB      sp,sp,#0x14
;;;739            KeyFrame kf;
;;;740            kf.type = KeyFrame::FLASH_EYES;
000004  2110              MOVS     r1,#0x10
000006  4604              MOV      r4,r0                 ;738
000008  f88d1000          STRB     r1,[sp,#0]
00000c  7980              LDRB     r0,[r0,#6]
00000e  79e2              LDRB     r2,[r4,#7]
000010  0400              LSLS     r0,r0,#16
000012  eb002002          ADD      r0,r0,r2,LSL #8
000016  7a22              LDRB     r2,[r4,#8]
;;;741            kf.FlashEyes.color      = GetU32ColorFromRGB(msg.color);
;;;742            kf.FlashEyes.timeOn_ms  = msg.onPeriod_ms;
;;;743            kf.FlashEyes.timeOff_ms = msg.offPeriod_ms;
;;;744            kf.FlashEyes.shape      = static_cast<EyeShape>(msg.shape);
;;;745    
;;;746            AddKeyFrameHelper(msg, kf);
000018  466d              MOV      r5,sp
00001a  4410              ADD      r0,r0,r2
00001c  9003              STR      r0,[sp,#0xc]          ;742
00001e  8820              LDRH     r0,[r4,#0]            ;742
000020  f8ad0008          STRH     r0,[sp,#8]            ;742
000024  8860              LDRH     r0,[r4,#2]            ;743
000026  f8ad000a          STRH     r0,[sp,#0xa]          ;743
00002a  7b20              LDRB     r0,[r4,#0xc]          ;744
00002c  f88d0010          STRB     r0,[sp,#0x10]         ;744
000030  7ae2              LDRB     r2,[r4,#0xb]          ;744
000032  480c              LDR      r0,|L67.100|
000034  f7fffffe          BL       _ZN4Anki5Cozmo8Messages8SendTextEPKcz ; Anki::Cozmo::Messages::SendText(const char*, ...)
000038  88a0              LDRH     r0,[r4,#4]            ;744
00003a  f8ad0002          STRH     r0,[sp,#2]            ;744
00003e  7a60              LDRB     r0,[r4,#9]            ;744
000040  2864              CMP      r0,#0x64              ;744
000042  bf88              IT       HI                    ;744
000044  2064              MOVHI    r0,#0x64              ;744
000046  f88d0004          STRB     r0,[sp,#4]            ;744
00004a  7aa0              LDRB     r0,[r4,#0xa]          ;744
00004c  2864              CMP      r0,#0x64              ;744
00004e  bf88              IT       HI                    ;744
000050  2064              MOVHI    r0,#0x64              ;744
000052  f88d0005          STRB     r0,[sp,#5]            ;744
000056  7ae1              LDRB     r1,[r4,#0xb]          ;744
000058  4628              MOV      r0,r5                 ;744
00005a  f7fffffe          BL       _ZN4Anki5Cozmo19AnimationController28AddKeyFrameToCannedAnimationERKNS0_8KeyFrameEi ; Anki::Cozmo::AnimationController::AddKeyFrameToCannedAnimation(const Anki::Cozmo::KeyFrame&, int)
;;;747          }
00005e  b005              ADD      sp,sp,#0x14
000060  bd30              POP      {r4,r5,pc}
;;;748    
                          ENDP

000062  0000              DCW      0x0000
                  |L67.100|
                          DCD      _ZZN4Anki5Cozmo8Messages17AddKeyFrameHelperINS1_33AddAnimKeyFrame_StartFlashingEyesEEEvRKT_RNS0_8KeyFrameEEs ; Anki::Cozmo::Messages::AddKeyFrameHelper<Anki::Cozmo::Messages::AddAnimKeyFrame_StartFlashingEyes>(const T1&, Anki::Cozmo::KeyFrame&)::string

                          AREA ||i._ZN4Anki5Cozmo8Messages47ProcessAddAnimKeyFrame_StartSpinningEyesMessageERKNS1_33AddAnimKeyFrame_StartSpinningEyesE||, CODE, READONLY, ALIGN=2

                  _ZN4Anki5Cozmo8Messages47ProcessAddAnimKeyFrame_StartSpinningEyesMessageERKNS1_33AddAnimKeyFrame_StartSpinningEyesE PROC ; Anki::Cozmo::Messages::ProcessAddAnimKeyFrame_StartSpinningEyesMessage(const Anki::Cozmo::Messages::AddAnimKeyFrame_StartSpinningEyes&)
;;;748    
;;;749          void ProcessAddAnimKeyFrame_StartSpinningEyesMessage(const AddAnimKeyFrame_StartSpinningEyes& msg)
000000  b530              PUSH     {r4,r5,lr}
;;;750          {
000002  b085              SUB      sp,sp,#0x14
;;;751            KeyFrame kf;
;;;752            kf.type = KeyFrame::SPIN_EYES;
000004  2111              MOVS     r1,#0x11
000006  4604              MOV      r4,r0                 ;750
000008  f88d1000          STRB     r1,[sp,#0]
00000c  7900              LDRB     r0,[r0,#4]
00000e  7962              LDRB     r2,[r4,#5]
000010  0400              LSLS     r0,r0,#16
000012  eb002002          ADD      r0,r0,r2,LSL #8
000016  79a2              LDRB     r2,[r4,#6]
;;;753            kf.SpinEyes.color          = GetU32ColorFromRGB(msg.color);
;;;754            kf.SpinEyes.period_ms      = msg.period_ms;
;;;755            kf.SpinEyes.leftClockwise  = msg.leftClockwise;
;;;756            kf.SpinEyes.rightClockWise = msg.rightClockwise;
;;;757    
;;;758            AddKeyFrameHelper(msg, kf);
000018  466d              MOV      r5,sp
00001a  4410              ADD      r0,r0,r2
00001c  9003              STR      r0,[sp,#0xc]          ;754
00001e  8820              LDRH     r0,[r4,#0]            ;754
000020  f8ad0008          STRH     r0,[sp,#8]            ;754
000024  7aa0              LDRB     r0,[r4,#0xa]          ;755
000026  f88d0010          STRB     r0,[sp,#0x10]         ;755
00002a  7ae0              LDRB     r0,[r4,#0xb]          ;756
00002c  f88d0011          STRB     r0,[sp,#0x11]         ;756
000030  7a62              LDRB     r2,[r4,#9]            ;756
000032  480c              LDR      r0,|L68.100|
000034  f7fffffe          BL       _ZN4Anki5Cozmo8Messages8SendTextEPKcz ; Anki::Cozmo::Messages::SendText(const char*, ...)
000038  8860              LDRH     r0,[r4,#2]            ;756
00003a  f8ad0002          STRH     r0,[sp,#2]            ;756
00003e  79e0              LDRB     r0,[r4,#7]            ;756
000040  2864              CMP      r0,#0x64              ;756
000042  bf88              IT       HI                    ;756
000044  2064              MOVHI    r0,#0x64              ;756
000046  f88d0004          STRB     r0,[sp,#4]            ;756
00004a  7a20              LDRB     r0,[r4,#8]            ;756
00004c  2864              CMP      r0,#0x64              ;756
00004e  bf88              IT       HI                    ;756
000050  2064              MOVHI    r0,#0x64              ;756
000052  f88d0005          STRB     r0,[sp,#5]            ;756
000056  7a61              LDRB     r1,[r4,#9]            ;756
000058  4628              MOV      r0,r5                 ;756
00005a  f7fffffe          BL       _ZN4Anki5Cozmo19AnimationController28AddKeyFrameToCannedAnimationERKNS0_8KeyFrameEi ; Anki::Cozmo::AnimationController::AddKeyFrameToCannedAnimation(const Anki::Cozmo::KeyFrame&, int)
;;;759          }
00005e  b005              ADD      sp,sp,#0x14
000060  bd30              POP      {r4,r5,pc}
;;;760    
                          ENDP

000062  0000              DCW      0x0000
                  |L68.100|
                          DCD      _ZZN4Anki5Cozmo8Messages17AddKeyFrameHelperINS1_33AddAnimKeyFrame_StartSpinningEyesEEEvRKT_RNS0_8KeyFrameEEs ; Anki::Cozmo::Messages::AddKeyFrameHelper<Anki::Cozmo::Messages::AddAnimKeyFrame_StartSpinningEyes>(const T1&, Anki::Cozmo::KeyFrame&)::string

                          AREA ||i._ZN4Anki5Cozmo8Messages49ProcessAddAnimKeyFrame_SetEyeShapeAndColorMessageERKNS1_35AddAnimKeyFrame_SetEyeShapeAndColorE||, CODE, READONLY, ALIGN=2

                  _ZN4Anki5Cozmo8Messages49ProcessAddAnimKeyFrame_SetEyeShapeAndColorMessageERKNS1_35AddAnimKeyFrame_SetEyeShapeAndColorE PROC ; Anki::Cozmo::Messages::ProcessAddAnimKeyFrame_SetEyeShapeAndColorMessage(const Anki::Cozmo::Messages::AddAnimKeyFrame_SetEyeShapeAndColor&)
;;;711    
;;;712          void ProcessAddAnimKeyFrame_SetEyeShapeAndColorMessage(const AddAnimKeyFrame_SetEyeShapeAndColor& msg)
000000  b530              PUSH     {r4,r5,lr}
;;;713          {
000002  b085              SUB      sp,sp,#0x14
;;;714            KeyFrame kf;
;;;715    
;;;716            kf.type = KeyFrame::SET_EYE;
000004  2113              MOVS     r1,#0x13
000006  4604              MOV      r4,r0                 ;713
000008  f88d1000          STRB     r1,[sp,#0]
;;;717            kf.SetEye.whichEye = static_cast<WhichEye>(msg.whichEye);
00000c  7a40              LDRB     r0,[r0,#9]
00000e  f88d0008          STRB     r0,[sp,#8]
000012  78a0              LDRB     r0,[r4,#2]
000014  78e2              LDRB     r2,[r4,#3]
000016  0400              LSLS     r0,r0,#16
000018  eb002002          ADD      r0,r0,r2,LSL #8
00001c  7922              LDRB     r2,[r4,#4]
;;;718            kf.SetEye.color    = GetU32ColorFromRGB(msg.color);
;;;719            kf.SetEye.shape    = static_cast<EyeShape>(msg.shape);
;;;720    
;;;721            AddKeyFrameHelper(msg, kf);
00001e  466d              MOV      r5,sp
000020  4410              ADD      r0,r0,r2
000022  9003              STR      r0,[sp,#0xc]          ;719
000024  7a20              LDRB     r0,[r4,#8]            ;719
000026  f88d0009          STRB     r0,[sp,#9]            ;719
00002a  79e2              LDRB     r2,[r4,#7]            ;719
00002c  480b              LDR      r0,|L69.92|
00002e  f7fffffe          BL       _ZN4Anki5Cozmo8Messages8SendTextEPKcz ; Anki::Cozmo::Messages::SendText(const char*, ...)
000032  8820              LDRH     r0,[r4,#0]            ;719
000034  f8ad0002          STRH     r0,[sp,#2]            ;719
000038  7960              LDRB     r0,[r4,#5]            ;719
00003a  2864              CMP      r0,#0x64              ;719
00003c  bf88              IT       HI                    ;719
00003e  2064              MOVHI    r0,#0x64              ;719
000040  f88d0004          STRB     r0,[sp,#4]            ;719
000044  79a0              LDRB     r0,[r4,#6]            ;719
000046  2864              CMP      r0,#0x64              ;719
000048  bf88              IT       HI                    ;719
00004a  2064              MOVHI    r0,#0x64              ;719
00004c  f88d0005          STRB     r0,[sp,#5]            ;719
000050  79e1              LDRB     r1,[r4,#7]            ;719
000052  4628              MOV      r0,r5                 ;719
000054  f7fffffe          BL       _ZN4Anki5Cozmo19AnimationController28AddKeyFrameToCannedAnimationERKNS0_8KeyFrameEi ; Anki::Cozmo::AnimationController::AddKeyFrameToCannedAnimation(const Anki::Cozmo::KeyFrame&, int)
;;;722          }
000058  b005              ADD      sp,sp,#0x14
00005a  bd30              POP      {r4,r5,pc}
;;;723    
                          ENDP

                  |L69.92|
                          DCD      _ZZN4Anki5Cozmo8Messages17AddKeyFrameHelperINS1_35AddAnimKeyFrame_SetEyeShapeAndColorEEEvRKT_RNS0_8KeyFrameEEs ; Anki::Cozmo::Messages::AddKeyFrameHelper<Anki::Cozmo::Messages::AddAnimKeyFrame_SetEyeShapeAndColor>(const T1&, Anki::Cozmo::KeyFrame&)::string

                          AREA ||i._ZN4Anki5Cozmo8Messages7GetSizeENS1_2IDE||, CODE, READONLY, ALIGN=2

                  _ZN4Anki5Cozmo8Messages7GetSizeENS1_2IDE PROC ; Anki::Cozmo::Messages::GetSize(Anki::Cozmo::Messages::ID)
;;;80     
;;;81           u16 GetSize(const ID msgID)
000000  4902              LDR      r1,|L70.12|
;;;82           {
;;;83             return LookupTable_[msgID].size;
000002  eb0100c0          ADD      r0,r1,r0,LSL #3
000006  8840              LDRH     r0,[r0,#2]
;;;84           }
000008  4770              BX       lr
;;;85     
                          ENDP

00000a  0000              DCW      0x0000
                  |L70.12|
                          DCD      ||.constdata||

                          AREA ||i._ZN4Anki5Cozmo8Messages8SendTextEPKcSt9__va_list||, CODE, READONLY, ALIGN=1

                  _ZN4Anki5Cozmo8Messages8SendTextEPKcSt9__va_list PROC ; Anki::Cozmo::Messages::SendText(const char*, std::__va_list)
;;;875    
;;;876          int SendText(const char *format, va_list vaList)
000000  b5f0              PUSH     {r4-r7,lr}
;;;877          {
000002  f5ad7d0d          SUB      sp,sp,#0x234
000006  460c              MOV      r4,r1
000008  4605              MOV      r5,r0
;;;878            #define MAX_SEND_TEXT_LENGTH 512
;;;879            char text[MAX_SEND_TEXT_LENGTH];
;;;880            memset(text, 0, MAX_SEND_TEXT_LENGTH);
00000a  f44f7100          MOV      r1,#0x200
00000e  4668              MOV      r0,sp
000010  f7fffffe          BL       __aeabi_memclr4
;;;881    
;;;882            // Create formatted text
;;;883            vsnprintf(text, MAX_SEND_TEXT_LENGTH, format, vaList);
000014  4623              MOV      r3,r4
000016  462a              MOV      r2,r5
000018  f44f7100          MOV      r1,#0x200
00001c  4668              MOV      r0,sp
00001e  f7fffffe          BL       __c89vsnprintf
;;;884    
;;;885            // Breakup and send in multiple messages if necessary
;;;886            Messages::PrintText m;
;;;887            const size_t tempBytesLeftToSend = strlen(text);
000022  4668              MOV      r0,sp
000024  f7fffffe          BL       strlen
000028  1e05              SUBS     r5,r0,#0
;;;888            AnkiAssert(tempBytesLeftToSend < s32_MAX);
;;;889            s32 bytesLeftToSend = static_cast<s32>(tempBytesLeftToSend);
;;;890            u8 numMsgs = 0;
00002a  f04f0600          MOV      r6,#0
00002e  bfc4              ITT      GT
000030  2400              MOVGT    r4,#0
000032  466f              MOVGT    r7,sp                 ;879
;;;891            while(bytesLeftToSend > 0) {
000034  dd22              BLE      |L71.124|
                  |L71.54|
;;;892              memset(m.text, 0, PRINT_TEXT_MSG_LENGTH);
000036  9480              STR      r4,[sp,#0x200]
000038  9481              STR      r4,[sp,#0x204]
00003a  9482              STR      r4,[sp,#0x208]
00003c  9483              STR      r4,[sp,#0x20c]
00003e  9484              STR      r4,[sp,#0x210]
000040  9485              STR      r4,[sp,#0x214]
000042  9486              STR      r4,[sp,#0x218]
000044  9487              STR      r4,[sp,#0x21c]
000046  9488              STR      r4,[sp,#0x220]
000048  9489              STR      r4,[sp,#0x224]
00004a  948a              STR      r4,[sp,#0x228]
00004c  948b              STR      r4,[sp,#0x22c]
;;;893              size_t currPacketBytes = MIN(PRINT_TEXT_MSG_LENGTH, bytesLeftToSend);
00004e  948c              STR      r4,[sp,#0x230]
000050  2d32              CMP      r5,#0x32
000052  bfcc              ITE      GT
000054  2232              MOVGT    r2,#0x32
000056  462a              MOVLE    r2,r5
;;;894              memcpy(m.text, text + numMsgs*PRINT_TEXT_MSG_LENGTH, currPacketBytes);
000058  eb0600c6          ADD      r0,r6,r6,LSL #3
00005c  eb001006          ADD      r0,r0,r6,LSL #4
000060  eb070140          ADD      r1,r7,r0,LSL #1
000064  a880              ADD      r0,sp,#0x200
000066  f7fffffe          BL       __aeabi_memcpy
;;;895    
;;;896              bytesLeftToSend -= PRINT_TEXT_MSG_LENGTH;
;;;897    
;;;898              HAL::RadioSendMessage(GET_MESSAGE_ID(Messages::PrintText), &m);
00006a  a980              ADD      r1,sp,#0x200
00006c  2047              MOVS     r0,#0x47
00006e  3d32              SUBS     r5,r5,#0x32
000070  f7fffffe          BL       _ZN4Anki5Cozmo3HAL16RadioSendMessageENS0_8Messages2IDEPKv ; Anki::Cozmo::HAL::RadioSendMessage(Anki::Cozmo::Messages::ID, const void*)
;;;899              numMsgs++;
000074  1c70              ADDS     r0,r6,#1
000076  b2c6              UXTB     r6,r0
000078  2d00              CMP      r5,#0                 ;891
00007a  dcdc              BGT      |L71.54|
                  |L71.124|
;;;900            }
;;;901    
;;;902            return 0;
;;;903          }
00007c  f50d7d0d          ADD      sp,sp,#0x234
000080  2000              MOVS     r0,#0                 ;902
000082  bdf0              POP      {r4-r7,pc}
;;;904    
                          ENDP


                          AREA ||i._ZN4Anki5Cozmo8Messages8SendTextEPKcz||, CODE, READONLY, ALIGN=1

                  _ZN4Anki5Cozmo8Messages8SendTextEPKcz PROC ; Anki::Cozmo::Messages::SendText(const char*, ...)
;;;865    
;;;866          int SendText(const char *format, ...)
000000  b40f              PUSH     {r0-r3}
;;;867          {
000002  b510              PUSH     {r4,lr}
;;;868            va_list argptr;
;;;869            va_start(argptr, format);
000004  a903              ADD      r1,sp,#0xc
;;;870            SendText(format, argptr);
000006  9802              LDR      r0,[sp,#8]
000008  f7fffffe          BL       _ZN4Anki5Cozmo8Messages8SendTextEPKcSt9__va_list ; Anki::Cozmo::Messages::SendText(const char*, std::__va_list)
;;;871            va_end(argptr);
;;;872    
;;;873            return 0;
;;;874          }
00000c  bc10              POP      {r4}
00000e  2000              MOVS     r0,#0                 ;873
000010  f85dfb14          LDR      pc,[sp],#0x14
;;;875    
                          ENDP


                          AREA ||i._ZN4Anki5Cozmo8Messages9LookForIDENS1_2IDE||, CODE, READONLY, ALIGN=2

                  _ZN4Anki5Cozmo8Messages9LookForIDENS1_2IDE PROC ; Anki::Cozmo::Messages::LookForID(Anki::Cozmo::Messages::ID)
;;;106    
;;;107          void LookForID(const ID msgID) {
000000  b510              PUSH     {r4,lr}
;;;108            lookForID_ = msgID;
000002  4c03              LDR      r4,|L73.16|
000004  7020              STRB     r0,[r4,#0]
;;;109            lookingStartTime_ = HAL::GetMicroCounter();
000006  f7fffffe          BL       _ZN4Anki5Cozmo3HAL15GetMicroCounterEv ; Anki::Cozmo::HAL::GetMicroCounter()
00000a  6060              STR      r0,[r4,#4]  ; _ZN4Anki5Cozmo8Messages36_GLOBAL__N__12_messages_cpp_0235eab817lookingStartTime_E
;;;110          }
00000c  bd10              POP      {r4,pc}
;;;111    
                          ENDP

00000e  0000              DCW      0x0000
                  |L73.16|
                          DCD      ||.data||

                          AREA ||i._ZN4Anki5Cozmo8Messages9ResetInitEv||, CODE, READONLY, ALIGN=2

                  _ZN4Anki5Cozmo8Messages9ResetInitEv PROC ; Anki::Cozmo::Messages::ResetInit()
;;;935    
;;;936          void ResetInit()
000000  4802              LDR      r0,|L74.12|
;;;937          {
;;;938            initReceived_ = false;
000002  2100              MOVS     r1,#0
000004  7081              STRB     r1,[r0,#2]
;;;939            lastPingTime_ = 0;
000006  6081              STR      r1,[r0,#8]  ; _ZN4Anki5Cozmo8Messages36_GLOBAL__N__12_messages_cpp_0235eab813lastPingTime_E
;;;940          }
000008  4770              BX       lr
;;;941    
                          ENDP

00000a  0000              DCW      0x0000
                  |L74.12|
                          DCD      ||.data||

                          AREA ||i.__sti___12_messages_cpp_0235eab8||, CODE, READONLY, ALIGN=2

                  __sti___12_messages_cpp_0235eab8 PROC
000000  4807              LDR      r0,|L75.32|
000002  ed9f0a06          VLDR     s0,|L75.28|
000006  2101              MOVS     r1,#1
000008  ed800a03          VSTR     s0,[r0,#0xc]
00000c  4805              LDR      r0,|L75.36|
00000e  2310              MOVS     r3,#0x10
000010  7601              STRB     r1,[r0,#0x18]
000012  301c              ADDS     r0,r0,#0x1c
000014  220c              MOVS     r2,#0xc
000016  4904              LDR      r1,|L75.40|
000018  f7ffbffe          B.W      __aeabi_vec_ctor_nocookie_nodtor
                          ENDP

                  |L75.28|
00001c  423df6f2          DCFS     0x423df6f2 ; 47.491157531738281
                  |L75.32|
                          DCD      ||.data||
                  |L75.36|
                          DCD      ||.bss||+0x100
                  |L75.40|
                          DCD      _ZN4Anki7MailboxINS_5Cozmo8Messages13FaceDetectionEEC1Ev ; Anki::Mailbox<Anki::Cozmo::Messages::FaceDetection>::Mailbox()

                          AREA ||.ARM.exidx||, LINKORDER=||i._ZN4Anki5Cozmo8Messages8SendTextEPKcSt9__va_list||, DATA, READONLY, SECTYPE={SHT_ARM_EXIDX}, ALIGN=2

                          DCD      0x00000000
                          RELOC 42, ||i._ZN4Anki5Cozmo8Messages8SendTextEPKcSt9__va_list||
                          DCD      0x00000001

                          AREA ||area_number.77||, LINKORDER=||i._ZN4Anki5Cozmo8Messages8SendTextEPKcz||, DATA, READONLY, SECTYPE={SHT_ARM_EXIDX}, ALIGN=2

                          EXPORTAS ||area_number.77||, ||.ARM.exidx||
                          DCD      0x00000000
                          RELOC 42, ||i._ZN4Anki5Cozmo8Messages8SendTextEPKcz||
                          DCD      0x00000001

                          AREA ||area_number.78||, LINKORDER=||i._ZN4Anki5Cozmo8Messages25ProcessDriveWheelsMessageERKNS1_11DriveWheelsE||, DATA, READONLY, SECTYPE={SHT_ARM_EXIDX}, ALIGN=2

                          EXPORTAS ||area_number.78||, ||.ARM.exidx||
                          DCD      0x00000000
                          RELOC 42, ||i._ZN4Anki5Cozmo8Messages25ProcessDriveWheelsMessageERKNS1_11DriveWheelsE||
                          DCD      0x00000001

                          AREA ||area_number.79||, LINKORDER=||i._ZN4Anki5Cozmo8Messages34ProcessDriveWheelsCurvatureMessageERKNS1_20DriveWheelsCurvatureE||, DATA, READONLY, SECTYPE={SHT_ARM_EXIDX}, ALIGN=2

                          EXPORTAS ||area_number.79||, ||.ARM.exidx||
                          DCD      0x00000000
                          RELOC 42, ||i._ZN4Anki5Cozmo8Messages34ProcessDriveWheelsCurvatureMessageERKNS1_20DriveWheelsCurvatureE||
                          DCD      0x00000001

                          AREA ||area_number.80||, LINKORDER=||i._ZN4Anki5Cozmo8Messages22ProcessMoveLiftMessageERKNS1_8MoveLiftE||, DATA, READONLY, SECTYPE={SHT_ARM_EXIDX}, ALIGN=2

                          EXPORTAS ||area_number.80||, ||.ARM.exidx||
                          DCD      0x00000000
                          RELOC 42, ||i._ZN4Anki5Cozmo8Messages22ProcessMoveLiftMessageERKNS1_8MoveLiftE||
                          DCD      0x00000001

                          AREA ||area_number.81||, LINKORDER=||i._ZN4Anki5Cozmo8Messages22ProcessMoveHeadMessageERKNS1_8MoveHeadE||, DATA, READONLY, SECTYPE={SHT_ARM_EXIDX}, ALIGN=2

                          EXPORTAS ||area_number.81||, ||.ARM.exidx||
                          DCD      0x00000000
                          RELOC 42, ||i._ZN4Anki5Cozmo8Messages22ProcessMoveHeadMessageERKNS1_8MoveHeadE||
                          DCD      0x00000001

                          AREA ||area_number.82||, LINKORDER=||i._ZN4Anki5Cozmo8Messages27ProcessSetLiftHeightMessageERKNS1_13SetLiftHeightE||, DATA, READONLY, SECTYPE={SHT_ARM_EXIDX}, ALIGN=2

                          EXPORTAS ||area_number.82||, ||.ARM.exidx||
                          DCD      0x00000000
                          RELOC 42, ||i._ZN4Anki5Cozmo8Messages27ProcessSetLiftHeightMessageERKNS1_13SetLiftHeightE||
                          DCD      0x00000001

                          AREA ||area_number.83||, LINKORDER=||i._ZN4Anki5Cozmo8Messages26ProcessSetHeadAngleMessageERKNS1_12SetHeadAngleE||, DATA, READONLY, SECTYPE={SHT_ARM_EXIDX}, ALIGN=2

                          EXPORTAS ||area_number.83||, ||.ARM.exidx||
                          DCD      0x00000000
                          RELOC 42, ||i._ZN4Anki5Cozmo8Messages26ProcessSetHeadAngleMessageERKNS1_12SetHeadAngleE||
                          DCD      0x00000001

                          AREA ||area_number.84||, LINKORDER=||i._ZN4Anki5Cozmo8Messages27ProcessStopAllMotorsMessageERKNS1_13StopAllMotorsE||, DATA, READONLY, SECTYPE={SHT_ARM_EXIDX}, ALIGN=2

                          EXPORTAS ||area_number.84||, ||.ARM.exidx||
                          DCD      0x00000000
                          RELOC 42, ||i._ZN4Anki5Cozmo8Messages27ProcessStopAllMotorsMessageERKNS1_13StopAllMotorsE||
                          DCD      0x00000001

                          AREA ||area_number.85||, LINKORDER=||i._ZN4Anki5Cozmo8Messages23ProcessClearPathMessageERKNS1_9ClearPathE||, DATA, READONLY, SECTYPE={SHT_ARM_EXIDX}, ALIGN=2

                          EXPORTAS ||area_number.85||, ||.ARM.exidx||
                          DCD      0x00000000
                          RELOC 42, ||i._ZN4Anki5Cozmo8Messages23ProcessClearPathMessageERKNS1_9ClearPathE||
                          DCD      0x00000001

                          AREA ||area_number.86||, LINKORDER=||i._ZN4Anki5Cozmo8Messages35ProcessAppendPathSegmentLineMessageERKNS1_21AppendPathSegmentLineE||, DATA, READONLY, SECTYPE={SHT_ARM_EXIDX}, ALIGN=2

                          EXPORTAS ||area_number.86||, ||.ARM.exidx||
                          DCD      0x00000000
                          RELOC 42, ||i._ZN4Anki5Cozmo8Messages35ProcessAppendPathSegmentLineMessageERKNS1_21AppendPathSegmentLineE||
                          DCD      0x00000001

                          AREA ||area_number.87||, LINKORDER=||i._ZN4Anki5Cozmo8Messages34ProcessAppendPathSegmentArcMessageERKNS1_20AppendPathSegmentArcE||, DATA, READONLY, SECTYPE={SHT_ARM_EXIDX}, ALIGN=2

                          EXPORTAS ||area_number.87||, ||.ARM.exidx||
                          DCD      0x00000000
                          RELOC 42, ||i._ZN4Anki5Cozmo8Messages34ProcessAppendPathSegmentArcMessageERKNS1_20AppendPathSegmentArcE||
                          DCD      0x00000001

                          AREA ||area_number.88||, LINKORDER=||i._ZN4Anki5Cozmo8Messages40ProcessAppendPathSegmentPointTurnMessageERKNS1_26AppendPathSegmentPointTurnE||, DATA, READONLY, SECTYPE={SHT_ARM_EXIDX}, ALIGN=2

                          EXPORTAS ||area_number.88||, ||.ARM.exidx||
                          DCD      0x00000000
                          RELOC 42, ||i._ZN4Anki5Cozmo8Messages40ProcessAppendPathSegmentPointTurnMessageERKNS1_26AppendPathSegmentPointTurnE||
                          DCD      0x00000001

                          AREA ||area_number.89||, LINKORDER=||i._ZN4Anki5Cozmo8Messages22ProcessTrimPathMessageERKNS1_8TrimPathE||, DATA, READONLY, SECTYPE={SHT_ARM_EXIDX}, ALIGN=2

                          EXPORTAS ||area_number.89||, ||.ARM.exidx||
                          DCD      0x00000000
                          RELOC 42, ||i._ZN4Anki5Cozmo8Messages22ProcessTrimPathMessageERKNS1_8TrimPathE||
                          DCD      0x00000001

                          AREA ||area_number.90||, LINKORDER=||i._ZN4Anki5Cozmo8Messages25ProcessExecutePathMessageERKNS1_11ExecutePathE||, DATA, READONLY, SECTYPE={SHT_ARM_EXIDX}, ALIGN=2

                          EXPORTAS ||area_number.90||, ||.ARM.exidx||
                          DCD      0x00000000
                          RELOC 42, ||i._ZN4Anki5Cozmo8Messages25ProcessExecutePathMessageERKNS1_11ExecutePathE||
                          DCD      0x00000001

                          AREA ||area_number.91||, LINKORDER=||i._ZN4Anki5Cozmo8Messages28ProcessDockWithObjectMessageERKNS1_14DockWithObjectE||, DATA, READONLY, SECTYPE={SHT_ARM_EXIDX}, ALIGN=2

                          EXPORTAS ||area_number.91||, ||.ARM.exidx||
                          DCD      0x00000000
                          RELOC 42, ||i._ZN4Anki5Cozmo8Messages28ProcessDockWithObjectMessageERKNS1_14DockWithObjectE||
                          DCD      0x00000001

                          AREA ||area_number.92||, LINKORDER=||i._ZN4Anki5Cozmo8Messages26ProcessAbortDockingMessageERKNS1_12AbortDockingE||, DATA, READONLY, SECTYPE={SHT_ARM_EXIDX}, ALIGN=2

                          EXPORTAS ||area_number.92||, ||.ARM.exidx||
                          DCD      0x00000000
                          RELOC 42, ||i._ZN4Anki5Cozmo8Messages26ProcessAbortDockingMessageERKNS1_12AbortDockingE||
                          DCD      0x00000001

                          AREA ||area_number.93||, LINKORDER=||i._ZN4Anki5Cozmo8Messages33ProcessPlaceObjectOnGroundMessageERKNS1_19PlaceObjectOnGroundE||, DATA, READONLY, SECTYPE={SHT_ARM_EXIDX}, ALIGN=2

                          EXPORTAS ||area_number.93||, ||.ARM.exidx||
                          DCD      0x00000000
                          RELOC 42, ||i._ZN4Anki5Cozmo8Messages33ProcessPlaceObjectOnGroundMessageERKNS1_19PlaceObjectOnGroundE||
                          DCD      0x00000001

                          AREA ||area_number.94||, LINKORDER=||i._ZN4Anki5Cozmo8Messages35ProcessAbsLocalizationUpdateMessageERKNS1_21AbsLocalizationUpdateE||, DATA, READONLY, SECTYPE={SHT_ARM_EXIDX}, ALIGN=2

                          EXPORTAS ||area_number.94||, ||.ARM.exidx||
                          DCD      0x00000000
                          RELOC 42, ||i._ZN4Anki5Cozmo8Messages35ProcessAbsLocalizationUpdateMessageERKNS1_21AbsLocalizationUpdateE||
                          DCD      0x00000001

                          AREA ||area_number.95||, LINKORDER=||i._ZN4Anki5Cozmo8Messages22ProcessSyncTimeMessageERKNS1_8SyncTimeE||, DATA, READONLY, SECTYPE={SHT_ARM_EXIDX}, ALIGN=2

                          EXPORTAS ||area_number.95||, ||.ARM.exidx||
                          DCD      0x00000000
                          RELOC 42, ||i._ZN4Anki5Cozmo8Messages22ProcessSyncTimeMessageERKNS1_8SyncTimeE||
                          DCD      0x00000001

                          AREA ||area_number.96||, LINKORDER=||i._ZN4Anki5Cozmo8Messages29ProcessHeadAngleUpdateMessageERKNS1_15HeadAngleUpdateE||, DATA, READONLY, SECTYPE={SHT_ARM_EXIDX}, ALIGN=2

                          EXPORTAS ||area_number.96||, ||.ARM.exidx||
                          DCD      0x00000000
                          RELOC 42, ||i._ZN4Anki5Cozmo8Messages29ProcessHeadAngleUpdateMessageERKNS1_15HeadAngleUpdateE||
                          DCD      0x00000001

                          AREA ||area_number.97||, LINKORDER=||i._ZN4Anki5Cozmo8Messages26ProcessImageRequestMessageERKNS1_12ImageRequestE||, DATA, READONLY, SECTYPE={SHT_ARM_EXIDX}, ALIGN=2

                          EXPORTAS ||area_number.97||, ||.ARM.exidx||
                          DCD      0x00000000
                          RELOC 42, ||i._ZN4Anki5Cozmo8Messages26ProcessImageRequestMessageERKNS1_12ImageRequestE||
                          DCD      0x00000001

                          AREA ||area_number.98||, LINKORDER=||i._ZN4Anki5Cozmo8Messages27ProcessStartTestModeMessageERKNS1_13StartTestModeE||, DATA, READONLY, SECTYPE={SHT_ARM_EXIDX}, ALIGN=2

                          EXPORTAS ||area_number.98||, ||.ARM.exidx||
                          DCD      0x00000000
                          RELOC 42, ||i._ZN4Anki5Cozmo8Messages27ProcessStartTestModeMessageERKNS1_13StartTestModeE||
                          DCD      0x00000001

                          AREA ||area_number.99||, LINKORDER=||i._ZN4Anki5Cozmo8Messages26ProcessSetHeadlightMessageERKNS1_12SetHeadlightE||, DATA, READONLY, SECTYPE={SHT_ARM_EXIDX}, ALIGN=2

                          EXPORTAS ||area_number.99||, ||.ARM.exidx||
                          DCD      0x00000000
                          RELOC 42, ||i._ZN4Anki5Cozmo8Messages26ProcessSetHeadlightMessageERKNS1_12SetHeadlightE||
                          DCD      0x00000001

                          AREA ||area_number.100||, LINKORDER=||i._ZN4Anki5Cozmo8Messages30ProcessSetDefaultLightsMessageERKNS1_16SetDefaultLightsE||, DATA, READONLY, SECTYPE={SHT_ARM_EXIDX}, ALIGN=2

                          EXPORTAS ||area_number.100||, ||.ARM.exidx||
                          DCD      0x00000000
                          RELOC 42, ||i._ZN4Anki5Cozmo8Messages30ProcessSetDefaultLightsMessageERKNS1_16SetDefaultLightsE||
                          DCD      0x00000001

                          AREA ||area_number.101||, LINKORDER=||i._ZN4Anki5Cozmo8Messages36ProcessSetHeadControllerGainsMessageERKNS1_22SetHeadControllerGainsE||, DATA, READONLY, SECTYPE={SHT_ARM_EXIDX}, ALIGN=2

                          EXPORTAS ||area_number.101||, ||.ARM.exidx||
                          DCD      0x00000000
                          RELOC 42, ||i._ZN4Anki5Cozmo8Messages36ProcessSetHeadControllerGainsMessageERKNS1_22SetHeadControllerGainsE||
                          DCD      0x00000001

                          AREA ||area_number.102||, LINKORDER=||i._ZN4Anki5Cozmo8Messages36ProcessSetLiftControllerGainsMessageERKNS1_22SetLiftControllerGainsE||, DATA, READONLY, SECTYPE={SHT_ARM_EXIDX}, ALIGN=2

                          EXPORTAS ||area_number.102||, ||.ARM.exidx||
                          DCD      0x00000000
                          RELOC 42, ||i._ZN4Anki5Cozmo8Messages36ProcessSetLiftControllerGainsMessageERKNS1_22SetLiftControllerGainsE||
                          DCD      0x00000001

                          AREA ||area_number.103||, LINKORDER=||i._ZN4Anki5Cozmo8Messages32ProcessDockingErrorSignalMessageERKNS1_18DockingErrorSignalE||, DATA, READONLY, SECTYPE={SHT_ARM_EXIDX}, ALIGN=2

                          EXPORTAS ||area_number.103||, ||.ARM.exidx||
                          DCD      0x00000000
                          RELOC 42, ||i._ZN4Anki5Cozmo8Messages32ProcessDockingErrorSignalMessageERKNS1_18DockingErrorSignalE||
                          DCD      0x00000001

                          AREA ||area_number.104||, LINKORDER=||i._ZN4Anki5Cozmo8Messages35ProcessSetVisionSystemParamsMessageERKNS1_21SetVisionSystemParamsE||, DATA, READONLY, SECTYPE={SHT_ARM_EXIDX}, ALIGN=2

                          EXPORTAS ||area_number.104||, ||.ARM.exidx||
                          DCD      0x00000000
                          RELOC 42, ||i._ZN4Anki5Cozmo8Messages35ProcessSetVisionSystemParamsMessageERKNS1_21SetVisionSystemParamsE||
                          DCD      0x00000001

                          AREA ||area_number.105||, LINKORDER=||i._ZN4Anki5Cozmo8Messages27ProcessFaceDetectionMessageERKNS1_13FaceDetectionE||, DATA, READONLY, SECTYPE={SHT_ARM_EXIDX}, ALIGN=2

                          EXPORTAS ||area_number.105||, ||.ARM.exidx||
                          DCD      0x00000000
                          RELOC 42, ||i._ZN4Anki5Cozmo8Messages27ProcessFaceDetectionMessageERKNS1_13FaceDetectionE||
                          DCD      0x00000001

                          AREA ||area_number.106||, LINKORDER=||i._ZN4Anki5Cozmo8Messages33ProcessSetFaceDetectParamsMessageERKNS1_19SetFaceDetectParamsE||, DATA, READONLY, SECTYPE={SHT_ARM_EXIDX}, ALIGN=2

                          EXPORTAS ||area_number.106||, ||.ARM.exidx||
                          DCD      0x00000000
                          RELOC 42, ||i._ZN4Anki5Cozmo8Messages33ProcessSetFaceDetectParamsMessageERKNS1_19SetFaceDetectParamsE||
                          DCD      0x00000001

                          AREA ||area_number.107||, LINKORDER=||i._ZN4Anki5Cozmo8Messages27ProcessPlayAnimationMessageERKNS1_13PlayAnimationE||, DATA, READONLY, SECTYPE={SHT_ARM_EXIDX}, ALIGN=2

                          EXPORTAS ||area_number.107||, ||.ARM.exidx||
                          DCD      0x00000000
                          RELOC 42, ||i._ZN4Anki5Cozmo8Messages27ProcessPlayAnimationMessageERKNS1_13PlayAnimationE||
                          DCD      0x00000001

                          AREA ||area_number.108||, LINKORDER=||i._ZN4Anki5Cozmo8Messages40ProcessTransitionToStateAnimationMessageERKNS1_26TransitionToStateAnimationE||, DATA, READONLY, SECTYPE={SHT_ARM_EXIDX}, ALIGN=2

                          EXPORTAS ||area_number.108||, ||.ARM.exidx||
                          DCD      0x00000000
                          RELOC 42, ||i._ZN4Anki5Cozmo8Messages40ProcessTransitionToStateAnimationMessageERKNS1_26TransitionToStateAnimationE||
                          DCD      0x00000001

                          AREA ||area_number.109||, LINKORDER=||i._ZN4Anki5Cozmo8Messages28ProcessAbortAnimationMessageERKNS1_14AbortAnimationE||, DATA, READONLY, SECTYPE={SHT_ARM_EXIDX}, ALIGN=2

                          EXPORTAS ||area_number.109||, ||.ARM.exidx||
                          DCD      0x00000000
                          RELOC 42, ||i._ZN4Anki5Cozmo8Messages28ProcessAbortAnimationMessageERKNS1_14AbortAnimationE||
                          DCD      0x00000001

                          AREA ||area_number.110||, LINKORDER=||i._ZN4Anki5Cozmo8Messages34ProcessClearCannedAnimationMessageERKNS1_20ClearCannedAnimationE||, DATA, READONLY, SECTYPE={SHT_ARM_EXIDX}, ALIGN=2

                          EXPORTAS ||area_number.110||, ||.ARM.exidx||
                          DCD      0x00000000
                          RELOC 42, ||i._ZN4Anki5Cozmo8Messages34ProcessClearCannedAnimationMessageERKNS1_20ClearCannedAnimationE||
                          DCD      0x00000001

                          AREA ||area_number.111||, LINKORDER=||i._ZN4Anki5Cozmo8Messages42ProcessAddAnimKeyFrame_SetHeadAngleMessageERKNS1_28AddAnimKeyFrame_SetHeadAngleE||, DATA, READONLY, SECTYPE={SHT_ARM_EXIDX}, ALIGN=2

                          EXPORTAS ||area_number.111||, ||.ARM.exidx||
                          DCD      0x00000000
                          RELOC 42, ||i._ZN4Anki5Cozmo8Messages42ProcessAddAnimKeyFrame_SetHeadAngleMessageERKNS1_28AddAnimKeyFrame_SetHeadAngleE||
                          DCD      0x00000001

                          AREA ||area_number.112||, LINKORDER=||i._ZN4Anki5Cozmo8Messages43ProcessAddAnimKeyFrame_HoldHeadAngleMessageERKNS1_29AddAnimKeyFrame_HoldHeadAngleE||, DATA, READONLY, SECTYPE={SHT_ARM_EXIDX}, ALIGN=2

                          EXPORTAS ||area_number.112||, ||.ARM.exidx||
                          DCD      0x00000000
                          RELOC 42, ||i._ZN4Anki5Cozmo8Messages43ProcessAddAnimKeyFrame_HoldHeadAngleMessageERKNS1_29AddAnimKeyFrame_HoldHeadAngleE||
                          DCD      0x00000001

                          AREA ||area_number.113||, LINKORDER=||i._ZN4Anki5Cozmo8Messages42ProcessAddAnimKeyFrame_StartHeadNodMessageERKNS1_28AddAnimKeyFrame_StartHeadNodE||, DATA, READONLY, SECTYPE={SHT_ARM_EXIDX}, ALIGN=2

                          EXPORTAS ||area_number.113||, ||.ARM.exidx||
                          DCD      0x00000000
                          RELOC 42, ||i._ZN4Anki5Cozmo8Messages42ProcessAddAnimKeyFrame_StartHeadNodMessageERKNS1_28AddAnimKeyFrame_StartHeadNodE||
                          DCD      0x00000001

                          AREA ||area_number.114||, LINKORDER=||i._ZN4Anki5Cozmo8Messages41ProcessAddAnimKeyFrame_StopHeadNodMessageERKNS1_27AddAnimKeyFrame_StopHeadNodE||, DATA, READONLY, SECTYPE={SHT_ARM_EXIDX}, ALIGN=2

                          EXPORTAS ||area_number.114||, ||.ARM.exidx||
                          DCD      0x00000000
                          RELOC 42, ||i._ZN4Anki5Cozmo8Messages41ProcessAddAnimKeyFrame_StopHeadNodMessageERKNS1_27AddAnimKeyFrame_StopHeadNodE||
                          DCD      0x00000001

                          AREA ||area_number.115||, LINKORDER=||i._ZN4Anki5Cozmo8Messages43ProcessAddAnimKeyFrame_SetLiftHeightMessageERKNS1_29AddAnimKeyFrame_SetLiftHeightE||, DATA, READONLY, SECTYPE={SHT_ARM_EXIDX}, ALIGN=2

                          EXPORTAS ||area_number.115||, ||.ARM.exidx||
                          DCD      0x00000000
                          RELOC 42, ||i._ZN4Anki5Cozmo8Messages43ProcessAddAnimKeyFrame_SetLiftHeightMessageERKNS1_29AddAnimKeyFrame_SetLiftHeightE||
                          DCD      0x00000001

                          AREA ||area_number.116||, LINKORDER=||i._ZN4Anki5Cozmo8Messages44ProcessAddAnimKeyFrame_HoldLiftHeightMessageERKNS1_30AddAnimKeyFrame_HoldLiftHeightE||, DATA, READONLY, SECTYPE={SHT_ARM_EXIDX}, ALIGN=2

                          EXPORTAS ||area_number.116||, ||.ARM.exidx||
                          DCD      0x00000000
                          RELOC 42, ||i._ZN4Anki5Cozmo8Messages44ProcessAddAnimKeyFrame_HoldLiftHeightMessageERKNS1_30AddAnimKeyFrame_HoldLiftHeightE||
                          DCD      0x00000001

                          AREA ||area_number.117||, LINKORDER=||i._ZN4Anki5Cozmo8Messages42ProcessAddAnimKeyFrame_StartLiftNodMessageERKNS1_28AddAnimKeyFrame_StartLiftNodE||, DATA, READONLY, SECTYPE={SHT_ARM_EXIDX}, ALIGN=2

                          EXPORTAS ||area_number.117||, ||.ARM.exidx||
                          DCD      0x00000000
                          RELOC 42, ||i._ZN4Anki5Cozmo8Messages42ProcessAddAnimKeyFrame_StartLiftNodMessageERKNS1_28AddAnimKeyFrame_StartLiftNodE||
                          DCD      0x00000001

                          AREA ||area_number.118||, LINKORDER=||i._ZN4Anki5Cozmo8Messages41ProcessAddAnimKeyFrame_StopLiftNodMessageERKNS1_27AddAnimKeyFrame_StopLiftNodE||, DATA, READONLY, SECTYPE={SHT_ARM_EXIDX}, ALIGN=2

                          EXPORTAS ||area_number.118||, ||.ARM.exidx||
                          DCD      0x00000000
                          RELOC 42, ||i._ZN4Anki5Cozmo8Messages41ProcessAddAnimKeyFrame_StopLiftNodMessageERKNS1_27AddAnimKeyFrame_StopLiftNodE||
                          DCD      0x00000001

                          AREA ||area_number.119||, LINKORDER=||i._ZN4Anki5Cozmo8Messages39ProcessAddAnimKeyFrame_DriveLineMessageERKNS1_25AddAnimKeyFrame_DriveLineE||, DATA, READONLY, SECTYPE={SHT_ARM_EXIDX}, ALIGN=2

                          EXPORTAS ||area_number.119||, ||.ARM.exidx||
                          DCD      0x00000000
                          RELOC 42, ||i._ZN4Anki5Cozmo8Messages39ProcessAddAnimKeyFrame_DriveLineMessageERKNS1_25AddAnimKeyFrame_DriveLineE||
                          DCD      0x00000001

                          AREA ||area_number.120||, LINKORDER=||i._ZN4Anki5Cozmo8Messages41ProcessAddAnimKeyFrame_TurnInPlaceMessageERKNS1_27AddAnimKeyFrame_TurnInPlaceE||, DATA, READONLY, SECTYPE={SHT_ARM_EXIDX}, ALIGN=2

                          EXPORTAS ||area_number.120||, ||.ARM.exidx||
                          DCD      0x00000000
                          RELOC 42, ||i._ZN4Anki5Cozmo8Messages41ProcessAddAnimKeyFrame_TurnInPlaceMessageERKNS1_27AddAnimKeyFrame_TurnInPlaceE||
                          DCD      0x00000001

                          AREA ||area_number.121||, LINKORDER=||i._ZN4Anki5Cozmo8Messages38ProcessAddAnimKeyFrame_HoldPoseMessageERKNS1_24AddAnimKeyFrame_HoldPoseE||, DATA, READONLY, SECTYPE={SHT_ARM_EXIDX}, ALIGN=2

                          EXPORTAS ||area_number.121||, ||.ARM.exidx||
                          DCD      0x00000000
                          RELOC 42, ||i._ZN4Anki5Cozmo8Messages38ProcessAddAnimKeyFrame_HoldPoseMessageERKNS1_24AddAnimKeyFrame_HoldPoseE||
                          DCD      0x00000001

                          AREA ||area_number.122||, LINKORDER=||i._ZN4Anki5Cozmo8Messages39ProcessAddAnimKeyFrame_PlaySoundMessageERKNS1_25AddAnimKeyFrame_PlaySoundE||, DATA, READONLY, SECTYPE={SHT_ARM_EXIDX}, ALIGN=2

                          EXPORTAS ||area_number.122||, ||.ARM.exidx||
                          DCD      0x00000000
                          RELOC 42, ||i._ZN4Anki5Cozmo8Messages39ProcessAddAnimKeyFrame_PlaySoundMessageERKNS1_25AddAnimKeyFrame_PlaySoundE||
                          DCD      0x00000001

                          AREA ||area_number.123||, LINKORDER=||i._ZN4Anki5Cozmo8Messages42ProcessAddAnimKeyFrame_WaitForSoundMessageERKNS1_28AddAnimKeyFrame_WaitForSoundE||, DATA, READONLY, SECTYPE={SHT_ARM_EXIDX}, ALIGN=2

                          EXPORTAS ||area_number.123||, ||.ARM.exidx||
                          DCD      0x00000000
                          RELOC 42, ||i._ZN4Anki5Cozmo8Messages42ProcessAddAnimKeyFrame_WaitForSoundMessageERKNS1_28AddAnimKeyFrame_WaitForSoundE||
                          DCD      0x00000001

                          AREA ||area_number.124||, LINKORDER=||i._ZN4Anki5Cozmo8Messages39ProcessAddAnimKeyFrame_StopSoundMessageERKNS1_25AddAnimKeyFrame_StopSoundE||, DATA, READONLY, SECTYPE={SHT_ARM_EXIDX}, ALIGN=2

                          EXPORTAS ||area_number.124||, ||.ARM.exidx||
                          DCD      0x00000000
                          RELOC 42, ||i._ZN4Anki5Cozmo8Messages39ProcessAddAnimKeyFrame_StopSoundMessageERKNS1_25AddAnimKeyFrame_StopSoundE||
                          DCD      0x00000001

                          AREA ||area_number.125||, LINKORDER=||i._ZN4Anki5Cozmo8Messages43ProcessAddAnimKeyFrame_StartBlinkingMessageERKNS1_29AddAnimKeyFrame_StartBlinkingE||, DATA, READONLY, SECTYPE={SHT_ARM_EXIDX}, ALIGN=2

                          EXPORTAS ||area_number.125||, ||.ARM.exidx||
                          DCD      0x00000000
                          RELOC 42, ||i._ZN4Anki5Cozmo8Messages43ProcessAddAnimKeyFrame_StartBlinkingMessageERKNS1_29AddAnimKeyFrame_StartBlinkingE||
                          DCD      0x00000001

                          AREA ||area_number.126||, LINKORDER=||i._ZN4Anki5Cozmo8Messages49ProcessAddAnimKeyFrame_SetEyeShapeAndColorMessageERKNS1_35AddAnimKeyFrame_SetEyeShapeAndColorE||, DATA, READONLY, SECTYPE={SHT_ARM_EXIDX}, ALIGN=2

                          EXPORTAS ||area_number.126||, ||.ARM.exidx||
                          DCD      0x00000000
                          RELOC 42, ||i._ZN4Anki5Cozmo8Messages49ProcessAddAnimKeyFrame_SetEyeShapeAndColorMessageERKNS1_35AddAnimKeyFrame_SetEyeShapeAndColorE||
                          DCD      0x00000001

                          AREA ||area_number.127||, LINKORDER=||i._ZN4Anki5Cozmo8Messages47ProcessAddAnimKeyFrame_StartFlashingEyesMessageERKNS1_33AddAnimKeyFrame_StartFlashingEyesE||, DATA, READONLY, SECTYPE={SHT_ARM_EXIDX}, ALIGN=2

                          EXPORTAS ||area_number.127||, ||.ARM.exidx||
                          DCD      0x00000000
                          RELOC 42, ||i._ZN4Anki5Cozmo8Messages47ProcessAddAnimKeyFrame_StartFlashingEyesMessageERKNS1_33AddAnimKeyFrame_StartFlashingEyesE||
                          DCD      0x00000001

                          AREA ||area_number.128||, LINKORDER=||i._ZN4Anki5Cozmo8Messages47ProcessAddAnimKeyFrame_StartSpinningEyesMessageERKNS1_33AddAnimKeyFrame_StartSpinningEyesE||, DATA, READONLY, SECTYPE={SHT_ARM_EXIDX}, ALIGN=2

                          EXPORTAS ||area_number.128||, ||.ARM.exidx||
                          DCD      0x00000000
                          RELOC 42, ||i._ZN4Anki5Cozmo8Messages47ProcessAddAnimKeyFrame_StartSpinningEyesMessageERKNS1_33AddAnimKeyFrame_StartSpinningEyesE||
                          DCD      0x00000001

                          AREA ||area_number.129||, LINKORDER=||i._ZN4Anki5Cozmo8Messages46ProcessAddAnimKeyFrame_StopEyeAnimationMessageERKNS1_32AddAnimKeyFrame_StopEyeAnimationE||, DATA, READONLY, SECTYPE={SHT_ARM_EXIDX}, ALIGN=2

                          EXPORTAS ||area_number.129||, ||.ARM.exidx||
                          DCD      0x00000000
                          RELOC 42, ||i._ZN4Anki5Cozmo8Messages46ProcessAddAnimKeyFrame_StopEyeAnimationMessageERKNS1_32AddAnimKeyFrame_StopEyeAnimationE||
                          DCD      0x00000001

                          AREA ||area_number.130||, LINKORDER=||i._ZN4Anki5Cozmo8Messages46ProcessAddAnimKeyFrame_TriggerAnimationMessageERKNS1_32AddAnimKeyFrame_TriggerAnimationE||, DATA, READONLY, SECTYPE={SHT_ARM_EXIDX}, ALIGN=2

                          EXPORTAS ||area_number.130||, ||.ARM.exidx||
                          DCD      0x00000000
                          RELOC 42, ||i._ZN4Anki5Cozmo8Messages46ProcessAddAnimKeyFrame_TriggerAnimationMessageERKNS1_32AddAnimKeyFrame_TriggerAnimationE||
                          DCD      0x00000001

                          AREA ||area_number.131||, LINKORDER=||i._ZN4Anki5Cozmo8Messages24ProcessIMURequestMessageERKNS1_10IMURequestE||, DATA, READONLY, SECTYPE={SHT_ARM_EXIDX}, ALIGN=2

                          EXPORTAS ||area_number.131||, ||.ARM.exidx||
                          DCD      0x00000000
                          RELOC 42, ||i._ZN4Anki5Cozmo8Messages24ProcessIMURequestMessageERKNS1_10IMURequestE||
                          DCD      0x00000001

                          AREA ||area_number.132||, LINKORDER=||i._ZN4Anki5Cozmo8Messages26ProcessFaceTrackingMessageERKNS1_12FaceTrackingE||, DATA, READONLY, SECTYPE={SHT_ARM_EXIDX}, ALIGN=2

                          EXPORTAS ||area_number.132||, ||.ARM.exidx||
                          DCD      0x00000000
                          RELOC 42, ||i._ZN4Anki5Cozmo8Messages26ProcessFaceTrackingMessageERKNS1_12FaceTrackingE||
                          DCD      0x00000001

                          AREA ||area_number.133||, LINKORDER=||i._ZN4Anki5Cozmo8Messages18ProcessPingMessageERKNS1_4PingE||, DATA, READONLY, SECTYPE={SHT_ARM_EXIDX}, ALIGN=2

                          EXPORTAS ||area_number.133||, ||.ARM.exidx||
                          DCD      0x00000000
                          RELOC 42, ||i._ZN4Anki5Cozmo8Messages18ProcessPingMessageERKNS1_4PingE||
                          DCD      0x00000001

                          AREA ||area_number.134||, LINKORDER=||i._ZN4Anki5Cozmo8Messages28ProcessPanAndTiltHeadMessageERKNS1_14PanAndTiltHeadE||, DATA, READONLY, SECTYPE={SHT_ARM_EXIDX}, ALIGN=2

                          EXPORTAS ||area_number.134||, ||.ARM.exidx||
                          DCD      0x00000000
                          RELOC 42, ||i._ZN4Anki5Cozmo8Messages28ProcessPanAndTiltHeadMessageERKNS1_14PanAndTiltHeadE||
                          DCD      0x00000001

                          AREA ||area_number.135||, LINKORDER=||i._ZN4Anki5Cozmo8Messages36ProcessClientConnectionStatusMessageERKNS1_22ClientConnectionStatusE||, DATA, READONLY, SECTYPE={SHT_ARM_EXIDX}, ALIGN=2

                          EXPORTAS ||area_number.135||, ||.ARM.exidx||
                          DCD      0x00000000
                          RELOC 42, ||i._ZN4Anki5Cozmo8Messages36ProcessClientConnectionStatusMessageERKNS1_22ClientConnectionStatusE||
                          DCD      0x00000001

                          AREA ||area_number.136||, LINKORDER=||i._ZN4Anki5Cozmo8Messages27ProcessFlashBlockIDsMessageERKNS1_13FlashBlockIDsE||, DATA, READONLY, SECTYPE={SHT_ARM_EXIDX}, ALIGN=2

                          EXPORTAS ||area_number.136||, ||.ARM.exidx||
                          DCD      0x00000000
                          RELOC 42, ||i._ZN4Anki5Cozmo8Messages27ProcessFlashBlockIDsMessageERKNS1_13FlashBlockIDsE||
                          DCD      0x00000001

                          AREA ||area_number.137||, LINKORDER=||i._ZN4Anki5Cozmo8Messages28ProcessSetBlockLightsMessageERKNS1_14SetBlockLightsE||, DATA, READONLY, SECTYPE={SHT_ARM_EXIDX}, ALIGN=2

                          EXPORTAS ||area_number.137||, ||.ARM.exidx||
                          DCD      0x00000000
                          RELOC 42, ||i._ZN4Anki5Cozmo8Messages28ProcessSetBlockLightsMessageERKNS1_14SetBlockLightsE||
                          DCD      0x00000001

                          AREA ||area_number.138||, LINKORDER=||i._ZN4Anki5Cozmo8Messages7GetSizeENS1_2IDE||, DATA, READONLY, SECTYPE={SHT_ARM_EXIDX}, ALIGN=2

                          EXPORTAS ||area_number.138||, ||.ARM.exidx||
                          DCD      0x00000000
                          RELOC 42, ||i._ZN4Anki5Cozmo8Messages7GetSizeENS1_2IDE||
                          DCD      0x00000001

                          AREA ||area_number.139||, LINKORDER=||i._ZN4Anki5Cozmo8Messages14ProcessMessageENS1_2IDEPKh||, DATA, READONLY, SECTYPE={SHT_ARM_EXIDX}, ALIGN=2

                          EXPORTAS ||area_number.139||, ||.ARM.exidx||
                          DCD      0x00000000
                          RELOC 42, ||i._ZN4Anki5Cozmo8Messages14ProcessMessageENS1_2IDEPKh||
                          DCD      0x00000001

                          AREA ||area_number.140||, LINKORDER=||i._ZN4Anki5Cozmo8Messages9LookForIDENS1_2IDE||, DATA, READONLY, SECTYPE={SHT_ARM_EXIDX}, ALIGN=2

                          EXPORTAS ||area_number.140||, ||.ARM.exidx||
                          DCD      0x00000000
                          RELOC 42, ||i._ZN4Anki5Cozmo8Messages9LookForIDENS1_2IDE||
                          DCD      0x00000001

                          AREA ||area_number.141||, LINKORDER=||i._ZN4Anki5Cozmo8Messages17StillLookingForIDEv||, DATA, READONLY, SECTYPE={SHT_ARM_EXIDX}, ALIGN=2

                          EXPORTAS ||area_number.141||, ||.ARM.exidx||
                          DCD      0x00000000
                          RELOC 42, ||i._ZN4Anki5Cozmo8Messages17StillLookingForIDEv||
                          DCD      0x00000001

                          AREA ||area_number.142||, LINKORDER=||i._ZN4Anki5Cozmo8Messages19UpdateRobotStateMsgEv||, DATA, READONLY, SECTYPE={SHT_ARM_EXIDX}, ALIGN=2

                          EXPORTAS ||area_number.142||, ||.ARM.exidx||
                          DCD      0x00000000
                          RELOC 42, ||i._ZN4Anki5Cozmo8Messages19UpdateRobotStateMsgEv||
                          DCD      0x00000001

                          AREA ||area_number.143||, LINKORDER=||i._ZN4Anki5Cozmo8Messages16GetRobotStateMsgEv||, DATA, READONLY, SECTYPE={SHT_ARM_EXIDX}, ALIGN=2

                          EXPORTAS ||area_number.143||, ||.ARM.exidx||
                          DCD      0x00000000
                          RELOC 42, ||i._ZN4Anki5Cozmo8Messages16GetRobotStateMsgEv||
                          DCD      0x00000001

                          AREA ||area_number.144||, LINKORDER=||i._ZN4Anki5Cozmo8Messages19ProcessBTLEMessagesEv||, DATA, READONLY, SECTYPE={SHT_ARM_EXIDX}, ALIGN=2

                          EXPORTAS ||area_number.144||, ||.ARM.exidx||
                          DCD      0x00000000
                          RELOC 42, ||i._ZN4Anki5Cozmo8Messages19ProcessBTLEMessagesEv||
                          DCD      0x00000001

                          AREA ||area_number.145||, LINKORDER=||i._ZN4Anki5Cozmo8Messages17SendRobotStateMsgEPKNS1_10RobotStateE||, DATA, READONLY, SECTYPE={SHT_ARM_EXIDX}, ALIGN=2

                          EXPORTAS ||area_number.145||, ||.ARM.exidx||
                          DCD      0x00000000
                          RELOC 42, ||i._ZN4Anki5Cozmo8Messages17SendRobotStateMsgEPKNS1_10RobotStateE||
                          DCD      0x00000001

                          AREA ||area_number.146||, LINKORDER=||i._ZN4Anki5Cozmo8Messages12CheckMailboxERNS1_18DockingErrorSignalE||, DATA, READONLY, SECTYPE={SHT_ARM_EXIDX}, ALIGN=2

                          EXPORTAS ||area_number.146||, ||.ARM.exidx||
                          DCD      0x00000000
                          RELOC 42, ||i._ZN4Anki5Cozmo8Messages12CheckMailboxERNS1_18DockingErrorSignalE||
                          DCD      0x00000001

                          AREA ||area_number.147||, LINKORDER=||i._ZN4Anki5Cozmo8Messages12CheckMailboxERNS1_13FaceDetectionE||, DATA, READONLY, SECTYPE={SHT_ARM_EXIDX}, ALIGN=2

                          EXPORTAS ||area_number.147||, ||.ARM.exidx||
                          DCD      0x00000000
                          RELOC 42, ||i._ZN4Anki5Cozmo8Messages12CheckMailboxERNS1_13FaceDetectionE||
                          DCD      0x00000001

                          AREA ||area_number.148||, LINKORDER=||i._ZN4Anki5Cozmo8Messages12ReceivedInitEv||, DATA, READONLY, SECTYPE={SHT_ARM_EXIDX}, ALIGN=2

                          EXPORTAS ||area_number.148||, ||.ARM.exidx||
                          DCD      0x00000000
                          RELOC 42, ||i._ZN4Anki5Cozmo8Messages12ReceivedInitEv||
                          DCD      0x00000001

                          AREA ||area_number.149||, LINKORDER=||i._ZN4Anki5Cozmo8Messages9ResetInitEv||, DATA, READONLY, SECTYPE={SHT_ARM_EXIDX}, ALIGN=2

                          EXPORTAS ||area_number.149||, ||.ARM.exidx||
                          DCD      0x00000000
                          RELOC 42, ||i._ZN4Anki5Cozmo8Messages9ResetInitEv||
                          DCD      0x00000001

                          AREA ||area_number.150||, LINKORDER=||i.__sti___12_messages_cpp_0235eab8||, DATA, READONLY, SECTYPE={SHT_ARM_EXIDX}, ALIGN=2

                          EXPORTAS ||area_number.150||, ||.ARM.exidx||
                          DCD      0x00000000
                          RELOC 42, ||i.__sti___12_messages_cpp_0235eab8||
                          DCD      0x00000001

                          AREA ||.bss||, DATA, NOINIT, ALIGN=2

                  _ZN4Anki5Cozmo8Messages36_GLOBAL__N__12_messages_cpp_0235eab810msgBuffer_E ; Anki::Cozmo::Messages::<unnamed>::msgBuffer_
                          %        256
                  _ZN4Anki5Cozmo8Messages36_GLOBAL__N__12_messages_cpp_0235eab815dockingMailbox_E ; Anki::Cozmo::Messages::<unnamed>::dockingMailbox_
                          %        28
                  _ZN4Anki5Cozmo8Messages36_GLOBAL__N__12_messages_cpp_0235eab818faceDetectMailbox_E ; Anki::Cozmo::Messages::<unnamed>::faceDetectMailbox_
                          %        196
                  _ZN4Anki5Cozmo8Messages36_GLOBAL__N__12_messages_cpp_0235eab811robotState_E ; Anki::Cozmo::Messages::<unnamed>::robotState_
                          %        60

                          AREA ||.constdata||, DATA, READONLY, ALIGN=2

                  _ZN4Anki5Cozmo8Messages36_GLOBAL__N__12_messages_cpp_0235eab812LookupTable_E ; Anki::Cozmo::Messages::<unnamed>::LookupTable_
000000  0000              DCB      0x00,0x00
000002  0000              DCW      0x0000
                          DCD      0x00000000
000008  0100              DCB      0x01,0x00
00000a  0008              DCW      0x0008
                          DCD      _ZN4Anki5Cozmo8Messages25ProcessDriveWheelsMessageEPKh ; Anki::Cozmo::Messages::ProcessDriveWheelsMessage(const unsigned char*)
000010  0100              DCB      0x01,0x00
000012  0008              DCW      0x0008
                          DCD      _ZN4Anki5Cozmo8Messages34ProcessDriveWheelsCurvatureMessageEPKh ; Anki::Cozmo::Messages::ProcessDriveWheelsCurvatureMessage(const unsigned char*)
000018  0100              DCB      0x01,0x00
00001a  0004              DCW      0x0004
                          DCD      _ZN4Anki5Cozmo8Messages22ProcessMoveLiftMessageEPKh ; Anki::Cozmo::Messages::ProcessMoveLiftMessage(const unsigned char*)
000020  0100              DCB      0x01,0x00
000022  0004              DCW      0x0004
                          DCD      _ZN4Anki5Cozmo8Messages22ProcessMoveHeadMessageEPKh ; Anki::Cozmo::Messages::ProcessMoveHeadMessage(const unsigned char*)
000028  0100              DCB      0x01,0x00
00002a  000c              DCW      0x000c
                          DCD      _ZN4Anki5Cozmo8Messages27ProcessSetLiftHeightMessageEPKh ; Anki::Cozmo::Messages::ProcessSetLiftHeightMessage(const unsigned char*)
000030  0100              DCB      0x01,0x00
000032  000c              DCW      0x000c
                          DCD      _ZN4Anki5Cozmo8Messages26ProcessSetHeadAngleMessageEPKh ; Anki::Cozmo::Messages::ProcessSetHeadAngleMessage(const unsigned char*)
000038  0100              DCB      0x01,0x00
00003a  0000              DCW      0x0000
                          DCD      _ZN4Anki5Cozmo8Messages27ProcessStopAllMotorsMessageEPKh ; Anki::Cozmo::Messages::ProcessStopAllMotorsMessage(const unsigned char*)
000040  0100              DCB      0x01,0x00
000042  0002              DCW      0x0002
                          DCD      _ZN4Anki5Cozmo8Messages23ProcessClearPathMessageEPKh ; Anki::Cozmo::Messages::ProcessClearPathMessage(const unsigned char*)
000048  0100              DCB      0x01,0x00
00004a  001c              DCW      0x001c
                          DCD      _ZN4Anki5Cozmo8Messages35ProcessAppendPathSegmentLineMessageEPKh ; Anki::Cozmo::Messages::ProcessAppendPathSegmentLineMessage(const unsigned char*)
000050  0100              DCB      0x01,0x00
000052  0020              DCW      0x0020
                          DCD      _ZN4Anki5Cozmo8Messages34ProcessAppendPathSegmentArcMessageEPKh ; Anki::Cozmo::Messages::ProcessAppendPathSegmentArcMessage(const unsigned char*)
000058  0100              DCB      0x01,0x00
00005a  0018              DCW      0x0018
                          DCD      _ZN4Anki5Cozmo8Messages40ProcessAppendPathSegmentPointTurnMessageEPKh ; Anki::Cozmo::Messages::ProcessAppendPathSegmentPointTurnMessage(const unsigned char*)
000060  0100              DCB      0x01,0x00
000062  0002              DCW      0x0002
                          DCD      _ZN4Anki5Cozmo8Messages22ProcessTrimPathMessageEPKh ; Anki::Cozmo::Messages::ProcessTrimPathMessage(const unsigned char*)
000068  0100              DCB      0x01,0x00
00006a  0003              DCW      0x0003
                          DCD      _ZN4Anki5Cozmo8Messages25ProcessExecutePathMessageEPKh ; Anki::Cozmo::Messages::ProcessExecutePathMessage(const unsigned char*)
000070  0100              DCB      0x01,0x00
000072  0011              DCW      0x0011
                          DCD      _ZN4Anki5Cozmo8Messages28ProcessDockWithObjectMessageEPKh ; Anki::Cozmo::Messages::ProcessDockWithObjectMessage(const unsigned char*)
000078  0100              DCB      0x01,0x00
00007a  0000              DCW      0x0000
                          DCD      _ZN4Anki5Cozmo8Messages26ProcessAbortDockingMessageEPKh ; Anki::Cozmo::Messages::ProcessAbortDockingMessage(const unsigned char*)
000080  0100              DCB      0x01,0x00
000082  000d              DCW      0x000d
                          DCD      _ZN4Anki5Cozmo8Messages33ProcessPlaceObjectOnGroundMessageEPKh ; Anki::Cozmo::Messages::ProcessPlaceObjectOnGroundMessage(const unsigned char*)
000088  0100              DCB      0x01,0x00
00008a  0014              DCW      0x0014
                          DCD      _ZN4Anki5Cozmo8Messages35ProcessAbsLocalizationUpdateMessageEPKh ; Anki::Cozmo::Messages::ProcessAbsLocalizationUpdateMessage(const unsigned char*)
000090  0100              DCB      0x01,0x00
000092  0008              DCW      0x0008
                          DCD      _ZN4Anki5Cozmo8Messages22ProcessSyncTimeMessageEPKh ; Anki::Cozmo::Messages::ProcessSyncTimeMessage(const unsigned char*)
000098  0100              DCB      0x01,0x00
00009a  0004              DCW      0x0004
                          DCD      _ZN4Anki5Cozmo8Messages29ProcessHeadAngleUpdateMessageEPKh ; Anki::Cozmo::Messages::ProcessHeadAngleUpdateMessage(const unsigned char*)
0000a0  0100              DCB      0x01,0x00
0000a2  0002              DCW      0x0002
                          DCD      _ZN4Anki5Cozmo8Messages26ProcessImageRequestMessageEPKh ; Anki::Cozmo::Messages::ProcessImageRequestMessage(const unsigned char*)
0000a8  0100              DCB      0x01,0x00
0000aa  000d              DCW      0x000d
                          DCD      _ZN4Anki5Cozmo8Messages27ProcessStartTestModeMessageEPKh ; Anki::Cozmo::Messages::ProcessStartTestModeMessage(const unsigned char*)
0000b0  0100              DCB      0x01,0x00
0000b2  0001              DCW      0x0001
                          DCD      _ZN4Anki5Cozmo8Messages26ProcessSetHeadlightMessageEPKh ; Anki::Cozmo::Messages::ProcessSetHeadlightMessage(const unsigned char*)
0000b8  0100              DCB      0x01,0x00
0000ba  0008              DCW      0x0008
                          DCD      _ZN4Anki5Cozmo8Messages30ProcessSetDefaultLightsMessageEPKh ; Anki::Cozmo::Messages::ProcessSetDefaultLightsMessage(const unsigned char*)
0000c0  0100              DCB      0x01,0x00
0000c2  000c              DCW      0x000c
                          DCD      _ZN4Anki5Cozmo8Messages36ProcessSetHeadControllerGainsMessageEPKh ; Anki::Cozmo::Messages::ProcessSetHeadControllerGainsMessage(const unsigned char*)
0000c8  0100              DCB      0x01,0x00
0000ca  000c              DCW      0x000c
                          DCD      _ZN4Anki5Cozmo8Messages36ProcessSetLiftControllerGainsMessageEPKh ; Anki::Cozmo::Messages::ProcessSetLiftControllerGainsMessage(const unsigned char*)
0000d0  0100              DCB      0x01,0x00
0000d2  0016              DCW      0x0016
                          DCD      _ZN4Anki5Cozmo8Messages32ProcessDockingErrorSignalMessageEPKh ; Anki::Cozmo::Messages::ProcessDockingErrorSignalMessage(const unsigned char*)
0000d8  0100              DCB      0x01,0x00
0000da  001d              DCW      0x001d
                          DCD      _ZN4Anki5Cozmo8Messages35ProcessSetVisionSystemParamsMessageEPKh ; Anki::Cozmo::Messages::ProcessSetVisionSystemParamsMessage(const unsigned char*)
0000e0  0100              DCB      0x01,0x00
0000e2  0009              DCW      0x0009
                          DCD      _ZN4Anki5Cozmo8Messages27ProcessFaceDetectionMessageEPKh ; Anki::Cozmo::Messages::ProcessFaceDetectionMessage(const unsigned char*)
0000e8  0100              DCB      0x01,0x00
0000ea  0018              DCW      0x0018
                          DCD      _ZN4Anki5Cozmo8Messages33ProcessSetFaceDetectParamsMessageEPKh ; Anki::Cozmo::Messages::ProcessSetFaceDetectParamsMessage(const unsigned char*)
0000f0  0100              DCB      0x01,0x00
0000f2  0005              DCW      0x0005
                          DCD      _ZN4Anki5Cozmo8Messages27ProcessPlayAnimationMessageEPKh ; Anki::Cozmo::Messages::ProcessPlayAnimationMessage(const unsigned char*)
0000f8  0100              DCB      0x01,0x00
0000fa  0002              DCW      0x0002
                          DCD      _ZN4Anki5Cozmo8Messages40ProcessTransitionToStateAnimationMessageEPKh ; Anki::Cozmo::Messages::ProcessTransitionToStateAnimationMessage(const unsigned char*)
000100  0100              DCB      0x01,0x00
000102  0000              DCW      0x0000
                          DCD      _ZN4Anki5Cozmo8Messages28ProcessAbortAnimationMessageEPKh ; Anki::Cozmo::Messages::ProcessAbortAnimationMessage(const unsigned char*)
000108  0200              DCB      0x02,0x00
00010a  0001              DCW      0x0001
                          DCD      _ZN4Anki5Cozmo8Messages34ProcessClearCannedAnimationMessageEPKh ; Anki::Cozmo::Messages::ProcessClearCannedAnimationMessage(const unsigned char*)
000110  0200              DCB      0x02,0x00
000112  0007              DCW      0x0007
                          DCD      _ZN4Anki5Cozmo8Messages42ProcessAddAnimKeyFrame_SetHeadAngleMessageEPKh ; Anki::Cozmo::Messages::ProcessAddAnimKeyFrame_SetHeadAngleMessage(const unsigned char*)
000118  0200              DCB      0x02,0x00
00011a  0005              DCW      0x0005
                          DCD      _ZN4Anki5Cozmo8Messages43ProcessAddAnimKeyFrame_HoldHeadAngleMessageEPKh ; Anki::Cozmo::Messages::ProcessAddAnimKeyFrame_HoldHeadAngleMessage(const unsigned char*)
000120  0200              DCB      0x02,0x00
000122  0009              DCW      0x0009
                          DCD      _ZN4Anki5Cozmo8Messages42ProcessAddAnimKeyFrame_StartHeadNodMessageEPKh ; Anki::Cozmo::Messages::ProcessAddAnimKeyFrame_StartHeadNodMessage(const unsigned char*)
000128  0200              DCB      0x02,0x00
00012a  0006              DCW      0x0006
                          DCD      _ZN4Anki5Cozmo8Messages41ProcessAddAnimKeyFrame_StopHeadNodMessageEPKh ; Anki::Cozmo::Messages::ProcessAddAnimKeyFrame_StopHeadNodMessage(const unsigned char*)
000130  0200              DCB      0x02,0x00
000132  0007              DCW      0x0007
                          DCD      _ZN4Anki5Cozmo8Messages43ProcessAddAnimKeyFrame_SetLiftHeightMessageEPKh ; Anki::Cozmo::Messages::ProcessAddAnimKeyFrame_SetLiftHeightMessage(const unsigned char*)
000138  0200              DCB      0x02,0x00
00013a  0005              DCW      0x0005
                          DCD      _ZN4Anki5Cozmo8Messages44ProcessAddAnimKeyFrame_HoldLiftHeightMessageEPKh ; Anki::Cozmo::Messages::ProcessAddAnimKeyFrame_HoldLiftHeightMessage(const unsigned char*)
000140  0200              DCB      0x02,0x00
000142  0009              DCW      0x0009
                          DCD      _ZN4Anki5Cozmo8Messages42ProcessAddAnimKeyFrame_StartLiftNodMessageEPKh ; Anki::Cozmo::Messages::ProcessAddAnimKeyFrame_StartLiftNodMessage(const unsigned char*)
000148  0200              DCB      0x02,0x00
00014a  0006              DCW      0x0006
                          DCD      _ZN4Anki5Cozmo8Messages41ProcessAddAnimKeyFrame_StopLiftNodMessageEPKh ; Anki::Cozmo::Messages::ProcessAddAnimKeyFrame_StopLiftNodMessage(const unsigned char*)
000150  0200              DCB      0x02,0x00
000152  0008              DCW      0x0008
                          DCD      _ZN4Anki5Cozmo8Messages39ProcessAddAnimKeyFrame_DriveLineMessageEPKh ; Anki::Cozmo::Messages::ProcessAddAnimKeyFrame_DriveLineMessage(const unsigned char*)
000158  0200              DCB      0x02,0x00
00015a  0008              DCW      0x0008
                          DCD      _ZN4Anki5Cozmo8Messages41ProcessAddAnimKeyFrame_TurnInPlaceMessageEPKh ; Anki::Cozmo::Messages::ProcessAddAnimKeyFrame_TurnInPlaceMessage(const unsigned char*)
000160  0200              DCB      0x02,0x00
000162  0005              DCW      0x0005
                          DCD      _ZN4Anki5Cozmo8Messages38ProcessAddAnimKeyFrame_HoldPoseMessageEPKh ; Anki::Cozmo::Messages::ProcessAddAnimKeyFrame_HoldPoseMessage(const unsigned char*)
000168  0200              DCB      0x02,0x00
00016a  0009              DCW      0x0009
                          DCD      _ZN4Anki5Cozmo8Messages39ProcessAddAnimKeyFrame_PlaySoundMessageEPKh ; Anki::Cozmo::Messages::ProcessAddAnimKeyFrame_PlaySoundMessage(const unsigned char*)
000170  0200              DCB      0x02,0x00
000172  0005              DCW      0x0005
                          DCD      _ZN4Anki5Cozmo8Messages42ProcessAddAnimKeyFrame_WaitForSoundMessageEPKh ; Anki::Cozmo::Messages::ProcessAddAnimKeyFrame_WaitForSoundMessage(const unsigned char*)
000178  0200              DCB      0x02,0x00
00017a  0005              DCW      0x0005
                          DCD      _ZN4Anki5Cozmo8Messages39ProcessAddAnimKeyFrame_StopSoundMessageEPKh ; Anki::Cozmo::Messages::ProcessAddAnimKeyFrame_StopSoundMessage(const unsigned char*)
000180  0200              DCB      0x02,0x00
000182  000d              DCW      0x000d
                          DCD      _ZN4Anki5Cozmo8Messages43ProcessAddAnimKeyFrame_StartBlinkingMessageEPKh ; Anki::Cozmo::Messages::ProcessAddAnimKeyFrame_StartBlinkingMessage(const unsigned char*)
000188  0200              DCB      0x02,0x00
00018a  000a              DCW      0x000a
                          DCD      _ZN4Anki5Cozmo8Messages49ProcessAddAnimKeyFrame_SetEyeShapeAndColorMessageEPKh ; Anki::Cozmo::Messages::ProcessAddAnimKeyFrame_SetEyeShapeAndColorMessage(const unsigned char*)
000190  0200              DCB      0x02,0x00
000192  000d              DCW      0x000d
                          DCD      _ZN4Anki5Cozmo8Messages47ProcessAddAnimKeyFrame_StartFlashingEyesMessageEPKh ; Anki::Cozmo::Messages::ProcessAddAnimKeyFrame_StartFlashingEyesMessage(const unsigned char*)
000198  0200              DCB      0x02,0x00
00019a  000c              DCW      0x000c
                          DCD      _ZN4Anki5Cozmo8Messages47ProcessAddAnimKeyFrame_StartSpinningEyesMessageEPKh ; Anki::Cozmo::Messages::ProcessAddAnimKeyFrame_StartSpinningEyesMessage(const unsigned char*)
0001a0  0200              DCB      0x02,0x00
0001a2  0005              DCW      0x0005
                          DCD      _ZN4Anki5Cozmo8Messages46ProcessAddAnimKeyFrame_StopEyeAnimationMessageEPKh ; Anki::Cozmo::Messages::ProcessAddAnimKeyFrame_StopEyeAnimationMessage(const unsigned char*)
0001a8  0200              DCB      0x02,0x00
0001aa  0007              DCW      0x0007
                          DCD      _ZN4Anki5Cozmo8Messages46ProcessAddAnimKeyFrame_TriggerAnimationMessageEPKh ; Anki::Cozmo::Messages::ProcessAddAnimKeyFrame_TriggerAnimationMessage(const unsigned char*)
0001b0  0100              DCB      0x01,0x00
0001b2  0004              DCW      0x0004
                          DCD      _ZN4Anki5Cozmo8Messages24ProcessIMURequestMessageEPKh ; Anki::Cozmo::Messages::ProcessIMURequestMessage(const unsigned char*)
0001b8  0100              DCB      0x01,0x00
0001ba  0002              DCW      0x0002
                          DCD      _ZN4Anki5Cozmo8Messages26ProcessFaceTrackingMessageEPKh ; Anki::Cozmo::Messages::ProcessFaceTrackingMessage(const unsigned char*)
0001c0  0100              DCB      0x01,0x00
0001c2  0000              DCW      0x0000
                          DCD      _ZN4Anki5Cozmo8Messages18ProcessPingMessageEPKh ; Anki::Cozmo::Messages::ProcessPingMessage(const unsigned char*)
0001c8  0100              DCB      0x01,0x00
0001ca  0008              DCW      0x0008
                          DCD      _ZN4Anki5Cozmo8Messages28ProcessPanAndTiltHeadMessageEPKh ; Anki::Cozmo::Messages::ProcessPanAndTiltHeadMessage(const unsigned char*)
0001d0  0100              DCB      0x01,0x00
0001d2  0002              DCW      0x0002
                          DCD      _ZN4Anki5Cozmo8Messages36ProcessClientConnectionStatusMessageEPKh ; Anki::Cozmo::Messages::ProcessClientConnectionStatusMessage(const unsigned char*)
0001d8  0100              DCB      0x01,0x00
0001da  0000              DCW      0x0000
                          DCD      _ZN4Anki5Cozmo8Messages27ProcessFlashBlockIDsMessageEPKh ; Anki::Cozmo::Messages::ProcessFlashBlockIDsMessage(const unsigned char*)
0001e0  0100              DCB      0x01,0x00
0001e2  0021              DCW      0x0021
                          DCD      _ZN4Anki5Cozmo8Messages28ProcessSetBlockLightsMessageEPKh ; Anki::Cozmo::Messages::ProcessSetBlockLightsMessage(const unsigned char*)
0001e8  0100              DCB      0x01,0x00
0001ea  0039              DCW      0x0039
                          DCD      0x00000000
0001f0  0100              DCB      0x01,0x00
0001f2  0026              DCW      0x0026
                          DCD      0x00000000
0001f8  0100              DCB      0x01,0x00
0001fa  0005              DCW      0x0005
                          DCD      0x00000000
000200  0100              DCB      0x01,0x00
000202  0005              DCW      0x0005
                          DCD      0x00000000
000208  0100              DCB      0x01,0x00
00020a  0004              DCW      0x0004
                          DCD      0x00000000
000210  0100              DCB      0x01,0x00
000212  0005              DCW      0x0005
                          DCD      0x00000000
000218  0100              DCB      0x01,0x00
00021a  0004              DCW      0x0004
                          DCD      0x00000000
000220  0100              DCB      0x01,0x00
000222  0005              DCW      0x0005
                          DCD      0x00000000
000228  0100              DCB      0x01,0x00
00022a  0018              DCW      0x0018
                          DCD      0x00000000
000230  0100              DCB      0x01,0x00
000232  0004              DCW      0x0004
                          DCD      0x00000000
000238  0100              DCB      0x01,0x00
00023a  0032              DCW      0x0032
                          DCD      0x00000000
000240  0100              DCB      0x01,0x00
000242  040e              DCW      0x040e
                          DCD      0x00000000
000248  0100              DCB      0x01,0x00
00024a  0010              DCW      0x0010
                          DCD      0x00000000
000250  0100              DCB      0x01,0x00
000252  0010              DCW      0x0010
                          DCD      0x00000000
000258  0100              DCB      0x01,0x00
00025a  00c3              DCW      0x00c3
                          DCD      0x00000000
000260  0100              DCB      0x01,0x00
000262  0004              DCW      0x0004
                          DCD      0x00000000
000268  0100              DCB      0x01,0x00
00026a  0000              DCW      0x0000
                          DCD      0x00000000
000270  0100              DCB      0x01,0x00
000272  0004              DCW      0x0004
                          DCD      0x00000000
000278  0000              DCB      0x00,0x00
00027a  0000              DCW      0x0000
                          DCD      0x00000000

                          AREA ||.conststring||, DATA, READONLY, MERGE=1, STRINGS, ALIGN=2

000000  49676e6f          DCB      "Ignoring DriveWheels message because robot is currently"
000004  72696e67
000008  20447269
00000c  76655768
000010  65656c73
000014  206d6573
000018  73616765
00001c  20626563
000020  61757365
000024  20726f62
000028  6f742069
00002c  73206375
000030  7272656e
000034  746c79  
000037  20666f6c          DCB      " following a path.\n",0
00003b  6c6f7769
00003f  6e672061
000043  20706174
000047  682e0a00
00004b  00                DCB      0
00004c  526f626f          DCB      "Robot received localization update from basestation for"
000050  74207265
000054  63656976
000058  6564206c
00005c  6f63616c
000060  697a6174
000064  696f6e20
000068  75706461
00006c  74652066
000070  726f6d20
000074  62617365
000078  73746174
00007c  696f6e20
000080  666f72  
000083  2074696d          DCB      " time=%d: (%.3f,%.3f) at %.1f degrees (frame = %d)\n",0
000087  653d2564
00008b  3a202825
00008f  2e33662c
000093  252e3366
000097  29206174
00009b  20252e31
00009f  66206465
0000a3  67726565
0000a7  73202866
0000ab  72616d65
0000af  203d2025
0000b3  64290a00
0000b7  00                DCB      0
0000b8  526f626f          DCB      "Robot received SyncTime message from basestation with I"
0000bc  74207265
0000c0  63656976
0000c4  65642053
0000c8  796e6354
0000cc  696d6520
0000d0  6d657373
0000d4  61676520
0000d8  66726f6d
0000dc  20626173
0000e0  65737461
0000e4  74696f6e
0000e8  20776974
0000ec  682049  
0000ef  443d2564          DCB      "D=%d and syncTime=%d.\n",0
0000f3  20616e64
0000f7  2073796e
0000fb  6354696d
0000ff  653d2564
000103  2e0a00  

                          AREA ||.data||, DATA, ALIGN=2

                  _ZN4Anki5Cozmo8Messages36_GLOBAL__N__12_messages_cpp_0235eab810lookForID_E ; Anki::Cozmo::Messages::<unnamed>::lookForID_
000000  00                DCB      0x00
                  _ZN4Anki5Cozmo8Messages36_GLOBAL__N__12_messages_cpp_0235eab822robotStateSendHistIdx_E ; Anki::Cozmo::Messages::<unnamed>::robotStateSendHistIdx_
000001  00                DCB      0x00
                  _ZN4Anki5Cozmo8Messages36_GLOBAL__N__12_messages_cpp_0235eab813initReceived_E ; Anki::Cozmo::Messages::<unnamed>::initReceived_
000002  00                DCB      0x00
                  firstConnectionUpdateSinceBoot
000003  01                DCB      0x01
                  _ZN4Anki5Cozmo8Messages36_GLOBAL__N__12_messages_cpp_0235eab817lookingStartTime_E ; Anki::Cozmo::Messages::<unnamed>::lookingStartTime_
                          DCD      0x00000000
                  _ZN4Anki5Cozmo8Messages36_GLOBAL__N__12_messages_cpp_0235eab813lastPingTime_E ; Anki::Cozmo::Messages::<unnamed>::lastPingTime_
                          DCD      0x00000000
                  _ZN4Anki5Cozmo21ROBOT_BOUNDING_RADIUSE ; Anki::Cozmo::ROBOT_BOUNDING_RADIUS
                          DCD      0x00000000
                  _ZN4Anki5Cozmo8Messages36_GLOBAL__N__12_messages_cpp_0235eab819robotStateSendHist_E ; Anki::Cozmo::Messages::<unnamed>::robotStateSendHist_
                          %        8

                          AREA ||.init_array||, DATA, READONLY, INIT_ARRAY, ALIGN=2

                          DCD      0x00000000
                          RELOC 38, __sti___12_messages_cpp_0235eab8

                          AREA ||.data__ZZN4Anki5Cozmo8Messages17AddKeyFrameHelperINS1_28AddAnimKeyFrame_SetHeadAngleEEEvRKT_RNS0_8KeyFrameEEs||, COMGROUP=_ZZN4Anki5Cozmo8Messages17AddKeyFrameHelperINS1_28AddAnimKeyFrame_SetHeadAngleEEEvRKT_RNS0_8KeyFrameEEs, DATA, ALIGN=0

                  _ZZN4Anki5Cozmo8Messages17AddKeyFrameHelperINS1_28AddAnimKeyFrame_SetHeadAngleEEEvRKT_RNS0_8KeyFrameEEs ; Anki::Cozmo::Messages::AddKeyFrameHelper<Anki::Cozmo::Messages::AddAnimKeyFrame_SetHeadAngle>(const T1&, Anki::Cozmo::KeyFrame&)::string
000000  41646469          DCB      0x41,0x64,0x64,0x69
000004  6e67206b          DCB      0x6e,0x67,0x20,0x6b
000008  65796672          DCB      0x65,0x79,0x66,0x72
00000c  616d6520          DCB      0x61,0x6d,0x65,0x20
000010  77697468          DCB      0x77,0x69,0x74,0x68
000014  20747970          DCB      0x20,0x74,0x79,0x70
000018  65202564          DCB      0x65,0x20,0x25,0x64
00001c  20746f20          DCB      0x20,0x74,0x6f,0x20
000020  616e696d          DCB      0x61,0x6e,0x69,0x6d
000024  6174696f          DCB      0x61,0x74,0x69,0x6f
000028  6e202564          DCB      0x6e,0x20,0x25,0x64
00002c  0a00              DCB      0x0a,0x00

                          AREA ||.data__ZZN4Anki5Cozmo8Messages17AddKeyFrameHelperINS1_28AddAnimKeyFrame_StartHeadNodEEEvRKT_RNS0_8KeyFrameEEs||, COMGROUP=_ZZN4Anki5Cozmo8Messages17AddKeyFrameHelperINS1_28AddAnimKeyFrame_StartHeadNodEEEvRKT_RNS0_8KeyFrameEEs, DATA, ALIGN=0

                  _ZZN4Anki5Cozmo8Messages17AddKeyFrameHelperINS1_28AddAnimKeyFrame_StartHeadNodEEEvRKT_RNS0_8KeyFrameEEs ; Anki::Cozmo::Messages::AddKeyFrameHelper<Anki::Cozmo::Messages::AddAnimKeyFrame_StartHeadNod>(const T1&, Anki::Cozmo::KeyFrame&)::string
000000  41646469          DCB      0x41,0x64,0x64,0x69
000004  6e67206b          DCB      0x6e,0x67,0x20,0x6b
000008  65796672          DCB      0x65,0x79,0x66,0x72
00000c  616d6520          DCB      0x61,0x6d,0x65,0x20
000010  77697468          DCB      0x77,0x69,0x74,0x68
000014  20747970          DCB      0x20,0x74,0x79,0x70
000018  65202564          DCB      0x65,0x20,0x25,0x64
00001c  20746f20          DCB      0x20,0x74,0x6f,0x20
000020  616e696d          DCB      0x61,0x6e,0x69,0x6d
000024  6174696f          DCB      0x61,0x74,0x69,0x6f
000028  6e202564          DCB      0x6e,0x20,0x25,0x64
00002c  0a00              DCB      0x0a,0x00

                          AREA ||.data__ZZN4Anki5Cozmo8Messages17AddKeyFrameHelperINS1_27AddAnimKeyFrame_StopHeadNodEEEvRKT_RNS0_8KeyFrameEEs||, COMGROUP=_ZZN4Anki5Cozmo8Messages17AddKeyFrameHelperINS1_27AddAnimKeyFrame_StopHeadNodEEEvRKT_RNS0_8KeyFrameEEs, DATA, ALIGN=0

                  _ZZN4Anki5Cozmo8Messages17AddKeyFrameHelperINS1_27AddAnimKeyFrame_StopHeadNodEEEvRKT_RNS0_8KeyFrameEEs ; Anki::Cozmo::Messages::AddKeyFrameHelper<Anki::Cozmo::Messages::AddAnimKeyFrame_StopHeadNod>(const T1&, Anki::Cozmo::KeyFrame&)::string
000000  41646469          DCB      0x41,0x64,0x64,0x69
000004  6e67206b          DCB      0x6e,0x67,0x20,0x6b
000008  65796672          DCB      0x65,0x79,0x66,0x72
00000c  616d6520          DCB      0x61,0x6d,0x65,0x20
000010  77697468          DCB      0x77,0x69,0x74,0x68
000014  20747970          DCB      0x20,0x74,0x79,0x70
000018  65202564          DCB      0x65,0x20,0x25,0x64
00001c  20746f20          DCB      0x20,0x74,0x6f,0x20
000020  616e696d          DCB      0x61,0x6e,0x69,0x6d
000024  6174696f          DCB      0x61,0x74,0x69,0x6f
000028  6e202564          DCB      0x6e,0x20,0x25,0x64
00002c  0a00              DCB      0x0a,0x00

                          AREA ||.data__ZZN4Anki5Cozmo8Messages17AddKeyFrameHelperINS1_29AddAnimKeyFrame_SetLiftHeightEEEvRKT_RNS0_8KeyFrameEEs||, COMGROUP=_ZZN4Anki5Cozmo8Messages17AddKeyFrameHelperINS1_29AddAnimKeyFrame_SetLiftHeightEEEvRKT_RNS0_8KeyFrameEEs, DATA, ALIGN=0

                  _ZZN4Anki5Cozmo8Messages17AddKeyFrameHelperINS1_29AddAnimKeyFrame_SetLiftHeightEEEvRKT_RNS0_8KeyFrameEEs ; Anki::Cozmo::Messages::AddKeyFrameHelper<Anki::Cozmo::Messages::AddAnimKeyFrame_SetLiftHeight>(const T1&, Anki::Cozmo::KeyFrame&)::string
000000  41646469          DCB      0x41,0x64,0x64,0x69
000004  6e67206b          DCB      0x6e,0x67,0x20,0x6b
000008  65796672          DCB      0x65,0x79,0x66,0x72
00000c  616d6520          DCB      0x61,0x6d,0x65,0x20
000010  77697468          DCB      0x77,0x69,0x74,0x68
000014  20747970          DCB      0x20,0x74,0x79,0x70
000018  65202564          DCB      0x65,0x20,0x25,0x64
00001c  20746f20          DCB      0x20,0x74,0x6f,0x20
000020  616e696d          DCB      0x61,0x6e,0x69,0x6d
000024  6174696f          DCB      0x61,0x74,0x69,0x6f
000028  6e202564          DCB      0x6e,0x20,0x25,0x64
00002c  0a00              DCB      0x0a,0x00

                          AREA ||.data__ZZN4Anki5Cozmo8Messages17AddKeyFrameHelperINS1_28AddAnimKeyFrame_StartLiftNodEEEvRKT_RNS0_8KeyFrameEEs||, COMGROUP=_ZZN4Anki5Cozmo8Messages17AddKeyFrameHelperINS1_28AddAnimKeyFrame_StartLiftNodEEEvRKT_RNS0_8KeyFrameEEs, DATA, ALIGN=0

                  _ZZN4Anki5Cozmo8Messages17AddKeyFrameHelperINS1_28AddAnimKeyFrame_StartLiftNodEEEvRKT_RNS0_8KeyFrameEEs ; Anki::Cozmo::Messages::AddKeyFrameHelper<Anki::Cozmo::Messages::AddAnimKeyFrame_StartLiftNod>(const T1&, Anki::Cozmo::KeyFrame&)::string
000000  41646469          DCB      0x41,0x64,0x64,0x69
000004  6e67206b          DCB      0x6e,0x67,0x20,0x6b
000008  65796672          DCB      0x65,0x79,0x66,0x72
00000c  616d6520          DCB      0x61,0x6d,0x65,0x20
000010  77697468          DCB      0x77,0x69,0x74,0x68
000014  20747970          DCB      0x20,0x74,0x79,0x70
000018  65202564          DCB      0x65,0x20,0x25,0x64
00001c  20746f20          DCB      0x20,0x74,0x6f,0x20
000020  616e696d          DCB      0x61,0x6e,0x69,0x6d
000024  6174696f          DCB      0x61,0x74,0x69,0x6f
000028  6e202564          DCB      0x6e,0x20,0x25,0x64
00002c  0a00              DCB      0x0a,0x00

                          AREA ||.data__ZZN4Anki5Cozmo8Messages17AddKeyFrameHelperINS1_27AddAnimKeyFrame_StopLiftNodEEEvRKT_RNS0_8KeyFrameEEs||, COMGROUP=_ZZN4Anki5Cozmo8Messages17AddKeyFrameHelperINS1_27AddAnimKeyFrame_StopLiftNodEEEvRKT_RNS0_8KeyFrameEEs, DATA, ALIGN=0

                  _ZZN4Anki5Cozmo8Messages17AddKeyFrameHelperINS1_27AddAnimKeyFrame_StopLiftNodEEEvRKT_RNS0_8KeyFrameEEs ; Anki::Cozmo::Messages::AddKeyFrameHelper<Anki::Cozmo::Messages::AddAnimKeyFrame_StopLiftNod>(const T1&, Anki::Cozmo::KeyFrame&)::string
000000  41646469          DCB      0x41,0x64,0x64,0x69
000004  6e67206b          DCB      0x6e,0x67,0x20,0x6b
000008  65796672          DCB      0x65,0x79,0x66,0x72
00000c  616d6520          DCB      0x61,0x6d,0x65,0x20
000010  77697468          DCB      0x77,0x69,0x74,0x68
000014  20747970          DCB      0x20,0x74,0x79,0x70
000018  65202564          DCB      0x65,0x20,0x25,0x64
00001c  20746f20          DCB      0x20,0x74,0x6f,0x20
000020  616e696d          DCB      0x61,0x6e,0x69,0x6d
000024  6174696f          DCB      0x61,0x74,0x69,0x6f
000028  6e202564          DCB      0x6e,0x20,0x25,0x64
00002c  0a00              DCB      0x0a,0x00

                          AREA ||.data__ZZN4Anki5Cozmo8Messages17AddKeyFrameHelperINS1_25AddAnimKeyFrame_DriveLineEEEvRKT_RNS0_8KeyFrameEEs||, COMGROUP=_ZZN4Anki5Cozmo8Messages17AddKeyFrameHelperINS1_25AddAnimKeyFrame_DriveLineEEEvRKT_RNS0_8KeyFrameEEs, DATA, ALIGN=0

                  _ZZN4Anki5Cozmo8Messages17AddKeyFrameHelperINS1_25AddAnimKeyFrame_DriveLineEEEvRKT_RNS0_8KeyFrameEEs ; Anki::Cozmo::Messages::AddKeyFrameHelper<Anki::Cozmo::Messages::AddAnimKeyFrame_DriveLine>(const T1&, Anki::Cozmo::KeyFrame&)::string
000000  41646469          DCB      0x41,0x64,0x64,0x69
000004  6e67206b          DCB      0x6e,0x67,0x20,0x6b
000008  65796672          DCB      0x65,0x79,0x66,0x72
00000c  616d6520          DCB      0x61,0x6d,0x65,0x20
000010  77697468          DCB      0x77,0x69,0x74,0x68
000014  20747970          DCB      0x20,0x74,0x79,0x70
000018  65202564          DCB      0x65,0x20,0x25,0x64
00001c  20746f20          DCB      0x20,0x74,0x6f,0x20
000020  616e696d          DCB      0x61,0x6e,0x69,0x6d
000024  6174696f          DCB      0x61,0x74,0x69,0x6f
000028  6e202564          DCB      0x6e,0x20,0x25,0x64
00002c  0a00              DCB      0x0a,0x00

                          AREA ||.data__ZZN4Anki5Cozmo8Messages17AddKeyFrameHelperINS1_27AddAnimKeyFrame_TurnInPlaceEEEvRKT_RNS0_8KeyFrameEEs||, COMGROUP=_ZZN4Anki5Cozmo8Messages17AddKeyFrameHelperINS1_27AddAnimKeyFrame_TurnInPlaceEEEvRKT_RNS0_8KeyFrameEEs, DATA, ALIGN=0

                  _ZZN4Anki5Cozmo8Messages17AddKeyFrameHelperINS1_27AddAnimKeyFrame_TurnInPlaceEEEvRKT_RNS0_8KeyFrameEEs ; Anki::Cozmo::Messages::AddKeyFrameHelper<Anki::Cozmo::Messages::AddAnimKeyFrame_TurnInPlace>(const T1&, Anki::Cozmo::KeyFrame&)::string
000000  41646469          DCB      0x41,0x64,0x64,0x69
000004  6e67206b          DCB      0x6e,0x67,0x20,0x6b
000008  65796672          DCB      0x65,0x79,0x66,0x72
00000c  616d6520          DCB      0x61,0x6d,0x65,0x20
000010  77697468          DCB      0x77,0x69,0x74,0x68
000014  20747970          DCB      0x20,0x74,0x79,0x70
000018  65202564          DCB      0x65,0x20,0x25,0x64
00001c  20746f20          DCB      0x20,0x74,0x6f,0x20
000020  616e696d          DCB      0x61,0x6e,0x69,0x6d
000024  6174696f          DCB      0x61,0x74,0x69,0x6f
000028  6e202564          DCB      0x6e,0x20,0x25,0x64
00002c  0a00              DCB      0x0a,0x00

                          AREA ||.data__ZZN4Anki5Cozmo8Messages17AddKeyFrameHelperINS1_29AddAnimKeyFrame_HoldHeadAngleEEEvRKT_RNS0_8KeyFrameEEs||, COMGROUP=_ZZN4Anki5Cozmo8Messages17AddKeyFrameHelperINS1_29AddAnimKeyFrame_HoldHeadAngleEEEvRKT_RNS0_8KeyFrameEEs, DATA, ALIGN=0

                  _ZZN4Anki5Cozmo8Messages17AddKeyFrameHelperINS1_29AddAnimKeyFrame_HoldHeadAngleEEEvRKT_RNS0_8KeyFrameEEs ; Anki::Cozmo::Messages::AddKeyFrameHelper<Anki::Cozmo::Messages::AddAnimKeyFrame_HoldHeadAngle>(const T1&, Anki::Cozmo::KeyFrame&)::string
000000  41646469          DCB      0x41,0x64,0x64,0x69
000004  6e67206b          DCB      0x6e,0x67,0x20,0x6b
000008  65796672          DCB      0x65,0x79,0x66,0x72
00000c  616d6520          DCB      0x61,0x6d,0x65,0x20
000010  77697468          DCB      0x77,0x69,0x74,0x68
000014  20747970          DCB      0x20,0x74,0x79,0x70
000018  65202564          DCB      0x65,0x20,0x25,0x64
00001c  20746f20          DCB      0x20,0x74,0x6f,0x20
000020  616e696d          DCB      0x61,0x6e,0x69,0x6d
000024  6174696f          DCB      0x61,0x74,0x69,0x6f
000028  6e202564          DCB      0x6e,0x20,0x25,0x64
00002c  0a00              DCB      0x0a,0x00

                          AREA ||.data__ZZN4Anki5Cozmo8Messages17AddKeyFrameHelperINS1_30AddAnimKeyFrame_HoldLiftHeightEEEvRKT_RNS0_8KeyFrameEEs||, COMGROUP=_ZZN4Anki5Cozmo8Messages17AddKeyFrameHelperINS1_30AddAnimKeyFrame_HoldLiftHeightEEEvRKT_RNS0_8KeyFrameEEs, DATA, ALIGN=0

                  _ZZN4Anki5Cozmo8Messages17AddKeyFrameHelperINS1_30AddAnimKeyFrame_HoldLiftHeightEEEvRKT_RNS0_8KeyFrameEEs ; Anki::Cozmo::Messages::AddKeyFrameHelper<Anki::Cozmo::Messages::AddAnimKeyFrame_HoldLiftHeight>(const T1&, Anki::Cozmo::KeyFrame&)::string
000000  41646469          DCB      0x41,0x64,0x64,0x69
000004  6e67206b          DCB      0x6e,0x67,0x20,0x6b
000008  65796672          DCB      0x65,0x79,0x66,0x72
00000c  616d6520          DCB      0x61,0x6d,0x65,0x20
000010  77697468          DCB      0x77,0x69,0x74,0x68
000014  20747970          DCB      0x20,0x74,0x79,0x70
000018  65202564          DCB      0x65,0x20,0x25,0x64
00001c  20746f20          DCB      0x20,0x74,0x6f,0x20
000020  616e696d          DCB      0x61,0x6e,0x69,0x6d
000024  6174696f          DCB      0x61,0x74,0x69,0x6f
000028  6e202564          DCB      0x6e,0x20,0x25,0x64
00002c  0a00              DCB      0x0a,0x00

                          AREA ||.data__ZZN4Anki5Cozmo8Messages17AddKeyFrameHelperINS1_24AddAnimKeyFrame_HoldPoseEEEvRKT_RNS0_8KeyFrameEEs||, COMGROUP=_ZZN4Anki5Cozmo8Messages17AddKeyFrameHelperINS1_24AddAnimKeyFrame_HoldPoseEEEvRKT_RNS0_8KeyFrameEEs, DATA, ALIGN=0

                  _ZZN4Anki5Cozmo8Messages17AddKeyFrameHelperINS1_24AddAnimKeyFrame_HoldPoseEEEvRKT_RNS0_8KeyFrameEEs ; Anki::Cozmo::Messages::AddKeyFrameHelper<Anki::Cozmo::Messages::AddAnimKeyFrame_HoldPose>(const T1&, Anki::Cozmo::KeyFrame&)::string
000000  41646469          DCB      0x41,0x64,0x64,0x69
000004  6e67206b          DCB      0x6e,0x67,0x20,0x6b
000008  65796672          DCB      0x65,0x79,0x66,0x72
00000c  616d6520          DCB      0x61,0x6d,0x65,0x20
000010  77697468          DCB      0x77,0x69,0x74,0x68
000014  20747970          DCB      0x20,0x74,0x79,0x70
000018  65202564          DCB      0x65,0x20,0x25,0x64
00001c  20746f20          DCB      0x20,0x74,0x6f,0x20
000020  616e696d          DCB      0x61,0x6e,0x69,0x6d
000024  6174696f          DCB      0x61,0x74,0x69,0x6f
000028  6e202564          DCB      0x6e,0x20,0x25,0x64
00002c  0a00              DCB      0x0a,0x00

                          AREA ||.data__ZZN4Anki5Cozmo8Messages17AddKeyFrameHelperINS1_25AddAnimKeyFrame_PlaySoundEEEvRKT_RNS0_8KeyFrameEEs||, COMGROUP=_ZZN4Anki5Cozmo8Messages17AddKeyFrameHelperINS1_25AddAnimKeyFrame_PlaySoundEEEvRKT_RNS0_8KeyFrameEEs, DATA, ALIGN=0

                  _ZZN4Anki5Cozmo8Messages17AddKeyFrameHelperINS1_25AddAnimKeyFrame_PlaySoundEEEvRKT_RNS0_8KeyFrameEEs ; Anki::Cozmo::Messages::AddKeyFrameHelper<Anki::Cozmo::Messages::AddAnimKeyFrame_PlaySound>(const T1&, Anki::Cozmo::KeyFrame&)::string
000000  41646469          DCB      0x41,0x64,0x64,0x69
000004  6e67206b          DCB      0x6e,0x67,0x20,0x6b
000008  65796672          DCB      0x65,0x79,0x66,0x72
00000c  616d6520          DCB      0x61,0x6d,0x65,0x20
000010  77697468          DCB      0x77,0x69,0x74,0x68
000014  20747970          DCB      0x20,0x74,0x79,0x70
000018  65202564          DCB      0x65,0x20,0x25,0x64
00001c  20746f20          DCB      0x20,0x74,0x6f,0x20
000020  616e696d          DCB      0x61,0x6e,0x69,0x6d
000024  6174696f          DCB      0x61,0x74,0x69,0x6f
000028  6e202564          DCB      0x6e,0x20,0x25,0x64
00002c  0a00              DCB      0x0a,0x00

                          AREA ||.data__ZZN4Anki5Cozmo8Messages17AddKeyFrameHelperINS1_28AddAnimKeyFrame_WaitForSoundEEEvRKT_RNS0_8KeyFrameEEs||, COMGROUP=_ZZN4Anki5Cozmo8Messages17AddKeyFrameHelperINS1_28AddAnimKeyFrame_WaitForSoundEEEvRKT_RNS0_8KeyFrameEEs, DATA, ALIGN=0

                  _ZZN4Anki5Cozmo8Messages17AddKeyFrameHelperINS1_28AddAnimKeyFrame_WaitForSoundEEEvRKT_RNS0_8KeyFrameEEs ; Anki::Cozmo::Messages::AddKeyFrameHelper<Anki::Cozmo::Messages::AddAnimKeyFrame_WaitForSound>(const T1&, Anki::Cozmo::KeyFrame&)::string
000000  41646469          DCB      0x41,0x64,0x64,0x69
000004  6e67206b          DCB      0x6e,0x67,0x20,0x6b
000008  65796672          DCB      0x65,0x79,0x66,0x72
00000c  616d6520          DCB      0x61,0x6d,0x65,0x20
000010  77697468          DCB      0x77,0x69,0x74,0x68
000014  20747970          DCB      0x20,0x74,0x79,0x70
000018  65202564          DCB      0x65,0x20,0x25,0x64
00001c  20746f20          DCB      0x20,0x74,0x6f,0x20
000020  616e696d          DCB      0x61,0x6e,0x69,0x6d
000024  6174696f          DCB      0x61,0x74,0x69,0x6f
000028  6e202564          DCB      0x6e,0x20,0x25,0x64
00002c  0a00              DCB      0x0a,0x00

                          AREA ||.data__ZZN4Anki5Cozmo8Messages17AddKeyFrameHelperINS1_25AddAnimKeyFrame_StopSoundEEEvRKT_RNS0_8KeyFrameEEs||, COMGROUP=_ZZN4Anki5Cozmo8Messages17AddKeyFrameHelperINS1_25AddAnimKeyFrame_StopSoundEEEvRKT_RNS0_8KeyFrameEEs, DATA, ALIGN=0

                  _ZZN4Anki5Cozmo8Messages17AddKeyFrameHelperINS1_25AddAnimKeyFrame_StopSoundEEEvRKT_RNS0_8KeyFrameEEs ; Anki::Cozmo::Messages::AddKeyFrameHelper<Anki::Cozmo::Messages::AddAnimKeyFrame_StopSound>(const T1&, Anki::Cozmo::KeyFrame&)::string
000000  41646469          DCB      0x41,0x64,0x64,0x69
000004  6e67206b          DCB      0x6e,0x67,0x20,0x6b
000008  65796672          DCB      0x65,0x79,0x66,0x72
00000c  616d6520          DCB      0x61,0x6d,0x65,0x20
000010  77697468          DCB      0x77,0x69,0x74,0x68
000014  20747970          DCB      0x20,0x74,0x79,0x70
000018  65202564          DCB      0x65,0x20,0x25,0x64
00001c  20746f20          DCB      0x20,0x74,0x6f,0x20
000020  616e696d          DCB      0x61,0x6e,0x69,0x6d
000024  6174696f          DCB      0x61,0x74,0x69,0x6f
000028  6e202564          DCB      0x6e,0x20,0x25,0x64
00002c  0a00              DCB      0x0a,0x00

                          AREA ||.data__ZZN4Anki5Cozmo8Messages17AddKeyFrameHelperINS1_35AddAnimKeyFrame_SetEyeShapeAndColorEEEvRKT_RNS0_8KeyFrameEEs||, COMGROUP=_ZZN4Anki5Cozmo8Messages17AddKeyFrameHelperINS1_35AddAnimKeyFrame_SetEyeShapeAndColorEEEvRKT_RNS0_8KeyFrameEEs, DATA, ALIGN=0

                  _ZZN4Anki5Cozmo8Messages17AddKeyFrameHelperINS1_35AddAnimKeyFrame_SetEyeShapeAndColorEEEvRKT_RNS0_8KeyFrameEEs ; Anki::Cozmo::Messages::AddKeyFrameHelper<Anki::Cozmo::Messages::AddAnimKeyFrame_SetEyeShapeAndColor>(const T1&, Anki::Cozmo::KeyFrame&)::string
000000  41646469          DCB      0x41,0x64,0x64,0x69
000004  6e67206b          DCB      0x6e,0x67,0x20,0x6b
000008  65796672          DCB      0x65,0x79,0x66,0x72
00000c  616d6520          DCB      0x61,0x6d,0x65,0x20
000010  77697468          DCB      0x77,0x69,0x74,0x68
000014  20747970          DCB      0x20,0x74,0x79,0x70
000018  65202564          DCB      0x65,0x20,0x25,0x64
00001c  20746f20          DCB      0x20,0x74,0x6f,0x20
000020  616e696d          DCB      0x61,0x6e,0x69,0x6d
000024  6174696f          DCB      0x61,0x74,0x69,0x6f
000028  6e202564          DCB      0x6e,0x20,0x25,0x64
00002c  0a00              DCB      0x0a,0x00

                          AREA ||.data__ZZN4Anki5Cozmo8Messages17AddKeyFrameHelperINS1_29AddAnimKeyFrame_StartBlinkingEEEvRKT_RNS0_8KeyFrameEEs||, COMGROUP=_ZZN4Anki5Cozmo8Messages17AddKeyFrameHelperINS1_29AddAnimKeyFrame_StartBlinkingEEEvRKT_RNS0_8KeyFrameEEs, DATA, ALIGN=0

                  _ZZN4Anki5Cozmo8Messages17AddKeyFrameHelperINS1_29AddAnimKeyFrame_StartBlinkingEEEvRKT_RNS0_8KeyFrameEEs ; Anki::Cozmo::Messages::AddKeyFrameHelper<Anki::Cozmo::Messages::AddAnimKeyFrame_StartBlinking>(const T1&, Anki::Cozmo::KeyFrame&)::string
000000  41646469          DCB      0x41,0x64,0x64,0x69
000004  6e67206b          DCB      0x6e,0x67,0x20,0x6b
000008  65796672          DCB      0x65,0x79,0x66,0x72
00000c  616d6520          DCB      0x61,0x6d,0x65,0x20
000010  77697468          DCB      0x77,0x69,0x74,0x68
000014  20747970          DCB      0x20,0x74,0x79,0x70
000018  65202564          DCB      0x65,0x20,0x25,0x64
00001c  20746f20          DCB      0x20,0x74,0x6f,0x20
000020  616e696d          DCB      0x61,0x6e,0x69,0x6d
000024  6174696f          DCB      0x61,0x74,0x69,0x6f
000028  6e202564          DCB      0x6e,0x20,0x25,0x64
00002c  0a00              DCB      0x0a,0x00

                          AREA ||.data__ZZN4Anki5Cozmo8Messages17AddKeyFrameHelperINS1_33AddAnimKeyFrame_StartFlashingEyesEEEvRKT_RNS0_8KeyFrameEEs||, COMGROUP=_ZZN4Anki5Cozmo8Messages17AddKeyFrameHelperINS1_33AddAnimKeyFrame_StartFlashingEyesEEEvRKT_RNS0_8KeyFrameEEs, DATA, ALIGN=0

                  _ZZN4Anki5Cozmo8Messages17AddKeyFrameHelperINS1_33AddAnimKeyFrame_StartFlashingEyesEEEvRKT_RNS0_8KeyFrameEEs ; Anki::Cozmo::Messages::AddKeyFrameHelper<Anki::Cozmo::Messages::AddAnimKeyFrame_StartFlashingEyes>(const T1&, Anki::Cozmo::KeyFrame&)::string
000000  41646469          DCB      0x41,0x64,0x64,0x69
000004  6e67206b          DCB      0x6e,0x67,0x20,0x6b
000008  65796672          DCB      0x65,0x79,0x66,0x72
00000c  616d6520          DCB      0x61,0x6d,0x65,0x20
000010  77697468          DCB      0x77,0x69,0x74,0x68
000014  20747970          DCB      0x20,0x74,0x79,0x70
000018  65202564          DCB      0x65,0x20,0x25,0x64
00001c  20746f20          DCB      0x20,0x74,0x6f,0x20
000020  616e696d          DCB      0x61,0x6e,0x69,0x6d
000024  6174696f          DCB      0x61,0x74,0x69,0x6f
000028  6e202564          DCB      0x6e,0x20,0x25,0x64
00002c  0a00              DCB      0x0a,0x00

                          AREA ||.data__ZZN4Anki5Cozmo8Messages17AddKeyFrameHelperINS1_33AddAnimKeyFrame_StartSpinningEyesEEEvRKT_RNS0_8KeyFrameEEs||, COMGROUP=_ZZN4Anki5Cozmo8Messages17AddKeyFrameHelperINS1_33AddAnimKeyFrame_StartSpinningEyesEEEvRKT_RNS0_8KeyFrameEEs, DATA, ALIGN=0

                  _ZZN4Anki5Cozmo8Messages17AddKeyFrameHelperINS1_33AddAnimKeyFrame_StartSpinningEyesEEEvRKT_RNS0_8KeyFrameEEs ; Anki::Cozmo::Messages::AddKeyFrameHelper<Anki::Cozmo::Messages::AddAnimKeyFrame_StartSpinningEyes>(const T1&, Anki::Cozmo::KeyFrame&)::string
000000  41646469          DCB      0x41,0x64,0x64,0x69
000004  6e67206b          DCB      0x6e,0x67,0x20,0x6b
000008  65796672          DCB      0x65,0x79,0x66,0x72
00000c  616d6520          DCB      0x61,0x6d,0x65,0x20
000010  77697468          DCB      0x77,0x69,0x74,0x68
000014  20747970          DCB      0x20,0x74,0x79,0x70
000018  65202564          DCB      0x65,0x20,0x25,0x64
00001c  20746f20          DCB      0x20,0x74,0x6f,0x20
000020  616e696d          DCB      0x61,0x6e,0x69,0x6d
000024  6174696f          DCB      0x61,0x74,0x69,0x6f
000028  6e202564          DCB      0x6e,0x20,0x25,0x64
00002c  0a00              DCB      0x0a,0x00

                          AREA ||.data__ZZN4Anki5Cozmo8Messages17AddKeyFrameHelperINS1_32AddAnimKeyFrame_StopEyeAnimationEEEvRKT_RNS0_8KeyFrameEEs||, COMGROUP=_ZZN4Anki5Cozmo8Messages17AddKeyFrameHelperINS1_32AddAnimKeyFrame_StopEyeAnimationEEEvRKT_RNS0_8KeyFrameEEs, DATA, ALIGN=0

                  _ZZN4Anki5Cozmo8Messages17AddKeyFrameHelperINS1_32AddAnimKeyFrame_StopEyeAnimationEEEvRKT_RNS0_8KeyFrameEEs ; Anki::Cozmo::Messages::AddKeyFrameHelper<Anki::Cozmo::Messages::AddAnimKeyFrame_StopEyeAnimation>(const T1&, Anki::Cozmo::KeyFrame&)::string
000000  41646469          DCB      0x41,0x64,0x64,0x69
000004  6e67206b          DCB      0x6e,0x67,0x20,0x6b
000008  65796672          DCB      0x65,0x79,0x66,0x72
00000c  616d6520          DCB      0x61,0x6d,0x65,0x20
000010  77697468          DCB      0x77,0x69,0x74,0x68
000014  20747970          DCB      0x20,0x74,0x79,0x70
000018  65202564          DCB      0x65,0x20,0x25,0x64
00001c  20746f20          DCB      0x20,0x74,0x6f,0x20
000020  616e696d          DCB      0x61,0x6e,0x69,0x6d
000024  6174696f          DCB      0x61,0x74,0x69,0x6f
000028  6e202564          DCB      0x6e,0x20,0x25,0x64
00002c  0a00              DCB      0x0a,0x00

                          AREA ||.data__ZZN4Anki5Cozmo8Messages17AddKeyFrameHelperINS1_32AddAnimKeyFrame_TriggerAnimationEEEvRKT_RNS0_8KeyFrameEEs||, COMGROUP=_ZZN4Anki5Cozmo8Messages17AddKeyFrameHelperINS1_32AddAnimKeyFrame_TriggerAnimationEEEvRKT_RNS0_8KeyFrameEEs, DATA, ALIGN=0

                  _ZZN4Anki5Cozmo8Messages17AddKeyFrameHelperINS1_32AddAnimKeyFrame_TriggerAnimationEEEvRKT_RNS0_8KeyFrameEEs ; Anki::Cozmo::Messages::AddKeyFrameHelper<Anki::Cozmo::Messages::AddAnimKeyFrame_TriggerAnimation>(const T1&, Anki::Cozmo::KeyFrame&)::string
000000  41646469          DCB      0x41,0x64,0x64,0x69
000004  6e67206b          DCB      0x6e,0x67,0x20,0x6b
000008  65796672          DCB      0x65,0x79,0x66,0x72
00000c  616d6520          DCB      0x61,0x6d,0x65,0x20
000010  77697468          DCB      0x77,0x69,0x74,0x68
000014  20747970          DCB      0x20,0x74,0x79,0x70
000018  65202564          DCB      0x65,0x20,0x25,0x64
00001c  20746f20          DCB      0x20,0x74,0x6f,0x20
000020  616e696d          DCB      0x61,0x6e,0x69,0x6d
000024  6174696f          DCB      0x61,0x74,0x69,0x6f
000028  6e202564          DCB      0x6e,0x20,0x25,0x64
00002c  0a00              DCB      0x0a,0x00

                          AREA ||t._ZN4Anki7MailboxINS_5Cozmo8Messages13FaceDetectionEEC1Ev||, COMGROUP=_ZN4Anki7MailboxINS_5Cozmo8Messages13FaceDetectionEEC1Ev, CODE, READONLY, ALIGN=1

                  _ZN4Anki7MailboxINS_5Cozmo8Messages13FaceDetectionEEC2Ev                  ; Alternate entry point ; Anki::Mailbox<Anki::Cozmo::Messages::FaceDetection>::Mailbox__sub_object()
                  _ZN4Anki7MailboxINS_5Cozmo8Messages13FaceDetectionEEC1Ev PROC ; Anki::Mailbox<Anki::Cozmo::Messages::FaceDetection>::Mailbox()
;;;20       template<typename MSG_TYPE>
;;;21       Mailbox<MSG_TYPE>::Mailbox()
;;;22       : beenRead_(true)
;;;23       {
;;;24         
;;;25       }
;;;26     
000000  2101              MOVS     r1,#1
000002  7281              STRB     r1,[r0,#0xa]
000004  4770              BX       lr
                          ENDP


                          AREA ||area_number.501||, COMGROUP=_ZN4Anki7MailboxINS_5Cozmo8Messages13FaceDetectionEEC1Ev, LINKORDER=||t._ZN4Anki7MailboxINS_5Cozmo8Messages13FaceDetectionEEC1Ev||, DATA, READONLY, SECTYPE={SHT_ARM_EXIDX}, ALIGN=2

                          EXPORTAS ||area_number.501||, ||.ARM.exidx||
                          DCD      0x00000000
                          RELOC 42, ||t._ZN4Anki7MailboxINS_5Cozmo8Messages13FaceDetectionEEC1Ev||
                          DCD      0x00000001

                          AREA ||i._ZN4Anki5Cozmo8Messages25ProcessDriveWheelsMessageEPKh||, COMGROUP=_ZN4Anki5Cozmo8Messages25ProcessDriveWheelsMessageEPKh, CODE, READONLY, ALIGN=1

                  _ZN4Anki5Cozmo8Messages25ProcessDriveWheelsMessageEPKh PROC ; Anki::Cozmo::Messages::ProcessDriveWheelsMessage(const unsigned char*)
;;;47     // DriveWheels
;;;48     START_MESSAGE_DEFINITION(DriveWheels, 1)
000000  f7ffbffe          B.W      _ZN4Anki5Cozmo8Messages25ProcessDriveWheelsMessageERKNS1_11DriveWheelsE ; Anki::Cozmo::Messages::ProcessDriveWheelsMessage(const Anki::Cozmo::Messages::DriveWheels&)
;;;49     ADD_MESSAGE_MEMBER(f32, lwheel_speed_mmps)
                          ENDP


                          AREA ||area_number.508||, COMGROUP=_ZN4Anki5Cozmo8Messages25ProcessDriveWheelsMessageEPKh, LINKORDER=||i._ZN4Anki5Cozmo8Messages25ProcessDriveWheelsMessageEPKh||, DATA, READONLY, SECTYPE={SHT_ARM_EXIDX}, ALIGN=2

                          EXPORTAS ||area_number.508||, ||.ARM.exidx||
                          DCD      0x00000000
                          RELOC 42, ||i._ZN4Anki5Cozmo8Messages25ProcessDriveWheelsMessageEPKh||
                          DCD      0x00000001

                          AREA ||i._ZN4Anki5Cozmo8Messages34ProcessDriveWheelsCurvatureMessageEPKh||, COMGROUP=_ZN4Anki5Cozmo8Messages34ProcessDriveWheelsCurvatureMessageEPKh, CODE, READONLY, ALIGN=1

                  _ZN4Anki5Cozmo8Messages34ProcessDriveWheelsCurvatureMessageEPKh PROC ; Anki::Cozmo::Messages::ProcessDriveWheelsCurvatureMessage(const unsigned char*)
;;;53     // DriveWheelsCurvature
;;;54     START_MESSAGE_DEFINITION(DriveWheelsCurvature, 1)
000000  4770              BX       lr
;;;55     ADD_MESSAGE_MEMBER(s16, speed_mmPerSec)      // Commanded speed in mm/sec
                          ENDP


                          AREA ||area_number.515||, COMGROUP=_ZN4Anki5Cozmo8Messages34ProcessDriveWheelsCurvatureMessageEPKh, LINKORDER=||i._ZN4Anki5Cozmo8Messages34ProcessDriveWheelsCurvatureMessageEPKh||, DATA, READONLY, SECTYPE={SHT_ARM_EXIDX}, ALIGN=2

                          EXPORTAS ||area_number.515||, ||.ARM.exidx||
                          DCD      0x00000000
                          RELOC 42, ||i._ZN4Anki5Cozmo8Messages34ProcessDriveWheelsCurvatureMessageEPKh||
                          DCD      0x00000001

                          AREA ||i._ZN4Anki5Cozmo8Messages22ProcessMoveLiftMessageEPKh||, COMGROUP=_ZN4Anki5Cozmo8Messages22ProcessMoveLiftMessageEPKh, CODE, READONLY, ALIGN=1

                  _ZN4Anki5Cozmo8Messages22ProcessMoveLiftMessageEPKh PROC ; Anki::Cozmo::Messages::ProcessMoveLiftMessage(const unsigned char*)
;;;64     // MoveLift
;;;65     START_MESSAGE_DEFINITION(MoveLift, 1)
000000  ed900a00          VLDR     s0,[r0,#0]
000004  f7ffbffe          B.W      _ZN4Anki5Cozmo14LiftController18SetAngularVelocityEf ; Anki::Cozmo::LiftController::SetAngularVelocity(float)
;;;66     ADD_MESSAGE_MEMBER(f32, speed_rad_per_sec)
                          ENDP


                          AREA ||area_number.522||, COMGROUP=_ZN4Anki5Cozmo8Messages22ProcessMoveLiftMessageEPKh, LINKORDER=||i._ZN4Anki5Cozmo8Messages22ProcessMoveLiftMessageEPKh||, DATA, READONLY, SECTYPE={SHT_ARM_EXIDX}, ALIGN=2

                          EXPORTAS ||area_number.522||, ||.ARM.exidx||
                          DCD      0x00000000
                          RELOC 42, ||i._ZN4Anki5Cozmo8Messages22ProcessMoveLiftMessageEPKh||
                          DCD      0x00000001

                          AREA ||i._ZN4Anki5Cozmo8Messages22ProcessMoveHeadMessageEPKh||, COMGROUP=_ZN4Anki5Cozmo8Messages22ProcessMoveHeadMessageEPKh, CODE, READONLY, ALIGN=1

                  _ZN4Anki5Cozmo8Messages22ProcessMoveHeadMessageEPKh PROC ; Anki::Cozmo::Messages::ProcessMoveHeadMessage(const unsigned char*)
;;;69     // MoveHead
;;;70     START_MESSAGE_DEFINITION(MoveHead, 1)
000000  ed900a00          VLDR     s0,[r0,#0]
000004  f7ffbffe          B.W      _ZN4Anki5Cozmo14HeadController18SetAngularVelocityEf ; Anki::Cozmo::HeadController::SetAngularVelocity(float)
;;;71     ADD_MESSAGE_MEMBER(f32, speed_rad_per_sec)
                          ENDP


                          AREA ||area_number.529||, COMGROUP=_ZN4Anki5Cozmo8Messages22ProcessMoveHeadMessageEPKh, LINKORDER=||i._ZN4Anki5Cozmo8Messages22ProcessMoveHeadMessageEPKh||, DATA, READONLY, SECTYPE={SHT_ARM_EXIDX}, ALIGN=2

                          EXPORTAS ||area_number.529||, ||.ARM.exidx||
                          DCD      0x00000000
                          RELOC 42, ||i._ZN4Anki5Cozmo8Messages22ProcessMoveHeadMessageEPKh||
                          DCD      0x00000001

                          AREA ||i._ZN4Anki5Cozmo8Messages27ProcessSetLiftHeightMessageEPKh||, COMGROUP=_ZN4Anki5Cozmo8Messages27ProcessSetLiftHeightMessageEPKh, CODE, READONLY, ALIGN=1

                  _ZN4Anki5Cozmo8Messages27ProcessSetLiftHeightMessageEPKh PROC ; Anki::Cozmo::Messages::ProcessSetLiftHeightMessage(const unsigned char*)
;;;75     // SetLiftHeight
;;;76     START_MESSAGE_DEFINITION(SetLiftHeight, 1)
000000  b510              PUSH     {r4,lr}
000002  4604              MOV      r4,r0
000004  edd00a02          VLDR     s1,[r0,#8]
000008  ed900a01          VLDR     s0,[r0,#4]
00000c  f7fffffe          BL       _ZN4Anki5Cozmo14LiftController16SetSpeedAndAccelEff ; Anki::Cozmo::LiftController::SetSpeedAndAccel(float, float)
000010  ed940a00          VLDR     s0,[r4,#0]
000014  e8bd4010          POP      {r4,lr}
000018  f7ffbffe          B.W      _ZN4Anki5Cozmo14LiftController16SetDesiredHeightEf ; Anki::Cozmo::LiftController::SetDesiredHeight(float)
;;;77     ADD_MESSAGE_MEMBER(f32, height_mm)
                          ENDP


                          AREA ||area_number.536||, COMGROUP=_ZN4Anki5Cozmo8Messages27ProcessSetLiftHeightMessageEPKh, LINKORDER=||i._ZN4Anki5Cozmo8Messages27ProcessSetLiftHeightMessageEPKh||, DATA, READONLY, SECTYPE={SHT_ARM_EXIDX}, ALIGN=2

                          EXPORTAS ||area_number.536||, ||.ARM.exidx||
                          DCD      0x00000000
                          RELOC 42, ||i._ZN4Anki5Cozmo8Messages27ProcessSetLiftHeightMessageEPKh||
                          DCD      0x00000001

                          AREA ||i._ZN4Anki5Cozmo8Messages26ProcessSetHeadAngleMessageEPKh||, COMGROUP=_ZN4Anki5Cozmo8Messages26ProcessSetHeadAngleMessageEPKh, CODE, READONLY, ALIGN=1

                  _ZN4Anki5Cozmo8Messages26ProcessSetHeadAngleMessageEPKh PROC ; Anki::Cozmo::Messages::ProcessSetHeadAngleMessage(const unsigned char*)
;;;82     // SetHeadAngle
;;;83     START_MESSAGE_DEFINITION(SetHeadAngle, 1)
000000  b510              PUSH     {r4,lr}
000002  4604              MOV      r4,r0
000004  edd00a02          VLDR     s1,[r0,#8]
000008  ed900a01          VLDR     s0,[r0,#4]
00000c  f7fffffe          BL       _ZN4Anki5Cozmo14HeadController16SetSpeedAndAccelEff ; Anki::Cozmo::HeadController::SetSpeedAndAccel(float, float)
000010  ed940a00          VLDR     s0,[r4,#0]
000014  e8bd4010          POP      {r4,lr}
000018  f7ffbffe          B.W      _ZN4Anki5Cozmo14HeadController15SetDesiredAngleEf ; Anki::Cozmo::HeadController::SetDesiredAngle(float)
;;;84     ADD_MESSAGE_MEMBER(f32, angle_rad)
                          ENDP


                          AREA ||area_number.543||, COMGROUP=_ZN4Anki5Cozmo8Messages26ProcessSetHeadAngleMessageEPKh, LINKORDER=||i._ZN4Anki5Cozmo8Messages26ProcessSetHeadAngleMessageEPKh||, DATA, READONLY, SECTYPE={SHT_ARM_EXIDX}, ALIGN=2

                          EXPORTAS ||area_number.543||, ||.ARM.exidx||
                          DCD      0x00000000
                          RELOC 42, ||i._ZN4Anki5Cozmo8Messages26ProcessSetHeadAngleMessageEPKh||
                          DCD      0x00000001

                          AREA ||i._ZN4Anki5Cozmo8Messages27ProcessStopAllMotorsMessageEPKh||, COMGROUP=_ZN4Anki5Cozmo8Messages27ProcessStopAllMotorsMessageEPKh, CODE, READONLY, ALIGN=2

                  _ZN4Anki5Cozmo8Messages27ProcessStopAllMotorsMessageEPKh PROC ; Anki::Cozmo::Messages::ProcessStopAllMotorsMessage(const unsigned char*)
;;;89     // StopAllMotors
;;;90     START_MESSAGE_DEFINITION(StopAllMotors, 1)
000000  b510              PUSH     {r4,lr}
000002  ed2d8b02          VPUSH    {d8}
000006  ed9f8a0c          VLDR     s16,|L549.56|
00000a  eef01a48          VMOV.F32 s3,s16
00000e  eeb01a48          VMOV.F32 s2,s16
000012  eef00a48          VMOV.F32 s1,s16
000016  eeb00a48          VMOV.F32 s0,s16
00001a  f7fffffe          BL       _ZN4Anki5Cozmo18SteeringController18ExecuteDirectDriveEffff ; Anki::Cozmo::SteeringController::ExecuteDirectDrive(float, float, float, float)
00001e  eeb00a48          VMOV.F32 s0,s16
000022  f7fffffe          BL       _ZN4Anki5Cozmo14LiftController18SetAngularVelocityEf ; Anki::Cozmo::LiftController::SetAngularVelocity(float)
000026  eeb00a48          VMOV.F32 s0,s16
00002a  ecbd8b02          VPOP     {d8}
00002e  e8bd4010          POP      {r4,lr}
000032  f7ffbffe          B.W      _ZN4Anki5Cozmo14HeadController18SetAngularVelocityEf ; Anki::Cozmo::HeadController::SetAngularVelocity(float)
;;;91     END_MESSAGE_DEFINITION(StopAllMotors)
                          ENDP

000036  0000              DCW      0x0000
                  |L549.56|
000038  00000000          DCFS     0x00000000 ; 0

                          AREA ||area_number.550||, COMGROUP=_ZN4Anki5Cozmo8Messages27ProcessStopAllMotorsMessageEPKh, LINKORDER=||i._ZN4Anki5Cozmo8Messages27ProcessStopAllMotorsMessageEPKh||, DATA, READONLY, SECTYPE={SHT_ARM_EXIDX}, ALIGN=2

                          EXPORTAS ||area_number.550||, ||.ARM.exidx||
                          DCD      0x00000000
                          RELOC 42, ||i._ZN4Anki5Cozmo8Messages27ProcessStopAllMotorsMessageEPKh||
                          DCD      0x00000001

                          AREA ||i._ZN4Anki5Cozmo8Messages23ProcessClearPathMessageEPKh||, COMGROUP=_ZN4Anki5Cozmo8Messages23ProcessClearPathMessageEPKh, CODE, READONLY, ALIGN=1

                  _ZN4Anki5Cozmo8Messages23ProcessClearPathMessageEPKh PROC ; Anki::Cozmo::Messages::ProcessClearPathMessage(const unsigned char*)
;;;93     // ClearPath
;;;94     START_MESSAGE_DEFINITION(ClearPath, 1)
000000  b510              PUSH     {r4,lr}
000002  2000              MOVS     r0,#0
000004  f7fffffe          BL       _ZN4Anki5Cozmo15SpeedController35SetUserCommandedDesiredVehicleSpeedEs ; Anki::Cozmo::SpeedController::SetUserCommandedDesiredVehicleSpeed(short)
000008  e8bd4010          POP      {r4,lr}
00000c  f7ffbffe          B.W      _ZN4Anki5Cozmo12PathFollower9ClearPathEv ; Anki::Cozmo::PathFollower::ClearPath()
;;;95     ADD_MESSAGE_MEMBER(u16, pathID)
                          ENDP


                          AREA ||area_number.557||, COMGROUP=_ZN4Anki5Cozmo8Messages23ProcessClearPathMessageEPKh, LINKORDER=||i._ZN4Anki5Cozmo8Messages23ProcessClearPathMessageEPKh||, DATA, READONLY, SECTYPE={SHT_ARM_EXIDX}, ALIGN=2

                          EXPORTAS ||area_number.557||, ||.ARM.exidx||
                          DCD      0x00000000
                          RELOC 42, ||i._ZN4Anki5Cozmo8Messages23ProcessClearPathMessageEPKh||
                          DCD      0x00000001

                          AREA ||i._ZN4Anki5Cozmo8Messages35ProcessAppendPathSegmentLineMessageEPKh||, COMGROUP=_ZN4Anki5Cozmo8Messages35ProcessAppendPathSegmentLineMessageEPKh, CODE, READONLY, ALIGN=1

                  _ZN4Anki5Cozmo8Messages35ProcessAppendPathSegmentLineMessageEPKh PROC ; Anki::Cozmo::Messages::ProcessAppendPathSegmentLineMessage(const unsigned char*)
;;;104    // AppendPathSegmentLine
;;;105    START_MESSAGE_DEFINITION(AppendPathSegmentLine, 1)
000000  ec900a07          VLDM     r0,{s0-s6}
000004  2000              MOVS     r0,#0
000006  f7ffbffe          B.W      _ZN4Anki5Cozmo12PathFollower22AppendPathSegment_LineEjfffffff ; Anki::Cozmo::PathFollower::AppendPathSegment_Line(unsigned, float, float, float, float, float, float, float)
;;;106    ADD_MESSAGE_MEMBER(f32, x_start_mm)
                          ENDP


                          AREA ||area_number.564||, COMGROUP=_ZN4Anki5Cozmo8Messages35ProcessAppendPathSegmentLineMessageEPKh, LINKORDER=||i._ZN4Anki5Cozmo8Messages35ProcessAppendPathSegmentLineMessageEPKh||, DATA, READONLY, SECTYPE={SHT_ARM_EXIDX}, ALIGN=2

                          EXPORTAS ||area_number.564||, ||.ARM.exidx||
                          DCD      0x00000000
                          RELOC 42, ||i._ZN4Anki5Cozmo8Messages35ProcessAppendPathSegmentLineMessageEPKh||
                          DCD      0x00000001

                          AREA ||i._ZN4Anki5Cozmo8Messages34ProcessAppendPathSegmentArcMessageEPKh||, COMGROUP=_ZN4Anki5Cozmo8Messages34ProcessAppendPathSegmentArcMessageEPKh, CODE, READONLY, ALIGN=1

                  _ZN4Anki5Cozmo8Messages34ProcessAppendPathSegmentArcMessageEPKh PROC ; Anki::Cozmo::Messages::ProcessAppendPathSegmentArcMessage(const unsigned char*)
;;;113    // AppendPathSegmentArc
;;;114    START_MESSAGE_DEFINITION(AppendPathSegmentArc, 1)
000000  ec900a08          VLDM     r0,{s0-s7}
000004  2000              MOVS     r0,#0
000006  f7ffbffe          B.W      _ZN4Anki5Cozmo12PathFollower21AppendPathSegment_ArcEjffffffff ; Anki::Cozmo::PathFollower::AppendPathSegment_Arc(unsigned, float, float, float, float, float, float, float, float)
;;;115    ADD_MESSAGE_MEMBER(f32, x_center_mm)
                          ENDP


                          AREA ||area_number.571||, COMGROUP=_ZN4Anki5Cozmo8Messages34ProcessAppendPathSegmentArcMessageEPKh, LINKORDER=||i._ZN4Anki5Cozmo8Messages34ProcessAppendPathSegmentArcMessageEPKh||, DATA, READONLY, SECTYPE={SHT_ARM_EXIDX}, ALIGN=2

                          EXPORTAS ||area_number.571||, ||.ARM.exidx||
                          DCD      0x00000000
                          RELOC 42, ||i._ZN4Anki5Cozmo8Messages34ProcessAppendPathSegmentArcMessageEPKh||
                          DCD      0x00000001

                          AREA ||i._ZN4Anki5Cozmo8Messages40ProcessAppendPathSegmentPointTurnMessageEPKh||, COMGROUP=_ZN4Anki5Cozmo8Messages40ProcessAppendPathSegmentPointTurnMessageEPKh, CODE, READONLY, ALIGN=1

                  _ZN4Anki5Cozmo8Messages40ProcessAppendPathSegmentPointTurnMessageEPKh PROC ; Anki::Cozmo::Messages::ProcessAppendPathSegmentPointTurnMessage(const unsigned char*)
;;;123    // AppendPathSegmentPointTurn
;;;124    START_MESSAGE_DEFINITION(AppendPathSegmentPointTurn, 1)
000000  ec900a06          VLDM     r0,{s0-s5}
000004  2000              MOVS     r0,#0
000006  f7ffbffe          B.W      _ZN4Anki5Cozmo12PathFollower27AppendPathSegment_PointTurnEjffffff ; Anki::Cozmo::PathFollower::AppendPathSegment_PointTurn(unsigned, float, float, float, float, float, float)
;;;125    ADD_MESSAGE_MEMBER(f32, x_center_mm)
                          ENDP


                          AREA ||area_number.578||, COMGROUP=_ZN4Anki5Cozmo8Messages40ProcessAppendPathSegmentPointTurnMessageEPKh, LINKORDER=||i._ZN4Anki5Cozmo8Messages40ProcessAppendPathSegmentPointTurnMessageEPKh||, DATA, READONLY, SECTYPE={SHT_ARM_EXIDX}, ALIGN=2

                          EXPORTAS ||area_number.578||, ||.ARM.exidx||
                          DCD      0x00000000
                          RELOC 42, ||i._ZN4Anki5Cozmo8Messages40ProcessAppendPathSegmentPointTurnMessageEPKh||
                          DCD      0x00000001

                          AREA ||i._ZN4Anki5Cozmo8Messages22ProcessTrimPathMessageEPKh||, COMGROUP=_ZN4Anki5Cozmo8Messages22ProcessTrimPathMessageEPKh, CODE, READONLY, ALIGN=1

                  _ZN4Anki5Cozmo8Messages22ProcessTrimPathMessageEPKh PROC ; Anki::Cozmo::Messages::ProcessTrimPathMessage(const unsigned char*)
;;;131    // TrimPath
;;;132    START_MESSAGE_DEFINITION(TrimPath, 1)
000000  7841              LDRB     r1,[r0,#1]
000002  7800              LDRB     r0,[r0,#0]
000004  f7ffbffe          B.W      _ZN4Anki5Cozmo12PathFollower8TrimPathEhh ; Anki::Cozmo::PathFollower::TrimPath(unsigned char, unsigned char)
;;;133    ADD_MESSAGE_MEMBER(u8, numPopFrontSegments)
                          ENDP


                          AREA ||area_number.585||, COMGROUP=_ZN4Anki5Cozmo8Messages22ProcessTrimPathMessageEPKh, LINKORDER=||i._ZN4Anki5Cozmo8Messages22ProcessTrimPathMessageEPKh||, DATA, READONLY, SECTYPE={SHT_ARM_EXIDX}, ALIGN=2

                          EXPORTAS ||area_number.585||, ||.ARM.exidx||
                          DCD      0x00000000
                          RELOC 42, ||i._ZN4Anki5Cozmo8Messages22ProcessTrimPathMessageEPKh||
                          DCD      0x00000001

                          AREA ||i._ZN4Anki5Cozmo8Messages25ProcessExecutePathMessageEPKh||, COMGROUP=_ZN4Anki5Cozmo8Messages25ProcessExecutePathMessageEPKh, CODE, READONLY, ALIGN=1

                  _ZN4Anki5Cozmo8Messages25ProcessExecutePathMessageEPKh PROC ; Anki::Cozmo::Messages::ProcessExecutePathMessage(const unsigned char*)
;;;137    // ExecutePath
;;;138    START_MESSAGE_DEFINITION(ExecutePath, 1)
000000  7881              LDRB     r1,[r0,#2]
000002  2900              CMP      r1,#0
000004  bf18              IT       NE
000006  2101              MOVNE    r1,#1
000008  8800              LDRH     r0,[r0,#0]
00000a  f7ffbffe          B.W      _ZN4Anki5Cozmo12PathFollower18StartPathTraversalEtb ; Anki::Cozmo::PathFollower::StartPathTraversal(unsigned short, bool)
;;;139    ADD_MESSAGE_MEMBER(u16, pathID)   // u16 or u8?
                          ENDP


                          AREA ||area_number.592||, COMGROUP=_ZN4Anki5Cozmo8Messages25ProcessExecutePathMessageEPKh, LINKORDER=||i._ZN4Anki5Cozmo8Messages25ProcessExecutePathMessageEPKh||, DATA, READONLY, SECTYPE={SHT_ARM_EXIDX}, ALIGN=2

                          EXPORTAS ||area_number.592||, ||.ARM.exidx||
                          DCD      0x00000000
                          RELOC 42, ||i._ZN4Anki5Cozmo8Messages25ProcessExecutePathMessageEPKh||
                          DCD      0x00000001

                          AREA ||i._ZN4Anki5Cozmo8Messages28ProcessDockWithObjectMessageEPKh||, COMGROUP=_ZN4Anki5Cozmo8Messages28ProcessDockWithObjectMessageEPKh, CODE, READONLY, ALIGN=1

                  _ZN4Anki5Cozmo8Messages28ProcessDockWithObjectMessageEPKh PROC ; Anki::Cozmo::Messages::ProcessDockWithObjectMessage(const unsigned char*)
;;;143    // DockWithObject
;;;144    START_MESSAGE_DEFINITION(DockWithObject, 1)
000000  f7ffbffe          B.W      _ZN4Anki5Cozmo8Messages28ProcessDockWithObjectMessageERKNS1_14DockWithObjectE ; Anki::Cozmo::Messages::ProcessDockWithObjectMessage(const Anki::Cozmo::Messages::DockWithObject&)
;;;145    ADD_MESSAGE_MEMBER(f32, horizontalOffset_mm)  // Offset wrt to docking object. Don't know if this will work yet.
                          ENDP


                          AREA ||area_number.599||, COMGROUP=_ZN4Anki5Cozmo8Messages28ProcessDockWithObjectMessageEPKh, LINKORDER=||i._ZN4Anki5Cozmo8Messages28ProcessDockWithObjectMessageEPKh||, DATA, READONLY, SECTYPE={SHT_ARM_EXIDX}, ALIGN=2

                          EXPORTAS ||area_number.599||, ||.ARM.exidx||
                          DCD      0x00000000
                          RELOC 42, ||i._ZN4Anki5Cozmo8Messages28ProcessDockWithObjectMessageEPKh||
                          DCD      0x00000001

                          AREA ||i._ZN4Anki5Cozmo8Messages26ProcessAbortDockingMessageEPKh||, COMGROUP=_ZN4Anki5Cozmo8Messages26ProcessAbortDockingMessageEPKh, CODE, READONLY, ALIGN=1

                  _ZN4Anki5Cozmo8Messages26ProcessAbortDockingMessageEPKh PROC ; Anki::Cozmo::Messages::ProcessAbortDockingMessage(const unsigned char*)
;;;157    // AbortDocking
;;;158    START_MESSAGE_DEFINITION(AbortDocking, 1)
000000  f7ffbffe          B.W      _ZN4Anki5Cozmo17DockingController11ResetDockerEv ; Anki::Cozmo::DockingController::ResetDocker()
;;;159    END_MESSAGE_DEFINITION(AbortDocking)
                          ENDP


                          AREA ||area_number.606||, COMGROUP=_ZN4Anki5Cozmo8Messages26ProcessAbortDockingMessageEPKh, LINKORDER=||i._ZN4Anki5Cozmo8Messages26ProcessAbortDockingMessageEPKh||, DATA, READONLY, SECTYPE={SHT_ARM_EXIDX}, ALIGN=2

                          EXPORTAS ||area_number.606||, ||.ARM.exidx||
                          DCD      0x00000000
                          RELOC 42, ||i._ZN4Anki5Cozmo8Messages26ProcessAbortDockingMessageEPKh||
                          DCD      0x00000001

                          AREA ||i._ZN4Anki5Cozmo8Messages33ProcessPlaceObjectOnGroundMessageEPKh||, COMGROUP=_ZN4Anki5Cozmo8Messages33ProcessPlaceObjectOnGroundMessageEPKh, CODE, READONLY, ALIGN=1

                  _ZN4Anki5Cozmo8Messages33ProcessPlaceObjectOnGroundMessageEPKh PROC ; Anki::Cozmo::Messages::ProcessPlaceObjectOnGroundMessage(const unsigned char*)
;;;161    // PlaceObjectOnGround
;;;162    START_MESSAGE_DEFINITION(PlaceObjectOnGround, 1)
000000  7b01              LDRB     r1,[r0,#0xc]
000002  2900              CMP      r1,#0
000004  bf18              IT       NE
000006  2101              MOVNE    r1,#1
000008  ed901a02          VLDR     s2,[r0,#8]
00000c  edd00a01          VLDR     s1,[r0,#4]
000010  ed900a00          VLDR     s0,[r0,#0]
000014  4608              MOV      r0,r1
000016  f7ffbffe          B.W      _ZN4Anki5Cozmo22PickAndPlaceController13PlaceOnGroundEfffb ; Anki::Cozmo::PickAndPlaceController::PlaceOnGround(float, float, float, bool)
;;;163    ADD_MESSAGE_MEMBER(f32, rel_x_mm)    // Distance of object face center in forward axis
                          ENDP


                          AREA ||area_number.613||, COMGROUP=_ZN4Anki5Cozmo8Messages33ProcessPlaceObjectOnGroundMessageEPKh, LINKORDER=||i._ZN4Anki5Cozmo8Messages33ProcessPlaceObjectOnGroundMessageEPKh||, DATA, READONLY, SECTYPE={SHT_ARM_EXIDX}, ALIGN=2

                          EXPORTAS ||area_number.613||, ||.ARM.exidx||
                          DCD      0x00000000
                          RELOC 42, ||i._ZN4Anki5Cozmo8Messages33ProcessPlaceObjectOnGroundMessageEPKh||
                          DCD      0x00000001

                          AREA ||i._ZN4Anki5Cozmo8Messages35ProcessAbsLocalizationUpdateMessageEPKh||, COMGROUP=_ZN4Anki5Cozmo8Messages35ProcessAbsLocalizationUpdateMessageEPKh, CODE, READONLY, ALIGN=1

                  _ZN4Anki5Cozmo8Messages35ProcessAbsLocalizationUpdateMessageEPKh PROC ; Anki::Cozmo::Messages::ProcessAbsLocalizationUpdateMessage(const unsigned char*)
;;;170    // AbsLocalizationUpdate
;;;171    START_TIMESTAMPED_MESSAGE_DEFINITION(AbsLocalizationUpdate, 1)
000000  f7ffbffe          B.W      _ZN4Anki5Cozmo8Messages35ProcessAbsLocalizationUpdateMessageERKNS1_21AbsLocalizationUpdateE ; Anki::Cozmo::Messages::ProcessAbsLocalizationUpdateMessage(const Anki::Cozmo::Messages::AbsLocalizationUpdate&)
;;;172    ADD_MESSAGE_MEMBER(u32, pose_frame_id)
                          ENDP


                          AREA ||area_number.620||, COMGROUP=_ZN4Anki5Cozmo8Messages35ProcessAbsLocalizationUpdateMessageEPKh, LINKORDER=||i._ZN4Anki5Cozmo8Messages35ProcessAbsLocalizationUpdateMessageEPKh||, DATA, READONLY, SECTYPE={SHT_ARM_EXIDX}, ALIGN=2

                          EXPORTAS ||area_number.620||, ||.ARM.exidx||
                          DCD      0x00000000
                          RELOC 42, ||i._ZN4Anki5Cozmo8Messages35ProcessAbsLocalizationUpdateMessageEPKh||
                          DCD      0x00000001

                          AREA ||i._ZN4Anki5Cozmo8Messages22ProcessSyncTimeMessageEPKh||, COMGROUP=_ZN4Anki5Cozmo8Messages22ProcessSyncTimeMessageEPKh, CODE, READONLY, ALIGN=1

                  _ZN4Anki5Cozmo8Messages22ProcessSyncTimeMessageEPKh PROC ; Anki::Cozmo::Messages::ProcessSyncTimeMessage(const unsigned char*)
;;;178    // SyncTime
;;;179    START_MESSAGE_DEFINITION(SyncTime, 1)
000000  f7ffbffe          B.W      _ZN4Anki5Cozmo8Messages22ProcessSyncTimeMessageERKNS1_8SyncTimeE ; Anki::Cozmo::Messages::ProcessSyncTimeMessage(const Anki::Cozmo::Messages::SyncTime&)
;;;180    ADD_MESSAGE_MEMBER(u32, robotID)
                          ENDP


                          AREA ||area_number.627||, COMGROUP=_ZN4Anki5Cozmo8Messages22ProcessSyncTimeMessageEPKh, LINKORDER=||i._ZN4Anki5Cozmo8Messages22ProcessSyncTimeMessageEPKh||, DATA, READONLY, SECTYPE={SHT_ARM_EXIDX}, ALIGN=2

                          EXPORTAS ||area_number.627||, ||.ARM.exidx||
                          DCD      0x00000000
                          RELOC 42, ||i._ZN4Anki5Cozmo8Messages22ProcessSyncTimeMessageEPKh||
                          DCD      0x00000001

                          AREA ||i._ZN4Anki5Cozmo8Messages29ProcessHeadAngleUpdateMessageEPKh||, COMGROUP=_ZN4Anki5Cozmo8Messages29ProcessHeadAngleUpdateMessageEPKh, CODE, READONLY, ALIGN=1

                  _ZN4Anki5Cozmo8Messages29ProcessHeadAngleUpdateMessageEPKh PROC ; Anki::Cozmo::Messages::ProcessHeadAngleUpdateMessage(const unsigned char*)
;;;196    // HeadAngleUpdate
;;;197    START_MESSAGE_DEFINITION(HeadAngleUpdate, 1)
000000  ed900a00          VLDR     s0,[r0,#0]
000004  f7ffbffe          B.W      _ZN4Anki5Cozmo14HeadController11SetAngleRadEf ; Anki::Cozmo::HeadController::SetAngleRad(float)
;;;198    ADD_MESSAGE_MEMBER(f32, newAngle)
                          ENDP


                          AREA ||area_number.634||, COMGROUP=_ZN4Anki5Cozmo8Messages29ProcessHeadAngleUpdateMessageEPKh, LINKORDER=||i._ZN4Anki5Cozmo8Messages29ProcessHeadAngleUpdateMessageEPKh||, DATA, READONLY, SECTYPE={SHT_ARM_EXIDX}, ALIGN=2

                          EXPORTAS ||area_number.634||, ||.ARM.exidx||
                          DCD      0x00000000
                          RELOC 42, ||i._ZN4Anki5Cozmo8Messages29ProcessHeadAngleUpdateMessageEPKh||
                          DCD      0x00000001

                          AREA ||i._ZN4Anki5Cozmo8Messages26ProcessImageRequestMessageEPKh||, COMGROUP=_ZN4Anki5Cozmo8Messages26ProcessImageRequestMessageEPKh, CODE, READONLY, ALIGN=2

                  _ZN4Anki5Cozmo8Messages26ProcessImageRequestMessageEPKh PROC ; Anki::Cozmo::Messages::ProcessImageRequestMessage(const unsigned char*)
;;;201    // ImageRequest
;;;202    START_MESSAGE_DEFINITION(ImageRequest, 1)
000000  b510              PUSH     {r4,lr}
000002  4604              MOV      r4,r0
000004  7842              LDRB     r2,[r0,#1]
000006  7801              LDRB     r1,[r0,#0]
000008  4804              LDR      r0,|L640.28|
00000a  f7fffffe          BL       _ZN4Anki5Cozmo8Messages8SendTextEPKcz ; Anki::Cozmo::Messages::SendText(const char*, ...)
00000e  7861              LDRB     r1,[r4,#1]
000010  7820              LDRB     r0,[r4,#0]
000012  e8bd4010          POP      {r4,lr}
000016  f7ffbffe          B.W      _ZN4Anki5Cozmo12VisionSystem16SetImageSendModeENS0_15ImageSendMode_tENS_6Vision16CameraResolutionE ; Anki::Cozmo::VisionSystem::SetImageSendMode(Anki::Cozmo::ImageSendMode_t, Anki::Vision::CameraResolution)
;;;203    ADD_MESSAGE_MEMBER(u8, imageSendMode)
                          ENDP

00001a  0000              DCW      0x0000
                  |L640.28|
                          DCD      ||i._ZN4Anki5Cozmo8Messages26ProcessImageRequestMessageERKNS1_12ImageRequestE||+0x1c

                          AREA ||area_number.641||, COMGROUP=_ZN4Anki5Cozmo8Messages26ProcessImageRequestMessageEPKh, LINKORDER=||i._ZN4Anki5Cozmo8Messages26ProcessImageRequestMessageEPKh||, DATA, READONLY, SECTYPE={SHT_ARM_EXIDX}, ALIGN=2

                          EXPORTAS ||area_number.641||, ||.ARM.exidx||
                          DCD      0x00000000
                          RELOC 42, ||i._ZN4Anki5Cozmo8Messages26ProcessImageRequestMessageEPKh||
                          DCD      0x00000001

                          AREA ||i._ZN4Anki5Cozmo8Messages27ProcessStartTestModeMessageEPKh||, COMGROUP=_ZN4Anki5Cozmo8Messages27ProcessStartTestModeMessageEPKh, CODE, READONLY, ALIGN=2

                  _ZN4Anki5Cozmo8Messages27ProcessStartTestModeMessageEPKh PROC ; Anki::Cozmo::Messages::ProcessStartTestModeMessage(const unsigned char*)
;;;207    // StartTestMode
;;;208    START_MESSAGE_DEFINITION(StartTestMode, 1)
000000  f890c00c          LDRB     r12,[r0,#0xc]
000004  f1bc0f0f          CMP      r12,#0xf
000008  d205              BCS      |L647.22|
00000a  e9d01200          LDRD     r1,r2,[r0,#0]
00000e  6883              LDR      r3,[r0,#8]
000010  4660              MOV      r0,r12
000012  f7ffbffe          B.W      _ZN4Anki5Cozmo18TestModeController5StartENS0_8TestModeEiii ; Anki::Cozmo::TestModeController::Start(Anki::Cozmo::TestMode, int, int, int)
                  |L647.22|
000016  4661              MOV      r1,r12
000018  4801              LDR      r0,|L647.32|
00001a  f7ffbffe          B.W      _ZN4Anki5Cozmo8Messages8SendTextEPKcz ; Anki::Cozmo::Messages::SendText(const char*, ...)
;;;209    ADD_MESSAGE_MEMBER(s32, p1)
                          ENDP

00001e  0000              DCW      0x0000
                  |L647.32|
                          DCD      ||i._ZN4Anki5Cozmo8Messages27ProcessStartTestModeMessageERKNS1_13StartTestModeE||+0x20

                          AREA ||area_number.648||, COMGROUP=_ZN4Anki5Cozmo8Messages27ProcessStartTestModeMessageEPKh, LINKORDER=||i._ZN4Anki5Cozmo8Messages27ProcessStartTestModeMessageEPKh||, DATA, READONLY, SECTYPE={SHT_ARM_EXIDX}, ALIGN=2

                          EXPORTAS ||area_number.648||, ||.ARM.exidx||
                          DCD      0x00000000
                          RELOC 42, ||i._ZN4Anki5Cozmo8Messages27ProcessStartTestModeMessageEPKh||
                          DCD      0x00000001

                          AREA ||i._ZN4Anki5Cozmo8Messages26ProcessSetHeadlightMessageEPKh||, COMGROUP=_ZN4Anki5Cozmo8Messages26ProcessSetHeadlightMessageEPKh, CODE, READONLY, ALIGN=1

                  _ZN4Anki5Cozmo8Messages26ProcessSetHeadlightMessageEPKh PROC ; Anki::Cozmo::Messages::ProcessSetHeadlightMessage(const unsigned char*)
;;;215    // SetHeadlight
;;;216    START_MESSAGE_DEFINITION(SetHeadlight, 1)
000000  7800              LDRB     r0,[r0,#0]
000002  2800              CMP      r0,#0
000004  bf18              IT       NE
000006  2001              MOVNE    r0,#1
000008  f7ffbffe          B.W      _ZN4Anki5Cozmo3HAL13SetHeadlightsEb ; Anki::Cozmo::HAL::SetHeadlights(bool)
;;;217    ADD_MESSAGE_MEMBER(u8, intensity)
                          ENDP


                          AREA ||area_number.655||, COMGROUP=_ZN4Anki5Cozmo8Messages26ProcessSetHeadlightMessageEPKh, LINKORDER=||i._ZN4Anki5Cozmo8Messages26ProcessSetHeadlightMessageEPKh||, DATA, READONLY, SECTYPE={SHT_ARM_EXIDX}, ALIGN=2

                          EXPORTAS ||area_number.655||, ||.ARM.exidx||
                          DCD      0x00000000
                          RELOC 42, ||i._ZN4Anki5Cozmo8Messages26ProcessSetHeadlightMessageEPKh||
                          DCD      0x00000001

                          AREA ||i._ZN4Anki5Cozmo8Messages30ProcessSetDefaultLightsMessageEPKh||, COMGROUP=_ZN4Anki5Cozmo8Messages30ProcessSetDefaultLightsMessageEPKh, CODE, READONLY, ALIGN=1

                  _ZN4Anki5Cozmo8Messages30ProcessSetDefaultLightsMessageEPKh PROC ; Anki::Cozmo::Messages::ProcessSetDefaultLightsMessage(const unsigned char*)
;;;220    // SetDefaultLights
;;;221    START_MESSAGE_DEFINITION(SetDefaultLights, 1)
000000  b570              PUSH     {r4-r6,lr}
000002  6805              LDR      r5,[r0,#0]
000004  4604              MOV      r4,r0
000006  4629              MOV      r1,r5
000008  2004              MOVS     r0,#4
00000a  f7fffffe          BL       _ZN4Anki5Cozmo3HAL6SetLEDENS0_5LEDIdEj ; Anki::Cozmo::HAL::SetLED(Anki::Cozmo::LEDId, unsigned)
00000e  4629              MOV      r1,r5
000010  2005              MOVS     r0,#5
000012  f7fffffe          BL       _ZN4Anki5Cozmo3HAL6SetLEDENS0_5LEDIdEj ; Anki::Cozmo::HAL::SetLED(Anki::Cozmo::LEDId, unsigned)
000016  4629              MOV      r1,r5
000018  2006              MOVS     r0,#6
00001a  f7fffffe          BL       _ZN4Anki5Cozmo3HAL6SetLEDENS0_5LEDIdEj ; Anki::Cozmo::HAL::SetLED(Anki::Cozmo::LEDId, unsigned)
00001e  4629              MOV      r1,r5
000020  2007              MOVS     r0,#7
000022  f7fffffe          BL       _ZN4Anki5Cozmo3HAL6SetLEDENS0_5LEDIdEj ; Anki::Cozmo::HAL::SetLED(Anki::Cozmo::LEDId, unsigned)
000026  6864              LDR      r4,[r4,#4]
000028  2000              MOVS     r0,#0
00002a  4621              MOV      r1,r4
00002c  f7fffffe          BL       _ZN4Anki5Cozmo3HAL6SetLEDENS0_5LEDIdEj ; Anki::Cozmo::HAL::SetLED(Anki::Cozmo::LEDId, unsigned)
000030  4621              MOV      r1,r4
000032  2001              MOVS     r0,#1
000034  f7fffffe          BL       _ZN4Anki5Cozmo3HAL6SetLEDENS0_5LEDIdEj ; Anki::Cozmo::HAL::SetLED(Anki::Cozmo::LEDId, unsigned)
000038  4621              MOV      r1,r4
00003a  2002              MOVS     r0,#2
00003c  f7fffffe          BL       _ZN4Anki5Cozmo3HAL6SetLEDENS0_5LEDIdEj ; Anki::Cozmo::HAL::SetLED(Anki::Cozmo::LEDId, unsigned)
000040  4621              MOV      r1,r4
000042  e8bd4070          POP      {r4-r6,lr}
000046  2003              MOVS     r0,#3
000048  f7ffbffe          B.W      _ZN4Anki5Cozmo3HAL6SetLEDENS0_5LEDIdEj ; Anki::Cozmo::HAL::SetLED(Anki::Cozmo::LEDId, unsigned)
;;;222    ADD_MESSAGE_MEMBER(u32, eye_left_color)
                          ENDP


                          AREA ||area_number.662||, COMGROUP=_ZN4Anki5Cozmo8Messages30ProcessSetDefaultLightsMessageEPKh, LINKORDER=||i._ZN4Anki5Cozmo8Messages30ProcessSetDefaultLightsMessageEPKh||, DATA, READONLY, SECTYPE={SHT_ARM_EXIDX}, ALIGN=2

                          EXPORTAS ||area_number.662||, ||.ARM.exidx||
                          DCD      0x00000000
                          RELOC 42, ||i._ZN4Anki5Cozmo8Messages30ProcessSetDefaultLightsMessageEPKh||
                          DCD      0x00000001

                          AREA ||i._ZN4Anki5Cozmo8Messages36ProcessSetHeadControllerGainsMessageEPKh||, COMGROUP=_ZN4Anki5Cozmo8Messages36ProcessSetHeadControllerGainsMessageEPKh, CODE, READONLY, ALIGN=1

                  _ZN4Anki5Cozmo8Messages36ProcessSetHeadControllerGainsMessageEPKh PROC ; Anki::Cozmo::Messages::ProcessSetHeadControllerGainsMessage(const unsigned char*)
;;;226    // SetHeadControllerGains
;;;227    START_MESSAGE_DEFINITION(SetHeadControllerGains, 1)
000000  ed901a02          VLDR     s2,[r0,#8]
000004  edd00a01          VLDR     s1,[r0,#4]
000008  ed900a00          VLDR     s0,[r0,#0]
00000c  f7ffbffe          B.W      _ZN4Anki5Cozmo14HeadController8SetGainsEfff ; Anki::Cozmo::HeadController::SetGains(float, float, float)
;;;228    ADD_MESSAGE_MEMBER(f32, kp)
                          ENDP


                          AREA ||area_number.669||, COMGROUP=_ZN4Anki5Cozmo8Messages36ProcessSetHeadControllerGainsMessageEPKh, LINKORDER=||i._ZN4Anki5Cozmo8Messages36ProcessSetHeadControllerGainsMessageEPKh||, DATA, READONLY, SECTYPE={SHT_ARM_EXIDX}, ALIGN=2

                          EXPORTAS ||area_number.669||, ||.ARM.exidx||
                          DCD      0x00000000
                          RELOC 42, ||i._ZN4Anki5Cozmo8Messages36ProcessSetHeadControllerGainsMessageEPKh||
                          DCD      0x00000001

                          AREA ||i._ZN4Anki5Cozmo8Messages36ProcessSetLiftControllerGainsMessageEPKh||, COMGROUP=_ZN4Anki5Cozmo8Messages36ProcessSetLiftControllerGainsMessageEPKh, CODE, READONLY, ALIGN=1

                  _ZN4Anki5Cozmo8Messages36ProcessSetLiftControllerGainsMessageEPKh PROC ; Anki::Cozmo::Messages::ProcessSetLiftControllerGainsMessage(const unsigned char*)
;;;233    // SetLiftControllerGains
;;;234    START_MESSAGE_DEFINITION(SetLiftControllerGains, 1)
000000  ed901a02          VLDR     s2,[r0,#8]
000004  edd00a01          VLDR     s1,[r0,#4]
000008  ed900a00          VLDR     s0,[r0,#0]
00000c  f7ffbffe          B.W      _ZN4Anki5Cozmo14LiftController8SetGainsEfff ; Anki::Cozmo::LiftController::SetGains(float, float, float)
;;;235    ADD_MESSAGE_MEMBER(f32, kp)
                          ENDP


                          AREA ||area_number.676||, COMGROUP=_ZN4Anki5Cozmo8Messages36ProcessSetLiftControllerGainsMessageEPKh, LINKORDER=||i._ZN4Anki5Cozmo8Messages36ProcessSetLiftControllerGainsMessageEPKh||, DATA, READONLY, SECTYPE={SHT_ARM_EXIDX}, ALIGN=2

                          EXPORTAS ||area_number.676||, ||.ARM.exidx||
                          DCD      0x00000000
                          RELOC 42, ||i._ZN4Anki5Cozmo8Messages36ProcessSetLiftControllerGainsMessageEPKh||
                          DCD      0x00000001

                          AREA ||i._ZN4Anki5Cozmo8Messages32ProcessDockingErrorSignalMessageEPKh||, COMGROUP=_ZN4Anki5Cozmo8Messages32ProcessDockingErrorSignalMessageEPKh, CODE, READONLY, ALIGN=2

                  _ZN4Anki5Cozmo8Messages32ProcessDockingErrorSignalMessageEPKh PROC ; Anki::Cozmo::Messages::ProcessDockingErrorSignalMessage(const unsigned char*)
;;;240    // DockingErrorSignal
;;;241    START_TIMESTAMPED_MESSAGE_DEFINITION(DockingErrorSignal, 1)
000000  b470              PUSH     {r4-r6}
000002  e9d02300          LDRD     r2,r3,[r0,#0]
000006  e9d04503          LDRD     r4,r5,[r0,#0xc]
00000a  490a              LDR      r1,|L682.52|
00000c  f8d0c008          LDR      r12,[r0,#8]
000010  6940              LDR      r0,[r0,#0x14]
000012  7e4e              LDRB     r6,[r1,#0x19]
000014  2e00              CMP      r6,#0
000016  bf1c              ITT      NE
000018  bc70              POPNE    {r4-r6}
00001a  4770              BXNE     lr
00001c  e9c15004          STRD     r5,r0,[r1,#0x10]
000020  e9c12300          STRD     r2,r3,[r1,#0]
000024  e9c1c402          STRD     r12,r4,[r1,#8]
000028  2000              MOVS     r0,#0
00002a  7608              STRB     r0,[r1,#0x18]
00002c  7648              STRB     r0,[r1,#0x19]
00002e  bc70              POP      {r4-r6}
000030  4770              BX       lr
;;;242    ADD_MESSAGE_MEMBER(f32, x_distErr)
                          ENDP

000032  0000              DCW      0x0000
                  |L682.52|
                          DCD      ||.bss||+0x100

                          AREA ||area_number.683||, COMGROUP=_ZN4Anki5Cozmo8Messages32ProcessDockingErrorSignalMessageEPKh, LINKORDER=||i._ZN4Anki5Cozmo8Messages32ProcessDockingErrorSignalMessageEPKh||, DATA, READONLY, SECTYPE={SHT_ARM_EXIDX}, ALIGN=2

                          EXPORTAS ||area_number.683||, ||.ARM.exidx||
                          DCD      0x00000000
                          RELOC 42, ||i._ZN4Anki5Cozmo8Messages32ProcessDockingErrorSignalMessageEPKh||
                          DCD      0x00000001

                          AREA ||i._ZN4Anki5Cozmo8Messages35ProcessSetVisionSystemParamsMessageEPKh||, COMGROUP=_ZN4Anki5Cozmo8Messages35ProcessSetVisionSystemParamsMessageEPKh, CODE, READONLY, ALIGN=1

                  _ZN4Anki5Cozmo8Messages35ProcessSetVisionSystemParamsMessageEPKh PROC ; Anki::Cozmo::Messages::ProcessSetVisionSystemParamsMessage(const unsigned char*)
;;;250    // SetVisionSystemParams
;;;251    START_MESSAGE_DEFINITION(SetVisionSystemParams, 1)
000000  6981              LDR      r1,[r0,#0x18]
000002  2900              CMP      r1,#0
000004  bf14              ITE      NE
000006  2301              MOVNE    r3,#1
000008  2300              MOVEQ    r3,#0
00000a  edd01a05          VLDR     s3,[r0,#0x14]
00000e  7f02              LDRB     r2,[r0,#0x1c]
000010  ed901a04          VLDR     s2,[r0,#0x10]
000014  edd00a03          VLDR     s1,[r0,#0xc]
000018  6881              LDR      r1,[r0,#8]
00001a  ed900a01          VLDR     s0,[r0,#4]
00001e  6800              LDR      r0,[r0,#0]
000020  2800              CMP      r0,#0
000022  bf18              IT       NE
000024  2001              MOVNE    r0,#1
000026  f7ffbffe          B.W      _ZN4Anki5Cozmo12VisionSystem9SetParamsEbfiffhfb ; Anki::Cozmo::VisionSystem::SetParams(bool, float, int, float, float, unsigned char, float, bool)
;;;252    ADD_MESSAGE_MEMBER(s32, autoexposureOn)
                          ENDP


                          AREA ||area_number.690||, COMGROUP=_ZN4Anki5Cozmo8Messages35ProcessSetVisionSystemParamsMessageEPKh, LINKORDER=||i._ZN4Anki5Cozmo8Messages35ProcessSetVisionSystemParamsMessageEPKh||, DATA, READONLY, SECTYPE={SHT_ARM_EXIDX}, ALIGN=2

                          EXPORTAS ||area_number.690||, ||.ARM.exidx||
                          DCD      0x00000000
                          RELOC 42, ||i._ZN4Anki5Cozmo8Messages35ProcessSetVisionSystemParamsMessageEPKh||
                          DCD      0x00000001

                          AREA ||i._ZN4Anki5Cozmo8Messages27ProcessFaceDetectionMessageEPKh||, COMGROUP=_ZN4Anki5Cozmo8Messages27ProcessFaceDetectionMessageEPKh, CODE, READONLY, ALIGN=2

                  _ZN4Anki5Cozmo8Messages27ProcessFaceDetectionMessageEPKh PROC ; Anki::Cozmo::Messages::ProcessFaceDetectionMessage(const unsigned char*)
;;;262    // FaceDetection
;;;263    START_MESSAGE_DEFINITION(FaceDetection, 1)
000000  b083              SUB      sp,sp,#0xc
000002  6802              LDR      r2,[r0,#0]
000004  9200              STR      r2,[sp,#0]
000006  6842              LDR      r2,[r0,#4]
000008  4911              LDR      r1,|L696.80|
00000a  9201              STR      r2,[sp,#4]
00000c  8900              LDRH     r0,[r0,#8]
00000e  f8ad0008          STRH     r0,[sp,#8]
000012  f89100c1          LDRB     r0,[r1,#0xc1]
000016  eb000040          ADD      r0,r0,r0,LSL #1
00001a  eb010080          ADD      r0,r1,r0,LSL #2
00001e  7ac2              LDRB     r2,[r0,#0xb]
000020  2a00              CMP      r2,#0
000022  bf1c              ITT      NE
000024  b003              ADDNE    sp,sp,#0xc
000026  4770              BXNE     lr
000028  9a00              LDR      r2,[sp,#0]
00002a  6002              STR      r2,[r0,#0]
00002c  9a01              LDR      r2,[sp,#4]
00002e  6042              STR      r2,[r0,#4]
000030  f8bd2008          LDRH     r2,[sp,#8]
000034  8102              STRH     r2,[r0,#8]
000036  2200              MOVS     r2,#0
000038  7282              STRB     r2,[r0,#0xa]
00003a  72c2              STRB     r2,[r0,#0xb]
00003c  f8110fc1          LDRB     r0,[r1,#0xc1]!
000040  1c40              ADDS     r0,r0,#1
000042  b2c0              UXTB     r0,r0
000044  7008              STRB     r0,[r1,#0]
000046  2810              CMP      r0,#0x10
000048  bf08              IT       EQ
00004a  700a              STRBEQ   r2,[r1,#0]
00004c  b003              ADD      sp,sp,#0xc
00004e  4770              BX       lr
;;;264    ADD_MESSAGE_MEMBER(u16, x_upperLeft)
                          ENDP

                  |L696.80|
                          DCD      ||.bss||+0x11c

                          AREA ||area_number.697||, COMGROUP=_ZN4Anki5Cozmo8Messages27ProcessFaceDetectionMessageEPKh, LINKORDER=||i._ZN4Anki5Cozmo8Messages27ProcessFaceDetectionMessageEPKh||, DATA, READONLY, SECTYPE={SHT_ARM_EXIDX}, ALIGN=2

                          EXPORTAS ||area_number.697||, ||.ARM.exidx||
                          DCD      0x00000000
                          RELOC 42, ||i._ZN4Anki5Cozmo8Messages27ProcessFaceDetectionMessageEPKh||
                          DCD      0x00000001

                          AREA ||i._ZN4Anki5Cozmo8Messages33ProcessSetFaceDetectParamsMessageEPKh||, COMGROUP=_ZN4Anki5Cozmo8Messages33ProcessSetFaceDetectParamsMessageEPKh, CODE, READONLY, ALIGN=1

                  _ZN4Anki5Cozmo8Messages33ProcessSetFaceDetectParamsMessageEPKh PROC ; Anki::Cozmo::Messages::ProcessSetFaceDetectParamsMessage(const unsigned char*)
;;;271    // SetFaceDetectParams
;;;272    START_MESSAGE_DEFINITION(SetFaceDetectParams, 1)
000000  b508              PUSH     {r3,lr}
000002  6941              LDR      r1,[r0,#0x14]
000004  9100              STR      r1,[sp,#0]
000006  e9d01202          LDRD     r1,r2,[r0,#8]
00000a  f8d0c004          LDR      r12,[r0,#4]
00000e  6903              LDR      r3,[r0,#0x10]
000010  ed900a00          VLDR     s0,[r0,#0]
000014  4660              MOV      r0,r12
000016  f7fffffe          BL       _ZN4Anki5Cozmo12VisionSystem19SetFaceDetectParamsEfiiiii ; Anki::Cozmo::VisionSystem::SetFaceDetectParams(float, int, int, int, int, int)
00001a  bd08              POP      {r3,pc}
;;;273    ADD_MESSAGE_MEMBER(f32, scaleFactor)
                          ENDP


                          AREA ||area_number.704||, COMGROUP=_ZN4Anki5Cozmo8Messages33ProcessSetFaceDetectParamsMessageEPKh, LINKORDER=||i._ZN4Anki5Cozmo8Messages33ProcessSetFaceDetectParamsMessageEPKh||, DATA, READONLY, SECTYPE={SHT_ARM_EXIDX}, ALIGN=2

                          EXPORTAS ||area_number.704||, ||.ARM.exidx||
                          DCD      0x00000000
                          RELOC 42, ||i._ZN4Anki5Cozmo8Messages33ProcessSetFaceDetectParamsMessageEPKh||
                          DCD      0x00000001

                          AREA ||i._ZN4Anki5Cozmo8Messages27ProcessPlayAnimationMessageEPKh||, COMGROUP=_ZN4Anki5Cozmo8Messages27ProcessPlayAnimationMessageEPKh, CODE, READONLY, ALIGN=1

                  _ZN4Anki5Cozmo8Messages27ProcessPlayAnimationMessageEPKh PROC ; Anki::Cozmo::Messages::ProcessPlayAnimationMessage(const unsigned char*)
;;;281    // PlayAnimation
;;;282    START_MESSAGE_DEFINITION(PlayAnimation, 1)
000000  6801              LDR      r1,[r0,#0]
000002  7900              LDRB     r0,[r0,#4]
000004  f7ffbffe          B.W      _ZN4Anki5Cozmo19AnimationController4PlayEij ; Anki::Cozmo::AnimationController::Play(int, unsigned)
;;;283    ADD_MESSAGE_MEMBER(u32, numLoops)
                          ENDP


                          AREA ||area_number.711||, COMGROUP=_ZN4Anki5Cozmo8Messages27ProcessPlayAnimationMessageEPKh, LINKORDER=||i._ZN4Anki5Cozmo8Messages27ProcessPlayAnimationMessageEPKh||, DATA, READONLY, SECTYPE={SHT_ARM_EXIDX}, ALIGN=2

                          EXPORTAS ||area_number.711||, ||.ARM.exidx||
                          DCD      0x00000000
                          RELOC 42, ||i._ZN4Anki5Cozmo8Messages27ProcessPlayAnimationMessageEPKh||
                          DCD      0x00000001

                          AREA ||i._ZN4Anki5Cozmo8Messages40ProcessTransitionToStateAnimationMessageEPKh||, COMGROUP=_ZN4Anki5Cozmo8Messages40ProcessTransitionToStateAnimationMessageEPKh, CODE, READONLY, ALIGN=1

                  _ZN4Anki5Cozmo8Messages40ProcessTransitionToStateAnimationMessageEPKh PROC ; Anki::Cozmo::Messages::ProcessTransitionToStateAnimationMessage(const unsigned char*)
;;;287    // TransitionToStateAnimation
;;;288    START_MESSAGE_DEFINITION(TransitionToStateAnimation, 1)
000000  7841              LDRB     r1,[r0,#1]
000002  7800              LDRB     r0,[r0,#0]
000004  f7ffbffe          B.W      _ZN4Anki5Cozmo19AnimationController17TransitionAndPlayEii ; Anki::Cozmo::AnimationController::TransitionAndPlay(int, int)
;;;289    ADD_MESSAGE_MEMBER(u8, transitionAnimID)
                          ENDP


                          AREA ||area_number.718||, COMGROUP=_ZN4Anki5Cozmo8Messages40ProcessTransitionToStateAnimationMessageEPKh, LINKORDER=||i._ZN4Anki5Cozmo8Messages40ProcessTransitionToStateAnimationMessageEPKh||, DATA, READONLY, SECTYPE={SHT_ARM_EXIDX}, ALIGN=2

                          EXPORTAS ||area_number.718||, ||.ARM.exidx||
                          DCD      0x00000000
                          RELOC 42, ||i._ZN4Anki5Cozmo8Messages40ProcessTransitionToStateAnimationMessageEPKh||
                          DCD      0x00000001

                          AREA ||i._ZN4Anki5Cozmo8Messages28ProcessAbortAnimationMessageEPKh||, COMGROUP=_ZN4Anki5Cozmo8Messages28ProcessAbortAnimationMessageEPKh, CODE, READONLY, ALIGN=1

                  _ZN4Anki5Cozmo8Messages28ProcessAbortAnimationMessageEPKh PROC ; Anki::Cozmo::Messages::ProcessAbortAnimationMessage(const unsigned char*)
;;;293    // AbortAnimation
;;;294    START_MESSAGE_DEFINITION(AbortAnimation, 1)
000000  f7ffbffe          B.W      _ZN4Anki5Cozmo19AnimationController4StopEv ; Anki::Cozmo::AnimationController::Stop()
;;;295    END_MESSAGE_DEFINITION(AbortAnimation)
                          ENDP


                          AREA ||area_number.725||, COMGROUP=_ZN4Anki5Cozmo8Messages28ProcessAbortAnimationMessageEPKh, LINKORDER=||i._ZN4Anki5Cozmo8Messages28ProcessAbortAnimationMessageEPKh||, DATA, READONLY, SECTYPE={SHT_ARM_EXIDX}, ALIGN=2

                          EXPORTAS ||area_number.725||, ||.ARM.exidx||
                          DCD      0x00000000
                          RELOC 42, ||i._ZN4Anki5Cozmo8Messages28ProcessAbortAnimationMessageEPKh||
                          DCD      0x00000001

                          AREA ||i._ZN4Anki5Cozmo8Messages34ProcessClearCannedAnimationMessageEPKh||, COMGROUP=_ZN4Anki5Cozmo8Messages34ProcessClearCannedAnimationMessageEPKh, CODE, READONLY, ALIGN=1

                  _ZN4Anki5Cozmo8Messages34ProcessClearCannedAnimationMessageEPKh PROC ; Anki::Cozmo::Messages::ProcessClearCannedAnimationMessage(const unsigned char*)
;;;297    // ClearCannedAnimation
;;;298    START_MESSAGE_DEFINITION(ClearCannedAnimation, 2)
000000  7800              LDRB     r0,[r0,#0]
000002  f7ffbffe          B.W      _ZN4Anki5Cozmo19AnimationController20ClearCannedAnimationEi ; Anki::Cozmo::AnimationController::ClearCannedAnimation(int)
;;;299    ADD_MESSAGE_MEMBER(u8, animationID)
                          ENDP


                          AREA ||area_number.732||, COMGROUP=_ZN4Anki5Cozmo8Messages34ProcessClearCannedAnimationMessageEPKh, LINKORDER=||i._ZN4Anki5Cozmo8Messages34ProcessClearCannedAnimationMessageEPKh||, DATA, READONLY, SECTYPE={SHT_ARM_EXIDX}, ALIGN=2

                          EXPORTAS ||area_number.732||, ||.ARM.exidx||
                          DCD      0x00000000
                          RELOC 42, ||i._ZN4Anki5Cozmo8Messages34ProcessClearCannedAnimationMessageEPKh||
                          DCD      0x00000001

                          AREA ||i._ZN4Anki5Cozmo8Messages42ProcessAddAnimKeyFrame_SetHeadAngleMessageEPKh||, COMGROUP=_ZN4Anki5Cozmo8Messages42ProcessAddAnimKeyFrame_SetHeadAngleMessageEPKh, CODE, READONLY, ALIGN=2

                  _ZN4Anki5Cozmo8Messages42ProcessAddAnimKeyFrame_SetHeadAngleMessageEPKh PROC ; Anki::Cozmo::Messages::ProcessAddAnimKeyFrame_SetHeadAngleMessage(const unsigned char*)
;;;304    // AddAnimKeyFrame_SetHeadAngle
;;;305    START_MESSAGE_DEFINITION(AddAnimKeyFrame_SetHeadAngle, 2)
000000  b530              PUSH     {r4,r5,lr}
000002  b085              SUB      sp,sp,#0x14
000004  2100              MOVS     r1,#0
000006  4604              MOV      r4,r0
000008  f88d1000          STRB     r1,[sp,#0]
00000c  7940              LDRB     r0,[r0,#5]
00000e  f88d0008          STRB     r0,[sp,#8]
000012  79a0              LDRB     r0,[r4,#6]
000014  f88d0009          STRB     r0,[sp,#9]
000018  466d              MOV      r5,sp
00001a  7922              LDRB     r2,[r4,#4]
00001c  480b              LDR      r0,|L738.76|
00001e  f7fffffe          BL       _ZN4Anki5Cozmo8Messages8SendTextEPKcz ; Anki::Cozmo::Messages::SendText(const char*, ...)
000022  8820              LDRH     r0,[r4,#0]
000024  f8ad0002          STRH     r0,[sp,#2]
000028  78a0              LDRB     r0,[r4,#2]
00002a  2864              CMP      r0,#0x64
00002c  bf88              IT       HI
00002e  2064              MOVHI    r0,#0x64
000030  f88d0004          STRB     r0,[sp,#4]
000034  78e0              LDRB     r0,[r4,#3]
000036  2864              CMP      r0,#0x64
000038  bf88              IT       HI
00003a  2064              MOVHI    r0,#0x64
00003c  f88d0005          STRB     r0,[sp,#5]
000040  7921              LDRB     r1,[r4,#4]
000042  4628              MOV      r0,r5
000044  f7fffffe          BL       _ZN4Anki5Cozmo19AnimationController28AddKeyFrameToCannedAnimationERKNS0_8KeyFrameEi ; Anki::Cozmo::AnimationController::AddKeyFrameToCannedAnimation(const Anki::Cozmo::KeyFrame&, int)
000048  b005              ADD      sp,sp,#0x14
00004a  bd30              POP      {r4,r5,pc}
;;;306    ADD_MESSAGE_MEMBER(u16, relTime_ms)
                          ENDP

                  |L738.76|
                          DCD      _ZZN4Anki5Cozmo8Messages17AddKeyFrameHelperINS1_28AddAnimKeyFrame_SetHeadAngleEEEvRKT_RNS0_8KeyFrameEEs ; Anki::Cozmo::Messages::AddKeyFrameHelper<Anki::Cozmo::Messages::AddAnimKeyFrame_SetHeadAngle>(const T1&, Anki::Cozmo::KeyFrame&)::string

                          AREA ||area_number.739||, COMGROUP=_ZN4Anki5Cozmo8Messages42ProcessAddAnimKeyFrame_SetHeadAngleMessageEPKh, LINKORDER=||i._ZN4Anki5Cozmo8Messages42ProcessAddAnimKeyFrame_SetHeadAngleMessageEPKh||, DATA, READONLY, SECTYPE={SHT_ARM_EXIDX}, ALIGN=2

                          EXPORTAS ||area_number.739||, ||.ARM.exidx||
                          DCD      0x00000000
                          RELOC 42, ||i._ZN4Anki5Cozmo8Messages42ProcessAddAnimKeyFrame_SetHeadAngleMessageEPKh||
                          DCD      0x00000001

                          AREA ||i._ZN4Anki5Cozmo8Messages43ProcessAddAnimKeyFrame_HoldHeadAngleMessageEPKh||, COMGROUP=_ZN4Anki5Cozmo8Messages43ProcessAddAnimKeyFrame_HoldHeadAngleMessageEPKh, CODE, READONLY, ALIGN=2

                  _ZN4Anki5Cozmo8Messages43ProcessAddAnimKeyFrame_HoldHeadAngleMessageEPKh PROC ; Anki::Cozmo::Messages::ProcessAddAnimKeyFrame_HoldHeadAngleMessage(const unsigned char*)
;;;314    // AddAnimKeyFrame_HoldHeadAngle
;;;315    START_MESSAGE_DEFINITION(AddAnimKeyFrame_HoldHeadAngle, 2)
000000  b530              PUSH     {r4,r5,lr}
000002  b085              SUB      sp,sp,#0x14
000004  2101              MOVS     r1,#1
000006  f88d1000          STRB     r1,[sp,#0]
00000a  4604              MOV      r4,r0
00000c  7902              LDRB     r2,[r0,#4]
00000e  466d              MOV      r5,sp
000010  480b              LDR      r0,|L745.64|
000012  f7fffffe          BL       _ZN4Anki5Cozmo8Messages8SendTextEPKcz ; Anki::Cozmo::Messages::SendText(const char*, ...)
000016  8820              LDRH     r0,[r4,#0]
000018  f8ad0002          STRH     r0,[sp,#2]
00001c  78a0              LDRB     r0,[r4,#2]
00001e  2864              CMP      r0,#0x64
000020  bf88              IT       HI
000022  2064              MOVHI    r0,#0x64
000024  f88d0004          STRB     r0,[sp,#4]
000028  78e0              LDRB     r0,[r4,#3]
00002a  2864              CMP      r0,#0x64
00002c  bf88              IT       HI
00002e  2064              MOVHI    r0,#0x64
000030  f88d0005          STRB     r0,[sp,#5]
000034  7921              LDRB     r1,[r4,#4]
000036  4628              MOV      r0,r5
000038  f7fffffe          BL       _ZN4Anki5Cozmo19AnimationController28AddKeyFrameToCannedAnimationERKNS0_8KeyFrameEi ; Anki::Cozmo::AnimationController::AddKeyFrameToCannedAnimation(const Anki::Cozmo::KeyFrame&, int)
00003c  b005              ADD      sp,sp,#0x14
00003e  bd30              POP      {r4,r5,pc}
;;;316    ADD_MESSAGE_MEMBER(u16, relTime_ms)
                          ENDP

                  |L745.64|
                          DCD      _ZZN4Anki5Cozmo8Messages17AddKeyFrameHelperINS1_29AddAnimKeyFrame_HoldHeadAngleEEEvRKT_RNS0_8KeyFrameEEs ; Anki::Cozmo::Messages::AddKeyFrameHelper<Anki::Cozmo::Messages::AddAnimKeyFrame_HoldHeadAngle>(const T1&, Anki::Cozmo::KeyFrame&)::string

                          AREA ||area_number.746||, COMGROUP=_ZN4Anki5Cozmo8Messages43ProcessAddAnimKeyFrame_HoldHeadAngleMessageEPKh, LINKORDER=||i._ZN4Anki5Cozmo8Messages43ProcessAddAnimKeyFrame_HoldHeadAngleMessageEPKh||, DATA, READONLY, SECTYPE={SHT_ARM_EXIDX}, ALIGN=2

                          EXPORTAS ||area_number.746||, ||.ARM.exidx||
                          DCD      0x00000000
                          RELOC 42, ||i._ZN4Anki5Cozmo8Messages43ProcessAddAnimKeyFrame_HoldHeadAngleMessageEPKh||
                          DCD      0x00000001

                          AREA ||i._ZN4Anki5Cozmo8Messages42ProcessAddAnimKeyFrame_StartHeadNodMessageEPKh||, COMGROUP=_ZN4Anki5Cozmo8Messages42ProcessAddAnimKeyFrame_StartHeadNodMessageEPKh, CODE, READONLY, ALIGN=2

                  _ZN4Anki5Cozmo8Messages42ProcessAddAnimKeyFrame_StartHeadNodMessageEPKh PROC ; Anki::Cozmo::Messages::ProcessAddAnimKeyFrame_StartHeadNodMessage(const unsigned char*)
;;;322    // AddAnimKeyFrame_StartHeadNod
;;;323    START_MESSAGE_DEFINITION(AddAnimKeyFrame_StartHeadNod, 2)
000000  b530              PUSH     {r4,r5,lr}
000002  b085              SUB      sp,sp,#0x14
000004  2102              MOVS     r1,#2
000006  4604              MOV      r4,r0
000008  f88d1000          STRB     r1,[sp,#0]
00000c  7a00              LDRB     r0,[r0,#8]
00000e  f88d0009          STRB     r0,[sp,#9]
000012  79e0              LDRB     r0,[r4,#7]
000014  f88d0008          STRB     r0,[sp,#8]
000018  8860              LDRH     r0,[r4,#2]
00001a  f8ad000a          STRH     r0,[sp,#0xa]
00001e  466d              MOV      r5,sp
000020  79a2              LDRB     r2,[r4,#6]
000022  480c              LDR      r0,|L752.84|
000024  f7fffffe          BL       _ZN4Anki5Cozmo8Messages8SendTextEPKcz ; Anki::Cozmo::Messages::SendText(const char*, ...)
000028  8820              LDRH     r0,[r4,#0]
00002a  f8ad0002          STRH     r0,[sp,#2]
00002e  7920              LDRB     r0,[r4,#4]
000030  2864              CMP      r0,#0x64
000032  bf88              IT       HI
000034  2064              MOVHI    r0,#0x64
000036  f88d0004          STRB     r0,[sp,#4]
00003a  7960              LDRB     r0,[r4,#5]
00003c  2864              CMP      r0,#0x64
00003e  bf88              IT       HI
000040  2064              MOVHI    r0,#0x64
000042  f88d0005          STRB     r0,[sp,#5]
000046  79a1              LDRB     r1,[r4,#6]
000048  4628              MOV      r0,r5
00004a  f7fffffe          BL       _ZN4Anki5Cozmo19AnimationController28AddKeyFrameToCannedAnimationERKNS0_8KeyFrameEi ; Anki::Cozmo::AnimationController::AddKeyFrameToCannedAnimation(const Anki::Cozmo::KeyFrame&, int)
00004e  b005              ADD      sp,sp,#0x14
000050  bd30              POP      {r4,r5,pc}
;;;324    ADD_MESSAGE_MEMBER(u16, relTime_ms)
                          ENDP

000052  0000              DCW      0x0000
                  |L752.84|
                          DCD      _ZZN4Anki5Cozmo8Messages17AddKeyFrameHelperINS1_28AddAnimKeyFrame_StartHeadNodEEEvRKT_RNS0_8KeyFrameEEs ; Anki::Cozmo::Messages::AddKeyFrameHelper<Anki::Cozmo::Messages::AddAnimKeyFrame_StartHeadNod>(const T1&, Anki::Cozmo::KeyFrame&)::string

                          AREA ||area_number.753||, COMGROUP=_ZN4Anki5Cozmo8Messages42ProcessAddAnimKeyFrame_StartHeadNodMessageEPKh, LINKORDER=||i._ZN4Anki5Cozmo8Messages42ProcessAddAnimKeyFrame_StartHeadNodMessageEPKh||, DATA, READONLY, SECTYPE={SHT_ARM_EXIDX}, ALIGN=2

                          EXPORTAS ||area_number.753||, ||.ARM.exidx||
                          DCD      0x00000000
                          RELOC 42, ||i._ZN4Anki5Cozmo8Messages42ProcessAddAnimKeyFrame_StartHeadNodMessageEPKh||
                          DCD      0x00000001

                          AREA ||i._ZN4Anki5Cozmo8Messages41ProcessAddAnimKeyFrame_StopHeadNodMessageEPKh||, COMGROUP=_ZN4Anki5Cozmo8Messages41ProcessAddAnimKeyFrame_StopHeadNodMessageEPKh, CODE, READONLY, ALIGN=2

                  _ZN4Anki5Cozmo8Messages41ProcessAddAnimKeyFrame_StopHeadNodMessageEPKh PROC ; Anki::Cozmo::Messages::ProcessAddAnimKeyFrame_StopHeadNodMessage(const unsigned char*)
;;;333    // AddAnimKeyFrame_StopHeadNod
;;;334    START_MESSAGE_DEFINITION(AddAnimKeyFrame_StopHeadNod, 2)
000000  b530              PUSH     {r4,r5,lr}
000002  b085              SUB      sp,sp,#0x14
000004  2103              MOVS     r1,#3
000006  4604              MOV      r4,r0
000008  f88d1000          STRB     r1,[sp,#0]
00000c  7940              LDRB     r0,[r0,#5]
00000e  f88d0008          STRB     r0,[sp,#8]
000012  466d              MOV      r5,sp
000014  7922              LDRB     r2,[r4,#4]
000016  480c              LDR      r0,|L759.72|
000018  f7fffffe          BL       _ZN4Anki5Cozmo8Messages8SendTextEPKcz ; Anki::Cozmo::Messages::SendText(const char*, ...)
00001c  8820              LDRH     r0,[r4,#0]
00001e  f8ad0002          STRH     r0,[sp,#2]
000022  78a0              LDRB     r0,[r4,#2]
000024  2864              CMP      r0,#0x64
000026  bf88              IT       HI
000028  2064              MOVHI    r0,#0x64
00002a  f88d0004          STRB     r0,[sp,#4]
00002e  78e0              LDRB     r0,[r4,#3]
000030  2864              CMP      r0,#0x64
000032  bf88              IT       HI
000034  2064              MOVHI    r0,#0x64
000036  f88d0005          STRB     r0,[sp,#5]
00003a  7921              LDRB     r1,[r4,#4]
00003c  4628              MOV      r0,r5
00003e  f7fffffe          BL       _ZN4Anki5Cozmo19AnimationController28AddKeyFrameToCannedAnimationERKNS0_8KeyFrameEi ; Anki::Cozmo::AnimationController::AddKeyFrameToCannedAnimation(const Anki::Cozmo::KeyFrame&, int)
000042  b005              ADD      sp,sp,#0x14
000044  bd30              POP      {r4,r5,pc}
;;;335    ADD_MESSAGE_MEMBER(u16, relTime_ms)
                          ENDP

000046  0000              DCW      0x0000
                  |L759.72|
                          DCD      _ZZN4Anki5Cozmo8Messages17AddKeyFrameHelperINS1_27AddAnimKeyFrame_StopHeadNodEEEvRKT_RNS0_8KeyFrameEEs ; Anki::Cozmo::Messages::AddKeyFrameHelper<Anki::Cozmo::Messages::AddAnimKeyFrame_StopHeadNod>(const T1&, Anki::Cozmo::KeyFrame&)::string

                          AREA ||area_number.760||, COMGROUP=_ZN4Anki5Cozmo8Messages41ProcessAddAnimKeyFrame_StopHeadNodMessageEPKh, LINKORDER=||i._ZN4Anki5Cozmo8Messages41ProcessAddAnimKeyFrame_StopHeadNodMessageEPKh||, DATA, READONLY, SECTYPE={SHT_ARM_EXIDX}, ALIGN=2

                          EXPORTAS ||area_number.760||, ||.ARM.exidx||
                          DCD      0x00000000
                          RELOC 42, ||i._ZN4Anki5Cozmo8Messages41ProcessAddAnimKeyFrame_StopHeadNodMessageEPKh||
                          DCD      0x00000001

                          AREA ||i._ZN4Anki5Cozmo8Messages43ProcessAddAnimKeyFrame_SetLiftHeightMessageEPKh||, COMGROUP=_ZN4Anki5Cozmo8Messages43ProcessAddAnimKeyFrame_SetLiftHeightMessageEPKh, CODE, READONLY, ALIGN=2

                  _ZN4Anki5Cozmo8Messages43ProcessAddAnimKeyFrame_SetLiftHeightMessageEPKh PROC ; Anki::Cozmo::Messages::ProcessAddAnimKeyFrame_SetLiftHeightMessage(const unsigned char*)
;;;342    // AddAnimKeyFrame_SetLiftHeight
;;;343    START_MESSAGE_DEFINITION(AddAnimKeyFrame_SetLiftHeight, 2)
000000  b530              PUSH     {r4,r5,lr}
000002  b085              SUB      sp,sp,#0x14
000004  2104              MOVS     r1,#4
000006  4604              MOV      r4,r0
000008  f88d1000          STRB     r1,[sp,#0]
00000c  8800              LDRH     r0,[r0,#0]
00000e  f8ad0008          STRH     r0,[sp,#8]
000012  466d              MOV      r5,sp
000014  79a2              LDRB     r2,[r4,#6]
000016  480c              LDR      r0,|L766.72|
000018  f7fffffe          BL       _ZN4Anki5Cozmo8Messages8SendTextEPKcz ; Anki::Cozmo::Messages::SendText(const char*, ...)
00001c  8860              LDRH     r0,[r4,#2]
00001e  f8ad0002          STRH     r0,[sp,#2]
000022  7920              LDRB     r0,[r4,#4]
000024  2864              CMP      r0,#0x64
000026  bf88              IT       HI
000028  2064              MOVHI    r0,#0x64
00002a  f88d0004          STRB     r0,[sp,#4]
00002e  7960              LDRB     r0,[r4,#5]
000030  2864              CMP      r0,#0x64
000032  bf88              IT       HI
000034  2064              MOVHI    r0,#0x64
000036  f88d0005          STRB     r0,[sp,#5]
00003a  79a1              LDRB     r1,[r4,#6]
00003c  4628              MOV      r0,r5
00003e  f7fffffe          BL       _ZN4Anki5Cozmo19AnimationController28AddKeyFrameToCannedAnimationERKNS0_8KeyFrameEi ; Anki::Cozmo::AnimationController::AddKeyFrameToCannedAnimation(const Anki::Cozmo::KeyFrame&, int)
000042  b005              ADD      sp,sp,#0x14
000044  bd30              POP      {r4,r5,pc}
;;;344    ADD_MESSAGE_MEMBER(u16, height_mm)
                          ENDP

000046  0000              DCW      0x0000
                  |L766.72|
                          DCD      _ZZN4Anki5Cozmo8Messages17AddKeyFrameHelperINS1_29AddAnimKeyFrame_SetLiftHeightEEEvRKT_RNS0_8KeyFrameEEs ; Anki::Cozmo::Messages::AddKeyFrameHelper<Anki::Cozmo::Messages::AddAnimKeyFrame_SetLiftHeight>(const T1&, Anki::Cozmo::KeyFrame&)::string

                          AREA ||area_number.767||, COMGROUP=_ZN4Anki5Cozmo8Messages43ProcessAddAnimKeyFrame_SetLiftHeightMessageEPKh, LINKORDER=||i._ZN4Anki5Cozmo8Messages43ProcessAddAnimKeyFrame_SetLiftHeightMessageEPKh||, DATA, READONLY, SECTYPE={SHT_ARM_EXIDX}, ALIGN=2

                          EXPORTAS ||area_number.767||, ||.ARM.exidx||
                          DCD      0x00000000
                          RELOC 42, ||i._ZN4Anki5Cozmo8Messages43ProcessAddAnimKeyFrame_SetLiftHeightMessageEPKh||
                          DCD      0x00000001

                          AREA ||i._ZN4Anki5Cozmo8Messages44ProcessAddAnimKeyFrame_HoldLiftHeightMessageEPKh||, COMGROUP=_ZN4Anki5Cozmo8Messages44ProcessAddAnimKeyFrame_HoldLiftHeightMessageEPKh, CODE, READONLY, ALIGN=2

                  _ZN4Anki5Cozmo8Messages44ProcessAddAnimKeyFrame_HoldLiftHeightMessageEPKh PROC ; Anki::Cozmo::Messages::ProcessAddAnimKeyFrame_HoldLiftHeightMessage(const unsigned char*)
;;;351    // AddAnimKeyFrame_HoldLiftHeight
;;;352    START_MESSAGE_DEFINITION(AddAnimKeyFrame_HoldLiftHeight, 2)
000000  b530              PUSH     {r4,r5,lr}
000002  b085              SUB      sp,sp,#0x14
000004  2105              MOVS     r1,#5
000006  f88d1000          STRB     r1,[sp,#0]
00000a  4604              MOV      r4,r0
00000c  7902              LDRB     r2,[r0,#4]
00000e  466d              MOV      r5,sp
000010  480b              LDR      r0,|L773.64|
000012  f7fffffe          BL       _ZN4Anki5Cozmo8Messages8SendTextEPKcz ; Anki::Cozmo::Messages::SendText(const char*, ...)
000016  8820              LDRH     r0,[r4,#0]
000018  f8ad0002          STRH     r0,[sp,#2]
00001c  78a0              LDRB     r0,[r4,#2]
00001e  2864              CMP      r0,#0x64
000020  bf88              IT       HI
000022  2064              MOVHI    r0,#0x64
000024  f88d0004          STRB     r0,[sp,#4]
000028  78e0              LDRB     r0,[r4,#3]
00002a  2864              CMP      r0,#0x64
00002c  bf88              IT       HI
00002e  2064              MOVHI    r0,#0x64
000030  f88d0005          STRB     r0,[sp,#5]
000034  7921              LDRB     r1,[r4,#4]
000036  4628              MOV      r0,r5
000038  f7fffffe          BL       _ZN4Anki5Cozmo19AnimationController28AddKeyFrameToCannedAnimationERKNS0_8KeyFrameEi ; Anki::Cozmo::AnimationController::AddKeyFrameToCannedAnimation(const Anki::Cozmo::KeyFrame&, int)
00003c  b005              ADD      sp,sp,#0x14
00003e  bd30              POP      {r4,r5,pc}
;;;353    ADD_MESSAGE_MEMBER(u16, relTime_ms)
                          ENDP

                  |L773.64|
                          DCD      _ZZN4Anki5Cozmo8Messages17AddKeyFrameHelperINS1_30AddAnimKeyFrame_HoldLiftHeightEEEvRKT_RNS0_8KeyFrameEEs ; Anki::Cozmo::Messages::AddKeyFrameHelper<Anki::Cozmo::Messages::AddAnimKeyFrame_HoldLiftHeight>(const T1&, Anki::Cozmo::KeyFrame&)::string

                          AREA ||area_number.774||, COMGROUP=_ZN4Anki5Cozmo8Messages44ProcessAddAnimKeyFrame_HoldLiftHeightMessageEPKh, LINKORDER=||i._ZN4Anki5Cozmo8Messages44ProcessAddAnimKeyFrame_HoldLiftHeightMessageEPKh||, DATA, READONLY, SECTYPE={SHT_ARM_EXIDX}, ALIGN=2

                          EXPORTAS ||area_number.774||, ||.ARM.exidx||
                          DCD      0x00000000
                          RELOC 42, ||i._ZN4Anki5Cozmo8Messages44ProcessAddAnimKeyFrame_HoldLiftHeightMessageEPKh||
                          DCD      0x00000001

                          AREA ||i._ZN4Anki5Cozmo8Messages42ProcessAddAnimKeyFrame_StartLiftNodMessageEPKh||, COMGROUP=_ZN4Anki5Cozmo8Messages42ProcessAddAnimKeyFrame_StartLiftNodMessageEPKh, CODE, READONLY, ALIGN=2

                  _ZN4Anki5Cozmo8Messages42ProcessAddAnimKeyFrame_StartLiftNodMessageEPKh PROC ; Anki::Cozmo::Messages::ProcessAddAnimKeyFrame_StartLiftNodMessage(const unsigned char*)
;;;359    // AddAnimKeyFrame_StartLiftNod
;;;360    START_MESSAGE_DEFINITION(AddAnimKeyFrame_StartLiftNod, 2)
000000  b530              PUSH     {r4,r5,lr}
000002  b085              SUB      sp,sp,#0x14
000004  2114              MOVS     r1,#0x14
000006  4604              MOV      r4,r0
000008  f88d1000          STRB     r1,[sp,#0]
00000c  7980              LDRB     r0,[r0,#6]
00000e  f88d0008          STRB     r0,[sp,#8]
000012  79e0              LDRB     r0,[r4,#7]
000014  f88d0009          STRB     r0,[sp,#9]
000018  8860              LDRH     r0,[r4,#2]
00001a  f8ad000a          STRH     r0,[sp,#0xa]
00001e  466d              MOV      r5,sp
000020  7a22              LDRB     r2,[r4,#8]
000022  480c              LDR      r0,|L780.84|
000024  f7fffffe          BL       _ZN4Anki5Cozmo8Messages8SendTextEPKcz ; Anki::Cozmo::Messages::SendText(const char*, ...)
000028  8820              LDRH     r0,[r4,#0]
00002a  f8ad0002          STRH     r0,[sp,#2]
00002e  7920              LDRB     r0,[r4,#4]
000030  2864              CMP      r0,#0x64
000032  bf88              IT       HI
000034  2064              MOVHI    r0,#0x64
000036  f88d0004          STRB     r0,[sp,#4]
00003a  7960              LDRB     r0,[r4,#5]
00003c  2864              CMP      r0,#0x64
00003e  bf88              IT       HI
000040  2064              MOVHI    r0,#0x64
000042  f88d0005          STRB     r0,[sp,#5]
000046  7a21              LDRB     r1,[r4,#8]
000048  4628              MOV      r0,r5
00004a  f7fffffe          BL       _ZN4Anki5Cozmo19AnimationController28AddKeyFrameToCannedAnimationERKNS0_8KeyFrameEi ; Anki::Cozmo::AnimationController::AddKeyFrameToCannedAnimation(const Anki::Cozmo::KeyFrame&, int)
00004e  b005              ADD      sp,sp,#0x14
000050  bd30              POP      {r4,r5,pc}
;;;361    ADD_MESSAGE_MEMBER(u16, relTime_ms)
                          ENDP

000052  0000              DCW      0x0000
                  |L780.84|
                          DCD      _ZZN4Anki5Cozmo8Messages17AddKeyFrameHelperINS1_28AddAnimKeyFrame_StartLiftNodEEEvRKT_RNS0_8KeyFrameEEs ; Anki::Cozmo::Messages::AddKeyFrameHelper<Anki::Cozmo::Messages::AddAnimKeyFrame_StartLiftNod>(const T1&, Anki::Cozmo::KeyFrame&)::string

                          AREA ||area_number.781||, COMGROUP=_ZN4Anki5Cozmo8Messages42ProcessAddAnimKeyFrame_StartLiftNodMessageEPKh, LINKORDER=||i._ZN4Anki5Cozmo8Messages42ProcessAddAnimKeyFrame_StartLiftNodMessageEPKh||, DATA, READONLY, SECTYPE={SHT_ARM_EXIDX}, ALIGN=2

                          EXPORTAS ||area_number.781||, ||.ARM.exidx||
                          DCD      0x00000000
                          RELOC 42, ||i._ZN4Anki5Cozmo8Messages42ProcessAddAnimKeyFrame_StartLiftNodMessageEPKh||
                          DCD      0x00000001

                          AREA ||i._ZN4Anki5Cozmo8Messages41ProcessAddAnimKeyFrame_StopLiftNodMessageEPKh||, COMGROUP=_ZN4Anki5Cozmo8Messages41ProcessAddAnimKeyFrame_StopLiftNodMessageEPKh, CODE, READONLY, ALIGN=2

                  _ZN4Anki5Cozmo8Messages41ProcessAddAnimKeyFrame_StopLiftNodMessageEPKh PROC ; Anki::Cozmo::Messages::ProcessAddAnimKeyFrame_StopLiftNodMessage(const unsigned char*)
;;;370    // AddAnimKeyFrame_StopLiftNod
;;;371    START_MESSAGE_DEFINITION(AddAnimKeyFrame_StopLiftNod, 2)
000000  b530              PUSH     {r4,r5,lr}
000002  b085              SUB      sp,sp,#0x14
000004  2115              MOVS     r1,#0x15
000006  4604              MOV      r4,r0
000008  f88d1000          STRB     r1,[sp,#0]
00000c  7900              LDRB     r0,[r0,#4]
00000e  f88d0008          STRB     r0,[sp,#8]
000012  466d              MOV      r5,sp
000014  7962              LDRB     r2,[r4,#5]
000016  480c              LDR      r0,|L787.72|
000018  f7fffffe          BL       _ZN4Anki5Cozmo8Messages8SendTextEPKcz ; Anki::Cozmo::Messages::SendText(const char*, ...)
00001c  8820              LDRH     r0,[r4,#0]
00001e  f8ad0002          STRH     r0,[sp,#2]
000022  78a0              LDRB     r0,[r4,#2]
000024  2864              CMP      r0,#0x64
000026  bf88              IT       HI
000028  2064              MOVHI    r0,#0x64
00002a  f88d0004          STRB     r0,[sp,#4]
00002e  78e0              LDRB     r0,[r4,#3]
000030  2864              CMP      r0,#0x64
000032  bf88              IT       HI
000034  2064              MOVHI    r0,#0x64
000036  f88d0005          STRB     r0,[sp,#5]
00003a  7961              LDRB     r1,[r4,#5]
00003c  4628              MOV      r0,r5
00003e  f7fffffe          BL       _ZN4Anki5Cozmo19AnimationController28AddKeyFrameToCannedAnimationERKNS0_8KeyFrameEi ; Anki::Cozmo::AnimationController::AddKeyFrameToCannedAnimation(const Anki::Cozmo::KeyFrame&, int)
000042  b005              ADD      sp,sp,#0x14
000044  bd30              POP      {r4,r5,pc}
;;;372    ADD_MESSAGE_MEMBER(u16, relTime_ms)
                          ENDP

000046  0000              DCW      0x0000
                  |L787.72|
                          DCD      _ZZN4Anki5Cozmo8Messages17AddKeyFrameHelperINS1_27AddAnimKeyFrame_StopLiftNodEEEvRKT_RNS0_8KeyFrameEEs ; Anki::Cozmo::Messages::AddKeyFrameHelper<Anki::Cozmo::Messages::AddAnimKeyFrame_StopLiftNod>(const T1&, Anki::Cozmo::KeyFrame&)::string

                          AREA ||area_number.788||, COMGROUP=_ZN4Anki5Cozmo8Messages41ProcessAddAnimKeyFrame_StopLiftNodMessageEPKh, LINKORDER=||i._ZN4Anki5Cozmo8Messages41ProcessAddAnimKeyFrame_StopLiftNodMessageEPKh||, DATA, READONLY, SECTYPE={SHT_ARM_EXIDX}, ALIGN=2

                          EXPORTAS ||area_number.788||, ||.ARM.exidx||
                          DCD      0x00000000
                          RELOC 42, ||i._ZN4Anki5Cozmo8Messages41ProcessAddAnimKeyFrame_StopLiftNodMessageEPKh||
                          DCD      0x00000001

                          AREA ||i._ZN4Anki5Cozmo8Messages39ProcessAddAnimKeyFrame_DriveLineMessageEPKh||, COMGROUP=_ZN4Anki5Cozmo8Messages39ProcessAddAnimKeyFrame_DriveLineMessageEPKh, CODE, READONLY, ALIGN=2

                  _ZN4Anki5Cozmo8Messages39ProcessAddAnimKeyFrame_DriveLineMessageEPKh PROC ; Anki::Cozmo::Messages::ProcessAddAnimKeyFrame_DriveLineMessage(const unsigned char*)
;;;398    // AddAnimKeyFrame_DriveLine
;;;399    START_MESSAGE_DEFINITION(AddAnimKeyFrame_DriveLine, 2)
000000  b530              PUSH     {r4,r5,lr}
000002  b085              SUB      sp,sp,#0x14
000004  2106              MOVS     r1,#6
000006  4604              MOV      r4,r0
000008  f88d1000          STRB     r1,[sp,#0]
00000c  8800              LDRH     r0,[r0,#0]
00000e  f8ad0008          STRH     r0,[sp,#8]
000012  466d              MOV      r5,sp
000014  79a2              LDRB     r2,[r4,#6]
000016  480c              LDR      r0,|L794.72|
000018  f7fffffe          BL       _ZN4Anki5Cozmo8Messages8SendTextEPKcz ; Anki::Cozmo::Messages::SendText(const char*, ...)
00001c  8860              LDRH     r0,[r4,#2]
00001e  f8ad0002          STRH     r0,[sp,#2]
000022  7920              LDRB     r0,[r4,#4]
000024  2864              CMP      r0,#0x64
000026  bf88              IT       HI
000028  2064              MOVHI    r0,#0x64
00002a  f88d0004          STRB     r0,[sp,#4]
00002e  7960              LDRB     r0,[r4,#5]
000030  2864              CMP      r0,#0x64
000032  bf88              IT       HI
000034  2064              MOVHI    r0,#0x64
000036  f88d0005          STRB     r0,[sp,#5]
00003a  79a1              LDRB     r1,[r4,#6]
00003c  4628              MOV      r0,r5
00003e  f7fffffe          BL       _ZN4Anki5Cozmo19AnimationController28AddKeyFrameToCannedAnimationERKNS0_8KeyFrameEi ; Anki::Cozmo::AnimationController::AddKeyFrameToCannedAnimation(const Anki::Cozmo::KeyFrame&, int)
000042  b005              ADD      sp,sp,#0x14
000044  bd30              POP      {r4,r5,pc}
;;;400    ADD_MESSAGE_MEMBER(s16, relativeDistance_mm)
                          ENDP

000046  0000              DCW      0x0000
                  |L794.72|
                          DCD      _ZZN4Anki5Cozmo8Messages17AddKeyFrameHelperINS1_25AddAnimKeyFrame_DriveLineEEEvRKT_RNS0_8KeyFrameEEs ; Anki::Cozmo::Messages::AddKeyFrameHelper<Anki::Cozmo::Messages::AddAnimKeyFrame_DriveLine>(const T1&, Anki::Cozmo::KeyFrame&)::string

                          AREA ||area_number.795||, COMGROUP=_ZN4Anki5Cozmo8Messages39ProcessAddAnimKeyFrame_DriveLineMessageEPKh, LINKORDER=||i._ZN4Anki5Cozmo8Messages39ProcessAddAnimKeyFrame_DriveLineMessageEPKh||, DATA, READONLY, SECTYPE={SHT_ARM_EXIDX}, ALIGN=2

                          EXPORTAS ||area_number.795||, ||.ARM.exidx||
                          DCD      0x00000000
                          RELOC 42, ||i._ZN4Anki5Cozmo8Messages39ProcessAddAnimKeyFrame_DriveLineMessageEPKh||
                          DCD      0x00000001

                          AREA ||i._ZN4Anki5Cozmo8Messages41ProcessAddAnimKeyFrame_TurnInPlaceMessageEPKh||, COMGROUP=_ZN4Anki5Cozmo8Messages41ProcessAddAnimKeyFrame_TurnInPlaceMessageEPKh, CODE, READONLY, ALIGN=2

                  _ZN4Anki5Cozmo8Messages41ProcessAddAnimKeyFrame_TurnInPlaceMessageEPKh PROC ; Anki::Cozmo::Messages::ProcessAddAnimKeyFrame_TurnInPlaceMessage(const unsigned char*)
;;;408    // AddAnimKeyFrame_TurnInplace
;;;409    START_MESSAGE_DEFINITION(AddAnimKeyFrame_TurnInPlace, 2)
000000  b530              PUSH     {r4,r5,lr}
000002  b085              SUB      sp,sp,#0x14
000004  210a              MOVS     r1,#0xa
000006  4604              MOV      r4,r0
000008  f88d1000          STRB     r1,[sp,#0]
00000c  8800              LDRH     r0,[r0,#0]
00000e  f8ad0008          STRH     r0,[sp,#8]
000012  79e0              LDRB     r0,[r4,#7]
000014  f88d000a          STRB     r0,[sp,#0xa]
000018  466d              MOV      r5,sp
00001a  79a2              LDRB     r2,[r4,#6]
00001c  480b              LDR      r0,|L801.76|
00001e  f7fffffe          BL       _ZN4Anki5Cozmo8Messages8SendTextEPKcz ; Anki::Cozmo::Messages::SendText(const char*, ...)
000022  8860              LDRH     r0,[r4,#2]
000024  f8ad0002          STRH     r0,[sp,#2]
000028  7920              LDRB     r0,[r4,#4]
00002a  2864              CMP      r0,#0x64
00002c  bf88              IT       HI
00002e  2064              MOVHI    r0,#0x64
000030  f88d0004          STRB     r0,[sp,#4]
000034  7960              LDRB     r0,[r4,#5]
000036  2864              CMP      r0,#0x64
000038  bf88              IT       HI
00003a  2064              MOVHI    r0,#0x64
00003c  f88d0005          STRB     r0,[sp,#5]
000040  79a1              LDRB     r1,[r4,#6]
000042  4628              MOV      r0,r5
000044  f7fffffe          BL       _ZN4Anki5Cozmo19AnimationController28AddKeyFrameToCannedAnimationERKNS0_8KeyFrameEi ; Anki::Cozmo::AnimationController::AddKeyFrameToCannedAnimation(const Anki::Cozmo::KeyFrame&, int)
000048  b005              ADD      sp,sp,#0x14
00004a  bd30              POP      {r4,r5,pc}
;;;410    ADD_MESSAGE_MEMBER(s16, relativeAngle_deg)
                          ENDP

                  |L801.76|
                          DCD      _ZZN4Anki5Cozmo8Messages17AddKeyFrameHelperINS1_27AddAnimKeyFrame_TurnInPlaceEEEvRKT_RNS0_8KeyFrameEEs ; Anki::Cozmo::Messages::AddKeyFrameHelper<Anki::Cozmo::Messages::AddAnimKeyFrame_TurnInPlace>(const T1&, Anki::Cozmo::KeyFrame&)::string

                          AREA ||area_number.802||, COMGROUP=_ZN4Anki5Cozmo8Messages41ProcessAddAnimKeyFrame_TurnInPlaceMessageEPKh, LINKORDER=||i._ZN4Anki5Cozmo8Messages41ProcessAddAnimKeyFrame_TurnInPlaceMessageEPKh||, DATA, READONLY, SECTYPE={SHT_ARM_EXIDX}, ALIGN=2

                          EXPORTAS ||area_number.802||, ||.ARM.exidx||
                          DCD      0x00000000
                          RELOC 42, ||i._ZN4Anki5Cozmo8Messages41ProcessAddAnimKeyFrame_TurnInPlaceMessageEPKh||
                          DCD      0x00000001

                          AREA ||i._ZN4Anki5Cozmo8Messages38ProcessAddAnimKeyFrame_HoldPoseMessageEPKh||, COMGROUP=_ZN4Anki5Cozmo8Messages38ProcessAddAnimKeyFrame_HoldPoseMessageEPKh, CODE, READONLY, ALIGN=2

                  _ZN4Anki5Cozmo8Messages38ProcessAddAnimKeyFrame_HoldPoseMessageEPKh PROC ; Anki::Cozmo::Messages::ProcessAddAnimKeyFrame_HoldPoseMessage(const unsigned char*)
;;;418    // AddAnimKeyFrame_HoldPose
;;;419    START_MESSAGE_DEFINITION(AddAnimKeyFrame_HoldPose, 2)
000000  b530              PUSH     {r4,r5,lr}
000002  b085              SUB      sp,sp,#0x14
000004  210b              MOVS     r1,#0xb
000006  f88d1000          STRB     r1,[sp,#0]
00000a  4604              MOV      r4,r0
00000c  7902              LDRB     r2,[r0,#4]
00000e  466d              MOV      r5,sp
000010  480b              LDR      r0,|L808.64|
000012  f7fffffe          BL       _ZN4Anki5Cozmo8Messages8SendTextEPKcz ; Anki::Cozmo::Messages::SendText(const char*, ...)
000016  8820              LDRH     r0,[r4,#0]
000018  f8ad0002          STRH     r0,[sp,#2]
00001c  78a0              LDRB     r0,[r4,#2]
00001e  2864              CMP      r0,#0x64
000020  bf88              IT       HI
000022  2064              MOVHI    r0,#0x64
000024  f88d0004          STRB     r0,[sp,#4]
000028  78e0              LDRB     r0,[r4,#3]
00002a  2864              CMP      r0,#0x64
00002c  bf88              IT       HI
00002e  2064              MOVHI    r0,#0x64
000030  f88d0005          STRB     r0,[sp,#5]
000034  7921              LDRB     r1,[r4,#4]
000036  4628              MOV      r0,r5
000038  f7fffffe          BL       _ZN4Anki5Cozmo19AnimationController28AddKeyFrameToCannedAnimationERKNS0_8KeyFrameEi ; Anki::Cozmo::AnimationController::AddKeyFrameToCannedAnimation(const Anki::Cozmo::KeyFrame&, int)
00003c  b005              ADD      sp,sp,#0x14
00003e  bd30              POP      {r4,r5,pc}
;;;420    ADD_MESSAGE_MEMBER(u16, relTime_ms)
                          ENDP

                  |L808.64|
                          DCD      _ZZN4Anki5Cozmo8Messages17AddKeyFrameHelperINS1_24AddAnimKeyFrame_HoldPoseEEEvRKT_RNS0_8KeyFrameEEs ; Anki::Cozmo::Messages::AddKeyFrameHelper<Anki::Cozmo::Messages::AddAnimKeyFrame_HoldPose>(const T1&, Anki::Cozmo::KeyFrame&)::string

                          AREA ||area_number.809||, COMGROUP=_ZN4Anki5Cozmo8Messages38ProcessAddAnimKeyFrame_HoldPoseMessageEPKh, LINKORDER=||i._ZN4Anki5Cozmo8Messages38ProcessAddAnimKeyFrame_HoldPoseMessageEPKh||, DATA, READONLY, SECTYPE={SHT_ARM_EXIDX}, ALIGN=2

                          EXPORTAS ||area_number.809||, ||.ARM.exidx||
                          DCD      0x00000000
                          RELOC 42, ||i._ZN4Anki5Cozmo8Messages38ProcessAddAnimKeyFrame_HoldPoseMessageEPKh||
                          DCD      0x00000001

                          AREA ||i._ZN4Anki5Cozmo8Messages39ProcessAddAnimKeyFrame_PlaySoundMessageEPKh||, COMGROUP=_ZN4Anki5Cozmo8Messages39ProcessAddAnimKeyFrame_PlaySoundMessageEPKh, CODE, READONLY, ALIGN=2

                  _ZN4Anki5Cozmo8Messages39ProcessAddAnimKeyFrame_PlaySoundMessageEPKh PROC ; Anki::Cozmo::Messages::ProcessAddAnimKeyFrame_PlaySoundMessage(const unsigned char*)
;;;426    // AddAnimKeyFrame_PlaySound
;;;427    START_MESSAGE_DEFINITION(AddAnimKeyFrame_PlaySound, 2)
000000  b530              PUSH     {r4,r5,lr}
000002  b085              SUB      sp,sp,#0x14
000004  210c              MOVS     r1,#0xc
000006  4604              MOV      r4,r0
000008  f88d1000          STRB     r1,[sp,#0]
00000c  8800              LDRH     r0,[r0,#0]
00000e  f8ad0008          STRH     r0,[sp,#8]
000012  79e0              LDRB     r0,[r4,#7]
000014  f88d000a          STRB     r0,[sp,#0xa]
000018  7a20              LDRB     r0,[r4,#8]
00001a  f88d000b          STRB     r0,[sp,#0xb]
00001e  466d              MOV      r5,sp
000020  79a2              LDRB     r2,[r4,#6]
000022  480c              LDR      r0,|L815.84|
000024  f7fffffe          BL       _ZN4Anki5Cozmo8Messages8SendTextEPKcz ; Anki::Cozmo::Messages::SendText(const char*, ...)
000028  8860              LDRH     r0,[r4,#2]
00002a  f8ad0002          STRH     r0,[sp,#2]
00002e  7920              LDRB     r0,[r4,#4]
000030  2864              CMP      r0,#0x64
000032  bf88              IT       HI
000034  2064              MOVHI    r0,#0x64
000036  f88d0004          STRB     r0,[sp,#4]
00003a  7960              LDRB     r0,[r4,#5]
00003c  2864              CMP      r0,#0x64
00003e  bf88              IT       HI
000040  2064              MOVHI    r0,#0x64
000042  f88d0005          STRB     r0,[sp,#5]
000046  79a1              LDRB     r1,[r4,#6]
000048  4628              MOV      r0,r5
00004a  f7fffffe          BL       _ZN4Anki5Cozmo19AnimationController28AddKeyFrameToCannedAnimationERKNS0_8KeyFrameEi ; Anki::Cozmo::AnimationController::AddKeyFrameToCannedAnimation(const Anki::Cozmo::KeyFrame&, int)
00004e  b005              ADD      sp,sp,#0x14
000050  bd30              POP      {r4,r5,pc}
;;;428    ADD_MESSAGE_MEMBER(u16, soundID)
                          ENDP

000052  0000              DCW      0x0000
                  |L815.84|
                          DCD      _ZZN4Anki5Cozmo8Messages17AddKeyFrameHelperINS1_25AddAnimKeyFrame_PlaySoundEEEvRKT_RNS0_8KeyFrameEEs ; Anki::Cozmo::Messages::AddKeyFrameHelper<Anki::Cozmo::Messages::AddAnimKeyFrame_PlaySound>(const T1&, Anki::Cozmo::KeyFrame&)::string

                          AREA ||area_number.816||, COMGROUP=_ZN4Anki5Cozmo8Messages39ProcessAddAnimKeyFrame_PlaySoundMessageEPKh, LINKORDER=||i._ZN4Anki5Cozmo8Messages39ProcessAddAnimKeyFrame_PlaySoundMessageEPKh||, DATA, READONLY, SECTYPE={SHT_ARM_EXIDX}, ALIGN=2

                          EXPORTAS ||area_number.816||, ||.ARM.exidx||
                          DCD      0x00000000
                          RELOC 42, ||i._ZN4Anki5Cozmo8Messages39ProcessAddAnimKeyFrame_PlaySoundMessageEPKh||
                          DCD      0x00000001

                          AREA ||i._ZN4Anki5Cozmo8Messages42ProcessAddAnimKeyFrame_WaitForSoundMessageEPKh||, COMGROUP=_ZN4Anki5Cozmo8Messages42ProcessAddAnimKeyFrame_WaitForSoundMessageEPKh, CODE, READONLY, ALIGN=2

                  _ZN4Anki5Cozmo8Messages42ProcessAddAnimKeyFrame_WaitForSoundMessageEPKh PROC ; Anki::Cozmo::Messages::ProcessAddAnimKeyFrame_WaitForSoundMessage(const unsigned char*)
;;;437    // AddAnimKeyFrame_WaitForSound
;;;438    START_MESSAGE_DEFINITION(AddAnimKeyFrame_WaitForSound, 2)
000000  b530              PUSH     {r4,r5,lr}
000002  b085              SUB      sp,sp,#0x14
000004  210d              MOVS     r1,#0xd
000006  f88d1000          STRB     r1,[sp,#0]
00000a  4604              MOV      r4,r0
00000c  7902              LDRB     r2,[r0,#4]
00000e  466d              MOV      r5,sp
000010  480b              LDR      r0,|L822.64|
000012  f7fffffe          BL       _ZN4Anki5Cozmo8Messages8SendTextEPKcz ; Anki::Cozmo::Messages::SendText(const char*, ...)
000016  8820              LDRH     r0,[r4,#0]
000018  f8ad0002          STRH     r0,[sp,#2]
00001c  78a0              LDRB     r0,[r4,#2]
00001e  2864              CMP      r0,#0x64
000020  bf88              IT       HI
000022  2064              MOVHI    r0,#0x64
000024  f88d0004          STRB     r0,[sp,#4]
000028  78e0              LDRB     r0,[r4,#3]
00002a  2864              CMP      r0,#0x64
00002c  bf88              IT       HI
00002e  2064              MOVHI    r0,#0x64
000030  f88d0005          STRB     r0,[sp,#5]
000034  7921              LDRB     r1,[r4,#4]
000036  4628              MOV      r0,r5
000038  f7fffffe          BL       _ZN4Anki5Cozmo19AnimationController28AddKeyFrameToCannedAnimationERKNS0_8KeyFrameEi ; Anki::Cozmo::AnimationController::AddKeyFrameToCannedAnimation(const Anki::Cozmo::KeyFrame&, int)
00003c  b005              ADD      sp,sp,#0x14
00003e  bd30              POP      {r4,r5,pc}
;;;439    ADD_MESSAGE_MEMBER(u16, relTime_ms)
                          ENDP

                  |L822.64|
                          DCD      _ZZN4Anki5Cozmo8Messages17AddKeyFrameHelperINS1_28AddAnimKeyFrame_WaitForSoundEEEvRKT_RNS0_8KeyFrameEEs ; Anki::Cozmo::Messages::AddKeyFrameHelper<Anki::Cozmo::Messages::AddAnimKeyFrame_WaitForSound>(const T1&, Anki::Cozmo::KeyFrame&)::string

                          AREA ||area_number.823||, COMGROUP=_ZN4Anki5Cozmo8Messages42ProcessAddAnimKeyFrame_WaitForSoundMessageEPKh, LINKORDER=||i._ZN4Anki5Cozmo8Messages42ProcessAddAnimKeyFrame_WaitForSoundMessageEPKh||, DATA, READONLY, SECTYPE={SHT_ARM_EXIDX}, ALIGN=2

                          EXPORTAS ||area_number.823||, ||.ARM.exidx||
                          DCD      0x00000000
                          RELOC 42, ||i._ZN4Anki5Cozmo8Messages42ProcessAddAnimKeyFrame_WaitForSoundMessageEPKh||
                          DCD      0x00000001

                          AREA ||i._ZN4Anki5Cozmo8Messages39ProcessAddAnimKeyFrame_StopSoundMessageEPKh||, COMGROUP=_ZN4Anki5Cozmo8Messages39ProcessAddAnimKeyFrame_StopSoundMessageEPKh, CODE, READONLY, ALIGN=2

                  _ZN4Anki5Cozmo8Messages39ProcessAddAnimKeyFrame_StopSoundMessageEPKh PROC ; Anki::Cozmo::Messages::ProcessAddAnimKeyFrame_StopSoundMessage(const unsigned char*)
;;;445    // AddAnimKeyFrame_StopSound
;;;446    START_MESSAGE_DEFINITION(AddAnimKeyFrame_StopSound, 2)
000000  b530              PUSH     {r4,r5,lr}
000002  b085              SUB      sp,sp,#0x14
000004  210e              MOVS     r1,#0xe
000006  f88d1000          STRB     r1,[sp,#0]
00000a  4604              MOV      r4,r0
00000c  7902              LDRB     r2,[r0,#4]
00000e  466d              MOV      r5,sp
000010  480b              LDR      r0,|L829.64|
000012  f7fffffe          BL       _ZN4Anki5Cozmo8Messages8SendTextEPKcz ; Anki::Cozmo::Messages::SendText(const char*, ...)
000016  8820              LDRH     r0,[r4,#0]
000018  f8ad0002          STRH     r0,[sp,#2]
00001c  78a0              LDRB     r0,[r4,#2]
00001e  2864              CMP      r0,#0x64
000020  bf88              IT       HI
000022  2064              MOVHI    r0,#0x64
000024  f88d0004          STRB     r0,[sp,#4]
000028  78e0              LDRB     r0,[r4,#3]
00002a  2864              CMP      r0,#0x64
00002c  bf88              IT       HI
00002e  2064              MOVHI    r0,#0x64
000030  f88d0005          STRB     r0,[sp,#5]
000034  7921              LDRB     r1,[r4,#4]
000036  4628              MOV      r0,r5
000038  f7fffffe          BL       _ZN4Anki5Cozmo19AnimationController28AddKeyFrameToCannedAnimationERKNS0_8KeyFrameEi ; Anki::Cozmo::AnimationController::AddKeyFrameToCannedAnimation(const Anki::Cozmo::KeyFrame&, int)
00003c  b005              ADD      sp,sp,#0x14
00003e  bd30              POP      {r4,r5,pc}
;;;447    ADD_MESSAGE_MEMBER(u16, relTime_ms)
                          ENDP

                  |L829.64|
                          DCD      _ZZN4Anki5Cozmo8Messages17AddKeyFrameHelperINS1_25AddAnimKeyFrame_StopSoundEEEvRKT_RNS0_8KeyFrameEEs ; Anki::Cozmo::Messages::AddKeyFrameHelper<Anki::Cozmo::Messages::AddAnimKeyFrame_StopSound>(const T1&, Anki::Cozmo::KeyFrame&)::string

                          AREA ||area_number.830||, COMGROUP=_ZN4Anki5Cozmo8Messages39ProcessAddAnimKeyFrame_StopSoundMessageEPKh, LINKORDER=||i._ZN4Anki5Cozmo8Messages39ProcessAddAnimKeyFrame_StopSoundMessageEPKh||, DATA, READONLY, SECTYPE={SHT_ARM_EXIDX}, ALIGN=2

                          EXPORTAS ||area_number.830||, ||.ARM.exidx||
                          DCD      0x00000000
                          RELOC 42, ||i._ZN4Anki5Cozmo8Messages39ProcessAddAnimKeyFrame_StopSoundMessageEPKh||
                          DCD      0x00000001

                          AREA ||i._ZN4Anki5Cozmo8Messages43ProcessAddAnimKeyFrame_StartBlinkingMessageEPKh||, COMGROUP=_ZN4Anki5Cozmo8Messages43ProcessAddAnimKeyFrame_StartBlinkingMessageEPKh, CODE, READONLY, ALIGN=1

                  _ZN4Anki5Cozmo8Messages43ProcessAddAnimKeyFrame_StartBlinkingMessageEPKh PROC ; Anki::Cozmo::Messages::ProcessAddAnimKeyFrame_StartBlinkingMessage(const unsigned char*)
;;;453    // AddAnimKeyFrame_StartBlinking
;;;454    START_MESSAGE_DEFINITION(AddAnimKeyFrame_StartBlinking, 2)
000000  f7ffbffe          B.W      _ZN4Anki5Cozmo8Messages43ProcessAddAnimKeyFrame_StartBlinkingMessageERKNS1_29AddAnimKeyFrame_StartBlinkingE ; Anki::Cozmo::Messages::ProcessAddAnimKeyFrame_StartBlinkingMessage(const Anki::Cozmo::Messages::AddAnimKeyFrame_StartBlinking&)
;;;455    ADD_MESSAGE_MEMBER(u16, onPeriod_ms)
                          ENDP


                          AREA ||area_number.837||, COMGROUP=_ZN4Anki5Cozmo8Messages43ProcessAddAnimKeyFrame_StartBlinkingMessageEPKh, LINKORDER=||i._ZN4Anki5Cozmo8Messages43ProcessAddAnimKeyFrame_StartBlinkingMessageEPKh||, DATA, READONLY, SECTYPE={SHT_ARM_EXIDX}, ALIGN=2

                          EXPORTAS ||area_number.837||, ||.ARM.exidx||
                          DCD      0x00000000
                          RELOC 42, ||i._ZN4Anki5Cozmo8Messages43ProcessAddAnimKeyFrame_StartBlinkingMessageEPKh||
                          DCD      0x00000001

                          AREA ||i._ZN4Anki5Cozmo8Messages49ProcessAddAnimKeyFrame_SetEyeShapeAndColorMessageEPKh||, COMGROUP=_ZN4Anki5Cozmo8Messages49ProcessAddAnimKeyFrame_SetEyeShapeAndColorMessageEPKh, CODE, READONLY, ALIGN=2

                  _ZN4Anki5Cozmo8Messages49ProcessAddAnimKeyFrame_SetEyeShapeAndColorMessageEPKh PROC ; Anki::Cozmo::Messages::ProcessAddAnimKeyFrame_SetEyeShapeAndColorMessage(const unsigned char*)
;;;465    // AddAnimKeyFrame_SetEyeShapeAndColor
;;;466    START_MESSAGE_DEFINITION(AddAnimKeyFrame_SetEyeShapeAndColor, 2)
000000  b530              PUSH     {r4,r5,lr}
000002  b085              SUB      sp,sp,#0x14
000004  2113              MOVS     r1,#0x13
000006  4604              MOV      r4,r0
000008  f88d1000          STRB     r1,[sp,#0]
00000c  7a40              LDRB     r0,[r0,#9]
00000e  f88d0008          STRB     r0,[sp,#8]
000012  78a0              LDRB     r0,[r4,#2]
000014  78e2              LDRB     r2,[r4,#3]
000016  0400              LSLS     r0,r0,#16
000018  eb002002          ADD      r0,r0,r2,LSL #8
00001c  7922              LDRB     r2,[r4,#4]
00001e  466d              MOV      r5,sp
000020  4410              ADD      r0,r0,r2
000022  9003              STR      r0,[sp,#0xc]
000024  7a20              LDRB     r0,[r4,#8]
000026  f88d0009          STRB     r0,[sp,#9]
00002a  79e2              LDRB     r2,[r4,#7]
00002c  480b              LDR      r0,|L843.92|
00002e  f7fffffe          BL       _ZN4Anki5Cozmo8Messages8SendTextEPKcz ; Anki::Cozmo::Messages::SendText(const char*, ...)
000032  8820              LDRH     r0,[r4,#0]
000034  f8ad0002          STRH     r0,[sp,#2]
000038  7960              LDRB     r0,[r4,#5]
00003a  2864              CMP      r0,#0x64
00003c  bf88              IT       HI
00003e  2064              MOVHI    r0,#0x64
000040  f88d0004          STRB     r0,[sp,#4]
000044  79a0              LDRB     r0,[r4,#6]
000046  2864              CMP      r0,#0x64
000048  bf88              IT       HI
00004a  2064              MOVHI    r0,#0x64
00004c  f88d0005          STRB     r0,[sp,#5]
000050  79e1              LDRB     r1,[r4,#7]
000052  4628              MOV      r0,r5
000054  f7fffffe          BL       _ZN4Anki5Cozmo19AnimationController28AddKeyFrameToCannedAnimationERKNS0_8KeyFrameEi ; Anki::Cozmo::AnimationController::AddKeyFrameToCannedAnimation(const Anki::Cozmo::KeyFrame&, int)
000058  b005              ADD      sp,sp,#0x14
00005a  bd30              POP      {r4,r5,pc}
;;;467    ADD_MESSAGE_MEMBER(u16, relTime_ms)
                          ENDP

                  |L843.92|
                          DCD      _ZZN4Anki5Cozmo8Messages17AddKeyFrameHelperINS1_35AddAnimKeyFrame_SetEyeShapeAndColorEEEvRKT_RNS0_8KeyFrameEEs ; Anki::Cozmo::Messages::AddKeyFrameHelper<Anki::Cozmo::Messages::AddAnimKeyFrame_SetEyeShapeAndColor>(const T1&, Anki::Cozmo::KeyFrame&)::string

                          AREA ||area_number.844||, COMGROUP=_ZN4Anki5Cozmo8Messages49ProcessAddAnimKeyFrame_SetEyeShapeAndColorMessageEPKh, LINKORDER=||i._ZN4Anki5Cozmo8Messages49ProcessAddAnimKeyFrame_SetEyeShapeAndColorMessageEPKh||, DATA, READONLY, SECTYPE={SHT_ARM_EXIDX}, ALIGN=2

                          EXPORTAS ||area_number.844||, ||.ARM.exidx||
                          DCD      0x00000000
                          RELOC 42, ||i._ZN4Anki5Cozmo8Messages49ProcessAddAnimKeyFrame_SetEyeShapeAndColorMessageEPKh||
                          DCD      0x00000001

                          AREA ||i._ZN4Anki5Cozmo8Messages47ProcessAddAnimKeyFrame_StartFlashingEyesMessageEPKh||, COMGROUP=_ZN4Anki5Cozmo8Messages47ProcessAddAnimKeyFrame_StartFlashingEyesMessageEPKh, CODE, READONLY, ALIGN=1

                  _ZN4Anki5Cozmo8Messages47ProcessAddAnimKeyFrame_StartFlashingEyesMessageEPKh PROC ; Anki::Cozmo::Messages::ProcessAddAnimKeyFrame_StartFlashingEyesMessage(const unsigned char*)
;;;476    // AddAnimKeyFrame_StartFlashingEyes
;;;477    START_MESSAGE_DEFINITION(AddAnimKeyFrame_StartFlashingEyes, 2)
000000  f7ffbffe          B.W      _ZN4Anki5Cozmo8Messages47ProcessAddAnimKeyFrame_StartFlashingEyesMessageERKNS1_33AddAnimKeyFrame_StartFlashingEyesE ; Anki::Cozmo::Messages::ProcessAddAnimKeyFrame_StartFlashingEyesMessage(const Anki::Cozmo::Messages::AddAnimKeyFrame_StartFlashingEyes&)
;;;478    ADD_MESSAGE_MEMBER(u16, onPeriod_ms)
                          ENDP


                          AREA ||area_number.851||, COMGROUP=_ZN4Anki5Cozmo8Messages47ProcessAddAnimKeyFrame_StartFlashingEyesMessageEPKh, LINKORDER=||i._ZN4Anki5Cozmo8Messages47ProcessAddAnimKeyFrame_StartFlashingEyesMessageEPKh||, DATA, READONLY, SECTYPE={SHT_ARM_EXIDX}, ALIGN=2

                          EXPORTAS ||area_number.851||, ||.ARM.exidx||
                          DCD      0x00000000
                          RELOC 42, ||i._ZN4Anki5Cozmo8Messages47ProcessAddAnimKeyFrame_StartFlashingEyesMessageEPKh||
                          DCD      0x00000001

                          AREA ||i._ZN4Anki5Cozmo8Messages47ProcessAddAnimKeyFrame_StartSpinningEyesMessageEPKh||, COMGROUP=_ZN4Anki5Cozmo8Messages47ProcessAddAnimKeyFrame_StartSpinningEyesMessageEPKh, CODE, READONLY, ALIGN=1

                  _ZN4Anki5Cozmo8Messages47ProcessAddAnimKeyFrame_StartSpinningEyesMessageEPKh PROC ; Anki::Cozmo::Messages::ProcessAddAnimKeyFrame_StartSpinningEyesMessage(const unsigned char*)
;;;488    // AddAnimKeyFrame_StartSpinningEyes
;;;489    START_MESSAGE_DEFINITION(AddAnimKeyFrame_StartSpinningEyes, 2)
000000  f7ffbffe          B.W      _ZN4Anki5Cozmo8Messages47ProcessAddAnimKeyFrame_StartSpinningEyesMessageERKNS1_33AddAnimKeyFrame_StartSpinningEyesE ; Anki::Cozmo::Messages::ProcessAddAnimKeyFrame_StartSpinningEyesMessage(const Anki::Cozmo::Messages::AddAnimKeyFrame_StartSpinningEyes&)
;;;490    ADD_MESSAGE_MEMBER(u16, period_ms)
                          ENDP


                          AREA ||area_number.858||, COMGROUP=_ZN4Anki5Cozmo8Messages47ProcessAddAnimKeyFrame_StartSpinningEyesMessageEPKh, LINKORDER=||i._ZN4Anki5Cozmo8Messages47ProcessAddAnimKeyFrame_StartSpinningEyesMessageEPKh||, DATA, READONLY, SECTYPE={SHT_ARM_EXIDX}, ALIGN=2

                          EXPORTAS ||area_number.858||, ||.ARM.exidx||
                          DCD      0x00000000
                          RELOC 42, ||i._ZN4Anki5Cozmo8Messages47ProcessAddAnimKeyFrame_StartSpinningEyesMessageEPKh||
                          DCD      0x00000001

                          AREA ||i._ZN4Anki5Cozmo8Messages46ProcessAddAnimKeyFrame_StopEyeAnimationMessageEPKh||, COMGROUP=_ZN4Anki5Cozmo8Messages46ProcessAddAnimKeyFrame_StopEyeAnimationMessageEPKh, CODE, READONLY, ALIGN=2

                  _ZN4Anki5Cozmo8Messages46ProcessAddAnimKeyFrame_StopEyeAnimationMessageEPKh PROC ; Anki::Cozmo::Messages::ProcessAddAnimKeyFrame_StopEyeAnimationMessage(const unsigned char*)
;;;500    // AddAnimKeyFrame_StopEyeAnimation
;;;501    START_MESSAGE_DEFINITION(AddAnimKeyFrame_StopEyeAnimation, 2)
000000  b530              PUSH     {r4,r5,lr}
000002  b085              SUB      sp,sp,#0x14
000004  2112              MOVS     r1,#0x12
000006  f88d1000          STRB     r1,[sp,#0]
00000a  4604              MOV      r4,r0
00000c  7902              LDRB     r2,[r0,#4]
00000e  466d              MOV      r5,sp
000010  480b              LDR      r0,|L864.64|
000012  f7fffffe          BL       _ZN4Anki5Cozmo8Messages8SendTextEPKcz ; Anki::Cozmo::Messages::SendText(const char*, ...)
000016  8820              LDRH     r0,[r4,#0]
000018  f8ad0002          STRH     r0,[sp,#2]
00001c  78a0              LDRB     r0,[r4,#2]
00001e  2864              CMP      r0,#0x64
000020  bf88              IT       HI
000022  2064              MOVHI    r0,#0x64
000024  f88d0004          STRB     r0,[sp,#4]
000028  78e0              LDRB     r0,[r4,#3]
00002a  2864              CMP      r0,#0x64
00002c  bf88              IT       HI
00002e  2064              MOVHI    r0,#0x64
000030  f88d0005          STRB     r0,[sp,#5]
000034  7921              LDRB     r1,[r4,#4]
000036  4628              MOV      r0,r5
000038  f7fffffe          BL       _ZN4Anki5Cozmo19AnimationController28AddKeyFrameToCannedAnimationERKNS0_8KeyFrameEi ; Anki::Cozmo::AnimationController::AddKeyFrameToCannedAnimation(const Anki::Cozmo::KeyFrame&, int)
00003c  b005              ADD      sp,sp,#0x14
00003e  bd30              POP      {r4,r5,pc}
;;;502    ADD_MESSAGE_MEMBER(u16, relTime_ms)
                          ENDP

                  |L864.64|
                          DCD      _ZZN4Anki5Cozmo8Messages17AddKeyFrameHelperINS1_32AddAnimKeyFrame_StopEyeAnimationEEEvRKT_RNS0_8KeyFrameEEs ; Anki::Cozmo::Messages::AddKeyFrameHelper<Anki::Cozmo::Messages::AddAnimKeyFrame_StopEyeAnimation>(const T1&, Anki::Cozmo::KeyFrame&)::string

                          AREA ||area_number.865||, COMGROUP=_ZN4Anki5Cozmo8Messages46ProcessAddAnimKeyFrame_StopEyeAnimationMessageEPKh, LINKORDER=||i._ZN4Anki5Cozmo8Messages46ProcessAddAnimKeyFrame_StopEyeAnimationMessageEPKh||, DATA, READONLY, SECTYPE={SHT_ARM_EXIDX}, ALIGN=2

                          EXPORTAS ||area_number.865||, ||.ARM.exidx||
                          DCD      0x00000000
                          RELOC 42, ||i._ZN4Anki5Cozmo8Messages46ProcessAddAnimKeyFrame_StopEyeAnimationMessageEPKh||
                          DCD      0x00000001

                          AREA ||i._ZN4Anki5Cozmo8Messages46ProcessAddAnimKeyFrame_TriggerAnimationMessageEPKh||, COMGROUP=_ZN4Anki5Cozmo8Messages46ProcessAddAnimKeyFrame_TriggerAnimationMessageEPKh, CODE, READONLY, ALIGN=2

                  _ZN4Anki5Cozmo8Messages46ProcessAddAnimKeyFrame_TriggerAnimationMessageEPKh PROC ; Anki::Cozmo::Messages::ProcessAddAnimKeyFrame_TriggerAnimationMessage(const unsigned char*)
;;;508    // AddAnimKeyFrame_TriggerAnimation
;;;509    START_MESSAGE_DEFINITION(AddAnimKeyFrame_TriggerAnimation, 2)
000000  b530              PUSH     {r4,r5,lr}
000002  b085              SUB      sp,sp,#0x14
000004  2116              MOVS     r1,#0x16
000006  4604              MOV      r4,r0
000008  f88d1000          STRB     r1,[sp,#0]
00000c  7940              LDRB     r0,[r0,#5]
00000e  9002              STR      r0,[sp,#8]
000010  79a0              LDRB     r0,[r4,#6]
000012  f88d000c          STRB     r0,[sp,#0xc]
000016  466d              MOV      r5,sp
000018  7922              LDRB     r2,[r4,#4]
00001a  480c              LDR      r0,|L871.76|
00001c  f7fffffe          BL       _ZN4Anki5Cozmo8Messages8SendTextEPKcz ; Anki::Cozmo::Messages::SendText(const char*, ...)
000020  8820              LDRH     r0,[r4,#0]
000022  f8ad0002          STRH     r0,[sp,#2]
000026  78a0              LDRB     r0,[r4,#2]
000028  2864              CMP      r0,#0x64
00002a  bf88              IT       HI
00002c  2064              MOVHI    r0,#0x64
00002e  f88d0004          STRB     r0,[sp,#4]
000032  78e0              LDRB     r0,[r4,#3]
000034  2864              CMP      r0,#0x64
000036  bf88              IT       HI
000038  2064              MOVHI    r0,#0x64
00003a  f88d0005          STRB     r0,[sp,#5]
00003e  7921              LDRB     r1,[r4,#4]
000040  4628              MOV      r0,r5
000042  f7fffffe          BL       _ZN4Anki5Cozmo19AnimationController28AddKeyFrameToCannedAnimationERKNS0_8KeyFrameEi ; Anki::Cozmo::AnimationController::AddKeyFrameToCannedAnimation(const Anki::Cozmo::KeyFrame&, int)
000046  b005              ADD      sp,sp,#0x14
000048  bd30              POP      {r4,r5,pc}
;;;510    ADD_MESSAGE_MEMBER(u16, relTime_ms)
                          ENDP

00004a  0000              DCW      0x0000
                  |L871.76|
                          DCD      _ZZN4Anki5Cozmo8Messages17AddKeyFrameHelperINS1_32AddAnimKeyFrame_TriggerAnimationEEEvRKT_RNS0_8KeyFrameEEs ; Anki::Cozmo::Messages::AddKeyFrameHelper<Anki::Cozmo::Messages::AddAnimKeyFrame_TriggerAnimation>(const T1&, Anki::Cozmo::KeyFrame&)::string

                          AREA ||area_number.872||, COMGROUP=_ZN4Anki5Cozmo8Messages46ProcessAddAnimKeyFrame_TriggerAnimationMessageEPKh, LINKORDER=||i._ZN4Anki5Cozmo8Messages46ProcessAddAnimKeyFrame_TriggerAnimationMessageEPKh||, DATA, READONLY, SECTYPE={SHT_ARM_EXIDX}, ALIGN=2

                          EXPORTAS ||area_number.872||, ||.ARM.exidx||
                          DCD      0x00000000
                          RELOC 42, ||i._ZN4Anki5Cozmo8Messages46ProcessAddAnimKeyFrame_TriggerAnimationMessageEPKh||
                          DCD      0x00000001

                          AREA ||i._ZN4Anki5Cozmo8Messages24ProcessIMURequestMessageEPKh||, COMGROUP=_ZN4Anki5Cozmo8Messages24ProcessIMURequestMessageEPKh, CODE, READONLY, ALIGN=1

                  _ZN4Anki5Cozmo8Messages24ProcessIMURequestMessageEPKh PROC ; Anki::Cozmo::Messages::ProcessIMURequestMessage(const unsigned char*)
;;;518    // IMURequest
;;;519    START_MESSAGE_DEFINITION(IMURequest, 1)
000000  6800              LDR      r0,[r0,#0]
000002  f7ffbffe          B.W      _ZN4Anki5Cozmo9IMUFilter13RecordAndSendEj ; Anki::Cozmo::IMUFilter::RecordAndSend(unsigned)
;;;520    ADD_MESSAGE_MEMBER(u32, length_ms)
                          ENDP


                          AREA ||area_number.879||, COMGROUP=_ZN4Anki5Cozmo8Messages24ProcessIMURequestMessageEPKh, LINKORDER=||i._ZN4Anki5Cozmo8Messages24ProcessIMURequestMessageEPKh||, DATA, READONLY, SECTYPE={SHT_ARM_EXIDX}, ALIGN=2

                          EXPORTAS ||area_number.879||, ||.ARM.exidx||
                          DCD      0x00000000
                          RELOC 42, ||i._ZN4Anki5Cozmo8Messages24ProcessIMURequestMessageEPKh||
                          DCD      0x00000001

                          AREA ||i._ZN4Anki5Cozmo8Messages26ProcessFaceTrackingMessageEPKh||, COMGROUP=_ZN4Anki5Cozmo8Messages26ProcessFaceTrackingMessageEPKh, CODE, READONLY, ALIGN=2

                  _ZN4Anki5Cozmo8Messages26ProcessFaceTrackingMessageEPKh PROC ; Anki::Cozmo::Messages::ProcessFaceTrackingMessage(const unsigned char*)
;;;523    // FaceTracking
;;;524    START_MESSAGE_DEFINITION(FaceTracking, 1)
000000  b538              PUSH     {r3-r5,lr}
000002  4604              MOV      r4,r0
000004  7800              LDRB     r0,[r0,#0]
000006  b148              CBZ      r0,|L885.28|
000008  7861              LDRB     r1,[r4,#1]
00000a  4809              LDR      r0,|L885.48|
00000c  f7fffffe          BL       _ZN4Anki5Cozmo8Messages8SendTextEPKcz ; Anki::Cozmo::Messages::SendText(const char*, ...)
000010  7861              LDRB     r1,[r4,#1]
000012  e8bd4038          POP      {r3-r5,lr}
000016  2000              MOVS     r0,#0
000018  f7ffbffe          B.W      _ZN4Anki5Cozmo22FaceTrackingController13StartTrackingENS1_19FaceSelectionMethodEj ; Anki::Cozmo::FaceTrackingController::StartTracking(Anki::Cozmo::FaceTrackingController::FaceSelectionMethod, unsigned)
                  |L885.28|
00001c  4805              LDR      r0,|L885.52|
00001e  a901              ADD      r1,sp,#4
000020  9000              STR      r0,[sp,#0]
000022  f7fffffe          BL       _ZN4Anki5Cozmo8Messages8SendTextEPKcSt9__va_list ; Anki::Cozmo::Messages::SendText(const char*, std::__va_list)
000026  e8bd4038          POP      {r3-r5,lr}
00002a  f7ffbffe          B.W      _ZN4Anki5Cozmo22FaceTrackingController5ResetEv ; Anki::Cozmo::FaceTrackingController::Reset()
;;;525    ADD_MESSAGE_MEMBER(u8, enabled)
                          ENDP

00002e  0000              DCW      0x0000
                  |L885.48|
                          DCD      ||i._ZN4Anki5Cozmo8Messages26ProcessFaceTrackingMessageERKNS1_12FaceTrackingE||+0x30
                  |L885.52|
                          DCD      ||i._ZN4Anki5Cozmo8Messages26ProcessFaceTrackingMessageERKNS1_12FaceTrackingE||+0x60

                          AREA ||area_number.886||, COMGROUP=_ZN4Anki5Cozmo8Messages26ProcessFaceTrackingMessageEPKh, LINKORDER=||i._ZN4Anki5Cozmo8Messages26ProcessFaceTrackingMessageEPKh||, DATA, READONLY, SECTYPE={SHT_ARM_EXIDX}, ALIGN=2

                          EXPORTAS ||area_number.886||, ||.ARM.exidx||
                          DCD      0x00000000
                          RELOC 42, ||i._ZN4Anki5Cozmo8Messages26ProcessFaceTrackingMessageEPKh||
                          DCD      0x00000001

                          AREA ||i._ZN4Anki5Cozmo8Messages18ProcessPingMessageEPKh||, COMGROUP=_ZN4Anki5Cozmo8Messages18ProcessPingMessageEPKh, CODE, READONLY, ALIGN=2

                  _ZN4Anki5Cozmo8Messages18ProcessPingMessageEPKh PROC ; Anki::Cozmo::Messages::ProcessPingMessage(const unsigned char*)
;;;529    // Ping
;;;530    START_MESSAGE_DEFINITION(Ping, 1)
000000  b510              PUSH     {r4,lr}
000002  f7fffffe          BL       _ZN4Anki5Cozmo3HAL12GetTimeStampEv ; Anki::Cozmo::HAL::GetTimeStamp()
000006  4901              LDR      r1,|L892.12|
000008  6088              STR      r0,[r1,#8]  ; _ZN4Anki5Cozmo8Messages36_GLOBAL__N__12_messages_cpp_0235eab813lastPingTime_E
00000a  bd10              POP      {r4,pc}
;;;531    END_MESSAGE_DEFINITION(Ping)
                          ENDP

                  |L892.12|
                          DCD      ||.data||

                          AREA ||area_number.893||, COMGROUP=_ZN4Anki5Cozmo8Messages18ProcessPingMessageEPKh, LINKORDER=||i._ZN4Anki5Cozmo8Messages18ProcessPingMessageEPKh||, DATA, READONLY, SECTYPE={SHT_ARM_EXIDX}, ALIGN=2

                          EXPORTAS ||area_number.893||, ||.ARM.exidx||
                          DCD      0x00000000
                          RELOC 42, ||i._ZN4Anki5Cozmo8Messages18ProcessPingMessageEPKh||
                          DCD      0x00000001

                          AREA ||i._ZN4Anki5Cozmo8Messages28ProcessPanAndTiltHeadMessageEPKh||, COMGROUP=_ZN4Anki5Cozmo8Messages28ProcessPanAndTiltHeadMessageEPKh, CODE, READONLY, ALIGN=2

                  _ZN4Anki5Cozmo8Messages28ProcessPanAndTiltHeadMessageEPKh PROC ; Anki::Cozmo::Messages::ProcessPanAndTiltHeadMessage(const unsigned char*)
;;;533    // PanAndTiltHead
;;;534    START_MESSAGE_DEFINITION(PanAndTiltHead, 1)
000000  b510              PUSH     {r4,lr}
000002  4604              MOV      r4,r0
000004  ed2d8b02          VPUSH    {d8}
000008  b082              SUB      sp,sp,#8
00000a  f7fffffe          BL       _ZN4Anki5Cozmo14HeadController11GetAngleRadEv ; Anki::Cozmo::HeadController::GetAngleRad()
00000e  edd40a01          VLDR     s1,[r4,#4]
000012  ee300a20          VADD.F32 s0,s0,s1
000016  f7fffffe          BL       _ZN4Anki5Cozmo14HeadController15SetDesiredAngleEf ; Anki::Cozmo::HeadController::SetDesiredAngle(float)
00001a  ed940a00          VLDR     s0,[r4,#0]
00001e  eeb50ac0          VCMPE.F32 s0,#0.0
000022  eef1fa10          VMRS     APSR_nzcv,FPSCR
000026  bf34              ITE      CC
000028  ed9f8a0c          VLDRCC   s16,|L899.92|
00002c  ed9f8a0c          VLDRCS   s16,|L899.96|
000030  4668              MOV      r0,sp
000032  f7fffffe          BL       _ZN4Anki5Cozmo12Localization24GetCurrentMatOrientationEv ; Anki::Cozmo::Localization::GetCurrentMatOrientation()
000036  ed9d0a00          VLDR     s0,[sp,#0]
00003a  ed941a00          VLDR     s2,[r4,#0]
00003e  eef91a04          VMOV.F32 s3,#-5.00000000
000042  eef00a48          VMOV.F32 s1,s16
000046  ee300a01          VADD.F32 s0,s0,s2
00004a  eeb11a04          VMOV.F32 s2,#5.00000000
00004e  f7fffffe          BL       _ZN4Anki5Cozmo18SteeringController16ExecutePointTurnEffff ; Anki::Cozmo::SteeringController::ExecutePointTurn(float, float, float, float)
000052  b002              ADD      sp,sp,#8
000054  ecbd8b02          VPOP     {d8}
000058  bd10              POP      {r4,pc}
;;;535    // TODO: make these fixed point
                          ENDP

00005a  0000              DCW      0x0000
                  |L899.92|
00005c  c2480000          DCFS     0xc2480000 ; -50
                  |L899.96|
000060  42480000          DCFS     0x42480000 ; 50

                          AREA ||area_number.900||, COMGROUP=_ZN4Anki5Cozmo8Messages28ProcessPanAndTiltHeadMessageEPKh, LINKORDER=||i._ZN4Anki5Cozmo8Messages28ProcessPanAndTiltHeadMessageEPKh||, DATA, READONLY, SECTYPE={SHT_ARM_EXIDX}, ALIGN=2

                          EXPORTAS ||area_number.900||, ||.ARM.exidx||
                          DCD      0x00000000
                          RELOC 42, ||i._ZN4Anki5Cozmo8Messages28ProcessPanAndTiltHeadMessageEPKh||
                          DCD      0x00000001

                          AREA ||i._ZN4Anki5Cozmo8Messages36ProcessClientConnectionStatusMessageEPKh||, COMGROUP=_ZN4Anki5Cozmo8Messages36ProcessClientConnectionStatusMessageEPKh, CODE, READONLY, ALIGN=2

                  _ZN4Anki5Cozmo8Messages36ProcessClientConnectionStatusMessageEPKh PROC ; Anki::Cozmo::Messages::ProcessClientConnectionStatusMessage(const unsigned char*)
;;;540    // Client Connected message, not technically from the basestation but still received by robot
;;;541    START_MESSAGE_DEFINITION(ClientConnectionStatus, 1)
000000  b510              PUSH     {r4,lr}
000002  7841              LDRB     r1,[r0,#1]
000004  7800              LDRB     r0,[r0,#0]
000006  f7fffffe          BL       _ZN4Anki5Cozmo3HAL16RadioUpdateStateEhh ; Anki::Cozmo::HAL::RadioUpdateState(unsigned char, unsigned char)
00000a  480b              LDR      r0,|L906.56|
00000c  78c1              LDRB     r1,[r0,#3]  ; firstConnectionUpdateSinceBoot
00000e  2900              CMP      r1,#0
000010  bf08              IT       EQ
000012  bd10              POPEQ    {r4,pc}
000014  2100              MOVS     r1,#0
000016  70c1              STRB     r1,[r0,#3]
000018  e8bd4010          POP      {r4,lr}
00001c  eef51a00          VMOV.F32 s3,#0.25000000
000020  eeb51a00          VMOV.F32 s2,#0.25000000
000024  2103              MOVS     r1,#3
000026  f44f70c8          MOV      r0,#0x190
00002a  eddf0a04          VLDR     s1,|L906.60|
00002e  ed9f0a04          VLDR     s0,|L906.64|
000032  f7ffbffe          B.W      _ZN4Anki5Cozmo14HeadController12StartNoddingEfftiff ; Anki::Cozmo::HeadController::StartNodding(float, float, unsigned short, int, float, float)
;;;542    ADD_MESSAGE_MEMBER(u8, wifiState)
                          ENDP

000036  0000              DCW      0x0000
                  |L906.56|
                          DCD      ||.data||
                  |L906.60|
00003c  3e860a92          DCFS     0x3e860a92 ; 0.2617993950843811
                  |L906.64|
000040  be860a92          DCFS     0xbe860a92 ; -0.2617993950843811

                          AREA ||area_number.907||, COMGROUP=_ZN4Anki5Cozmo8Messages36ProcessClientConnectionStatusMessageEPKh, LINKORDER=||i._ZN4Anki5Cozmo8Messages36ProcessClientConnectionStatusMessageEPKh||, DATA, READONLY, SECTYPE={SHT_ARM_EXIDX}, ALIGN=2

                          EXPORTAS ||area_number.907||, ||.ARM.exidx||
                          DCD      0x00000000
                          RELOC 42, ||i._ZN4Anki5Cozmo8Messages36ProcessClientConnectionStatusMessageEPKh||
                          DCD      0x00000001

                          AREA ||i._ZN4Anki5Cozmo8Messages27ProcessFlashBlockIDsMessageEPKh||, COMGROUP=_ZN4Anki5Cozmo8Messages27ProcessFlashBlockIDsMessageEPKh, CODE, READONLY, ALIGN=1

                  _ZN4Anki5Cozmo8Messages27ProcessFlashBlockIDsMessageEPKh PROC ; Anki::Cozmo::Messages::ProcessFlashBlockIDsMessage(const unsigned char*)
;;;549    // FlashBlockIDs
;;;550    START_MESSAGE_DEFINITION(FlashBlockIDs, 1)
000000  b508              PUSH     {r3,lr}
000002  f7fffffe          BL       _ZN4Anki5Cozmo3HAL13FlashBlockIDsEv ; Anki::Cozmo::HAL::FlashBlockIDs()
000006  f7fffffe          BL       _ZN4Anki5Cozmo3HAL12GetTimeStampEv ; Anki::Cozmo::HAL::GetTimeStamp()
00000a  9000              STR      r0,[sp,#0]
00000c  4669              MOV      r1,sp
00000e  204e              MOVS     r0,#0x4e
000010  f7fffffe          BL       _ZN4Anki5Cozmo3HAL16RadioSendMessageENS0_8Messages2IDEPKv ; Anki::Cozmo::HAL::RadioSendMessage(Anki::Cozmo::Messages::ID, const void*)
000014  bd08              POP      {r3,pc}
;;;551    END_MESSAGE_DEFINITION(FlashBlockIDs)
                          ENDP


                          AREA ||area_number.914||, COMGROUP=_ZN4Anki5Cozmo8Messages27ProcessFlashBlockIDsMessageEPKh, LINKORDER=||i._ZN4Anki5Cozmo8Messages27ProcessFlashBlockIDsMessageEPKh||, DATA, READONLY, SECTYPE={SHT_ARM_EXIDX}, ALIGN=2

                          EXPORTAS ||area_number.914||, ||.ARM.exidx||
                          DCD      0x00000000
                          RELOC 42, ||i._ZN4Anki5Cozmo8Messages27ProcessFlashBlockIDsMessageEPKh||
                          DCD      0x00000001

                          AREA ||i._ZN4Anki5Cozmo8Messages28ProcessSetBlockLightsMessageEPKh||, COMGROUP=_ZN4Anki5Cozmo8Messages28ProcessSetBlockLightsMessageEPKh, CODE, READONLY, ALIGN=1

                  _ZN4Anki5Cozmo8Messages28ProcessSetBlockLightsMessageEPKh PROC ; Anki::Cozmo::Messages::ProcessSetBlockLightsMessage(const unsigned char*)
;;;553    // SetBlockLights
;;;554    START_MESSAGE_DEFINITION(SetBlockLights, 1)
000000  4601              MOV      r1,r0
000002  f8900020          LDRB     r0,[r0,#0x20]
000006  f7ffbffe          B.W      _ZN4Anki5Cozmo3HAL13SetBlockLightEhPKj ; Anki::Cozmo::HAL::SetBlockLight(unsigned char, const unsigned*)
;;;555    ADD_MESSAGE_MEMBER_ARRAY(u32, color, 8)
                          ENDP


                          AREA ||area_number.921||, COMGROUP=_ZN4Anki5Cozmo8Messages28ProcessSetBlockLightsMessageEPKh, LINKORDER=||i._ZN4Anki5Cozmo8Messages28ProcessSetBlockLightsMessageEPKh||, DATA, READONLY, SECTYPE={SHT_ARM_EXIDX}, ALIGN=2

                          EXPORTAS ||area_number.921||, ||.ARM.exidx||
                          DCD      0x00000000
                          RELOC 42, ||i._ZN4Anki5Cozmo8Messages28ProcessSetBlockLightsMessageEPKh||
                          DCD      0x00000001
