Archive member included because of file (symbol)

driver/.output/eagle/release/lib/libdriver.a(cache.o)
                              (Cache_Read_Enable_New)
../lib/libmain_w.a(user_interface.o)
                              driver/.output/eagle/release/lib/libdriver.a(cache.o) (system_rtc_mem_read)
../lib/libmain_w.a(debug-vector.o)
                              (_DebugExceptionVector)
../lib/libmain_w.a(double-vector.o)
                              (_DoubleExceptionVector)
../lib/libmain_w.a(kernel-vector.o)
                              (_KernelExceptionVector)
../lib/libmain_w.a(nmi-vector.o)
                              (_NMIExceptionVector)
../lib/libmain_w.a(user-vector.o)
                              (_UserExceptionVector)
../lib/libmain_w.a(vector.o)  (call_user_start)
../lib/libmain_w.a(app_main.o)
                              ../lib/libmain_w.a(user_interface.o) (info)
../lib/libmain_w.a(eagle_lib.o)
                              ../lib/libmain_w.a(user_interface.o) (ets_sprintf)
../lib/libmain_w.a(eagle_lwip_if.o)
                              ../lib/libmain_w.a(user_interface.o) (hostname)
../lib/libmain_w.a(ets_timer.o)
                              ../lib/libmain_w.a(user_interface.o) (ets_timer_setfn)
../lib/libmain_w.a(mem_manager.o)
                              ../lib/libmain_w.a(user_interface.o) (xPortWantedSizeAlign)
../lib/libmain_w.a(spi_flash.o)
                              ../lib/libmain_w.a(app_main.o) (spi_flash_get_id)
/opt/xtensa-lx106-elf/bin/../xtensa-lx106-elf/sysroot/usr/lib/libhal.a(int_asm--set_intclear.o)
                              ../lib/libmain_w.a(app_main.o) (xthal_set_intclear)
hal/.output/eagle/release/lib/libuserhal.a(user_main.o)
                              ../lib/libmain_w.a(app_main.o) (user_init)
hal/.output/eagle/release/lib/libuserhal.a(client.o)
                              hal/.output/eagle/release/lib/libuserhal.a(user_main.o) (clientInit)
hal/.output/eagle/release/lib/libuserhal.a(foregroundTask.o)
                              hal/.output/eagle/release/lib/libuserhal.a(user_main.o) (foregroundTaskInit)
driver/.output/eagle/release/lib/libdriver.a(crash.o)
                              hal/.output/eagle/release/lib/libuserhal.a(user_main.o) (crashHandlerInit)
driver/.output/eagle/release/lib/libdriver.a(factoryData.o)
                              hal/.output/eagle/release/lib/libuserhal.a(user_main.o) (factoryDataInit)
driver/.output/eagle/release/lib/libdriver.a(i2spi.o)
                              hal/.output/eagle/release/lib/libuserhal.a(user_main.o) (i2spiInit)
driver/.output/eagle/release/lib/libdriver.a(uart.o)
                              driver/.output/eagle/release/lib/libdriver.a(crash.o) (os_put_char)
transport/.output/eagle/release/lib/libtransport.a(reliableTransport.o)
                              hal/.output/eagle/release/lib/libuserhal.a(client.o) (ReliableTransport_Init)
transport/.output/eagle/release/lib/libtransport.a(reliableMessageTypes.o)
                              transport/.output/eagle/release/lib/libtransport.a(reliableTransport.o) (IsMessageTypeAlwaysSentUnreliably)
transport/.output/eagle/release/lib/libtransport.a(reliableSequenceId.o)
                              transport/.output/eagle/release/lib/libtransport.a(reliableTransport.o) (PreviousSequenceId)
application/.output/eagle/release/lib/libapplication.a(backgroundTask.o)
                              hal/.output/eagle/release/lib/libuserhal.a(user_main.o) (backgroundTaskInit)
application/.output/eagle/release/lib/libapplication.a(crashReporter.o)
                              application/.output/eagle/release/lib/libapplication.a(backgroundTask.o) (_ZN4Anki5Cozmo13CrashReporter4InitEv)
application/.output/eagle/release/lib/libapplication.a(dhTask.o)
                              application/.output/eagle/release/lib/libapplication.a(backgroundTask.o) (_ZN13DiffieHellman4InitEv)
application/.output/eagle/release/lib/libapplication.a(face.o)
                              driver/.output/eagle/release/lib/libdriver.a(crash.o) (m_frame)
application/.output/eagle/release/lib/libapplication.a(messages.o)
                              application/.output/eagle/release/lib/libapplication.a(backgroundTask.o) (_ZN4Anki5Cozmo14RobotInterface7SendLogEatthz)
application/.output/eagle/release/lib/libapplication.a(nvStorage.o)
                              hal/.output/eagle/release/lib/libuserhal.a(user_main.o) (NVInit)
application/.output/eagle/release/lib/libapplication.a(rtip.o)
                              application/.output/eagle/release/lib/libapplication.a(backgroundTask.o) (_ZN4Anki5Cozmo4RTIP4InitEv)
application/.output/eagle/release/lib/libapplication.a(upgradeController.o)
                              application/.output/eagle/release/lib/libapplication.a(backgroundTask.o) (_ZN4Anki5Cozmo17UpgradeController4InitEv)
application/.output/eagle/release/lib/libapplication.a(activeObjectManager.o)
                              application/.output/eagle/release/lib/libapplication.a(backgroundTask.o) (_ZN4Anki5Cozmo19ActiveObjectManager4InitEv)
factory/.output/eagle/release/lib/libfactory.a(factoryTests.o)
                              application/.output/eagle/release/lib/libapplication.a(backgroundTask.o) (_ZN4Anki5Cozmo7Factory4InitEv)
supervisor/.output/eagle/release/lib/libsupervisor.a(animationController.o)
                              application/.output/eagle/release/lib/libapplication.a(backgroundTask.o) (_ZN4Anki5Cozmo19AnimationController19ClearNumBytesPlayedEv)
crypto/.output/eagle/release/lib/libusercrypto.a(sha512.o)
                              application/.output/eagle/release/lib/libapplication.a(upgradeController.o) (_Z11sha512_initR12sha512_state)
crypto/.output/eagle/release/lib/libusercrypto.a(bignum.o)
                              application/.output/eagle/release/lib/libapplication.a(dhTask.o) (_Z12big_multiplyR9big_num_tRKS_S2_)
crypto/.output/eagle/release/lib/libusercrypto.a(rsa_pss.o)
                              application/.output/eagle/release/lib/libapplication.a(upgradeController.o) (_Z11verify_initR12cert_state_tRK10big_mont_tRK9big_rsa_tPKhS8_i)
crypto/.output/eagle/release/lib/libusercrypto.a(crc32.o)
                              application/.output/eagle/release/lib/libapplication.a(upgradeController.o) (_Z10calc_crc32PKhi)
crypto/.output/eagle/release/lib/libusercrypto.a(aes.o)
                              application/.output/eagle/release/lib/libapplication.a(upgradeController.o) (_Z14aes_cfb_decodePKvS0_PKhPhiPv)
../lib/libphy.a(phy.o)        ../lib/libmain_w.a(app_main.o) (phy_enable_agc)
../lib/libphy.a(phy_chip_v6_ana.o)
                              ../lib/libmain_w.a(app_main.o) (chip_v6_set_chan_offset)
../lib/libphy.a(phy_chip_v6.o)
                              ../lib/libphy.a(phy_chip_v6_ana.o) (g_phyFuns)
../lib/libphy.a(phy_chip_v6_cal.o)
                              ../lib/libphy.a(phy_chip_v6.o) (phy_tx_pwr_error)
../lib/libphy.a(phy_chip_v6_unused.o)
                              ../lib/libphy.a(phy_chip_v6.o) (chip_v6_set_sense)
../lib/libphy.a(phy_sleep.o)  ../lib/libphy.a(phy_chip_v6.o) (pm_set_sleep_cycles)
../lib/libpp.a(if_hwctrl.o)   ../lib/libmain_w.a(user_interface.o) (ic_set_vif)
../lib/libpp.a(lmac.o)        ../lib/libmain_w.a(app_main.o) (lmacInit)
../lib/libpp.a(pm.o)          ../lib/libmain_w.a(user_interface.o) (pm_rtc_clock_cali_proc)
../lib/libpp.a(pm_for_bcn_only_mode.o)
                              ../lib/libpp.a(pm.o) (fpm_is_open)
../lib/libpp.a(pp.o)          ../lib/libpp.a(pm.o) (pend_flag_noise_check)
../lib/libpp.a(rate_control.o)
                              ../lib/libpp.a(lmac.o) (RC_SetBasicRate)
../lib/libpp.a(trc.o)         ../lib/libmain_w.a(user_interface.o) (rc_set_rate_limit_id)
../lib/libpp.a(wdev.o)        ../lib/libpp.a(pp.o) (wDevCtrl)
../lib/libpp.a(esf_buf.o)     ../lib/libpp.a(wdev.o) (esf_rx_buf_alloc)
../lib/libnet80211.a(ieee80211.o)
                              ../lib/libmain_w.a(user_interface.o) (g_ic)
../lib/libnet80211.a(ieee80211_crypto.o)
                              ../lib/libnet80211.a(ieee80211.o) (ieee80211_crypto_attach)
../lib/libnet80211.a(ieee80211_ets.o)
                              ../lib/libpp.a(pm.o) (ieee80211_getmgtframe)
../lib/libnet80211.a(ieee80211_hostap.o)
                              ../lib/libmain_w.a(user_interface.o) (BcnEb_update)
../lib/libnet80211.a(ieee80211_ht.o)
                              ../lib/libmain_w.a(user_interface.o) (ieee80211_ht_attach)
../lib/libnet80211.a(ieee80211_input.o)
                              ../lib/libnet80211.a(ieee80211_hostap.o) (ieee80211_decap)
../lib/libnet80211.a(ieee80211_mesh_quick.o)
                              ../lib/libnet80211.a(ieee80211_hostap.o) (ieee80211_mesh_quick_get)
../lib/libnet80211.a(ieee80211_output.o)
                              ../lib/libmain_w.a(eagle_lwip_if.o) (ieee80211_output_pbuf)
../lib/libnet80211.a(ieee80211_phy.o)
                              ../lib/libmain_w.a(user_interface.o) (ieee80211_phy_init)
../lib/libnet80211.a(ieee80211_power.o)
                              ../lib/libnet80211.a(ieee80211_hostap.o) (ieee80211_psq_init)
../lib/libnet80211.a(ieee80211_proto.o)
                              ../lib/libnet80211.a(ieee80211.o) (ieee80211_proto_attach)
../lib/libnet80211.a(ieee80211_rfid.o)
                              ../lib/libmain_w.a(user_interface.o) (ieee80211_rfid_locp_recv_open)
../lib/libnet80211.a(ieee80211_scan.o)
                              ../lib/libpp.a(pp.o) (gScanStruct)
../lib/libnet80211.a(ieee80211_sta.o)
                              ../lib/libmain_w.a(user_interface.o) (ieee80211_sta_new_state)
../lib/libnet80211.a(wl_chm.o)
                              ../lib/libnet80211.a(ieee80211.o) (chm_init)
../lib/libnet80211.a(wl_cnx.o)
                              ../lib/libmain_w.a(user_interface.o) (sta_con_timer)
../lib/libnet80211.a(ieee80211_action.o)
                              ../lib/libnet80211.a(ieee80211_ht.o) (ieee80211_send_action_register)
../lib/libnet80211.a(ieee80211_action_vendor.o)
                              ../lib/libnet80211.a(ieee80211.o) (ieee80211_action_vendor_spec_attach)
../lib/libnet80211.a(ieee80211_crypto_ccmp.o)
                              ../lib/libnet80211.a(ieee80211_input.o) (ccmp)
../lib/libnet80211.a(ieee80211_ie_vendor.o)
                              ../lib/libnet80211.a(ieee80211_mesh_quick.o) (ieee80211_add_ie_vendor_esp_mesh_assoc)
../lib/liblwip.a(dhcp.o)      ../lib/libnet80211.a(wl_cnx.o) (dhcp_release)
../lib/liblwip.a(dhcpserver.o)
                              ../lib/libmain_w.a(user_interface.o) (dhcps_start)
../lib/liblwip.a(dns.o)       ../lib/liblwip.a(dhcp.o) (dns_setserver)
../lib/liblwip.a(espconn.o)   hal/.output/eagle/release/lib/libuserhal.a(client.o) (espconn_create)
../lib/liblwip.a(espconn_tcp.o)
                              ../lib/liblwip.a(espconn.o) (espconn_tcp_disconnect)
../lib/liblwip.a(espconn_udp.o)
                              ../lib/liblwip.a(espconn.o) (espconn_udp_sent)
../lib/liblwip.a(etharp.o)    ../lib/libmain_w.a(user_interface.o) (ethbroadcast)
../lib/liblwip.a(igmp.o)      ../lib/liblwip.a(espconn_udp.o) (igmp_joingroup)
../lib/liblwip.a(inet_chksum.o)
                              ../lib/liblwip.a(igmp.o) (inet_chksum)
../lib/liblwip.a(init.o)      ../lib/libmain_w.a(app_main.o) (lwip_init)
../lib/liblwip.a(ip_addr.o)   ../lib/liblwip.a(dhcp.o) (ip_addr_any)
../lib/liblwip.a(ip.o)        ../lib/liblwip.a(etharp.o) (ip_input)
../lib/liblwip.a(memp.o)      ../lib/liblwip.a(etharp.o) (memp_sizes)
../lib/liblwip.a(netif.o)     ../lib/liblwip.a(dhcp.o) (netif_list)
../lib/liblwip.a(pbuf.o)      ../lib/libnet80211.a(ieee80211_hostap.o) (pbuf_alloc)
../lib/liblwip.a(raw.o)       ../lib/liblwip.a(ip.o) (raw_input)
../lib/liblwip.a(tcp_in.o)    ../lib/liblwip.a(ip.o) (tcp_input)
../lib/liblwip.a(tcp.o)       ../lib/liblwip.a(espconn_tcp.o) (tcp_active_pcbs)
../lib/liblwip.a(tcp_out.o)   ../lib/liblwip.a(tcp.o) (tcp_send_fin)
../lib/liblwip.a(timers.o)    ../lib/liblwip.a(tcp_in.o) (tcp_timer_needed)
../lib/liblwip.a(udp.o)       ../lib/liblwip.a(ip.o) (udp_input)
../lib/liblwip.a(icmp.o)      ../lib/liblwip.a(ip.o) (icmp_input)
../lib/libwpa.a(ap_config.o)  ../lib/libnet80211.a(ieee80211_hostap.o) (hostapd_setup_wpa_psk)
../lib/libwpa.a(common.o)     ../lib/libmain_w.a(user_interface.o) (hexstr2bin)
../lib/libwpa.a(os_xtensa.o)  ../lib/libwpa.a(common.o) (os_get_time)
../lib/libwpa.a(wpa_auth.o)   ../lib/libnet80211.a(ieee80211_hostap.o) (wpa_init)
../lib/libwpa.a(wpa_auth_ie.o)
                              ../lib/libwpa.a(wpa_auth.o) (wpa_auth_gen_wpa_ie)
../lib/libwpa.a(wpa.o)        ../lib/libnet80211.a(ieee80211_sta.o) (wpa_sm_rx_eapol)
../lib/libwpa.a(wpa_common.o)
                              ../lib/libwpa.a(wpa_auth_ie.o) (wpa_parse_wpa_ie_rsn)
../lib/libwpa.a(wpa_debug.o)  ../lib/libwpa.a(wpa_auth.o) (eloop_cancel_timeout)
../lib/libwpa.a(wpa_ie.o)     ../lib/libnet80211.a(ieee80211_scan.o) (wpa_parse_wpa_ie)
../lib/libwpa.a(wpa_main.o)   ../lib/libnet80211.a(wl_cnx.o) (ppInstallKey)
../lib/libwpa.a(wpas_glue.o)  ../lib/libwpa.a(wpa.o) (wpa_sm_alloc_eapol)
/opt/xtensa-lx106-elf/bin/../lib/gcc/xtensa-lx106-elf/4.8.2/../../../../xtensa-lx106-elf/lib/libc.a(lib_a-atoi.o)
                              application/.output/eagle/release/lib/libapplication.a(upgradeController.o) (atoi)
/opt/xtensa-lx106-elf/bin/../lib/gcc/xtensa-lx106-elf/4.8.2/../../../../xtensa-lx106-elf/lib/libc.a(lib_a-memcpy.o)
                              application/.output/eagle/release/lib/libapplication.a(dhTask.o) (memcpy)
/opt/xtensa-lx106-elf/bin/../lib/gcc/xtensa-lx106-elf/4.8.2/../../../../xtensa-lx106-elf/lib/libc.a(lib_a-memset.o)
                              application/.output/eagle/release/lib/libapplication.a(activeObjectManager.o) (memset)
/opt/xtensa-lx106-elf/bin/../lib/gcc/xtensa-lx106-elf/4.8.2/../../../../xtensa-lx106-elf/lib/libc.a(lib_a-strtol.o)
                              /opt/xtensa-lx106-elf/bin/../lib/gcc/xtensa-lx106-elf/4.8.2/../../../../xtensa-lx106-elf/lib/libc.a(lib_a-atoi.o) (_strtol_r)
/opt/xtensa-lx106-elf/bin/../lib/gcc/xtensa-lx106-elf/4.8.2/../../../../xtensa-lx106-elf/lib/libc.a(lib_a-ctype_.o)
                              /opt/xtensa-lx106-elf/bin/../lib/gcc/xtensa-lx106-elf/4.8.2/../../../../xtensa-lx106-elf/lib/libc.a(lib_a-strtol.o) (__ctype_ptr__)
/opt/xtensa-lx106-elf/bin/../lib/gcc/xtensa-lx106-elf/4.8.2/../../../../xtensa-lx106-elf/lib/libc.a(lib_a-impure.o)
                              /opt/xtensa-lx106-elf/bin/../lib/gcc/xtensa-lx106-elf/4.8.2/../../../../xtensa-lx106-elf/lib/libc.a(lib_a-strtol.o) (_impure_ptr)
../lib/libgcc.a(_modsi3.o)    ../lib/libphy.a(phy_chip_v6.o) (__modsi3)
../lib/libgcc.a(_ashldi3.o)   application/.output/eagle/release/lib/libapplication.a(face.o) (__ashldi3)
../lib/libgcc.a(_ashrdi3.o)   ../lib/libphy.a(phy_chip_v6.o) (__ashrdi3)
../lib/libgcc.a(_mulsf3.o)    ../lib/libphy.a(phy_chip_v6_ana.o) (__mulsf3)
../lib/libgcc.a(_divsf3.o)    ../lib/libphy.a(phy_chip_v6_ana.o) (__divsf3)
../lib/libgcc.a(_fixsfsi.o)   ../lib/libphy.a(phy_chip_v6.o) (__fixsfsi)
hal/.output/eagle/release/lib/libuserhal.a(radio.o)
                              application/.output/eagle/release/lib/libapplication.a(backgroundTask.o) (_ZN4Anki5Cozmo3HAL16RadioSendMessageEPKvth)
hal/.output/eagle/release/lib/libuserhal.a(wifi_configuration.o)
                              application/.output/eagle/release/lib/libapplication.a(backgroundTask.o) (_ZN4Anki5Cozmo17WiFiConfiguration4InitEv)
clad/.output/eagle/release/lib/libclad.a(messageEngineToRobot.o)
                              application/.output/eagle/release/lib/libapplication.a(crashReporter.o) (_ZNK4Anki5Cozmo16WriteBodyStorage4SizeEv)
clad/.output/eagle/release/lib/libclad.a(messageRobotToEngine.o)
                              application/.output/eagle/release/lib/libapplication.a(messages.o) (_ZNK4Anki5Cozmo14RobotInterface20NVReadResultToEngine4SizeEv)
clad/.output/eagle/release/lib/libclad.a(otaMessages.o)
                              clad/.output/eagle/release/lib/libclad.a(messageRobotToEngine.o) (_ZNK4Anki5Cozmo14RobotInterface15FirmwareVersion7IsValidEv)
clad/.output/eagle/release/lib/libclad.a(animationKeyFrames.o)
                              clad/.output/eagle/release/lib/libclad.a(messageEngineToRobot.o) (_ZNK4Anki5Cozmo12AnimKeyFrame9FaceImage7IsValidEv)
clad/.output/eagle/release/lib/libclad.a(imageTypes.o)
                              clad/.output/eagle/release/lib/libclad.a(messageRobotToEngine.o) (_ZNK4Anki5Cozmo10ImageChunk7IsValidEv)
clad/.output/eagle/release/lib/libclad.a(nvStorage.o)
                              clad/.output/eagle/release/lib/libclad.a(messageEngineToRobot.o) (_ZNK4Anki5Cozmo9NVStorage13NVStorageBlob7IsValidEv)
clad/.output/eagle/release/lib/libclad.a(robotLogging.o)
                              clad/.output/eagle/release/lib/libclad.a(messageRobotToEngine.o) (_ZNK4Anki5Cozmo14RobotInterface10PrintTrace7IsValidEv)
../lib/libnet80211.a(ieee80211_crypto_tkip.o)
                              ../lib/libwpa.a(wpa_auth.o) (tkip)
../lib/libnet80211.a(ieee80211_crypto_wep.o)
                              ../lib/libwpa.a(wpa_auth.o) (wep)
../lib/libcrypto.a(aes-wrap.o)
                              ../lib/libwpa.a(wpa_auth.o) (aes_wrap)
../lib/libcrypto.a(aes-internal-enc.o)
                              ../lib/libcrypto.a(aes-wrap.o) (aes_encrypt_init)
../lib/libcrypto.a(aes-internal.o)
                              ../lib/libcrypto.a(aes-internal-enc.o) (rijndaelKeySetupEnc)

Allocating common symbols
Common symbol       size              file

i2spiPhaseErrorCount
                    0x4               driver/.output/eagle/release/lib/libdriver.a(i2spi.o)
i2spiTaskQ          0xc0              driver/.output/eagle/release/lib/libdriver.a(i2spi.o)
i2spiIntegralDrift  0x4               driver/.output/eagle/release/lib/libdriver.a(i2spi.o)
i2spiTxUnderflowCount
                    0x4               driver/.output/eagle/release/lib/libdriver.a(i2spi.o)
i2spiTxOverflowCount
                    0x4               driver/.output/eagle/release/lib/libdriver.a(i2spi.o)
g_conn              0xca0             hal/.output/eagle/release/lib/libuserhal.a(client.o)
wifiPsk             0xc               hal/.output/eagle/release/lib/libuserhal.a(user_main.o)

Discarded input sections

 .group         0x0000000000000000       0x14 application/.output/eagle/release/lib/libapplication.a(crashReporter.o)
 .group         0x0000000000000000       0x14 application/.output/eagle/release/lib/libapplication.a(upgradeController.o)

Memory Configuration

Name             Origin             Length             Attributes
dport0_0_seg     0x000000003ff00000 0x0000000000000010
dram0_0_seg      0x000000003ffe8000 0x0000000000014000
iram1_0_seg      0x0000000040100000 0x0000000000008000
irom0_0_seg      0x0000000040203030 0x000000000006b000
*default*        0x0000000000000000 0xffffffffffffffff

Linker script and memory map

START GROUP
LOAD /opt/xtensa-lx106-elf/bin/../lib/gcc/xtensa-lx106-elf/4.8.2/../../../../xtensa-lx106-elf/lib/libc.a
LOAD ../lib/libgcc.a
LOAD /opt/xtensa-lx106-elf/bin/../xtensa-lx106-elf/sysroot/usr/lib/libhal.a
LOAD hal/.output/eagle/release/lib/libuserhal.a
LOAD driver/.output/eagle/release/lib/libdriver.a
LOAD transport/.output/eagle/release/lib/libtransport.a
LOAD clad/.output/eagle/release/lib/libclad.a
LOAD application/.output/eagle/release/lib/libapplication.a
LOAD factory/.output/eagle/release/lib/libfactory.a
LOAD supervisor/.output/eagle/release/lib/libsupervisor.a
LOAD crypto/.output/eagle/release/lib/libusercrypto.a
LOAD ../lib/libphy.a
LOAD ../lib/libpp.a
LOAD ../lib/libnet80211.a
LOAD ../lib/libcrypto.a
LOAD ../lib/liblwip.a
LOAD ../lib/libwpa.a
LOAD ../lib/libmain_w.a
LOAD ../lib/libjson.a
LOAD ../lib/libssl.a
LOAD ../lib/libpwm.a
LOAD ../lib/libsmartconfig.a
END GROUP
                0x0000000040000000                PROVIDE (_memmap_vecbase_reset, 0x40000000)
                0x0000000000000110                _memmap_cacheattr_wb_base = 0x110
                0x0000000000000110                _memmap_cacheattr_wt_base = 0x110
                0x0000000000000220                _memmap_cacheattr_bp_base = 0x220
                0x00000000fffff00f                _memmap_cacheattr_unused_mask = 0xfffff00f
                0x000000002222211f                _memmap_cacheattr_wb_trapnull = 0x2222211f
                0x000000002222211f                _memmap_cacheattr_wba_trapnull = 0x2222211f
                0x000000002222211f                _memmap_cacheattr_wbna_trapnull = 0x2222211f
                0x000000002222211f                _memmap_cacheattr_wt_trapnull = 0x2222211f
                0x000000002222222f                _memmap_cacheattr_bp_trapnull = 0x2222222f
                0x00000000fffff11f                _memmap_cacheattr_wb_strict = 0xfffff11f
                0x00000000fffff11f                _memmap_cacheattr_wt_strict = 0xfffff11f
                0x00000000fffff22f                _memmap_cacheattr_bp_strict = 0xfffff22f
                0x0000000022222112                _memmap_cacheattr_wb_allvalid = 0x22222112
                0x0000000022222112                _memmap_cacheattr_wt_allvalid = 0x22222112
                0x0000000022222222                _memmap_cacheattr_bp_allvalid = 0x22222222
                0x000000002222211f                PROVIDE (_memmap_cacheattr_reset, _memmap_cacheattr_wb_trapnull)

.dport0.rodata  0x000000003ff00000        0x0
                0x000000003ff00000                _dport0_rodata_start = ABSOLUTE (.)
 *(.dport0.rodata)
 *(.dport.rodata)
                0x000000003ff00000                _dport0_rodata_end = ABSOLUTE (.)

.dport0.literal
                0x000000003ff00000        0x0
                0x000000003ff00000                _dport0_literal_start = ABSOLUTE (.)
 *(.dport0.literal)
 *(.dport.literal)
                0x000000003ff00000                _dport0_literal_end = ABSOLUTE (.)

.dport0.data    0x000000003ff00000        0x0
                0x000000003ff00000                _dport0_data_start = ABSOLUTE (.)
 *(.dport0.data)
 *(.dport.data)
                0x000000003ff00000                _dport0_data_end = ABSOLUTE (.)

.data           0x000000003ffe8000      0x7ab
                0x000000003ffe8000                _data_start = ABSOLUTE (.)
 *(.data)
 .data          0x000000003ffe8000        0x0 driver/.output/eagle/release/lib/libdriver.a(cache.o)
 .data          0x000000003ffe8000        0x6 ../lib/libmain_w.a(user_interface.o)
                0x000000003ffe8001                timer2_ms_flag
                0x000000003ffe8002                dhcps_flag
                0x000000003ffe8003                dhcpc_flag
                0x000000003ffe8005                reconnect_internal
 .data          0x000000003ffe8006        0x0 ../lib/libmain_w.a(debug-vector.o)
 .data          0x000000003ffe8006        0x0 ../lib/libmain_w.a(double-vector.o)
 .data          0x000000003ffe8006        0x0 ../lib/libmain_w.a(kernel-vector.o)
 .data          0x000000003ffe8006        0x4 ../lib/libmain_w.a(nmi-vector.o)
                0x000000003ffe8006                _Pri_3_HandlerAddress
 .data          0x000000003ffe800a        0x0 ../lib/libmain_w.a(user-vector.o)
 .data          0x000000003ffe800a        0x0 ../lib/libmain_w.a(vector.o)
 *fill*         0x000000003ffe800a        0x2 
 .data          0x000000003ffe800c        0x1 ../lib/libmain_w.a(app_main.o)
 .data          0x000000003ffe800d        0x0 ../lib/libmain_w.a(eagle_lib.o)
 *fill*         0x000000003ffe800d        0x3 
 .data          0x000000003ffe8010        0x1 ../lib/libmain_w.a(eagle_lwip_if.o)
                0x000000003ffe8010                default_hostname
 .data          0x000000003ffe8011        0x0 ../lib/libmain_w.a(ets_timer.o)
 .data          0x000000003ffe8011        0x0 ../lib/libmain_w.a(mem_manager.o)
 .data          0x000000003ffe8011        0x0 ../lib/libmain_w.a(spi_flash.o)
 .data          0x000000003ffe8011        0x0 /opt/xtensa-lx106-elf/bin/../xtensa-lx106-elf/sysroot/usr/lib/libhal.a(int_asm--set_intclear.o)
 .data          0x000000003ffe8011        0x0 hal/.output/eagle/release/lib/libuserhal.a(user_main.o)
 .data          0x000000003ffe8011        0x0 hal/.output/eagle/release/lib/libuserhal.a(client.o)
 .data          0x000000003ffe8011        0x0 hal/.output/eagle/release/lib/libuserhal.a(foregroundTask.o)
 .data          0x000000003ffe8011        0x0 driver/.output/eagle/release/lib/libdriver.a(crash.o)
 .data          0x000000003ffe8011        0x0 driver/.output/eagle/release/lib/libdriver.a(factoryData.o)
 .data          0x000000003ffe8011        0x0 driver/.output/eagle/release/lib/libdriver.a(i2spi.o)
 .data          0x000000003ffe8011        0x0 driver/.output/eagle/release/lib/libdriver.a(uart.o)
 .data          0x000000003ffe8011        0x0 transport/.output/eagle/release/lib/libtransport.a(reliableTransport.o)
 .data          0x000000003ffe8011        0x0 transport/.output/eagle/release/lib/libtransport.a(reliableMessageTypes.o)
 .data          0x000000003ffe8011        0x0 transport/.output/eagle/release/lib/libtransport.a(reliableSequenceId.o)
 .data          0x000000003ffe8011        0x0 application/.output/eagle/release/lib/libapplication.a(backgroundTask.o)
 .data          0x000000003ffe8011        0x0 application/.output/eagle/release/lib/libapplication.a(crashReporter.o)
 .data          0x000000003ffe8011        0x0 application/.output/eagle/release/lib/libapplication.a(dhTask.o)
 .data          0x000000003ffe8011        0x0 application/.output/eagle/release/lib/libapplication.a(face.o)
 .data          0x000000003ffe8011        0x0 application/.output/eagle/release/lib/libapplication.a(messages.o)
 .data          0x000000003ffe8011        0x0 application/.output/eagle/release/lib/libapplication.a(nvStorage.o)
 .data          0x000000003ffe8011        0x0 application/.output/eagle/release/lib/libapplication.a(rtip.o)
 .data          0x000000003ffe8011        0x0 application/.output/eagle/release/lib/libapplication.a(upgradeController.o)
 .data          0x000000003ffe8011        0x0 application/.output/eagle/release/lib/libapplication.a(activeObjectManager.o)
 .data          0x000000003ffe8011        0x0 factory/.output/eagle/release/lib/libfactory.a(factoryTests.o)
 .data          0x000000003ffe8011        0x0 supervisor/.output/eagle/release/lib/libsupervisor.a(animationController.o)
 .data          0x000000003ffe8011        0x0 crypto/.output/eagle/release/lib/libusercrypto.a(sha512.o)
 .data          0x000000003ffe8011        0x0 crypto/.output/eagle/release/lib/libusercrypto.a(bignum.o)
 .data          0x000000003ffe8011        0x0 crypto/.output/eagle/release/lib/libusercrypto.a(rsa_pss.o)
 .data          0x000000003ffe8011        0x0 crypto/.output/eagle/release/lib/libusercrypto.a(crc32.o)
 .data          0x000000003ffe8011        0x0 crypto/.output/eagle/release/lib/libusercrypto.a(aes.o)
 .data          0x000000003ffe8011        0x0 ../lib/libphy.a(phy.o)
 .data          0x000000003ffe8011        0x0 ../lib/libphy.a(phy_chip_v6_ana.o)
 *fill*         0x000000003ffe8011        0xf 
 .data          0x000000003ffe8020       0x53 ../lib/libphy.a(phy_chip_v6.o)
                0x000000003ffe8022                tx_rf_ana_gain
                0x000000003ffe8050                rx_gain_swp
                0x000000003ffe8070                test_rffreq_txcap
 *fill*         0x000000003ffe8073        0x1 
 .data          0x000000003ffe8074        0x1 ../lib/libphy.a(phy_chip_v6_cal.o)
                0x000000003ffe8074                rfcal_bb_atten_init
 .data          0x000000003ffe8075        0x0 ../lib/libphy.a(phy_chip_v6_unused.o)
 *fill*         0x000000003ffe8075        0x3 
 .data          0x000000003ffe8078        0x4 ../lib/libphy.a(phy_sleep.o)
                0x000000003ffe8078                chip_version
 .data          0x000000003ffe807c        0x0 ../lib/libpp.a(if_hwctrl.o)
 .data          0x000000003ffe807c        0x0 ../lib/libpp.a(lmac.o)
 .data          0x000000003ffe807c        0x1 ../lib/libpp.a(pm.o)
 *fill*         0x000000003ffe807d        0x3 
 .data          0x000000003ffe8080        0x1 ../lib/libpp.a(pm_for_bcn_only_mode.o)
 *fill*         0x000000003ffe8081        0x3 
 .data          0x000000003ffe8084       0x1c ../lib/libpp.a(pp.o)
                0x000000003ffe8084                soft_wdt_interval
                0x000000003ffe8088                NoiseTimerInterval
                0x000000003ffe8090                sleep_start_wait_time
                0x000000003ffe8098                CanDoFreqCal
                0x000000003ffe809c                tcb
 .data          0x000000003ffe80a0       0x40 ../lib/libpp.a(rate_control.o)
 .data          0x000000003ffe80e0      0x24c ../lib/libpp.a(trc.o)
 .data          0x000000003ffe832c        0x8 ../lib/libpp.a(wdev.o)
 .data          0x000000003ffe8334        0x0 ../lib/libpp.a(esf_buf.o)
 .data          0x000000003ffe8334        0x0 ../lib/libnet80211.a(ieee80211.o)
 .data          0x000000003ffe8334        0x0 ../lib/libnet80211.a(ieee80211_crypto.o)
 .data          0x000000003ffe8334        0x0 ../lib/libnet80211.a(ieee80211_ets.o)
 .data          0x000000003ffe8334        0x1 ../lib/libnet80211.a(ieee80211_hostap.o)
                0x000000003ffe8334                TmpSTAAPCloseAP
 .data          0x000000003ffe8335        0x0 ../lib/libnet80211.a(ieee80211_ht.o)
 .data          0x000000003ffe8335        0x0 ../lib/libnet80211.a(ieee80211_input.o)
 .data          0x000000003ffe8335        0x0 ../lib/libnet80211.a(ieee80211_mesh_quick.o)
 .data          0x000000003ffe8335        0x0 ../lib/libnet80211.a(ieee80211_output.o)
 .data          0x000000003ffe8335        0x0 ../lib/libnet80211.a(ieee80211_phy.o)
 .data          0x000000003ffe8335        0x0 ../lib/libnet80211.a(ieee80211_power.o)
 .data          0x000000003ffe8335        0x0 ../lib/libnet80211.a(ieee80211_proto.o)
 .data          0x000000003ffe8335        0x0 ../lib/libnet80211.a(ieee80211_rfid.o)
 .data          0x000000003ffe8335        0x0 ../lib/libnet80211.a(ieee80211_scan.o)
 .data          0x000000003ffe8335        0x0 ../lib/libnet80211.a(ieee80211_sta.o)
 .data          0x000000003ffe8335        0x0 ../lib/libnet80211.a(wl_chm.o)
 *fill*         0x000000003ffe8335        0x3 
 .data          0x000000003ffe8338        0x1 ../lib/libnet80211.a(wl_cnx.o)
 *fill*         0x000000003ffe8339        0x7 
 .data          0x000000003ffe8340       0x1c ../lib/libnet80211.a(ieee80211_action.o)
 .data          0x000000003ffe835c        0x0 ../lib/libnet80211.a(ieee80211_action_vendor.o)
 .data          0x000000003ffe835c        0x0 ../lib/libnet80211.a(ieee80211_crypto_ccmp.o)
 .data          0x000000003ffe835c        0x0 ../lib/libnet80211.a(ieee80211_ie_vendor.o)
 .data          0x000000003ffe835c        0x4 ../lib/liblwip.a(dhcp.o)
 .data          0x000000003ffe8360        0x5 ../lib/liblwip.a(dhcpserver.o)
                0x000000003ffe8360                dhcps_lease_time
 .data          0x000000003ffe8365        0x0 ../lib/liblwip.a(dns.o)
 .data          0x000000003ffe8365        0x0 ../lib/liblwip.a(espconn.o)
 .data          0x000000003ffe8365        0x0 ../lib/liblwip.a(espconn_tcp.o)
 .data          0x000000003ffe8365        0x0 ../lib/liblwip.a(espconn_udp.o)
 .data          0x000000003ffe8365        0x0 ../lib/liblwip.a(etharp.o)
 .data          0x000000003ffe8365        0x0 ../lib/liblwip.a(igmp.o)
 .data          0x000000003ffe8365        0x0 ../lib/liblwip.a(inet_chksum.o)
 .data          0x000000003ffe8365        0x0 ../lib/liblwip.a(init.o)
 .data          0x000000003ffe8365        0x0 ../lib/liblwip.a(ip_addr.o)
 .data          0x000000003ffe8365        0x0 ../lib/liblwip.a(ip.o)
 *fill*         0x000000003ffe8365        0x3 
 .data          0x000000003ffe8368        0x2 ../lib/liblwip.a(memp.o)
                0x000000003ffe8368                memp_sizes_test
 .data          0x000000003ffe836a        0x0 ../lib/liblwip.a(netif.o)
 .data          0x000000003ffe836a        0x0 ../lib/liblwip.a(pbuf.o)
 .data          0x000000003ffe836a        0x0 ../lib/liblwip.a(raw.o)
 .data          0x000000003ffe836a        0x0 ../lib/liblwip.a(tcp_in.o)
 *fill*         0x000000003ffe836a        0x2 
 .data          0x000000003ffe836c        0x8 ../lib/liblwip.a(tcp.o)
 .data          0x000000003ffe8374        0x0 ../lib/liblwip.a(tcp_out.o)
 .data          0x000000003ffe8374        0x0 ../lib/liblwip.a(timers.o)
 .data          0x000000003ffe8374        0x0 ../lib/liblwip.a(udp.o)
 .data          0x000000003ffe8374        0x0 ../lib/liblwip.a(icmp.o)
 .data          0x000000003ffe8374        0x0 ../lib/libwpa.a(ap_config.o)
 .data          0x000000003ffe8374        0x0 ../lib/libwpa.a(common.o)
 .data          0x000000003ffe8374        0x0 ../lib/libwpa.a(os_xtensa.o)
 .data          0x000000003ffe8374        0x0 ../lib/libwpa.a(wpa_auth.o)
 .data          0x000000003ffe8374        0x0 ../lib/libwpa.a(wpa_auth_ie.o)
 .data          0x000000003ffe8374        0x0 ../lib/libwpa.a(wpa.o)
 .data          0x000000003ffe8374        0x0 ../lib/libwpa.a(wpa_common.o)
 .data          0x000000003ffe8374        0x0 ../lib/libwpa.a(wpa_debug.o)
 .data          0x000000003ffe8374        0x0 ../lib/libwpa.a(wpa_ie.o)
 .data          0x000000003ffe8374        0x0 ../lib/libwpa.a(wpa_main.o)
 .data          0x000000003ffe8374        0x0 ../lib/libwpa.a(wpas_glue.o)
 .data          0x000000003ffe8374        0x0 /opt/xtensa-lx106-elf/bin/../lib/gcc/xtensa-lx106-elf/4.8.2/../../../../xtensa-lx106-elf/lib/libc.a(lib_a-atoi.o)
 .data          0x000000003ffe8374        0x0 /opt/xtensa-lx106-elf/bin/../lib/gcc/xtensa-lx106-elf/4.8.2/../../../../xtensa-lx106-elf/lib/libc.a(lib_a-memcpy.o)
 .data          0x000000003ffe8374        0x0 /opt/xtensa-lx106-elf/bin/../lib/gcc/xtensa-lx106-elf/4.8.2/../../../../xtensa-lx106-elf/lib/libc.a(lib_a-memset.o)
 .data          0x000000003ffe8374        0x0 /opt/xtensa-lx106-elf/bin/../lib/gcc/xtensa-lx106-elf/4.8.2/../../../../xtensa-lx106-elf/lib/libc.a(lib_a-strtol.o)
 .data          0x000000003ffe8374        0x4 /opt/xtensa-lx106-elf/bin/../lib/gcc/xtensa-lx106-elf/4.8.2/../../../../xtensa-lx106-elf/lib/libc.a(lib_a-ctype_.o)
                0x000000003ffe8374                __ctype_ptr__
 .data          0x000000003ffe8378      0x430 /opt/xtensa-lx106-elf/bin/../lib/gcc/xtensa-lx106-elf/4.8.2/../../../../xtensa-lx106-elf/lib/libc.a(lib_a-impure.o)
                0x000000003ffe8378                _impure_ptr
 .data          0x000000003ffe87a8        0x0 ../lib/libgcc.a(_modsi3.o)
 .data          0x000000003ffe87a8        0x0 ../lib/libgcc.a(_ashldi3.o)
 .data          0x000000003ffe87a8        0x0 ../lib/libgcc.a(_ashrdi3.o)
 .data          0x000000003ffe87a8        0x0 ../lib/libgcc.a(_mulsf3.o)
 .data          0x000000003ffe87a8        0x0 ../lib/libgcc.a(_divsf3.o)
 .data          0x000000003ffe87a8        0x0 ../lib/libgcc.a(_fixsfsi.o)
 .data          0x000000003ffe87a8        0x0 hal/.output/eagle/release/lib/libuserhal.a(radio.o)
 .data          0x000000003ffe87a8        0x0 hal/.output/eagle/release/lib/libuserhal.a(wifi_configuration.o)
 .data          0x000000003ffe87a8        0x0 clad/.output/eagle/release/lib/libclad.a(messageEngineToRobot.o)
 .data          0x000000003ffe87a8        0x0 clad/.output/eagle/release/lib/libclad.a(messageRobotToEngine.o)
 .data          0x000000003ffe87a8        0x0 clad/.output/eagle/release/lib/libclad.a(otaMessages.o)
 .data          0x000000003ffe87a8        0x0 clad/.output/eagle/release/lib/libclad.a(animationKeyFrames.o)
 .data          0x000000003ffe87a8        0x0 clad/.output/eagle/release/lib/libclad.a(imageTypes.o)
 .data          0x000000003ffe87a8        0x0 clad/.output/eagle/release/lib/libclad.a(nvStorage.o)
 .data          0x000000003ffe87a8        0x0 clad/.output/eagle/release/lib/libclad.a(robotLogging.o)
 .data          0x000000003ffe87a8        0x0 ../lib/libnet80211.a(ieee80211_crypto_tkip.o)
 .data          0x000000003ffe87a8        0x0 ../lib/libnet80211.a(ieee80211_crypto_wep.o)
 .data          0x000000003ffe87a8        0x0 ../lib/libcrypto.a(aes-wrap.o)
 .data          0x000000003ffe87a8        0x0 ../lib/libcrypto.a(aes-internal-enc.o)
 .data          0x000000003ffe87a8        0x0 ../lib/libcrypto.a(aes-internal.o)
 *(.data.*)
 .data.odd_even$2240
                0x000000003ffe87a8        0x1 driver/.output/eagle/release/lib/libdriver.a(cache.o)
 .data._ZZN4Anki5Cozmo14BackgroundTask33RadioConnectionStateMachineUpdateEvE14sendRadioState
                0x000000003ffe87a9        0x1 application/.output/eagle/release/lib/libapplication.a(backgroundTask.o)
 .data._ZZN4Anki5Cozmo12sendImgChunkERNS0_10ImageChunkEbE9skipFrame
                0x000000003ffe87aa        0x1 hal/.output/eagle/release/lib/libuserhal.a(radio.o)
 *(.gnu.linkonce.d.*)
 *(.data1)
 *(.sdata)
 *(.sdata.*)
 *(.gnu.linkonce.s.*)
 *(.sdata2)
 *(.sdata2.*)
 *(.gnu.linkonce.s2.*)
 *(.jcr)
                0x000000003ffe87ab                _data_end = ABSOLUTE (.)

.rodata         0x000000003ffe87b0     0x2424
                0x000000003ffe87b0                _rodata_start = ABSOLUTE (.)
 *(.sdk.version)
 .sdk.version   0x000000003ffe87b0       0x10 ../lib/libmain_w.a(app_main.o)
                0x000000003ffe87b0                SDK_VERSION
 *(.rodata)
 .rodata        0x000000003ffe87c0       0x1c driver/.output/eagle/release/lib/libdriver.a(i2spi.o)
 .rodata        0x000000003ffe87dc       0x2c transport/.output/eagle/release/lib/libtransport.a(reliableTransport.o)
 .rodata        0x000000003ffe8808        0x8 ../lib/libphy.a(phy_chip_v6_ana.o)
 .rodata        0x000000003ffe8810        0x8 ../lib/libphy.a(phy_chip_v6.o)
 .rodata        0x000000003ffe8818        0x4 ../lib/libpp.a(pp.o)
 .rodata        0x000000003ffe881c        0x8 ../lib/libnet80211.a(ieee80211_hostap.o)
 .rodata        0x000000003ffe8824        0x9 ../lib/libnet80211.a(ieee80211_output.o)
 *fill*         0x000000003ffe882d        0x3 
 .rodata        0x000000003ffe8830        0x6 ../lib/liblwip.a(etharp.o)
                0x000000003ffe8830                ethbroadcast
 .rodata        0x000000003ffe8836      0x101 /opt/xtensa-lx106-elf/bin/../lib/gcc/xtensa-lx106-elf/4.8.2/../../../../xtensa-lx106-elf/lib/libc.a(lib_a-ctype_.o)
                0x000000003ffe8836                _ctype_
 *fill*         0x000000003ffe8937        0x1 
 .rodata        0x000000003ffe8938        0x4 /opt/xtensa-lx106-elf/bin/../lib/gcc/xtensa-lx106-elf/4.8.2/../../../../xtensa-lx106-elf/lib/libc.a(lib_a-impure.o)
                0x000000003ffe8938                _global_impure_ptr
 *(.rodata.*)
 .rodata.str1.4
                0x000000003ffe893c        0xc ../lib/libmain_w.a(app_main.o)
 .rodata.str1.4
                0x000000003ffe8948        0x4 ../lib/libmain_w.a(ets_timer.o)
                                          0xc (size before relaxing)
 .rodata.str1.4
                0x000000003ffe894c       0x1a ../lib/libmain_w.a(mem_manager.o)
 .rodata.str1.1
                0x000000003ffe8966       0x4f hal/.output/eagle/release/lib/libuserhal.a(user_main.o)
 .rodata.VALID_PSK_CHARS$2714
                0x000000003ffe89b5       0x22 hal/.output/eagle/release/lib/libuserhal.a(user_main.o)
 *fill*         0x000000003ffe89d7        0x1 
 .rodata.str1.4
                0x000000003ffe89d8       0x1f driver/.output/eagle/release/lib/libdriver.a(crash.o)
 *fill*         0x000000003ffe89f7        0x1 
 .rodata.CSWTCH$110
                0x000000003ffe89f8        0xc driver/.output/eagle/release/lib/libdriver.a(i2spi.o)
 .rodata.HEXTABLE$2420
                0x000000003ffe8a04       0x10 driver/.output/eagle/release/lib/libdriver.a(uart.o)
 .rodata.str1.1
                0x000000003ffe8a14        0x8 transport/.output/eagle/release/lib/libtransport.a(reliableTransport.o)
 .rodata.str1.1
                0x000000003ffe8a1c       0xb3 transport/.output/eagle/release/lib/libtransport.a(reliableMessageTypes.o)
 *fill*         0x000000003ffe8acf        0x1 
 .rodata.CSWTCH$3
                0x000000003ffe8ad0       0x2c transport/.output/eagle/release/lib/libtransport.a(reliableMessageTypes.o)
 .rodata._ZN4Anki5Cozmo14BackgroundTask33RadioConnectionStateMachineUpdateEv
                0x000000003ffe8afc       0x2c application/.output/eagle/release/lib/libapplication.a(backgroundTask.o)
 .rodata._ZN4Anki5Cozmo14BackgroundTask4ExecEP11ETSEventTag
                0x000000003ffe8b28       0x24 application/.output/eagle/release/lib/libapplication.a(backgroundTask.o)
 .rodata.str1.1
                0x0000000000000000       0xb3 application/.output/eagle/release/lib/libapplication.a(crashReporter.o)
                                          0x1 (size before relaxing)
 .rodata.str1.1
                0x0000000000000000        0x1 application/.output/eagle/release/lib/libapplication.a(dhTask.o)
 .rodata._ZN13DiffieHellman6UpdateEv
                0x000000003ffe8b4c       0x18 application/.output/eagle/release/lib/libapplication.a(dhTask.o)
 *fill*         0x000000003ffe8b64        0x4 
 .rodata._ZL10BIT_EXPAND
                0x000000003ffe8b68      0x100 application/.output/eagle/release/lib/libapplication.a(face.o)
 .rodata.str1.1
                0x000000003ffe8c68       0x1e application/.output/eagle/release/lib/libapplication.a(messages.o)
 *fill*         0x000000003ffe8c86        0x2 
 .rodata.ProcessMessage
                0x000000003ffe8c88       0xb8 application/.output/eagle/release/lib/libapplication.a(messages.o)
 .rodata.str1.1
                0x000000003ffe8d40       0x21 application/.output/eagle/release/lib/libapplication.a(nvStorage.o)
                                         0x22 (size before relaxing)
 *fill*         0x000000003ffe8d61        0x3 
 .rodata._ZN4Anki5Cozmo9NVStorageL21GarbageCollectionTaskEj
                0x000000003ffe8d64       0x14 application/.output/eagle/release/lib/libapplication.a(nvStorage.o)
 .rodata._ZN4Anki5Cozmo9NVStorage11WipeAllTaskEj
                0x000000003ffe8d78       0x18 application/.output/eagle/release/lib/libapplication.a(nvStorage.o)
 .rodata._ZN4Anki5Cozmo9NVStorage6UpdateEv
                0x000000003ffe8d90       0x14 application/.output/eagle/release/lib/libapplication.a(nvStorage.o)
 .rodata.str1.1
                0x000000003ffe8da4       0x3e application/.output/eagle/release/lib/libapplication.a(upgradeController.o)
 *fill*         0x000000003ffe8de2        0x2 
 .rodata._ZN4Anki5Cozmo17UpgradeController6UpdateEv
                0x000000003ffe8de4       0x78 application/.output/eagle/release/lib/libapplication.a(upgradeController.o)
 .rodata._ZL7AES_KEY
                0x000000003ffe8e5c       0x10 application/.output/eagle/release/lib/libapplication.a(upgradeController.o)
 .rodata._ZN4Anki5Cozmo17UpgradeController23VERSION_INFO_MAX_LENGTHE
                0x000000003ffe8e6c        0x4 application/.output/eagle/release/lib/libapplication.a(upgradeController.o)
                0x000000003ffe8e6c                _ZN4Anki5Cozmo17UpgradeController23VERSION_INFO_MAX_LENGTHE
 .rodata.str1.1
                0x0000000000000000       0x3e factory/.output/eagle/release/lib/libfactory.a(factoryTests.o)
                                          0x5 (size before relaxing)
 .rodata.str1.1
                0x000000003ffe8e70       0x43 supervisor/.output/eagle/release/lib/libsupervisor.a(animationController.o)
 *fill*         0x000000003ffe8eb3        0x1 
 .rodata._ZN4Anki5Cozmo19AnimationController6UpdateEv
                0x000000003ffe8eb4       0x2c supervisor/.output/eagle/release/lib/libsupervisor.a(animationController.o)
 .rodata._ZL7BIG_ONE
                0x000000003ffe8ee0      0x20c crypto/.output/eagle/release/lib/libusercrypto.a(bignum.o)
 .rodata._ZL8BIG_ZERO
                0x000000003ffe90ec      0x20c crypto/.output/eagle/release/lib/libusercrypto.a(bignum.o)
 .rodata._ZL7PADDING
                0x000000003ffe92f8       0x12 crypto/.output/eagle/release/lib/libusercrypto.a(rsa_pss.o)
 .rodata._ZL4Rcon
                0x000000003ffe930a       0xff crypto/.output/eagle/release/lib/libusercrypto.a(aes.o)
 .rodata._ZL5rsbox
                0x000000003ffe9409      0x100 crypto/.output/eagle/release/lib/libusercrypto.a(aes.o)
 .rodata._ZL4sbox
                0x000000003ffe9509      0x100 crypto/.output/eagle/release/lib/libusercrypto.a(aes.o)
 *fill*         0x000000003ffe9609        0x3 
 .rodata.str1.4
                0x000000003ffe960c        0x4 ../lib/libpp.a(lmac.o)
                                          0xc (size before relaxing)
 .rodata.str1.4
                0x000000003ffe9610        0x3 ../lib/libpp.a(pm.o)
                                          0xb (size before relaxing)
 *fill*         0x000000003ffe9613        0x1 
 .rodata.str1.4
                0x000000003ffe9614        0x4 ../lib/libpp.a(pm_for_bcn_only_mode.o)
                                          0xc (size before relaxing)
 .rodata.str1.4
                0x000000003ffe9618        0x8 ../lib/libpp.a(pp.o)
                                         0x10 (size before relaxing)
 .rodata.str1.4
                0x000000003ffe9620        0x4 ../lib/libpp.a(wdev.o)
                                          0xc (size before relaxing)
 .rodata.str1.4
                0x000000003ffe9624        0x3 ../lib/libnet80211.a(ieee80211_hostap.o)
                                          0x8 (size before relaxing)
 *fill*         0x000000003ffe9627        0x1 
 .rodata.str1.4
                0x000000003ffe9628        0x7 ../lib/libnet80211.a(ieee80211_mesh_quick.o)
 .rodata.str1.4
                0x0000000000000000        0x4 ../lib/libnet80211.a(ieee80211_sta.o)
 .rodata.str1.4
                0x0000000000000000        0x4 ../lib/libnet80211.a(ieee80211_action_vendor.o)
 .rodata.str1.4
                0x0000000000000000        0x4 ../lib/libnet80211.a(ieee80211_ie_vendor.o)
 .rodata.str1.4
                0x0000000000000000        0x7 ../lib/liblwip.a(espconn_tcp.o)
                                          0x1 (size before relaxing)
 *fill*         0x000000003ffe962f        0x1 
 .rodata.str1.4
                0x000000003ffe9630       0x10 ../lib/libwpa.a(wpa_debug.o)
                                          0xd (size before relaxing)
 .rodata.str1.1
                0x000000003ffe9640        0x2 /opt/xtensa-lx106-elf/bin/../lib/gcc/xtensa-lx106-elf/4.8.2/../../../../xtensa-lx106-elf/lib/libc.a(lib_a-impure.o)
 .rodata.str1.1
                0x000000003ffe9642        0x3 hal/.output/eagle/release/lib/libuserhal.a(wifi_configuration.o)
 *fill*         0x000000003ffe9645        0x3 
 .rodata._ZN4Anki5Cozmo17WiFiConfiguration19ProcessConfigStringERKNS0_14RobotInterface22AppConnectConfigStringE
                0x000000003ffe9648       0x3c hal/.output/eagle/release/lib/libuserhal.a(wifi_configuration.o)
 .rodata._ZNK4Anki5Cozmo14RobotInterface13EngineToRobot4SizeEv
                0x000000003ffe9684      0x2b4 clad/.output/eagle/release/lib/libclad.a(messageEngineToRobot.o)
 .rodata._ZNK4Anki5Cozmo14RobotInterface13RobotToEngine4SizeEv
                0x000000003ffe9938      0x114 clad/.output/eagle/release/lib/libclad.a(messageRobotToEngine.o)
 *(.gnu.linkonce.r.*)
 *(.rodata1)
                0x000000003ffe9a4c                __XT_EXCEPTION_TABLE__ = ABSOLUTE (.)
 *(.xt_except_table)
 *(.gcc_except_table)
 *(.gnu.linkonce.e.*)
 *(.gnu.version_r)
 *(.eh_frame)
 .eh_frame      0x000000003ffe9a4c       0xa8 application/.output/eagle/release/lib/libapplication.a(backgroundTask.o)
 .eh_frame      0x000000003ffe9af4       0x70 application/.output/eagle/release/lib/libapplication.a(crashReporter.o)
                                         0x80 (size before relaxing)
 .eh_frame      0x000000003ffe9b64       0x60 application/.output/eagle/release/lib/libapplication.a(dhTask.o)
                                         0x70 (size before relaxing)
 .eh_frame      0x000000003ffe9bc4      0x1d4 application/.output/eagle/release/lib/libapplication.a(face.o)
                                        0x1e4 (size before relaxing)
 .eh_frame      0x000000003ffe9d98      0x15c application/.output/eagle/release/lib/libapplication.a(messages.o)
                                        0x16c (size before relaxing)
 .eh_frame      0x000000003ffe9ef4      0x1a0 application/.output/eagle/release/lib/libapplication.a(nvStorage.o)
                                        0x1b0 (size before relaxing)
 .eh_frame      0x000000003ffea094       0x70 application/.output/eagle/release/lib/libapplication.a(rtip.o)
                                         0x80 (size before relaxing)
 .eh_frame      0x000000003ffea104      0x114 application/.output/eagle/release/lib/libapplication.a(upgradeController.o)
                                        0x124 (size before relaxing)
 .eh_frame      0x000000003ffea218       0x4c application/.output/eagle/release/lib/libapplication.a(activeObjectManager.o)
                                         0x5c (size before relaxing)
 .eh_frame      0x000000003ffea264       0xfc factory/.output/eagle/release/lib/libfactory.a(factoryTests.o)
                                        0x10c (size before relaxing)
 .eh_frame      0x000000003ffea360      0x1a4 supervisor/.output/eagle/release/lib/libsupervisor.a(animationController.o)
                                        0x1b4 (size before relaxing)
 .eh_frame      0x000000003ffea504       0x2c crypto/.output/eagle/release/lib/libusercrypto.a(sha512.o)
                                         0x3c (size before relaxing)
 .eh_frame      0x000000003ffea530      0x1f4 crypto/.output/eagle/release/lib/libusercrypto.a(bignum.o)
                                        0x204 (size before relaxing)
 .eh_frame      0x000000003ffea724      0x128 crypto/.output/eagle/release/lib/libusercrypto.a(rsa_pss.o)
                                        0x138 (size before relaxing)
 .eh_frame      0x000000003ffea84c       0xe0 crypto/.output/eagle/release/lib/libusercrypto.a(aes.o)
                                         0xf0 (size before relaxing)
 .eh_frame      0x000000003ffea92c       0x88 hal/.output/eagle/release/lib/libuserhal.a(radio.o)
                                         0x98 (size before relaxing)
 .eh_frame      0x000000003ffea9b4      0x118 hal/.output/eagle/release/lib/libuserhal.a(wifi_configuration.o)
                                        0x128 (size before relaxing)
 .eh_frame      0x000000003ffeaacc       0x80 clad/.output/eagle/release/lib/libclad.a(messageEngineToRobot.o)
                                         0x90 (size before relaxing)
 .eh_frame      0x000000003ffeab4c       0x80 clad/.output/eagle/release/lib/libclad.a(messageRobotToEngine.o)
                                         0x90 (size before relaxing)
 *crtbegin.o(.ctors)
 *(EXCLUDE_FILE(*crtend.o) .ctors)
 *(SORT(.ctors.*))
 *(.ctors)
 *crtbegin.o(.dtors)
 *(EXCLUDE_FILE(*crtend.o) .dtors)
 *(SORT(.dtors.*))
 *(.dtors)
                0x000000003ffeabcc                __XT_EXCEPTION_DESCS__ = ABSOLUTE (.)
 *(.xt_except_desc)
 *(.gnu.linkonce.h.*)
                0x000000003ffeabcc                __XT_EXCEPTION_DESCS_END__ = ABSOLUTE (.)
 *(.xt_except_desc_end)
 *(.dynamic)
 *(.gnu.version_d)
                0x000000003ffeabcc                . = ALIGN (0x4)
                0x000000003ffeabcc                _bss_table_start = ABSOLUTE (.)
                0x000000003ffeabcc        0x4 LONG 0x3ffeabd8 _bss_start
                0x000000003ffeabd0        0x4 LONG 0x3fffa090 _bss_end
                0x000000003ffeabd4                _bss_table_end = ABSOLUTE (.)
                0x000000003ffeabd4                _rodata_end = ABSOLUTE (.)

.bss            0x000000003ffeabd8     0xf4b8
                0x000000003ffeabd8                . = ALIGN (0x8)
                0x000000003ffeabd8                _bss_start = ABSOLUTE (.)
 *(.dynsbss)
 *(.sbss)
 *(.sbss.*)
 *(.gnu.linkonce.sb.*)
 *(.scommon)
 *(.sbss2)
 *(.sbss2.*)
 *(.gnu.linkonce.sb2.*)
 *(.dynbss)
 *(.bss)
 .bss           0x000000003ffeabd8        0x0 driver/.output/eagle/release/lib/libdriver.a(cache.o)
 *fill*         0x000000003ffeabd8        0x8 
 .bss           0x000000003ffeabe0      0x242 ../lib/libmain_w.a(user_interface.o)
                0x000000003ffeacd7                deep_sleep_flag
                0x000000003ffeacd8                cpu_overclock
                0x000000003ffeacdc                event_cb
                0x000000003ffeace0                status_led_output_level
                0x000000003ffeace4                done_cb
                0x000000003ffeace8                rst_if
                0x000000003ffead04                default_interface
                0x000000003ffead05                OpmodChgIsOnGoing
                0x000000003ffead08                promiscuous_cb
                0x000000003ffead20                event_TaskQueue
 .bss           0x000000003ffeae22        0x0 ../lib/libmain_w.a(debug-vector.o)
 .bss           0x000000003ffeae22        0x0 ../lib/libmain_w.a(double-vector.o)
 .bss           0x000000003ffeae22        0x0 ../lib/libmain_w.a(kernel-vector.o)
 *fill*         0x000000003ffeae22        0xe 
 .bss           0x000000003ffeae30      0x1c0 ../lib/libmain_w.a(nmi-vector.o)
 .bss           0x000000003ffeaff0        0x0 ../lib/libmain_w.a(user-vector.o)
 .bss           0x000000003ffeaff0        0x0 ../lib/libmain_w.a(vector.o)
 .bss           0x000000003ffeaff0       0x41 ../lib/libmain_w.a(app_main.o)
                0x000000003ffeaff4                info
                0x000000003ffeb018                lwip_timer_interval
                0x000000003ffeb01c                check_timeouts_timer
                0x000000003ffeb030                user_init_flag
 .bss           0x000000003ffeb031        0x0 ../lib/libmain_w.a(eagle_lib.o)
 *fill*         0x000000003ffeb031        0x3 
 .bss           0x000000003ffeb034        0xc ../lib/libmain_w.a(eagle_lwip_if.o)
                0x000000003ffeb034                hostname
 .bss           0x000000003ffeb040       0x30 ../lib/libmain_w.a(ets_timer.o)
                0x000000003ffeb040                dbg_timer_flag
                0x000000003ffeb044                timer_list
                0x000000003ffeb048                debug_timer
                0x000000003ffeb04c                debug_timerfn
 .bss           0x000000003ffeb070       0x3c ../lib/libmain_w.a(mem_manager.o)
 .bss           0x000000003ffeb0ac        0x4 ../lib/libmain_w.a(spi_flash.o)
                0x000000003ffeb0ac                flash_read
 .bss           0x000000003ffeb0b0        0x0 /opt/xtensa-lx106-elf/bin/../xtensa-lx106-elf/sysroot/usr/lib/libhal.a(int_asm--set_intclear.o)
 .bss           0x000000003ffeb0b0        0x0 hal/.output/eagle/release/lib/libuserhal.a(user_main.o)
 .bss           0x000000003ffeb0b0        0x0 hal/.output/eagle/release/lib/libuserhal.a(client.o)
 .bss           0x000000003ffeb0b0        0x0 hal/.output/eagle/release/lib/libuserhal.a(foregroundTask.o)
 .bss           0x000000003ffeb0b0        0x0 driver/.output/eagle/release/lib/libdriver.a(crash.o)
 .bss           0x000000003ffeb0b0        0x0 driver/.output/eagle/release/lib/libdriver.a(factoryData.o)
 .bss           0x000000003ffeb0b0        0x0 driver/.output/eagle/release/lib/libdriver.a(i2spi.o)
 .bss           0x000000003ffeb0b0        0x0 driver/.output/eagle/release/lib/libdriver.a(uart.o)
 .bss           0x000000003ffeb0b0        0x0 transport/.output/eagle/release/lib/libtransport.a(reliableTransport.o)
 .bss           0x000000003ffeb0b0        0x0 transport/.output/eagle/release/lib/libtransport.a(reliableMessageTypes.o)
 .bss           0x000000003ffeb0b0        0x0 transport/.output/eagle/release/lib/libtransport.a(reliableSequenceId.o)
 .bss           0x000000003ffeb0b0        0x0 application/.output/eagle/release/lib/libapplication.a(backgroundTask.o)
 .bss           0x000000003ffeb0b0        0x0 application/.output/eagle/release/lib/libapplication.a(crashReporter.o)
 .bss           0x000000003ffeb0b0        0x0 application/.output/eagle/release/lib/libapplication.a(dhTask.o)
 .bss           0x000000003ffeb0b0        0x0 application/.output/eagle/release/lib/libapplication.a(face.o)
 .bss           0x000000003ffeb0b0        0x0 application/.output/eagle/release/lib/libapplication.a(messages.o)
 .bss           0x000000003ffeb0b0        0x0 application/.output/eagle/release/lib/libapplication.a(nvStorage.o)
 .bss           0x000000003ffeb0b0        0x0 application/.output/eagle/release/lib/libapplication.a(rtip.o)
 .bss           0x000000003ffeb0b0        0x0 application/.output/eagle/release/lib/libapplication.a(upgradeController.o)
 .bss           0x000000003ffeb0b0        0x0 application/.output/eagle/release/lib/libapplication.a(activeObjectManager.o)
 .bss           0x000000003ffeb0b0        0x0 factory/.output/eagle/release/lib/libfactory.a(factoryTests.o)
 .bss           0x000000003ffeb0b0        0x0 supervisor/.output/eagle/release/lib/libsupervisor.a(animationController.o)
 .bss           0x000000003ffeb0b0        0x0 crypto/.output/eagle/release/lib/libusercrypto.a(sha512.o)
 .bss           0x000000003ffeb0b0        0x0 crypto/.output/eagle/release/lib/libusercrypto.a(bignum.o)
 .bss           0x000000003ffeb0b0        0x0 crypto/.output/eagle/release/lib/libusercrypto.a(rsa_pss.o)
 .bss           0x000000003ffeb0b0        0x0 crypto/.output/eagle/release/lib/libusercrypto.a(crc32.o)
 .bss           0x000000003ffeb0b0        0x0 crypto/.output/eagle/release/lib/libusercrypto.a(aes.o)
 .bss           0x000000003ffeb0b0        0x4 ../lib/libphy.a(phy.o)
 .bss           0x000000003ffeb0b4        0x2 ../lib/libphy.a(phy_chip_v6_ana.o)
                0x000000003ffeb0b4                tout_dis_txpwr_track
                0x000000003ffeb0b5                sleep_mode_flag
 *fill*         0x000000003ffeb0b6        0x2 
 .bss           0x000000003ffeb0b8      0x15b ../lib/libphy.a(phy_chip_v6.o)
                0x000000003ffeb0b8                g_phyFuns
                0x000000003ffeb0bc                rxiq_compute_num
                0x000000003ffeb0c0                rx_table_renew_en
                0x000000003ffeb0c4                check_result
                0x000000003ffeb0c8                chip6_sleep_params
                0x000000003ffeb15c                chip6_phy_init_ctrl
                0x000000003ffeb1d0                phy_freq_offset
                0x000000003ffeb1d2                do_pwctrl_flag
                0x000000003ffeb1d3                txbk_dpdby_flag
                0x000000003ffeb1d5                sw_scan_mode
                0x000000003ffeb1d6                rxmax_ext_level
                0x000000003ffeb1d8                phy_rx_gain_dc_table
                0x000000003ffeb1ec                periodic_cal_dc_num
                0x000000003ffeb1f0                periodic_cal_flag
                0x000000003ffeb1f1                bbpll_cal_flag
                0x000000003ffeb1f2                phy_in_most_power
                0x000000003ffeb1f3                init_rf_no_cal
                0x000000003ffeb1f4                test_print_time
                0x000000003ffeb1f8                phy_rx_gain_dc_flag
                0x000000003ffeb1f9                phy_in_vdd33_offset
                0x000000003ffeb1fa                phy_set_most_tpw_disbg
                0x000000003ffeb1fb                phy_set_most_tpw_index
                0x000000003ffeb1fc                adc_rand_noise
                0x000000003ffeb200                dpd_bypass_original
                0x000000003ffeb202                phy_txpwr_diff_flash
                0x000000003ffeb208                noise_array
 *fill*         0x000000003ffeb213        0x1 
 .bss           0x000000003ffeb214        0x9 ../lib/libphy.a(phy_chip_v6_cal.o)
                0x000000003ffeb214                phy_tx_power_out
                0x000000003ffeb216                phy_tx_pwr_error
                0x000000003ffeb218                tx_pwctrl_track_num
                0x000000003ffeb219                rxiq_cover_fail_num
                0x000000003ffeb21a                phy_meas_freq_offset
                0x000000003ffeb21c                tx_pwctrl_pk_num
 .bss           0x000000003ffeb21d        0x0 ../lib/libphy.a(phy_chip_v6_unused.o)
 *fill*         0x000000003ffeb21d        0x3 
 .bss           0x000000003ffeb220        0x7 ../lib/libphy.a(phy_sleep.o)
                0x000000003ffeb220                periodic_cal_sat
                0x000000003ffeb222                lslp_mem_opt_8266
                0x000000003ffeb224                software_slp_reject
                0x000000003ffeb225                SDIO_slp_reject
                0x000000003ffeb226                hardware_reject
 *fill*         0x000000003ffeb227        0x9 
 .bss           0x000000003ffeb230       0x40 ../lib/libpp.a(if_hwctrl.o)
                0x000000003ffeb230                interface_mask
                0x000000003ffeb250                if_ctrl
 .bss           0x000000003ffeb270      0x150 ../lib/libpp.a(lmac.o)
                0x000000003ffeb274                lmacConfMib
                0x000000003ffeb298                our_tx_eb
 .bss           0x000000003ffeb3c0      0x11a ../lib/libpp.a(pm.o)
                0x000000003ffeb3c0                pmc
                0x000000003ffeb4a0                flash_tmp
 *fill*         0x000000003ffeb4da        0x2 
 .bss           0x000000003ffeb4dc       0x34 ../lib/libpp.a(pm_for_bcn_only_mode.o)
 .bss           0x000000003ffeb510      0x322 ../lib/libpp.a(pp.o)
                0x000000003ffeb528                pend_flag_noise_check
                0x000000003ffeb530                pend_flag_periodic_cal
                0x000000003ffeb548                idle_timer_reopen_flag
                0x000000003ffeb54a                dbg_stop_sw_wdt
                0x000000003ffeb54b                dbg_stop_hw_wdt
                0x000000003ffeb54d                total_buffed_eb_num
                0x000000003ffeb550                HighestFreqOffsetInOneChk
                0x000000003ffeb552                LowestFreqOffsetInOneChk
                0x000000003ffeb554                DefFreqCalTimer
                0x000000003ffeb568                PktNumInOneChk
                0x000000003ffeb6f0                buffed_eb_arr
 *fill*         0x000000003ffeb832        0xe 
 .bss           0x000000003ffeb840      0x100 ../lib/libpp.a(rate_control.o)
 .bss           0x000000003ffeb940      0x46c ../lib/libpp.a(trc.o)
 *fill*         0x000000003ffebdac        0x4 
 .bss           0x000000003ffebdb0     0x2f88 ../lib/libpp.a(wdev.o)
                0x000000003ffebdb0                wDevCtrl
                0x000000003ffebf58                WdevTimOffSet
 *fill*         0x000000003ffeed38        0x8 
 .bss           0x000000003ffeed40      0xaa4 ../lib/libpp.a(esf_buf.o)
 .bss           0x000000003ffef7e4      0x67c ../lib/libnet80211.a(ieee80211.o)
                0x000000003ffef7e4                g_ic
 .bss           0x000000003ffefe60        0x0 ../lib/libnet80211.a(ieee80211_crypto.o)
 .bss           0x000000003ffefe60        0x0 ../lib/libnet80211.a(ieee80211_ets.o)
 .bss           0x000000003ffefe60       0x56 ../lib/libnet80211.a(ieee80211_hostap.o)
                0x000000003ffefe60                BcnEb_update
                0x000000003ffefe6d                BcnWithMcastSendStart
                0x000000003ffefe6e                BcnWithMcastSendCnt
                0x000000003ffefe88                PendFreeBcnEb
                0x000000003ffefe8c                ApFreqCalTimer
                0x000000003ffefea0                APRecvBcnStartTick
 .bss           0x000000003ffefeb6        0x0 ../lib/libnet80211.a(ieee80211_ht.o)
 .bss           0x000000003ffefeb6        0x0 ../lib/libnet80211.a(ieee80211_input.o)
 .bss           0x000000003ffefeb6        0x0 ../lib/libnet80211.a(ieee80211_mesh_quick.o)
 .bss           0x000000003ffefeb6        0x0 ../lib/libnet80211.a(ieee80211_output.o)
 .bss           0x000000003ffefeb6        0x0 ../lib/libnet80211.a(ieee80211_phy.o)
 .bss           0x000000003ffefeb6        0x0 ../lib/libnet80211.a(ieee80211_power.o)
 .bss           0x000000003ffefeb6        0x0 ../lib/libnet80211.a(ieee80211_proto.o)
 .bss           0x000000003ffefeb6        0x0 ../lib/libnet80211.a(ieee80211_rfid.o)
 *fill*         0x000000003ffefeb6        0x2 
 .bss           0x000000003ffefeb8       0xc8 ../lib/libnet80211.a(ieee80211_scan.o)
                0x000000003ffefeb8                gScanStruct
                0x000000003ffeff64                connect_scan_flag
                0x000000003ffeff65                FreqCalCntForScan
                0x000000003ffeff66                TestStaFreqCalValInput
                0x000000003ffeff68                auth_type
                0x000000003ffeff6a                scannum
 .bss           0x000000003ffeff80       0x10 ../lib/libnet80211.a(ieee80211_sta.o)
 .bss           0x000000003ffeff90       0x3c ../lib/libnet80211.a(wl_chm.o)
 *fill*         0x000000003ffeffcc        0x4 
 .bss           0x000000003ffeffd0      0x37e ../lib/libnet80211.a(wl_cnx.o)
                0x000000003fff0330                sta_con_timer
                0x000000003fff0344                backup_ni_connect_status
                0x000000003fff0348                g_cnx_probe_rc_list_cb
                0x000000003fff034c                reconnect_flag
                0x000000003fff034d                no_ap_found_index
 .bss           0x000000003fff034e        0x0 ../lib/libnet80211.a(ieee80211_action.o)
 *fill*         0x000000003fff034e        0x2 
 .bss           0x000000003fff0350       0x10 ../lib/libnet80211.a(ieee80211_action_vendor.o)
 .bss           0x000000003fff0360        0x0 ../lib/libnet80211.a(ieee80211_crypto_ccmp.o)
 .bss           0x000000003fff0360        0x0 ../lib/libnet80211.a(ieee80211_ie_vendor.o)
 .bss           0x000000003fff0360       0x38 ../lib/liblwip.a(dhcp.o)
                0x000000003fff0360                dhcp_rx_options_given
                0x000000003fff0370                dhcp_rx_options_val
 .bss           0x000000003fff0398       0x24 ../lib/liblwip.a(dhcpserver.o)
 *fill*         0x000000003fff03bc        0x4 
 .bss           0x000000003fff03c0      0x480 ../lib/liblwip.a(dns.o)
 .bss           0x000000003fff0840      0x104 ../lib/liblwip.a(espconn.o)
                0x000000003fff0840                plink_active
                0x000000003fff0844                pserver_list
                0x000000003fff0850                premot
                0x000000003fff0910                pktinfo
 *fill*         0x000000003fff0944        0xc 
 .bss           0x000000003fff0950       0x78 ../lib/liblwip.a(espconn_tcp.o)
                0x000000003fff0950                espconn_TaskQueue
 .bss           0x000000003fff09c8        0x0 ../lib/liblwip.a(espconn_udp.o)
 *fill*         0x000000003fff09c8        0x8 
 .bss           0x000000003fff09d0      0x100 ../lib/liblwip.a(etharp.o)
                0x000000003fff09d4                ethzero
 .bss           0x000000003fff0ad0        0xc ../lib/liblwip.a(igmp.o)
 .bss           0x000000003fff0adc        0x0 ../lib/liblwip.a(inet_chksum.o)
 .bss           0x000000003fff0adc        0x0 ../lib/liblwip.a(init.o)
 *fill*         0x000000003fff0adc        0x4 
 .bss           0x000000003fff0ae0       0x10 ../lib/liblwip.a(ip_addr.o)
 .bss           0x000000003fff0af0       0x12 ../lib/liblwip.a(ip.o)
                0x000000003fff0af0                current_iphdr_dest
                0x000000003fff0af4                current_iphdr_src
                0x000000003fff0af8                current_netif
                0x000000003fff0afc                current_header
 .bss           0x000000003fff0b02        0x0 ../lib/liblwip.a(memp.o)
 *fill*         0x000000003fff0b02        0x2 
 .bss           0x000000003fff0b04        0x9 ../lib/liblwip.a(netif.o)
                0x000000003fff0b04                netif_list
                0x000000003fff0b08                netif_default
 .bss           0x000000003fff0b0d        0x0 ../lib/liblwip.a(pbuf.o)
 *fill*         0x000000003fff0b0d        0x3 
 .bss           0x000000003fff0b10        0x4 ../lib/liblwip.a(raw.o)
 .bss           0x000000003fff0b14       0x34 ../lib/liblwip.a(tcp_in.o)
                0x000000003fff0b44                tcp_input_pcb
 .bss           0x000000003fff0b48       0x1c ../lib/liblwip.a(tcp.o)
                0x000000003fff0b4c                tcp_active_pcbs
                0x000000003fff0b50                tcp_tmp_pcb
                0x000000003fff0b54                tcp_tw_pcbs
                0x000000003fff0b58                tcp_bound_pcbs
                0x000000003fff0b5c                tcp_listen_pcbs
                0x000000003fff0b60                tcp_ticks
 .bss           0x000000003fff0b64        0x0 ../lib/liblwip.a(tcp_out.o)
 .bss           0x000000003fff0b64        0xc ../lib/liblwip.a(timers.o)
 .bss           0x000000003fff0b70        0x4 ../lib/liblwip.a(udp.o)
                0x000000003fff0b70                udp_pcbs
 .bss           0x000000003fff0b74        0x0 ../lib/liblwip.a(icmp.o)
 .bss           0x000000003fff0b74        0x0 ../lib/libwpa.a(ap_config.o)
 .bss           0x000000003fff0b74        0x0 ../lib/libwpa.a(common.o)
 .bss           0x000000003fff0b74        0x0 ../lib/libwpa.a(os_xtensa.o)
 .bss           0x000000003fff0b74        0x0 ../lib/libwpa.a(wpa_auth.o)
 .bss           0x000000003fff0b74        0x0 ../lib/libwpa.a(wpa_auth_ie.o)
 *fill*         0x000000003fff0b74        0xc 
 .bss           0x000000003fff0b80      0x26a ../lib/libwpa.a(wpa.o)
 .bss           0x000000003fff0dea        0x0 ../lib/libwpa.a(wpa_common.o)
 .bss           0x000000003fff0dea        0x0 ../lib/libwpa.a(wpa_debug.o)
 .bss           0x000000003fff0dea        0x0 ../lib/libwpa.a(wpa_ie.o)
 .bss           0x000000003fff0dea        0x0 ../lib/libwpa.a(wpa_main.o)
 .bss           0x000000003fff0dea        0x0 ../lib/libwpa.a(wpas_glue.o)
 .bss           0x000000003fff0dea        0x0 /opt/xtensa-lx106-elf/bin/../lib/gcc/xtensa-lx106-elf/4.8.2/../../../../xtensa-lx106-elf/lib/libc.a(lib_a-atoi.o)
 .bss           0x000000003fff0dea        0x0 /opt/xtensa-lx106-elf/bin/../lib/gcc/xtensa-lx106-elf/4.8.2/../../../../xtensa-lx106-elf/lib/libc.a(lib_a-memcpy.o)
 .bss           0x000000003fff0dea        0x0 /opt/xtensa-lx106-elf/bin/../lib/gcc/xtensa-lx106-elf/4.8.2/../../../../xtensa-lx106-elf/lib/libc.a(lib_a-memset.o)
 .bss           0x000000003fff0dea        0x0 /opt/xtensa-lx106-elf/bin/../lib/gcc/xtensa-lx106-elf/4.8.2/../../../../xtensa-lx106-elf/lib/libc.a(lib_a-strtol.o)
 .bss           0x000000003fff0dea        0x0 /opt/xtensa-lx106-elf/bin/../lib/gcc/xtensa-lx106-elf/4.8.2/../../../../xtensa-lx106-elf/lib/libc.a(lib_a-ctype_.o)
 .bss           0x000000003fff0dea        0x0 /opt/xtensa-lx106-elf/bin/../lib/gcc/xtensa-lx106-elf/4.8.2/../../../../xtensa-lx106-elf/lib/libc.a(lib_a-impure.o)
 .bss           0x000000003fff0dea        0x0 ../lib/libgcc.a(_modsi3.o)
 .bss           0x000000003fff0dea        0x0 ../lib/libgcc.a(_ashldi3.o)
 .bss           0x000000003fff0dea        0x0 ../lib/libgcc.a(_ashrdi3.o)
 .bss           0x000000003fff0dea        0x0 ../lib/libgcc.a(_mulsf3.o)
 .bss           0x000000003fff0dea        0x0 ../lib/libgcc.a(_divsf3.o)
 .bss           0x000000003fff0dea        0x0 ../lib/libgcc.a(_fixsfsi.o)
 .bss           0x000000003fff0dea        0x0 hal/.output/eagle/release/lib/libuserhal.a(radio.o)
 .bss           0x000000003fff0dea        0x0 hal/.output/eagle/release/lib/libuserhal.a(wifi_configuration.o)
 .bss           0x000000003fff0dea        0x0 clad/.output/eagle/release/lib/libclad.a(messageEngineToRobot.o)
 .bss           0x000000003fff0dea        0x0 clad/.output/eagle/release/lib/libclad.a(messageRobotToEngine.o)
 .bss           0x000000003fff0dea        0x0 clad/.output/eagle/release/lib/libclad.a(otaMessages.o)
 .bss           0x000000003fff0dea        0x0 clad/.output/eagle/release/lib/libclad.a(animationKeyFrames.o)
 .bss           0x000000003fff0dea        0x0 clad/.output/eagle/release/lib/libclad.a(imageTypes.o)
 .bss           0x000000003fff0dea        0x0 clad/.output/eagle/release/lib/libclad.a(nvStorage.o)
 .bss           0x000000003fff0dea        0x0 clad/.output/eagle/release/lib/libclad.a(robotLogging.o)
 *fill*         0x000000003fff0dea        0x6 
 .bss           0x000000003fff0df0        0x8 ../lib/libnet80211.a(ieee80211_crypto_tkip.o)
 .bss           0x000000003fff0df8        0x0 ../lib/libnet80211.a(ieee80211_crypto_wep.o)
 .bss           0x000000003fff0df8        0x0 ../lib/libcrypto.a(aes-wrap.o)
 .bss           0x000000003fff0df8        0x0 ../lib/libcrypto.a(aes-internal-enc.o)
 .bss           0x000000003fff0df8        0x0 ../lib/libcrypto.a(aes-internal.o)
 *(.bss.*)
 .bss.s_dest$1955
                0x000000003fff0df8       0x10 hal/.output/eagle/release/lib/libuserhal.a(client.o)
 .bss.s_udp$1967
                0x000000003fff0e08       0x10 hal/.output/eagle/release/lib/libuserhal.a(client.o)
 .bss.s_socket$1966
                0x000000003fff0e18       0x1c hal/.output/eagle/release/lib/libuserhal.a(client.o)
 .bss.sendHoldoff
                0x000000003fff0e34        0x1 hal/.output/eagle/release/lib/libuserhal.a(client.o)
 .bss.accept    0x000000003fff0e35        0x1 hal/.output/eagle/release/lib/libuserhal.a(client.o)
 *fill*         0x000000003fff0e36        0x2 
 .bss.clientConnectionId
                0x000000003fff0e38        0x4 hal/.output/eagle/release/lib/libuserhal.a(client.o)
 .bss.clientConnection
                0x000000003fff0e3c        0x4 hal/.output/eagle/release/lib/libuserhal.a(client.o)
 .bss.socket    0x000000003fff0e40        0x4 hal/.output/eagle/release/lib/libuserhal.a(client.o)
 .bss.foregroundTaskQueue
                0x000000003fff0e44       0x80 hal/.output/eagle/release/lib/libuserhal.a(foregroundTask.o)
 .bss.nextCrashRecordSlot
                0x000000003fff0ec4        0x4 driver/.output/eagle/release/lib/libdriver.a(crash.o)
 .bss.factoryData
                0x000000003fff0ec8        0x8 driver/.output/eagle/release/lib/libdriver.a(factoryData.o)
 .bss.COZMO_BUILD_DATE
                0x000000003fff0ed0        0x4 driver/.output/eagle/release/lib/libdriver.a(factoryData.o)
                0x000000003fff0ed0                COZMO_BUILD_DATE
 .bss.COZMO_VERSION_ID
                0x000000003fff0ed4        0x4 driver/.output/eagle/release/lib/libdriver.a(factoryData.o)
                0x000000003fff0ed4                COZMO_VERSION_ID
 .bss.drop$2581
                0x000000003fff0ed8       0x64 driver/.output/eagle/release/lib/libdriver.a(i2spi.o)
 .bss.drift$2583
                0x000000003fff0f3c        0x2 driver/.output/eagle/release/lib/libdriver.a(i2spi.o)
 .bss.dropWrInd$2582
                0x000000003fff0f3e        0x1 driver/.output/eagle/release/lib/libdriver.a(i2spi.o)
 *fill*         0x000000003fff0f3f        0x1 
 .bss.dropPhase
                0x000000003fff0f40        0x2 driver/.output/eagle/release/lib/libdriver.a(i2spi.o)
                0x000000003fff0f40                dropPhase
 .bss.bootloaderCommandPhase
                0x000000003fff0f42        0x2 driver/.output/eagle/release/lib/libdriver.a(i2spi.o)
 .bss.pendingFWB
                0x000000003fff0f44        0x4 driver/.output/eagle/release/lib/libdriver.a(i2spi.o)
 .bss.rtipRXQueueEstimate
                0x000000003fff0f48        0x2 driver/.output/eagle/release/lib/libdriver.a(i2spi.o)
 .bss.rtipBootloaderState
                0x000000003fff0f4a        0x2 driver/.output/eagle/release/lib/libdriver.a(i2spi.o)
 .bss.messageBufferRind
                0x000000003fff0f4c        0x2 driver/.output/eagle/release/lib/libdriver.a(i2spi.o)
 .bss.messageBufferWind
                0x000000003fff0f4e        0x2 driver/.output/eagle/release/lib/libdriver.a(i2spi.o)
 .bss.messageBuffer
                0x000000003fff0f50      0x400 driver/.output/eagle/release/lib/libdriver.a(i2spi.o)
 .bss.resumePhase
                0x000000003fff1350        0x2 driver/.output/eagle/release/lib/libdriver.a(i2spi.o)
 .bss.outgoingPhase
                0x000000003fff1352        0x2 driver/.output/eagle/release/lib/libdriver.a(i2spi.o)
 .bss.nextOutgoingDesc
                0x000000003fff1354        0x4 driver/.output/eagle/release/lib/libdriver.a(i2spi.o)
 .bss.rxQueue   0x000000003fff1358       0x90 driver/.output/eagle/release/lib/libdriver.a(i2spi.o)
 .bss.rxBufs    0x000000003fff13e8     0x1800 driver/.output/eagle/release/lib/libdriver.a(i2spi.o)
 .bss.txFillCount
                0x000000003fff2be8        0x1 driver/.output/eagle/release/lib/libdriver.a(i2spi.o)
 *fill*         0x000000003fff2be9        0x3 
 .bss.txQueue   0x000000003fff2bec       0x90 driver/.output/eagle/release/lib/libdriver.a(i2spi.o)
 .bss.txBufs    0x000000003fff2c7c     0x1800 driver/.output/eagle/release/lib/libdriver.a(i2spi.o)
 .bss.reliableTransport_timeoutMicroseconds
                0x000000003fff447c        0x4 transport/.output/eagle/release/lib/libtransport.a(reliableTransport.o)
 .bss._ZZN4Anki5Cozmo14BackgroundTask4ExecEP11ETSEventTagE15lastErrorReport
                0x000000003fff4480        0x4 application/.output/eagle/release/lib/libapplication.a(backgroundTask.o)
 .bss._ZZN4Anki5Cozmo14BackgroundTask4ExecEP11ETSEventTagE17lastAnimStateTime
                0x000000003fff4484        0x4 application/.output/eagle/release/lib/libapplication.a(backgroundTask.o)
 .bss._ZZN4Anki5Cozmo14BackgroundTask4ExecEP11ETSEventTagE13periodicPrint
                0x000000003fff4488        0x1 application/.output/eagle/release/lib/libapplication.a(backgroundTask.o)
 *fill*         0x000000003fff4489        0x3 
 .bss._ZZN4Anki5Cozmo14BackgroundTask4ExecEP11ETSEventTagE7lastBTT
                0x000000003fff448c        0x4 application/.output/eagle/release/lib/libapplication.a(backgroundTask.o)
 .bss._ZZN4Anki5Cozmo14BackgroundTask33RadioConnectionStateMachineUpdateEvE19doRTDisconnectPhase
                0x000000003fff4490        0x1 application/.output/eagle/release/lib/libapplication.a(backgroundTask.o)
 .bss._ZZN4Anki5Cozmo14BackgroundTask33RadioConnectionStateMachineUpdateEvE16doRTConnectPhase
                0x000000003fff4491        0x1 application/.output/eagle/release/lib/libapplication.a(backgroundTask.o)
 .bss._ZZN4Anki5Cozmo14BackgroundTask33RadioConnectionStateMachineUpdateEvE12lastConCount
                0x000000003fff4492        0x1 application/.output/eagle/release/lib/libapplication.a(backgroundTask.o)
 .bss._ZZN4Anki5Cozmo14BackgroundTask33RadioConnectionStateMachineUpdateEvE12lastStaCount
                0x000000003fff4493        0x1 application/.output/eagle/release/lib/libapplication.a(backgroundTask.o)
 *fill*         0x000000003fff4494        0x4 
 .bss._ZGVZN4Anki5Cozmo14BackgroundTask4ExecEP11ETSEventTagE7lastBTT
                0x000000003fff4498        0x8 application/.output/eagle/release/lib/libapplication.a(backgroundTask.o)
 .bss.backgroundTaskQueue
                0x000000003fff44a0       0x10 application/.output/eagle/release/lib/libapplication.a(backgroundTask.o)
                0x000000003fff44a0                backgroundTaskQueue
 .bss._ZN4Anki5Cozmo13CrashReporterL11reportIndexE
                0x000000003fff44b0        0x4 application/.output/eagle/release/lib/libapplication.a(crashReporter.o)
 .bss._ZN4Anki5Cozmo13CrashReporterL18bodyCrashReadStateE
                0x000000003fff44b4        0x1 application/.output/eagle/release/lib/libapplication.a(crashReporter.o)
 .bss._ZN4Anki5Cozmo13CrashReporterL18rtipCrashReadStateE
                0x000000003fff44b5        0x1 application/.output/eagle/release/lib/libapplication.a(crashReporter.o)
 *fill*         0x000000003fff44b6        0x2 
 .bss._ZN4Anki5Cozmo13CrashReporterL12bodyCrashLogE
                0x000000003fff44b8        0x4 application/.output/eagle/release/lib/libapplication.a(crashReporter.o)
 .bss._ZN4Anki5Cozmo13CrashReporterL12rtipCrashLogE
                0x000000003fff44bc        0x4 application/.output/eagle/release/lib/libapplication.a(crashReporter.o)
 .bss._ZL4task  0x000000003fff44c0        0x4 application/.output/eagle/release/lib/libapplication.a(dhTask.o)
 .bss._ZL5state
                0x000000003fff44c4        0x4 application/.output/eagle/release/lib/libapplication.a(dhTask.o)
 .bss._ZZ14PumpScreenDataE13transmitChain
                0x000000003fff44c8        0x1 application/.output/eagle/release/lib/libapplication.a(face.o)
 .bss._ZN4Anki5Cozmo4Face5_modeE
                0x000000003fff44c9        0x1 application/.output/eagle/release/lib/libapplication.a(face.o)
                0x000000003fff44c9                _ZN4Anki5Cozmo4Face5_modeE
 .bss._ZN4Anki5Cozmo4Face10m_rectLockE
                0x000000003fff44ca        0x1 application/.output/eagle/release/lib/libapplication.a(face.o)
                0x000000003fff44ca                _ZN4Anki5Cozmo4Face10m_rectLockE
 *fill*         0x000000003fff44cb        0x1 
 .bss._ZN4Anki5Cozmo4Face16m_remainingRectsE
                0x000000003fff44cc        0x4 application/.output/eagle/release/lib/libapplication.a(face.o)
                0x000000003fff44cc                _ZN4Anki5Cozmo4Face16m_remainingRectsE
 .bss._ZN4Anki5Cozmo4Face12m_scanStatusE
                0x000000003fff44d0        0x3 application/.output/eagle/release/lib/libapplication.a(face.o)
                0x000000003fff44d0                _ZN4Anki5Cozmo4Face12m_scanStatusE
 *fill*         0x000000003fff44d3        0x1 
 .bss._ZN4Anki5Cozmo4Face12m_activeRectE
                0x000000003fff44d4        0x4 application/.output/eagle/release/lib/libapplication.a(face.o)
                0x000000003fff44d4                _ZN4Anki5Cozmo4Face12m_activeRectE
 .bss._ZN4Anki5Cozmo4Face7m_rectsE
                0x000000003fff44d8       0x14 application/.output/eagle/release/lib/libapplication.a(face.o)
                0x000000003fff44d8                _ZN4Anki5Cozmo4Face7m_rectsE
 *fill*         0x000000003fff44ec        0x4 
 .bss.m_frame   0x000000003fff44f0      0x460 application/.output/eagle/release/lib/libapplication.a(face.o)
                0x000000003fff44f0                m_frame
 .bss._ZZN4Anki5Cozmo14RobotInterface7SendLogEatthzE14missedMessages
                0x000000003fff4950        0x4 application/.output/eagle/release/lib/libapplication.a(messages.o)
 .bss._ZL12nvOpReportTo
                0x000000003fff4954        0x1 application/.output/eagle/release/lib/libapplication.a(messages.o)
 *fill*         0x000000003fff4955        0x3 
 .bss._ZZN4Anki5Cozmo9NVStorage6UpdateEvE6header
                0x000000003fff4958        0xc application/.output/eagle/release/lib/libapplication.a(nvStorage.o)
 .bss._ZN4Anki5Cozmo9NVStorageL2nvE
                0x000000003fff4964       0x38 application/.output/eagle/release/lib/libapplication.a(nvStorage.o)
 .bss._ZZ17AcceptRTIPMessageE11relayBuffer
                0x000000003fff499c      0x180 application/.output/eagle/release/lib/libapplication.a(rtip.o)
 .bss._ZZ17AcceptRTIPMessageE11relayQueued
                0x000000003fff4b1c        0x1 application/.output/eagle/release/lib/libapplication.a(rtip.o)
 .bss._ZN4Anki5Cozmo17UpgradeControllerL6aes_ivE
                0x000000003fff4b1d       0x10 application/.output/eagle/release/lib/libapplication.a(upgradeController.o)
 *fill*         0x000000003fff4b2d        0x3 
 .bss._ZN4Anki5Cozmo17UpgradeControllerL15firmware_digestE
                0x000000003fff4b30       0xd0 application/.output/eagle/release/lib/libapplication.a(upgradeController.o)
 .bss._ZN4Anki5Cozmo17UpgradeControllerL10receivedIVE
                0x000000003fff4c00        0x1 application/.output/eagle/release/lib/libapplication.a(upgradeController.o)
 .bss._ZN4Anki5Cozmo17UpgradeControllerL13haveValidCertE
                0x000000003fff4c01        0x1 application/.output/eagle/release/lib/libapplication.a(upgradeController.o)
 .bss._ZN4Anki5Cozmo17UpgradeControllerL15haveTerminationE
                0x000000003fff4c02        0x1 application/.output/eagle/release/lib/libapplication.a(upgradeController.o)
 .bss._ZN4Anki5Cozmo17UpgradeControllerL7didRTIPE
                0x000000003fff4c03        0x1 application/.output/eagle/release/lib/libapplication.a(upgradeController.o)
 .bss._ZN4Anki5Cozmo17UpgradeControllerL7didWiFiE
                0x000000003fff4c04        0x1 application/.output/eagle/release/lib/libapplication.a(upgradeController.o)
 *fill*         0x000000003fff4c05        0x3 
 .bss._ZN4Anki5Cozmo17UpgradeControllerL5phaseE
                0x000000003fff4c08        0x4 application/.output/eagle/release/lib/libapplication.a(upgradeController.o)
 .bss._ZN4Anki5Cozmo17UpgradeControllerL7retriesE
                0x000000003fff4c0c        0x1 application/.output/eagle/release/lib/libapplication.a(upgradeController.o)
 *fill*         0x000000003fff4c0d        0x1 
 .bss._ZN4Anki5Cozmo17UpgradeControllerL20acceptedPacketNumberE
                0x000000003fff4c0e        0x2 application/.output/eagle/release/lib/libapplication.a(upgradeController.o)
 .bss._ZN4Anki5Cozmo17UpgradeControllerL5timerE
                0x000000003fff4c10        0x4 application/.output/eagle/release/lib/libapplication.a(upgradeController.o)
 .bss._ZN4Anki5Cozmo17UpgradeControllerL7counterE
                0x000000003fff4c14        0x4 application/.output/eagle/release/lib/libapplication.a(upgradeController.o)
 .bss._ZN4Anki5Cozmo17UpgradeControllerL14bytesProcessedE
                0x000000003fff4c18        0x4 application/.output/eagle/release/lib/libapplication.a(upgradeController.o)
 .bss._ZN4Anki5Cozmo17UpgradeControllerL10bufferUsedE
                0x000000003fff4c1c        0x4 application/.output/eagle/release/lib/libapplication.a(upgradeController.o)
 .bss._ZN4Anki5Cozmo17UpgradeControllerL10bufferSizeE
                0x000000003fff4c20        0x4 application/.output/eagle/release/lib/libapplication.a(upgradeController.o)
 .bss._ZN4Anki5Cozmo17UpgradeControllerL6bufferE
                0x000000003fff4c24        0x4 application/.output/eagle/release/lib/libapplication.a(upgradeController.o)
 .bss._ZN4Anki5Cozmo17UpgradeControllerL15nextImageNumberE
                0x000000003fff4c28        0x4 application/.output/eagle/release/lib/libapplication.a(upgradeController.o)
 .bss._ZN4Anki5Cozmo17UpgradeControllerL14fwWriteAddressE
                0x000000003fff4c2c        0x4 application/.output/eagle/release/lib/libapplication.a(upgradeController.o)
 .bss._ZN4Anki5Cozmo19ActiveObjectManagerL18lastBodyUpdateTimeE
                0x000000003fff4c30        0x4 application/.output/eagle/release/lib/libapplication.a(activeObjectManager.o)
 .bss._ZN4Anki5Cozmo19ActiveObjectManagerL10needUpdateE
                0x000000003fff4c34        0x4 application/.output/eagle/release/lib/libapplication.a(activeObjectManager.o)
 .bss._ZN4Anki5Cozmo19ActiveObjectManagerL11assignmentsE
                0x000000003fff4c38       0x14 application/.output/eagle/release/lib/libapplication.a(activeObjectManager.o)
 .bss._ZN4Anki5Cozmo7FactoryL9birthCertE
                0x000000003fff4c4c        0xa factory/.output/eagle/release/lib/libfactory.a(factoryTests.o)
 *fill*         0x000000003fff4c56        0x2 
 .bss._ZN4Anki5Cozmo7FactoryL12maxPositionsE
                0x000000003fff4c58       0x10 factory/.output/eagle/release/lib/libfactory.a(factoryTests.o)
 .bss._ZN4Anki5Cozmo7FactoryL12minPositionsE
                0x000000003fff4c68       0x10 factory/.output/eagle/release/lib/libfactory.a(factoryTests.o)
 .bss._ZN4Anki5Cozmo7FactoryL9modeParamE
                0x000000003fff4c78        0x4 factory/.output/eagle/release/lib/libfactory.a(factoryTests.o)
 .bss._ZN4Anki5Cozmo7FactoryL11modeTimeoutE
                0x000000003fff4c7c        0x4 factory/.output/eagle/release/lib/libfactory.a(factoryTests.o)
 .bss._ZN4Anki5Cozmo7FactoryL12lastExecTimeE
                0x000000003fff4c80        0x4 factory/.output/eagle/release/lib/libfactory.a(factoryTests.o)
 .bss._ZN4Anki5Cozmo7FactoryL4modeE
                0x000000003fff4c84        0x4 factory/.output/eagle/release/lib/libfactory.a(factoryTests.o)
 .bss._ZN4Anki5Cozmo19AnimationController12_GLOBAL__N_19_disabledE
                0x000000003fff4c88        0x1 supervisor/.output/eagle/release/lib/libsupervisor.a(animationController.o)
 .bss._ZN4Anki5Cozmo19AnimationController12_GLOBAL__N_112_playSilenceE
                0x000000003fff4c89        0x1 supervisor/.output/eagle/release/lib/libsupervisor.a(animationController.o)
 .bss._ZN4Anki5Cozmo19AnimationController12_GLOBAL__N_113_audioReadIndE
                0x000000003fff4c8a        0x2 supervisor/.output/eagle/release/lib/libsupervisor.a(animationController.o)
 .bss._ZN4Anki5Cozmo19AnimationController12_GLOBAL__N_112_tracksInUseE
                0x000000003fff4c8c        0x4 supervisor/.output/eagle/release/lib/libsupervisor.a(animationController.o)
 .bss._ZN4Anki5Cozmo19AnimationController12_GLOBAL__N_113_tracksToPlayE
                0x000000003fff4c90        0x4 supervisor/.output/eagle/release/lib/libsupervisor.a(animationController.o)
 .bss._ZN4Anki5Cozmo19AnimationController12_GLOBAL__N_133_bufferFullMessagePrintedThisTickE
                0x000000003fff4c94        0x1 supervisor/.output/eagle/release/lib/libsupervisor.a(animationController.o)
 .bss._ZN4Anki5Cozmo19AnimationController12_GLOBAL__N_110_isPlayingE
                0x000000003fff4c95        0x1 supervisor/.output/eagle/release/lib/libsupervisor.a(animationController.o)
 .bss._ZN4Anki5Cozmo19AnimationController12_GLOBAL__N_129_haveReceivedTerminationFrameE
                0x000000003fff4c96        0x2 supervisor/.output/eagle/release/lib/libsupervisor.a(animationController.o)
 .bss._ZN4Anki5Cozmo19AnimationController12_GLOBAL__N_116_isBufferStarvedE
                0x000000003fff4c98        0x1 supervisor/.output/eagle/release/lib/libsupervisor.a(animationController.o)
 .bss._ZN4Anki5Cozmo19AnimationController12_GLOBAL__N_111_currentTagE
                0x000000003fff4c99        0x1 supervisor/.output/eagle/release/lib/libsupervisor.a(animationController.o)
 *fill*         0x000000003fff4c9a        0x2 
 .bss._ZN4Anki5Cozmo19AnimationController12_GLOBAL__N_121_numAudioFramesPlayedE
                0x000000003fff4c9c        0x4 supervisor/.output/eagle/release/lib/libsupervisor.a(animationController.o)
 .bss._ZN4Anki5Cozmo19AnimationController12_GLOBAL__N_117_numBytesInBufferE
                0x000000003fff4ca0        0x4 supervisor/.output/eagle/release/lib/libsupervisor.a(animationController.o)
 .bss._ZN4Anki5Cozmo19AnimationController12_GLOBAL__N_115_numBytesPlayedE
                0x000000003fff4ca4        0x4 supervisor/.output/eagle/release/lib/libsupervisor.a(animationController.o)
 .bss._ZN4Anki5Cozmo19AnimationController12_GLOBAL__N_123_numAudioFramesBufferedE
                0x000000003fff4ca8        0x4 supervisor/.output/eagle/release/lib/libsupervisor.a(animationController.o)
 .bss._ZN4Anki5Cozmo19AnimationController12_GLOBAL__N_114_lastBufferPosE
                0x000000003fff4cac        0x4 supervisor/.output/eagle/release/lib/libsupervisor.a(animationController.o)
 .bss._ZN4Anki5Cozmo19AnimationController12_GLOBAL__N_117_currentBufferPosE
                0x000000003fff4cb0        0x4 supervisor/.output/eagle/release/lib/libsupervisor.a(animationController.o)
 .bss._ZN4Anki5Cozmo19AnimationController12_GLOBAL__N_115_keyFrameBufferE
                0x000000003fff4cb4     0x4000 supervisor/.output/eagle/release/lib/libsupervisor.a(animationController.o)
 .bss._ZL3Key   0x000000003fff8cb4        0x4 crypto/.output/eagle/release/lib/libusercrypto.a(aes.o)
 .bss._ZL8RoundKey
                0x000000003fff8cb8       0xb0 crypto/.output/eagle/release/lib/libusercrypto.a(aes.o)
 .bss._ZL5state
                0x000000003fff8d68        0x4 crypto/.output/eagle/release/lib/libusercrypto.a(aes.o)
 .bss._ZZ20imageSenderQueueDataE3msg
                0x000000003fff8d6c      0x4c4 hal/.output/eagle/release/lib/libuserhal.a(radio.o)
 .bss._ZN4Anki5Cozmo17WiFiConfiguration12sessionTokenE
                0x000000003fff9230       0x10 hal/.output/eagle/release/lib/libuserhal.a(wifi_configuration.o)
                0x000000003fff9230                _ZN4Anki5Cozmo17WiFiConfiguration12sessionTokenE
 .bss._ZL9staConfig
                0x000000003fff9240       0x67 hal/.output/eagle/release/lib/libuserhal.a(wifi_configuration.o)
 *fill*         0x000000003fff92a7        0x1 
 .bss._ZL8apConfig
                0x000000003fff92a8       0x6c hal/.output/eagle/release/lib/libuserhal.a(wifi_configuration.o)
 *(.gnu.linkonce.b.*)
 *(COMMON)
 COMMON         0x000000003fff9314        0xc hal/.output/eagle/release/lib/libuserhal.a(user_main.o)
                0x000000003fff9314                wifiPsk
 COMMON         0x000000003fff9320      0xca0 hal/.output/eagle/release/lib/libuserhal.a(client.o)
                0x000000003fff9320                g_conn
 COMMON         0x000000003fff9fc0       0xd0 driver/.output/eagle/release/lib/libdriver.a(i2spi.o)
                0x000000003fff9fc0                i2spiPhaseErrorCount
                0x000000003fff9fc4                i2spiTaskQ
                0x000000003fffa084                i2spiIntegralDrift
                0x000000003fffa088                i2spiTxUnderflowCount
                0x000000003fffa08c                i2spiTxOverflowCount
                0x000000003fffa090                . = ALIGN (0x8)
                0x000000003fffa090                _bss_end = ABSOLUTE (.)
                0x000000003fffa090                _heap_start = ABSOLUTE (.)

.irom0.text     0x0000000040203030    0x3c324
                0x0000000040203030                _irom0_text_start = ABSOLUTE (.)
 factory/.output/eagle/release/lib/libfactory.a(.literal .text .literal.* .text.* .stub .gnu.warning .gnu.linkonce.literal.* .gnu.linkonce.t.*.literal .gnu.linkonce.t.*)
 .text._ZN4Anki5Cozmo7FactoryL13requestIMUCalEj
                0x0000000040203030       0x3b factory/.output/eagle/release/lib/libfactory.a(factoryTests.o)
                                         0x43 (size before relaxing)
 *fill*         0x000000004020306b        0x1 
 .text._ZN4Anki5Cozmo7FactoryL26IMUCalibrationReadCallbackEPNS0_9NVStorage13NVStorageBlobEa
                0x000000004020306c       0x86 factory/.output/eagle/release/lib/libfactory.a(factoryTests.o)
                                         0x9a (size before relaxing)
 *fill*         0x00000000402030f2        0x2 
 .text.hasBirthCertificate
                0x00000000402030f4       0x18 factory/.output/eagle/release/lib/libfactory.a(factoryTests.o)
                0x00000000402030f8                hasBirthCertificate
 .text._ZN4Anki5Cozmo7Factory4InitEv
                0x000000004020310c       0x20 factory/.output/eagle/release/lib/libfactory.a(factoryTests.o)
                                         0x24 (size before relaxing)
                0x0000000040203114                _ZN4Anki5Cozmo7Factory4InitEv
 .text._ZN4Anki5Cozmo7Factory7GetModeEv
                0x000000004020312c        0x7 factory/.output/eagle/release/lib/libfactory.a(factoryTests.o)
                                          0xb (size before relaxing)
                0x000000004020312c                _ZN4Anki5Cozmo7Factory7GetModeEv
 *fill*         0x0000000040203133        0x1 
 .text._ZN4Anki5Cozmo7Factory8GetParamEv
                0x0000000040203134        0xb factory/.output/eagle/release/lib/libfactory.a(factoryTests.o)
                0x0000000040203138                _ZN4Anki5Cozmo7Factory8GetParamEv
 *fill*         0x000000004020313f        0x1 
 .text._ZN4Anki5Cozmo7Factory7SetModeEii
                0x0000000040203140       0xed factory/.output/eagle/release/lib/libfactory.a(factoryTests.o)
                                        0x131 (size before relaxing)
                0x0000000040203150                _ZN4Anki5Cozmo7Factory7SetModeEii
 *fill*         0x000000004020322d        0x3 
 .text._ZN4Anki5Cozmo7Factory6UpdateEv
                0x0000000040203230      0x14b factory/.output/eagle/release/lib/libfactory.a(factoryTests.o)
                                        0x1a3 (size before relaxing)
                0x0000000040203264                _ZN4Anki5Cozmo7Factory6UpdateEv
 *fill*         0x000000004020337b        0x1 
 .text._ZN4Anki5Cozmo7FactoryL28BirthCertificateReadCallbackEPNS0_9NVStorage13NVStorageBlobEa
                0x000000004020337c       0x3f factory/.output/eagle/release/lib/libfactory.a(factoryTests.o)
                                         0x57 (size before relaxing)
 *fill*         0x00000000402033bb        0x1 
 .text._ZN4Anki5Cozmo7Factory17Process_TestStateERKNS0_14RobotInterface9TestStateE
                0x00000000402033bc      0x18f factory/.output/eagle/release/lib/libfactory.a(factoryTests.o)
                                        0x1e7 (size before relaxing)
                0x00000000402033d0                _ZN4Anki5Cozmo7Factory17Process_TestStateERKNS0_14RobotInterface9TestStateE
 *fill*         0x000000004020354b        0x1 
 .text._ZN4Anki5Cozmo7Factory28Process_EnterFactoryTestModeERKNS0_14RobotInterface20EnterFactoryTestModeE
                0x000000004020354c       0x1f factory/.output/eagle/release/lib/libfactory.a(factoryTests.o)
                                         0x27 (size before relaxing)
                0x000000004020354c                _ZN4Anki5Cozmo7Factory28Process_EnterFactoryTestModeERKNS0_14RobotInterface20EnterFactoryTestModeE
 *fill*         0x000000004020356b        0x1 
 .literal._ZN4Anki5Cozmo7FactoryL13requestIMUCalEj
                0x000000004020356c        0x0 factory/.output/eagle/release/lib/libfactory.a(factoryTests.o)
 .literal._ZN4Anki5Cozmo7FactoryL26IMUCalibrationReadCallbackEPNS0_9NVStorage13NVStorageBlobEa
                0x000000004020356c        0x0 factory/.output/eagle/release/lib/libfactory.a(factoryTests.o)
 .literal.hasBirthCertificate
                0x000000004020356c        0x0 factory/.output/eagle/release/lib/libfactory.a(factoryTests.o)
 .literal._ZN4Anki5Cozmo7Factory4InitEv
                0x000000004020356c        0x0 factory/.output/eagle/release/lib/libfactory.a(factoryTests.o)
 .literal._ZN4Anki5Cozmo7Factory7GetModeEv
                0x000000004020356c        0x0 factory/.output/eagle/release/lib/libfactory.a(factoryTests.o)
 .literal._ZN4Anki5Cozmo7Factory8GetParamEv
                0x000000004020356c        0x0 factory/.output/eagle/release/lib/libfactory.a(factoryTests.o)
 .literal._ZN4Anki5Cozmo7Factory7SetModeEii
                0x000000004020356c        0x0 factory/.output/eagle/release/lib/libfactory.a(factoryTests.o)
 .literal._ZN4Anki5Cozmo7Factory6UpdateEv
                0x000000004020356c        0x0 factory/.output/eagle/release/lib/libfactory.a(factoryTests.o)
 .literal._ZN4Anki5Cozmo7FactoryL28BirthCertificateReadCallbackEPNS0_9NVStorage13NVStorageBlobEa
                0x000000004020356c        0x0 factory/.output/eagle/release/lib/libfactory.a(factoryTests.o)
 .literal._ZN4Anki5Cozmo7Factory17Process_TestStateERKNS0_14RobotInterface9TestStateE
                0x000000004020356c        0x0 factory/.output/eagle/release/lib/libfactory.a(factoryTests.o)
 .literal._ZN4Anki5Cozmo7Factory28Process_EnterFactoryTestModeERKNS0_14RobotInterface20EnterFactoryTestModeE
                0x000000004020356c        0x0 factory/.output/eagle/release/lib/libfactory.a(factoryTests.o)
 .text          0x000000004020356c        0x0 factory/.output/eagle/release/lib/libfactory.a(factoryTests.o)
 *fill*         0x000000004020356c        0x0 
 *fill*         0x000000004020356c        0x0 
 *fill*         0x000000004020356c        0x0 
 *fill*         0x000000004020356c        0x0 
 *fill*         0x000000004020356c        0x0 
 *fill*         0x000000004020356c        0x0 
 *fill*         0x000000004020356c        0x0 
 *fill*         0x000000004020356c        0x0 
 application/.output/eagle/release/lib/libapplication.a(.literal .text .literal.* .text.* .stub .gnu.warning .gnu.linkonce.literal.* .gnu.linkonce.t.*.literal .gnu.linkonce.t.*)
 .text._ZN4Anki5Cozmo19ActiveObjectManager4InitEv
                0x000000004020356c       0x3b application/.output/eagle/release/lib/libapplication.a(activeObjectManager.o)
                                         0x3f (size before relaxing)
                0x0000000040203578                _ZN4Anki5Cozmo19ActiveObjectManager4InitEv
 *fill*         0x00000000402035a7        0x1 
 .text._ZN4Anki5Cozmo19ActiveObjectManager6UpdateEv
                0x00000000402035a8       0x82 application/.output/eagle/release/lib/libapplication.a(activeObjectManager.o)
                                         0x9e (size before relaxing)
                0x00000000402035ac                _ZN4Anki5Cozmo19ActiveObjectManager6UpdateEv
 *fill*         0x000000004020362a        0x2 
 .text._ZN4Anki5Cozmo19ActiveObjectManager8SetSlotsEhhPKj
                0x000000004020362c       0x56 application/.output/eagle/release/lib/libapplication.a(activeObjectManager.o)
                                         0x5e (size before relaxing)
                0x000000004020362c                _ZN4Anki5Cozmo19ActiveObjectManager8SetSlotsEhhPKj
 *fill*         0x0000000040203682        0x2 
 .text._ZN4Anki5Cozmo19ActiveObjectManager10DisconnectEh
                0x0000000040203684       0x1d application/.output/eagle/release/lib/libapplication.a(activeObjectManager.o)
                                         0x21 (size before relaxing)
                0x0000000040203684                _ZN4Anki5Cozmo19ActiveObjectManager10DisconnectEh
 *fill*         0x00000000402036a1        0x3 
 .text._ZN4Anki5Cozmo19ActiveObjectManager13DisconnectAllEv
                0x00000000402036a4       0x28 application/.output/eagle/release/lib/libapplication.a(activeObjectManager.o)
                                         0x2c (size before relaxing)
                0x00000000402036a8                _ZN4Anki5Cozmo19ActiveObjectManager13DisconnectAllEv
 .text._ZN4Anki5Cozmo14BackgroundTask33RadioConnectionStateMachineUpdateEv
                0x00000000402036cc      0x1d8 application/.output/eagle/release/lib/libapplication.a(backgroundTask.o)
                                        0x24c (size before relaxing)
                0x00000000402036f0                _ZN4Anki5Cozmo14BackgroundTask33RadioConnectionStateMachineUpdateEv
 .text._ZN4Anki5Cozmo14BackgroundTask4ExecEP11ETSEventTag
                0x00000000402038a4      0x18a application/.output/eagle/release/lib/libapplication.a(backgroundTask.o)
                                        0x1e2 (size before relaxing)
                0x00000000402038d0                _ZN4Anki5Cozmo14BackgroundTask4ExecEP11ETSEventTag
 *fill*         0x0000000040203a2e        0x2 
 .text.backgroundTaskInit
                0x0000000040203a30      0x131 application/.output/eagle/release/lib/libapplication.a(backgroundTask.o)
                                        0x1a5 (size before relaxing)
                0x0000000040203a64                backgroundTaskInit
 *fill*         0x0000000040203b61        0x3 
 .text.i2spiSynchronizedCallback
                0x0000000040203b64       0x1b application/.output/eagle/release/lib/libapplication.a(backgroundTask.o)
                                         0x27 (size before relaxing)
                0x0000000040203b64                i2spiSynchronizedCallback
 *fill*         0x0000000040203b7f        0x1 
 .text._ZN4Anki5Cozmo14RobotInterface11SendMessageERKNS0_16WriteBodyStorageE
                0x0000000040203b80       0x22 application/.output/eagle/release/lib/libapplication.a(crashReporter.o)
                                         0x2e (size before relaxing)
                0x0000000040203b80                _ZN4Anki5Cozmo14RobotInterface11SendMessageERKNS0_16WriteBodyStorageE
 *fill*         0x0000000040203ba2        0x2 
 .text._ZN4Anki5Cozmo13CrashReporter4InitEv
                0x0000000040203ba4       0x39 application/.output/eagle/release/lib/libapplication.a(crashReporter.o)
                0x0000000040203bb8                _ZN4Anki5Cozmo13CrashReporter4InitEv
 *fill*         0x0000000040203bdd        0x3 
 .text._ZN4Anki5Cozmo13CrashReporter12StartSendingEv
                0x0000000040203be0        0x9 application/.output/eagle/release/lib/libapplication.a(crashReporter.o)
                                          0xd (size before relaxing)
                0x0000000040203be0                _ZN4Anki5Cozmo13CrashReporter12StartSendingEv
 *fill*         0x0000000040203be9        0x3 
 .text._ZN4Anki5Cozmo13CrashReporter11StartQuerryEv
                0x0000000040203bec        0xa application/.output/eagle/release/lib/libapplication.a(crashReporter.o)
                                          0xe (size before relaxing)
                0x0000000040203bec                _ZN4Anki5Cozmo13CrashReporter11StartQuerryEv
 *fill*         0x0000000040203bf6        0x2 
 .text._ZN4Anki5Cozmo13CrashReporter6UpdateEv
                0x0000000040203bf8      0x217 application/.output/eagle/release/lib/libapplication.a(crashReporter.o)
                                        0x27f (size before relaxing)
                0x0000000040203c08                _ZN4Anki5Cozmo13CrashReporter6UpdateEv
 *fill*         0x0000000040203e0f        0x1 
 .text._ZN4Anki5Cozmo13CrashReporter17AcceptBodyStorageERNS0_19BodyStorageContentsE
                0x0000000040203e10       0xf1 application/.output/eagle/release/lib/libapplication.a(crashReporter.o)
                                        0x115 (size before relaxing)
                0x0000000040203e14                _ZN4Anki5Cozmo13CrashReporter17AcceptBodyStorageERNS0_19BodyStorageContentsE
 *fill*         0x0000000040203f01        0x3 
 .text._ZN13DiffieHellman4InitEv
                0x0000000040203f04       0x18 application/.output/eagle/release/lib/libapplication.a(dhTask.o)
                0x0000000040203f0c                _ZN13DiffieHellman4InitEv
 .text._ZN13DiffieHellman5StartEPKhS1_
                0x0000000040203f1c       0x8f application/.output/eagle/release/lib/libapplication.a(dhTask.o)
                                         0xaf (size before relaxing)
                0x0000000040203f28                _ZN13DiffieHellman5StartEPKhS1_
 *fill*         0x0000000040203fab        0x1 
 .text._ZN13DiffieHellman6UpdateEv
                0x0000000040203fac      0x168 application/.output/eagle/release/lib/libapplication.a(dhTask.o)
                                        0x1bc (size before relaxing)
                0x0000000040203fc0                _ZN13DiffieHellman6UpdateEv
 .text._ZN4Anki5Cozmo4FaceL9ResetScanEv
                0x0000000040204114       0x2f application/.output/eagle/release/lib/libapplication.a(face.o)
 *fill*         0x0000000040204143        0x1 
 .text._ZN4Anki5Cozmo4FaceL16ConsolidateRectsEb
                0x0000000040204144      0x172 application/.output/eagle/release/lib/libapplication.a(face.o)
                                        0x18a (size before relaxing)
 *fill*         0x00000000402042b6        0x2 
 .text._ZN4Anki5Cozmo4FaceL11ResetScreenEv
                0x00000000402042b8       0x46 application/.output/eagle/release/lib/libapplication.a(face.o)
                                         0x5a (size before relaxing)
 *fill*         0x00000000402042fe        0x2 
 .text._ZN4Anki5Cozmo4FaceL11CreateRectsEPyhhhh$constprop$1
                0x0000000040204300       0xda application/.output/eagle/release/lib/libapplication.a(face.o)
                                         0xfa (size before relaxing)
 *fill*         0x00000000402043da        0x2 
 .text._Z17FaceDisplayDecodePKhhhPy
                0x00000000402043dc       0xf1 application/.output/eagle/release/lib/libapplication.a(face.o)
                                         0xf5 (size before relaxing)
                0x00000000402043ec                _Z17FaceDisplayDecodePKhhhPy
 *fill*         0x00000000402044cd        0x3 
 .text._ZN4Anki5Cozmo4Face4InitEv
                0x00000000402044d0       0x1d application/.output/eagle/release/lib/libapplication.a(face.o)
                                         0x25 (size before relaxing)
                0x00000000402044d4                _ZN4Anki5Cozmo4Face4InitEv
 *fill*         0x00000000402044ed        0x3 
 .text.PumpScreenData
                0x00000000402044f0       0xb2 application/.output/eagle/release/lib/libapplication.a(face.o)
                                         0xd2 (size before relaxing)
                0x00000000402044f4                PumpScreenData
 *fill*         0x00000000402045a2        0x2 
 .text._ZN4Anki5Cozmo4Face14PrintFormattedEPc
                0x00000000402045a4       0xb0 application/.output/eagle/release/lib/libapplication.a(face.o)
                                         0xc0 (size before relaxing)
                0x00000000402045a8                _ZN4Anki5Cozmo4Face14PrintFormattedEPc
 .text._ZN4Anki5Cozmo4Face8DecToBCDEj
                0x0000000040204654       0x4a application/.output/eagle/release/lib/libapplication.a(face.o)
                                         0x4e (size before relaxing)
                0x0000000040204658                _ZN4Anki5Cozmo4Face8DecToBCDEj
 *fill*         0x000000004020469e        0x2 
 .text._ZN4Anki5Cozmo4Face4Draw5ClearEPy
                0x00000000402046a0       0x17 application/.output/eagle/release/lib/libapplication.a(face.o)
                                         0x1b (size before relaxing)
                0x00000000402046a0                _ZN4Anki5Cozmo4Face4Draw5ClearEPy
 *fill*         0x00000000402046b7        0x1 
 .text._ZN4Anki5Cozmo4Face4Draw4CopyEPyPKy
                0x00000000402046b8       0x15 application/.output/eagle/release/lib/libapplication.a(face.o)
                                         0x19 (size before relaxing)
                0x00000000402046b8                _ZN4Anki5Cozmo4Face4Draw4CopyEPyPKy
 *fill*         0x00000000402046cd        0x3 
 .text._ZN4Anki5Cozmo4Face4Draw4CopyEPyPKjiii
                0x00000000402046d0       0x76 application/.output/eagle/release/lib/libapplication.a(face.o)
                                         0x7e (size before relaxing)
                0x00000000402046d0                _ZN4Anki5Cozmo4Face4Draw4CopyEPyPKjiii
 *fill*         0x0000000040204746        0x2 
 .text._ZN4Anki5Cozmo4Face4Draw6NumberEPyijii
                0x0000000040204748       0xc9 application/.output/eagle/release/lib/libapplication.a(face.o)
                                         0xd5 (size before relaxing)
                0x0000000040204750                _ZN4Anki5Cozmo4Face4Draw6NumberEPyijii
 *fill*         0x0000000040204811        0x3 
 .text._ZN4Anki5Cozmo4Face4Draw5PrintEPyPKciii
                0x0000000040204814       0xf8 application/.output/eagle/release/lib/libapplication.a(face.o)
                                        0x104 (size before relaxing)
                0x000000004020481c                _ZN4Anki5Cozmo4Face4Draw5PrintEPyPKciii
 .text._ZN4Anki5Cozmo4Face4Draw4FlipEPy
                0x000000004020490c        0xf application/.output/eagle/release/lib/libapplication.a(face.o)
                                         0x17 (size before relaxing)
                0x000000004020490c                _ZN4Anki5Cozmo4Face4Draw4FlipEPy
 *fill*         0x000000004020491b        0x1 
 .text._ZN4Anki5Cozmo4Face5ClearEv
                0x000000004020491c       0x2c application/.output/eagle/release/lib/libapplication.a(face.o)
                                         0x34 (size before relaxing)
                0x000000004020491c                _ZN4Anki5Cozmo4Face5ClearEv
 .text.FacePrintf
                0x0000000040204948       0x69 application/.output/eagle/release/lib/libapplication.a(face.o)
                                         0x79 (size before relaxing)
                0x0000000040204948                FacePrintf
 *fill*         0x00000000402049b1        0x3 
 .text.FaceDebugPrintf
                0x00000000402049b4       0x5b application/.output/eagle/release/lib/libapplication.a(face.o)
                                         0x6b (size before relaxing)
                0x00000000402049b4                FaceDebugPrintf
 *fill*         0x0000000040204a0f        0x1 
 .text.FaceUnPrintf
                0x0000000040204a10       0x2a application/.output/eagle/release/lib/libapplication.a(face.o)
                                         0x3a (size before relaxing)
                0x0000000040204a10                FaceUnPrintf
 *fill*         0x0000000040204a3a        0x2 
 .text._ZN4Anki5Cozmo4Face17GetRemainingRectsEv
                0x0000000040204a3c        0x7 application/.output/eagle/release/lib/libapplication.a(face.o)
                                          0xb (size before relaxing)
                0x0000000040204a3c                _ZN4Anki5Cozmo4Face17GetRemainingRectsEv
 *fill*         0x0000000040204a43        0x1 
 .text._ZN4Anki5Cozmo3HAL11FaceAnimateEPht
                0x0000000040204a44       0x45 application/.output/eagle/release/lib/libapplication.a(face.o)
                                         0x59 (size before relaxing)
                0x0000000040204a44                _ZN4Anki5Cozmo3HAL11FaceAnimateEPht
 *fill*         0x0000000040204a89        0x3 
 .text._ZN4Anki5Cozmo8Messages8SendTextEaPKc13__va_list_tag
                0x0000000040204a8c       0x6a application/.output/eagle/release/lib/libapplication.a(messages.o)
                                         0x86 (size before relaxing)
                0x0000000040204a8c                _ZN4Anki5Cozmo8Messages8SendTextEaPKc13__va_list_tag
 *fill*         0x0000000040204af6        0x2 
 .text._ZN4Anki5Cozmo8Messages8SendTextEPKcz
                0x0000000040204af8       0x2d application/.output/eagle/release/lib/libapplication.a(messages.o)
                                         0x35 (size before relaxing)
                0x0000000040204af8                _ZN4Anki5Cozmo8Messages8SendTextEPKcz
 *fill*         0x0000000040204b25        0x3 
 .text._ZN4Anki5Cozmo14RobotInterface7SendLogEatthz
                0x0000000040204b28       0xc1 application/.output/eagle/release/lib/libapplication.a(messages.o)
                                         0xcd (size before relaxing)
                0x0000000040204b2c                _ZN4Anki5Cozmo14RobotInterface7SendLogEatthz
 *fill*         0x0000000040204be9        0x3 
 .text._ZN4Anki5Cozmo8MessagesL14SendNVOpResultEPKNS0_9NVStorage10NVOpResultEa
                0x0000000040204bec       0x65 application/.output/eagle/release/lib/libapplication.a(messages.o)
                                         0x7d (size before relaxing)
 *fill*         0x0000000040204c51        0x3 
 .text._ZN4Anki5Cozmo8MessagesL17NVMultiReadDoneCBEja
                0x0000000040204c54       0x2b application/.output/eagle/release/lib/libapplication.a(messages.o)
                                         0x33 (size before relaxing)
 *fill*         0x0000000040204c7f        0x1 
 .text._ZN4Anki5Cozmo8MessagesL18NVMultiEraseDoneCBEja
                0x0000000040204c80       0x27 application/.output/eagle/release/lib/libapplication.a(messages.o)
                                         0x33 (size before relaxing)
 *fill*         0x0000000040204ca7        0x1 
 .text._ZN4Anki5Cozmo8MessagesL19NVEraseDoneCallbackEja
                0x0000000040204ca8       0x27 application/.output/eagle/release/lib/libapplication.a(messages.o)
                                         0x33 (size before relaxing)
 *fill*         0x0000000040204ccf        0x1 
 .text._ZN4Anki5Cozmo8MessagesL19NVWriteDoneCallbackEPKNS0_9NVStorage13NVStorageBlobEa
                0x0000000040204cd0       0x2c application/.output/eagle/release/lib/libapplication.a(messages.o)
                                         0x34 (size before relaxing)
 .text._ZN4Anki5Cozmo8MessagesL12NVReadDoneCBEPNS0_9NVStorage13NVStorageBlobEa
                0x0000000040204cfc       0xae application/.output/eagle/release/lib/libapplication.a(messages.o)
                                         0xe2 (size before relaxing)
 *fill*         0x0000000040204daa        0x2 
 .text.ProcessMessage
                0x0000000040204dac      0x3d7 application/.output/eagle/release/lib/libapplication.a(messages.o)
                                        0x4db (size before relaxing)
                0x0000000040204dd4                ProcessMessage
 *fill*         0x0000000040205183        0x1 
 .text._ZN4Anki5Cozmo9NVStorageL17getStartOfSegmentEv
                0x0000000040205184       0x36 application/.output/eagle/release/lib/libapplication.a(nvStorage.o)
 *fill*         0x00000000402051ba        0x2 
 .text._ZN4Anki5Cozmo9NVStorageL10resetEraseEv
                0x00000000402051bc       0x3b application/.output/eagle/release/lib/libapplication.a(nvStorage.o)
                                         0x47 (size before relaxing)
 *fill*         0x00000000402051f7        0x1 
 .text._ZN4Anki5Cozmo9NVStorageL9resetReadEv
                0x00000000402051f8       0x3b application/.output/eagle/release/lib/libapplication.a(nvStorage.o)
                                         0x47 (size before relaxing)
 *fill*         0x0000000040205233        0x1 
 .text._ZN4Anki5Cozmo9NVStorageL10resetWriteEv
                0x0000000040205234       0x4b application/.output/eagle/release/lib/libapplication.a(nvStorage.o)
                                         0x57 (size before relaxing)
 *fill*         0x000000004020527f        0x1 
 .text._ZN4Anki5Cozmo9NVStorageL21GarbageCollectionTaskEj
                0x0000000040205280      0x3f6 application/.output/eagle/release/lib/libapplication.a(nvStorage.o)
                                        0x462 (size before relaxing)
 *fill*         0x0000000040205676        0x2 
 .text._ZN4Anki5Cozmo9NVStorageL8endWriteEa
                0x0000000040205678       0x51 application/.output/eagle/release/lib/libapplication.a(nvStorage.o)
                                         0x61 (size before relaxing)
 *fill*         0x00000000402056c9        0x3 
 .text._ZN4Anki5Cozmo9NVStorageL14processFailureEa
                0x00000000402056cc       0x8b application/.output/eagle/release/lib/libapplication.a(nvStorage.o)
                                         0xa7 (size before relaxing)
 *fill*         0x0000000040205757        0x1 
 .text._ZN4Anki5Cozmo9NVStorage11WipeAllTaskEj
                0x0000000040205758       0xeb application/.output/eagle/release/lib/libapplication.a(nvStorage.o)
                                        0x10f (size before relaxing)
                0x000000004020575c                _ZN4Anki5Cozmo9NVStorage11WipeAllTaskEj
 *fill*         0x0000000040205843        0x1 
 .text._ZN4Anki5Cozmo9NVStorageL6isBusyEv
                0x0000000040205844       0x18 application/.output/eagle/release/lib/libapplication.a(nvStorage.o)
                                         0x1c (size before relaxing)
 .text.GarbageCollect
                0x000000004020585c       0x87 application/.output/eagle/release/lib/libapplication.a(nvStorage.o)
                                         0x9f (size before relaxing)
                0x0000000040205868                GarbageCollect
 *fill*         0x00000000402058e3        0x1 
 .text.NVInit   0x00000000402058e4      0x1b5 application/.output/eagle/release/lib/libapplication.a(nvStorage.o)
                                        0x211 (size before relaxing)
                0x00000000402058fc                NVInit
 *fill*         0x0000000040205a99        0x3 
 .text._ZN4Anki5Cozmo9NVStorage6UpdateEv
                0x0000000040205a9c      0x6a2 application/.output/eagle/release/lib/libapplication.a(nvStorage.o)
                                        0x75e (size before relaxing)
                0x0000000040205ab0                _ZN4Anki5Cozmo9NVStorage6UpdateEv
 *fill*         0x000000004020613e        0x2 
 .text._ZN4Anki5Cozmo9NVStorage5WriteEPNS1_13NVStorageBlobEPFvPKS2_aE
                0x0000000040206140       0x8a application/.output/eagle/release/lib/libapplication.a(nvStorage.o)
                                         0xaa (size before relaxing)
                0x0000000040206144                _ZN4Anki5Cozmo9NVStorage5WriteEPNS1_13NVStorageBlobEPFvPKS2_aE
 *fill*         0x00000000402061ca        0x2 
 .text._ZN4Anki5Cozmo9NVStorage10EraseRangeEjjPFvjaES3_
                0x00000000402061cc       0x4c application/.output/eagle/release/lib/libapplication.a(nvStorage.o)
                                         0x60 (size before relaxing)
                0x00000000402061cc                _ZN4Anki5Cozmo9NVStorage10EraseRangeEjjPFvjaES3_
 .text._ZN4Anki5Cozmo9NVStorage5EraseEjPFvjaE
                0x0000000040206218       0x1a application/.output/eagle/release/lib/libapplication.a(nvStorage.o)
                                         0x22 (size before relaxing)
                0x0000000040206218                _ZN4Anki5Cozmo9NVStorage5EraseEjPFvjaE
 *fill*         0x0000000040206232        0x2 
 .text._ZN4Anki5Cozmo9NVStorage9ReadRangeEjjPFvPNS1_13NVStorageBlobEaEPFvjaE
                0x0000000040206234       0x92 application/.output/eagle/release/lib/libapplication.a(nvStorage.o)
                                         0xa6 (size before relaxing)
                0x0000000040206238                _ZN4Anki5Cozmo9NVStorage9ReadRangeEjjPFvPNS1_13NVStorageBlobEaEPFvjaE
 *fill*         0x00000000402062c6        0x2 
 .text._ZN4Anki5Cozmo9NVStorage4ReadEjPFvPNS1_13NVStorageBlobEaE
                0x00000000402062c8       0x1a application/.output/eagle/release/lib/libapplication.a(nvStorage.o)
                                         0x22 (size before relaxing)
                0x00000000402062c8                _ZN4Anki5Cozmo9NVStorage4ReadEjPFvPNS1_13NVStorageBlobEaE
 *fill*         0x00000000402062e2        0x2 
 .text._ZN4Anki5Cozmo9NVStorage7WipeAllEhbPFvjaEbb
                0x00000000402062e4       0xa8 application/.output/eagle/release/lib/libapplication.a(nvStorage.o)
                                         0xc8 (size before relaxing)
                0x00000000402062e8                _ZN4Anki5Cozmo9NVStorage7WipeAllEhbPFvjaEbb
 .text._ZN4Anki5Cozmo4RTIP11SendMessageEPKhth
                0x000000004020638c       0xbe application/.output/eagle/release/lib/libapplication.a(rtip.o)
                                         0xda (size before relaxing)
                0x000000004020638c                _ZN4Anki5Cozmo4RTIP11SendMessageEPKhth
 *fill*         0x000000004020644a        0x2 
 .text._ZN4Anki5Cozmo4RTIP11SendMessageERNS0_14RobotInterface13EngineToRobotE
                0x000000004020644c       0x22 application/.output/eagle/release/lib/libapplication.a(rtip.o)
                                         0x2e (size before relaxing)
                0x000000004020644c                _ZN4Anki5Cozmo4RTIP11SendMessageERNS0_14RobotInterface13EngineToRobotE
 *fill*         0x000000004020646e        0x2 
 .text.AcceptRTIPMessage
                0x0000000040206470      0x184 application/.output/eagle/release/lib/libapplication.a(rtip.o)
                                        0x1cc (size before relaxing)
                0x0000000040206480                AcceptRTIPMessage
 .text._ZN4Anki5Cozmo17UpgradeControllerL5ResetEv
                0x00000000402065f4       0x54 application/.output/eagle/release/lib/libapplication.a(upgradeController.o)
                                         0x64 (size before relaxing)
 .text._ZN4Anki5Cozmo14RobotInterface11SendMessageERKNS1_3OTA3AckE
                0x0000000040206648       0x17 application/.output/eagle/release/lib/libapplication.a(upgradeController.o)
                                         0x1b (size before relaxing)
                0x0000000040206648                _ZN4Anki5Cozmo14RobotInterface11SendMessageERKNS1_3OTA3AckE
 *fill*         0x000000004020665f        0x1 
 .text._Z10gen_randomPvi
                0x0000000040206660        0xf application/.output/eagle/release/lib/libapplication.a(upgradeController.o)
                                         0x17 (size before relaxing)
                0x0000000040206660                _Z10gen_randomPvi
 *fill*         0x000000004020666f        0x1 
 .text._ZN4Anki5Cozmo17UpgradeController4InitEv
                0x0000000040206670      0x1d2 application/.output/eagle/release/lib/libapplication.a(upgradeController.o)
                                        0x206 (size before relaxing)
                0x00000000402066ec                _ZN4Anki5Cozmo17UpgradeController4InitEv
 *fill*         0x0000000040206842        0x2 
 .text._ZN4Anki5Cozmo17UpgradeController5WriteERNS0_14RobotInterface3OTA5WriteE
                0x0000000040206844      0x143 application/.output/eagle/release/lib/libapplication.a(upgradeController.o)
                                        0x19b (size before relaxing)
                0x000000004020685c                _ZN4Anki5Cozmo17UpgradeController5WriteERNS0_14RobotInterface3OTA5WriteE
 *fill*         0x0000000040206987        0x1 
 .text._ZN4Anki5Cozmo17UpgradeController6UpdateEv
                0x0000000040206988      0xb3e application/.output/eagle/release/lib/libapplication.a(upgradeController.o)
                                        0xdd6 (size before relaxing)
                0x0000000040206a78                _ZN4Anki5Cozmo17UpgradeController6UpdateEv
 *fill*         0x00000000402074c6        0x2 
 .text._ZN4Anki5Cozmo17UpgradeController12OnDisconnectEv
                0x00000000402074c8       0x1f application/.output/eagle/release/lib/libapplication.a(upgradeController.o)
                                         0x27 (size before relaxing)
                0x00000000402074c8                _ZN4Anki5Cozmo17UpgradeController12OnDisconnectEv
 *fill*         0x00000000402074e7        0x1 
 .text._ZN4Anki5Cozmo17UpgradeController14GetVersionInfoEv
                0x00000000402074e8        0x5 application/.output/eagle/release/lib/libapplication.a(upgradeController.o)
                                          0x9 (size before relaxing)
                0x00000000402074e8                _ZN4Anki5Cozmo17UpgradeController14GetVersionInfoEv
 *fill*         0x00000000402074ed        0x3 
 .text.GetFirmwareVersion
                0x00000000402074f0        0x7 application/.output/eagle/release/lib/libapplication.a(upgradeController.o)
                                          0xb (size before relaxing)
                0x00000000402074f0                GetFirmwareVersion
 *fill*         0x00000000402074f7        0x1 
 .text.GetBuildTime
                0x00000000402074f8        0x7 application/.output/eagle/release/lib/libapplication.a(upgradeController.o)
                                          0xb (size before relaxing)
                0x00000000402074f8                GetBuildTime
 *fill*         0x00000000402074ff        0x1 
 .literal._ZN4Anki5Cozmo19ActiveObjectManager4InitEv
                0x0000000040207500        0x0 application/.output/eagle/release/lib/libapplication.a(activeObjectManager.o)
 .literal._ZN4Anki5Cozmo19ActiveObjectManager6UpdateEv
                0x0000000040207500        0x0 application/.output/eagle/release/lib/libapplication.a(activeObjectManager.o)
 .literal._ZN4Anki5Cozmo19ActiveObjectManager8SetSlotsEhhPKj
                0x0000000040207500        0x0 application/.output/eagle/release/lib/libapplication.a(activeObjectManager.o)
 .literal._ZN4Anki5Cozmo19ActiveObjectManager10DisconnectEh
                0x0000000040207500        0x0 application/.output/eagle/release/lib/libapplication.a(activeObjectManager.o)
 .literal._ZN4Anki5Cozmo19ActiveObjectManager13DisconnectAllEv
                0x0000000040207500        0x0 application/.output/eagle/release/lib/libapplication.a(activeObjectManager.o)
 .text          0x0000000040207500        0x0 application/.output/eagle/release/lib/libapplication.a(activeObjectManager.o)
 *fill*         0x0000000040207500        0x0 
 *fill*         0x0000000040207500        0x0 
 *fill*         0x0000000040207500        0x0 
 *fill*         0x0000000040207500        0x0 
 .literal._ZN4Anki5Cozmo14BackgroundTask33RadioConnectionStateMachineUpdateEv
                0x0000000040207500        0x0 application/.output/eagle/release/lib/libapplication.a(backgroundTask.o)
 .literal._ZN4Anki5Cozmo14BackgroundTask4ExecEP11ETSEventTag
                0x0000000040207500        0x0 application/.output/eagle/release/lib/libapplication.a(backgroundTask.o)
 .literal.backgroundTaskInit
                0x0000000040207500        0x0 application/.output/eagle/release/lib/libapplication.a(backgroundTask.o)
 .literal.i2spiSynchronizedCallback
                0x0000000040207500        0x0 application/.output/eagle/release/lib/libapplication.a(backgroundTask.o)
 .text          0x0000000040207500        0x0 application/.output/eagle/release/lib/libapplication.a(backgroundTask.o)
 *fill*         0x0000000040207500        0x0 
 *fill*         0x0000000040207500        0x0 
 *fill*         0x0000000040207500        0x0 
 .literal._ZN4Anki5Cozmo14RobotInterface11SendMessageERKNS0_16WriteBodyStorageE
                0x0000000040207500        0x0 application/.output/eagle/release/lib/libapplication.a(crashReporter.o)
 .literal._ZN4Anki5Cozmo13CrashReporter4InitEv
                0x0000000040207500        0x0 application/.output/eagle/release/lib/libapplication.a(crashReporter.o)
 .literal._ZN4Anki5Cozmo13CrashReporter12StartSendingEv
                0x0000000040207500        0x0 application/.output/eagle/release/lib/libapplication.a(crashReporter.o)
 .literal._ZN4Anki5Cozmo13CrashReporter11StartQuerryEv
                0x0000000040207500        0x0 application/.output/eagle/release/lib/libapplication.a(crashReporter.o)
 .literal._ZN4Anki5Cozmo13CrashReporter6UpdateEv
                0x0000000040207500        0x0 application/.output/eagle/release/lib/libapplication.a(crashReporter.o)
 .literal._ZN4Anki5Cozmo13CrashReporter17AcceptBodyStorageERNS0_19BodyStorageContentsE
                0x0000000040207500        0x0 application/.output/eagle/release/lib/libapplication.a(crashReporter.o)
 .text          0x0000000040207500        0x0 application/.output/eagle/release/lib/libapplication.a(crashReporter.o)
 *fill*         0x0000000040207500        0x0 
 *fill*         0x0000000040207500        0x0 
 *fill*         0x0000000040207500        0x0 
 *fill*         0x0000000040207500        0x0 
 *fill*         0x0000000040207500        0x0 
 *fill*         0x0000000040207500        0x0 
 .literal._ZN13DiffieHellman4InitEv
                0x0000000040207500        0x0 application/.output/eagle/release/lib/libapplication.a(dhTask.o)
 .literal._ZN13DiffieHellman5StartEPKhS1_
                0x0000000040207500        0x0 application/.output/eagle/release/lib/libapplication.a(dhTask.o)
 .literal._ZN13DiffieHellman6UpdateEv
                0x0000000040207500        0x0 application/.output/eagle/release/lib/libapplication.a(dhTask.o)
 .text          0x0000000040207500        0x0 application/.output/eagle/release/lib/libapplication.a(dhTask.o)
 *fill*         0x0000000040207500        0x0 
 .literal._ZN4Anki5Cozmo4FaceL9ResetScanEv
                0x0000000040207500        0x0 application/.output/eagle/release/lib/libapplication.a(face.o)
 .literal._ZN4Anki5Cozmo4FaceL11RectPenaltyERNS1_10ScreenRectE
                0x0000000040207500        0x0 application/.output/eagle/release/lib/libapplication.a(face.o)
 .literal._ZN4Anki5Cozmo4FaceL16ConsolidateRectsEb
                0x0000000040207500        0x0 application/.output/eagle/release/lib/libapplication.a(face.o)
 .literal._ZN4Anki5Cozmo4FaceL11ResetScreenEv
                0x0000000040207500        0x0 application/.output/eagle/release/lib/libapplication.a(face.o)
 .literal._ZN4Anki5Cozmo4FaceL11CreateRectsEPyhhhh$constprop$1
                0x0000000040207500        0x0 application/.output/eagle/release/lib/libapplication.a(face.o)
 .literal._Z17FaceDisplayDecodePKhhhPy
                0x0000000040207500        0x0 application/.output/eagle/release/lib/libapplication.a(face.o)
 .literal._ZN4Anki5Cozmo4Face4InitEv
                0x0000000040207500        0x0 application/.output/eagle/release/lib/libapplication.a(face.o)
 .literal.PumpScreenData
                0x0000000040207500        0x0 application/.output/eagle/release/lib/libapplication.a(face.o)
 .literal._ZN4Anki5Cozmo4Face14PrintFormattedEPc
                0x0000000040207500        0x0 application/.output/eagle/release/lib/libapplication.a(face.o)
 .literal._ZN4Anki5Cozmo4Face8DecToBCDEj
                0x0000000040207500        0x0 application/.output/eagle/release/lib/libapplication.a(face.o)
 .literal._ZN4Anki5Cozmo4Face4Draw5ClearEPy
                0x0000000040207500        0x0 application/.output/eagle/release/lib/libapplication.a(face.o)
 .literal._ZN4Anki5Cozmo4Face4Draw4MaskEPyy
                0x0000000040207500        0x0 application/.output/eagle/release/lib/libapplication.a(face.o)
 .literal._ZN4Anki5Cozmo4Face4Draw6InvertEPy
                0x0000000040207500        0x0 application/.output/eagle/release/lib/libapplication.a(face.o)
 .literal._ZN4Anki5Cozmo4Face4Draw4CopyEPyPKy
                0x0000000040207500        0x0 application/.output/eagle/release/lib/libapplication.a(face.o)
 .literal._ZN4Anki5Cozmo4Face4Draw4CopyEPyPKjiii
                0x0000000040207500        0x0 application/.output/eagle/release/lib/libapplication.a(face.o)
 .literal._ZN4Anki5Cozmo4Face4Draw6NumberEPyijii
                0x0000000040207500        0x0 application/.output/eagle/release/lib/libapplication.a(face.o)
 .literal._ZN4Anki5Cozmo4Face4Draw5PrintEPyPKciii
                0x0000000040207500        0x0 application/.output/eagle/release/lib/libapplication.a(face.o)
 .literal._ZN4Anki5Cozmo4Face4Draw4FlipEPy
                0x0000000040207500        0x0 application/.output/eagle/release/lib/libapplication.a(face.o)
 .literal._ZN4Anki5Cozmo4Face5ClearEv
                0x0000000040207500        0x0 application/.output/eagle/release/lib/libapplication.a(face.o)
 .literal.FacePrintf
                0x0000000040207500        0x0 application/.output/eagle/release/lib/libapplication.a(face.o)
 .literal.FaceDebugPrintf
                0x0000000040207500        0x0 application/.output/eagle/release/lib/libapplication.a(face.o)
 .literal.FaceUnPrintf
                0x0000000040207500        0x0 application/.output/eagle/release/lib/libapplication.a(face.o)
 .literal._ZN4Anki5Cozmo4Face17GetRemainingRectsEv
                0x0000000040207500        0x0 application/.output/eagle/release/lib/libapplication.a(face.o)
 .literal._ZN4Anki5Cozmo3HAL11FaceAnimateEPht
                0x0000000040207500        0x0 application/.output/eagle/release/lib/libapplication.a(face.o)
 .text          0x0000000040207500        0x0 application/.output/eagle/release/lib/libapplication.a(face.o)
 *fill*         0x0000000040207500        0x0 
 .text._ZN4Anki5Cozmo4FaceL11RectPenaltyERNS1_10ScreenRectE
                0x0000000040207500       0x1d application/.output/eagle/release/lib/libapplication.a(face.o)
 *fill*         0x000000004020751d        0x0 
 *fill*         0x000000004020751d        0x0 
 *fill*         0x000000004020751d        0x0 
 *fill*         0x000000004020751d        0x0 
 *fill*         0x000000004020751d        0x0 
 *fill*         0x000000004020751d        0x0 
 *fill*         0x000000004020751d        0x0 
 *fill*         0x000000004020751d        0x0 
 *fill*         0x000000004020751d        0x3 
 .text._ZN4Anki5Cozmo4Face4Draw4MaskEPyy
                0x0000000040207520       0x18 application/.output/eagle/release/lib/libapplication.a(face.o)
                0x0000000040207520                _ZN4Anki5Cozmo4Face4Draw4MaskEPyy
 .text._ZN4Anki5Cozmo4Face4Draw6InvertEPy
                0x0000000040207538       0x1a application/.output/eagle/release/lib/libapplication.a(face.o)
                0x0000000040207538                _ZN4Anki5Cozmo4Face4Draw6InvertEPy
 *fill*         0x0000000040207552        0x0 
 *fill*         0x0000000040207552        0x0 
 *fill*         0x0000000040207552        0x0 
 *fill*         0x0000000040207552        0x0 
 *fill*         0x0000000040207552        0x0 
 *fill*         0x0000000040207552        0x0 
 *fill*         0x0000000040207552        0x0 
 *fill*         0x0000000040207552        0x0 
 *fill*         0x0000000040207552        0x0 
 *fill*         0x0000000040207552        0x2 
 .literal._ZN4Anki5Cozmo8Messages4InitEv
                0x0000000040207554        0x0 application/.output/eagle/release/lib/libapplication.a(messages.o)
 .literal._ZN4Anki5Cozmo8Messages8SendTextEaPKc13__va_list_tag
                0x0000000040207554        0x0 application/.output/eagle/release/lib/libapplication.a(messages.o)
 .literal._ZN4Anki5Cozmo8Messages8SendTextEPKcz
                0x0000000040207554        0x0 application/.output/eagle/release/lib/libapplication.a(messages.o)
 .literal._ZN4Anki5Cozmo14RobotInterface7SendLogEatthz
                0x0000000040207554        0x0 application/.output/eagle/release/lib/libapplication.a(messages.o)
 .literal._ZN4Anki5Cozmo8MessagesL14SendNVOpResultEPKNS0_9NVStorage10NVOpResultEa
                0x0000000040207554        0x0 application/.output/eagle/release/lib/libapplication.a(messages.o)
 .literal._ZN4Anki5Cozmo8MessagesL17NVMultiReadDoneCBEja
                0x0000000040207554        0x0 application/.output/eagle/release/lib/libapplication.a(messages.o)
 .literal._ZN4Anki5Cozmo8MessagesL18NVMultiEraseDoneCBEja
                0x0000000040207554        0x0 application/.output/eagle/release/lib/libapplication.a(messages.o)
 .literal._ZN4Anki5Cozmo8MessagesL19NVEraseDoneCallbackEja
                0x0000000040207554        0x0 application/.output/eagle/release/lib/libapplication.a(messages.o)
 .literal._ZN4Anki5Cozmo8MessagesL19NVWriteDoneCallbackEPKNS0_9NVStorage13NVStorageBlobEa
                0x0000000040207554        0x0 application/.output/eagle/release/lib/libapplication.a(messages.o)
 .literal._ZN4Anki5Cozmo8MessagesL12NVReadDoneCBEPNS0_9NVStorage13NVStorageBlobEa
                0x0000000040207554        0x0 application/.output/eagle/release/lib/libapplication.a(messages.o)
 .literal.ProcessMessage
                0x0000000040207554        0x0 application/.output/eagle/release/lib/libapplication.a(messages.o)
 .text          0x0000000040207554        0x0 application/.output/eagle/release/lib/libapplication.a(messages.o)
 .text._ZN4Anki5Cozmo8Messages4InitEv
                0x0000000040207554        0x4 application/.output/eagle/release/lib/libapplication.a(messages.o)
                0x0000000040207554                _ZN4Anki5Cozmo8Messages4InitEv
 *fill*         0x0000000040207558        0x0 
 *fill*         0x0000000040207558        0x0 
 *fill*         0x0000000040207558        0x0 
 *fill*         0x0000000040207558        0x0 
 *fill*         0x0000000040207558        0x0 
 *fill*         0x0000000040207558        0x0 
 *fill*         0x0000000040207558        0x0 
 *fill*         0x0000000040207558        0x0 
 *fill*         0x0000000040207558        0x0 
 .literal._ZN4Anki5Cozmo9NVStorageL17getStartOfSegmentEv
                0x0000000040207558        0x0 application/.output/eagle/release/lib/libapplication.a(nvStorage.o)
 .literal._ZN4Anki5Cozmo9NVStorageL10resetEraseEv
                0x0000000040207558        0x0 application/.output/eagle/release/lib/libapplication.a(nvStorage.o)
 .literal._ZN4Anki5Cozmo9NVStorageL9resetReadEv
                0x0000000040207558        0x0 application/.output/eagle/release/lib/libapplication.a(nvStorage.o)
 .literal._ZN4Anki5Cozmo9NVStorageL10resetWriteEv
                0x0000000040207558        0x0 application/.output/eagle/release/lib/libapplication.a(nvStorage.o)
 .literal._ZN4Anki5Cozmo9NVStorageL21GarbageCollectionTaskEj
                0x0000000040207558        0x0 application/.output/eagle/release/lib/libapplication.a(nvStorage.o)
 .literal._ZN4Anki5Cozmo9NVStorageL8endWriteEa
                0x0000000040207558        0x0 application/.output/eagle/release/lib/libapplication.a(nvStorage.o)
 .literal._ZN4Anki5Cozmo9NVStorageL14processFailureEa
                0x0000000040207558        0x0 application/.output/eagle/release/lib/libapplication.a(nvStorage.o)
 .literal._ZN4Anki5Cozmo9NVStorage11WipeAllTaskEj
                0x0000000040207558        0x0 application/.output/eagle/release/lib/libapplication.a(nvStorage.o)
 .literal._ZN4Anki5Cozmo9NVStorageL6isBusyEv
                0x0000000040207558        0x0 application/.output/eagle/release/lib/libapplication.a(nvStorage.o)
 .literal.GarbageCollect
                0x0000000040207558        0x0 application/.output/eagle/release/lib/libapplication.a(nvStorage.o)
 .literal.NVInit
                0x0000000040207558        0x0 application/.output/eagle/release/lib/libapplication.a(nvStorage.o)
 .literal._ZN4Anki5Cozmo9NVStorage6UpdateEv
                0x0000000040207558        0x0 application/.output/eagle/release/lib/libapplication.a(nvStorage.o)
 .literal._ZN4Anki5Cozmo9NVStorage5WriteEPNS1_13NVStorageBlobEPFvPKS2_aE
                0x0000000040207558        0x0 application/.output/eagle/release/lib/libapplication.a(nvStorage.o)
 .literal._ZN4Anki5Cozmo9NVStorage10EraseRangeEjjPFvjaES3_
                0x0000000040207558        0x0 application/.output/eagle/release/lib/libapplication.a(nvStorage.o)
 .literal._ZN4Anki5Cozmo9NVStorage5EraseEjPFvjaE
                0x0000000040207558        0x0 application/.output/eagle/release/lib/libapplication.a(nvStorage.o)
 .literal._ZN4Anki5Cozmo9NVStorage9ReadRangeEjjPFvPNS1_13NVStorageBlobEaEPFvjaE
                0x0000000040207558        0x0 application/.output/eagle/release/lib/libapplication.a(nvStorage.o)
 .literal._ZN4Anki5Cozmo9NVStorage4ReadEjPFvPNS1_13NVStorageBlobEaE
                0x0000000040207558        0x0 application/.output/eagle/release/lib/libapplication.a(nvStorage.o)
 .literal._ZN4Anki5Cozmo9NVStorage7WipeAllEhbPFvjaEbb
                0x0000000040207558        0x0 application/.output/eagle/release/lib/libapplication.a(nvStorage.o)
 .text          0x0000000040207558        0x0 application/.output/eagle/release/lib/libapplication.a(nvStorage.o)
 *fill*         0x0000000040207558        0x0 
 *fill*         0x0000000040207558        0x0 
 *fill*         0x0000000040207558        0x0 
 *fill*         0x0000000040207558        0x0 
 *fill*         0x0000000040207558        0x0 
 *fill*         0x0000000040207558        0x0 
 *fill*         0x0000000040207558        0x0 
 *fill*         0x0000000040207558        0x0 
 *fill*         0x0000000040207558        0x0 
 *fill*         0x0000000040207558        0x0 
 *fill*         0x0000000040207558        0x0 
 *fill*         0x0000000040207558        0x0 
 *fill*         0x0000000040207558        0x0 
 *fill*         0x0000000040207558        0x0 
 *fill*         0x0000000040207558        0x0 
 .literal._ZN4Anki5Cozmo4RTIP4InitEv
                0x0000000040207558        0x0 application/.output/eagle/release/lib/libapplication.a(rtip.o)
 .literal._ZN4Anki5Cozmo4RTIP11SendMessageEPKhth
                0x0000000040207558        0x0 application/.output/eagle/release/lib/libapplication.a(rtip.o)
 .literal._ZN4Anki5Cozmo4RTIP11SendMessageERNS0_14RobotInterface13EngineToRobotE
                0x0000000040207558        0x0 application/.output/eagle/release/lib/libapplication.a(rtip.o)
 .literal.AcceptRTIPMessage
                0x0000000040207558        0x0 application/.output/eagle/release/lib/libapplication.a(rtip.o)
 .text          0x0000000040207558        0x0 application/.output/eagle/release/lib/libapplication.a(rtip.o)
 .text._ZN4Anki5Cozmo4RTIP4InitEv
                0x0000000040207558        0x4 application/.output/eagle/release/lib/libapplication.a(rtip.o)
                0x0000000040207558                _ZN4Anki5Cozmo4RTIP4InitEv
 *fill*         0x000000004020755c        0x0 
 *fill*         0x000000004020755c        0x0 
 .literal._ZN4Anki5Cozmo17UpgradeControllerL5ResetEv
                0x000000004020755c        0x0 application/.output/eagle/release/lib/libapplication.a(upgradeController.o)
 .literal._ZN4Anki5Cozmo14RobotInterface11SendMessageERKNS1_3OTA3AckE
                0x000000004020755c        0x0 application/.output/eagle/release/lib/libapplication.a(upgradeController.o)
 .literal._Z10gen_randomPvi
                0x000000004020755c        0x0 application/.output/eagle/release/lib/libapplication.a(upgradeController.o)
 .literal._ZN4Anki5Cozmo17UpgradeController4InitEv
                0x000000004020755c        0x0 application/.output/eagle/release/lib/libapplication.a(upgradeController.o)
 .literal._ZN4Anki5Cozmo17UpgradeController5WriteERNS0_14RobotInterface3OTA5WriteE
                0x000000004020755c        0x0 application/.output/eagle/release/lib/libapplication.a(upgradeController.o)
 .literal._ZN4Anki5Cozmo17UpgradeController6UpdateEv
                0x000000004020755c        0x0 application/.output/eagle/release/lib/libapplication.a(upgradeController.o)
 .literal._ZN4Anki5Cozmo17UpgradeController12OnDisconnectEv
                0x000000004020755c        0x0 application/.output/eagle/release/lib/libapplication.a(upgradeController.o)
 .literal._ZN4Anki5Cozmo17UpgradeController14GetVersionInfoEv
                0x000000004020755c        0x0 application/.output/eagle/release/lib/libapplication.a(upgradeController.o)
 .literal.GetFirmwareVersion
                0x000000004020755c        0x0 application/.output/eagle/release/lib/libapplication.a(upgradeController.o)
 .literal.GetBuildTime
                0x000000004020755c        0x0 application/.output/eagle/release/lib/libapplication.a(upgradeController.o)
 .text          0x000000004020755c        0x0 application/.output/eagle/release/lib/libapplication.a(upgradeController.o)
 *fill*         0x000000004020755c        0x0 
 *fill*         0x000000004020755c        0x0 
 *fill*         0x000000004020755c        0x0 
 *fill*         0x000000004020755c        0x0 
 *fill*         0x000000004020755c        0x0 
 *fill*         0x000000004020755c        0x0 
 *fill*         0x000000004020755c        0x0 
 *fill*         0x000000004020755c        0x0 
 clad/.output/eagle/release/lib/libclad.a(.literal .text .literal.* .text.* .stub .gnu.warning .gnu.linkonce.literal.* .gnu.linkonce.t.*.literal .gnu.linkonce.t.*)
 .text._ZNK4Anki5Cozmo14RobotInterface18NVReadResultToBody7IsValidEv
                0x000000004020755c        0xf clad/.output/eagle/release/lib/libclad.a(messageEngineToRobot.o)
                                         0x17 (size before relaxing)
                0x000000004020755c                _ZNK4Anki5Cozmo14RobotInterface18NVReadResultToBody7IsValidEv
 *fill*         0x000000004020756b        0x1 
 .text._ZNK4Anki5Cozmo14RobotInterface18NVReadResultToBody4SizeEv
                0x000000004020756c        0xf clad/.output/eagle/release/lib/libclad.a(messageEngineToRobot.o)
                                         0x17 (size before relaxing)
                0x000000004020756c                _ZNK4Anki5Cozmo14RobotInterface18NVReadResultToBody4SizeEv
 *fill*         0x000000004020757b        0x1 
 .text._ZNK4Anki5Cozmo14RobotInterface13EngineToRobot7IsValidEv
                0x000000004020757c      0x13b clad/.output/eagle/release/lib/libclad.a(messageEngineToRobot.o)
                                        0x153 (size before relaxing)
                0x000000004020757c                _ZNK4Anki5Cozmo14RobotInterface13EngineToRobot7IsValidEv
 *fill*         0x00000000402076b7        0x1 
 .text._ZNK4Anki5Cozmo14RobotInterface13EngineToRobot4SizeEv
                0x00000000402076b8      0x100 clad/.output/eagle/release/lib/libclad.a(messageEngineToRobot.o)
                                        0x114 (size before relaxing)
                0x00000000402076bc                _ZNK4Anki5Cozmo14RobotInterface13EngineToRobot4SizeEv
 .text._ZNK4Anki5Cozmo14RobotInterface20NVReadResultToEngine7IsValidEv
                0x00000000402077b8       0x14 clad/.output/eagle/release/lib/libclad.a(messageRobotToEngine.o)
                                         0x18 (size before relaxing)
                0x00000000402077b8                _ZNK4Anki5Cozmo14RobotInterface20NVReadResultToEngine7IsValidEv
 .text._ZNK4Anki5Cozmo14RobotInterface20NVReadResultToEngine4SizeEv
                0x00000000402077cc       0x16 clad/.output/eagle/release/lib/libclad.a(messageRobotToEngine.o)
                                         0x1a (size before relaxing)
                0x00000000402077cc                _ZNK4Anki5Cozmo14RobotInterface20NVReadResultToEngine4SizeEv
 *fill*         0x00000000402077e2        0x2 
 .text._ZNK4Anki5Cozmo14RobotInterface13RobotToEngine7IsValidEv
                0x00000000402077e4       0xaa clad/.output/eagle/release/lib/libclad.a(messageRobotToEngine.o)
                                         0xca (size before relaxing)
                0x00000000402077e4                _ZNK4Anki5Cozmo14RobotInterface13RobotToEngine7IsValidEv
 *fill*         0x000000004020788e        0x2 
 .text._ZNK4Anki5Cozmo14RobotInterface13RobotToEngine4SizeEv
                0x0000000040207890       0xe2 clad/.output/eagle/release/lib/libclad.a(messageRobotToEngine.o)
                                        0x106 (size before relaxing)
                0x0000000040207894                _ZNK4Anki5Cozmo14RobotInterface13RobotToEngine4SizeEv
 *fill*         0x0000000040207972        0x2 
 .literal._ZNK4Anki5Cozmo9CubeSlots7IsValidEv
                0x0000000040207974        0x0 clad/.output/eagle/release/lib/libclad.a(messageEngineToRobot.o)
 .literal._ZNK4Anki5Cozmo9CubeSlots4SizeEv
                0x0000000040207974        0x0 clad/.output/eagle/release/lib/libclad.a(messageEngineToRobot.o)
 .literal._ZNK4Anki5Cozmo16WriteBodyStorage7IsValidEv
                0x0000000040207974        0x0 clad/.output/eagle/release/lib/libclad.a(messageEngineToRobot.o)
 .literal._ZNK4Anki5Cozmo16WriteBodyStorage4SizeEv
                0x0000000040207974        0x0 clad/.output/eagle/release/lib/libclad.a(messageEngineToRobot.o)
 .literal._ZNK4Anki5Cozmo19BodyStorageContents7IsValidEv
                0x0000000040207974        0x0 clad/.output/eagle/release/lib/libclad.a(messageEngineToRobot.o)
 .literal._ZNK4Anki5Cozmo19BodyStorageContents4SizeEv
                0x0000000040207974        0x0 clad/.output/eagle/release/lib/libclad.a(messageEngineToRobot.o)
 .literal._ZNK4Anki5Cozmo14RobotInterface18NVReadResultToBody7IsValidEv
                0x0000000040207974        0x0 clad/.output/eagle/release/lib/libclad.a(messageEngineToRobot.o)
 .literal._ZNK4Anki5Cozmo14RobotInterface18NVReadResultToBody4SizeEv
                0x0000000040207974        0x0 clad/.output/eagle/release/lib/libclad.a(messageEngineToRobot.o)
 .literal._ZNK4Anki5Cozmo14RobotInterface13EngineToRobot7IsValidEv
                0x0000000040207974        0x0 clad/.output/eagle/release/lib/libclad.a(messageEngineToRobot.o)
 .literal._ZNK4Anki5Cozmo14RobotInterface13EngineToRobot4SizeEv
                0x0000000040207974        0x0 clad/.output/eagle/release/lib/libclad.a(messageEngineToRobot.o)
 .text          0x0000000040207974        0x0 clad/.output/eagle/release/lib/libclad.a(messageEngineToRobot.o)
 .text._ZNK4Anki5Cozmo9CubeSlots7IsValidEv
                0x0000000040207974        0xe clad/.output/eagle/release/lib/libclad.a(messageEngineToRobot.o)
                0x0000000040207974                _ZNK4Anki5Cozmo9CubeSlots7IsValidEv
 *fill*         0x0000000040207982        0x2 
 .text._ZNK4Anki5Cozmo9CubeSlots4SizeEv
                0x0000000040207984        0x9 clad/.output/eagle/release/lib/libclad.a(messageEngineToRobot.o)
                0x0000000040207984                _ZNK4Anki5Cozmo9CubeSlots4SizeEv
 *fill*         0x000000004020798d        0x3 
 .text._ZNK4Anki5Cozmo16WriteBodyStorage7IsValidEv
                0x0000000040207990       0x11 clad/.output/eagle/release/lib/libclad.a(messageEngineToRobot.o)
                0x0000000040207990                _ZNK4Anki5Cozmo16WriteBodyStorage7IsValidEv
 *fill*         0x00000000402079a1        0x3 
 .text._ZNK4Anki5Cozmo16WriteBodyStorage4SizeEv
                0x00000000402079a4        0x7 clad/.output/eagle/release/lib/libclad.a(messageEngineToRobot.o)
                0x00000000402079a4                _ZNK4Anki5Cozmo16WriteBodyStorage4SizeEv
 *fill*         0x00000000402079ab        0x1 
 .text._ZNK4Anki5Cozmo19BodyStorageContents7IsValidEv
                0x00000000402079ac       0x11 clad/.output/eagle/release/lib/libclad.a(messageEngineToRobot.o)
                0x00000000402079ac                _ZNK4Anki5Cozmo19BodyStorageContents7IsValidEv
 *fill*         0x00000000402079bd        0x3 
 .text._ZNK4Anki5Cozmo19BodyStorageContents4SizeEv
                0x00000000402079c0        0x7 clad/.output/eagle/release/lib/libclad.a(messageEngineToRobot.o)
                0x00000000402079c0                _ZNK4Anki5Cozmo19BodyStorageContents4SizeEv
 *fill*         0x00000000402079c7        0x0 
 *fill*         0x00000000402079c7        0x0 
 *fill*         0x00000000402079c7        0x0 
 *fill*         0x00000000402079c7        0x1 
 .literal._ZNK4Anki5Cozmo14RobotInterface20NVReadResultToEngine7IsValidEv
                0x00000000402079c8        0x0 clad/.output/eagle/release/lib/libclad.a(messageRobotToEngine.o)
 .literal._ZNK4Anki5Cozmo14RobotInterface20NVReadResultToEngine4SizeEv
                0x00000000402079c8        0x0 clad/.output/eagle/release/lib/libclad.a(messageRobotToEngine.o)
 .literal._ZNK4Anki5Cozmo14RobotInterface11CrashReport4SizeEv
                0x00000000402079c8        0x0 clad/.output/eagle/release/lib/libclad.a(messageRobotToEngine.o)
 .literal._ZNK4Anki5Cozmo14RobotInterface13RobotToEngine7IsValidEv
                0x00000000402079c8        0x0 clad/.output/eagle/release/lib/libclad.a(messageRobotToEngine.o)
 .literal._ZNK4Anki5Cozmo14RobotInterface13RobotToEngine4SizeEv
                0x00000000402079c8        0x0 clad/.output/eagle/release/lib/libclad.a(messageRobotToEngine.o)
 .text          0x00000000402079c8        0x0 clad/.output/eagle/release/lib/libclad.a(messageRobotToEngine.o)
 *fill*         0x00000000402079c8        0x0 
 .text._ZNK4Anki5Cozmo14RobotInterface11CrashReport4SizeEv
                0x00000000402079c8        0xa clad/.output/eagle/release/lib/libclad.a(messageRobotToEngine.o)
                0x00000000402079c8                _ZNK4Anki5Cozmo14RobotInterface11CrashReport4SizeEv
 *fill*         0x00000000402079d2        0x0 
 *fill*         0x00000000402079d2        0x0 
 *fill*         0x00000000402079d2        0x2 
 .literal._ZNK4Anki5Cozmo14RobotInterface15FirmwareVersion7IsValidEv
                0x00000000402079d4        0x0 clad/.output/eagle/release/lib/libclad.a(otaMessages.o)
 .literal._ZNK4Anki5Cozmo14RobotInterface15FirmwareVersion4SizeEv
                0x00000000402079d4        0x0 clad/.output/eagle/release/lib/libclad.a(otaMessages.o)
 .text          0x00000000402079d4        0x0 clad/.output/eagle/release/lib/libclad.a(otaMessages.o)
 .text._ZNK4Anki5Cozmo14RobotInterface15FirmwareVersion7IsValidEv
                0x00000000402079d4       0x12 clad/.output/eagle/release/lib/libclad.a(otaMessages.o)
                0x00000000402079d4                _ZNK4Anki5Cozmo14RobotInterface15FirmwareVersion7IsValidEv
 *fill*         0x00000000402079e6        0x2 
 .text._ZNK4Anki5Cozmo14RobotInterface15FirmwareVersion4SizeEv
                0x00000000402079e8        0x7 clad/.output/eagle/release/lib/libclad.a(otaMessages.o)
                0x00000000402079e8                _ZNK4Anki5Cozmo14RobotInterface15FirmwareVersion4SizeEv
 *fill*         0x00000000402079ef        0x1 
 .literal._ZNK4Anki5Cozmo12AnimKeyFrame9FaceImage7IsValidEv
                0x00000000402079f0        0x0 clad/.output/eagle/release/lib/libclad.a(animationKeyFrames.o)
 .literal._ZNK4Anki5Cozmo12AnimKeyFrame9FaceImage4SizeEv
                0x00000000402079f0        0x0 clad/.output/eagle/release/lib/libclad.a(animationKeyFrames.o)
 .text          0x00000000402079f0        0x0 clad/.output/eagle/release/lib/libclad.a(animationKeyFrames.o)
 .text._ZNK4Anki5Cozmo12AnimKeyFrame9FaceImage7IsValidEv
                0x00000000402079f0       0x12 clad/.output/eagle/release/lib/libclad.a(animationKeyFrames.o)
                0x00000000402079f0                _ZNK4Anki5Cozmo12AnimKeyFrame9FaceImage7IsValidEv
 *fill*         0x0000000040207a02        0x2 
 .text._ZNK4Anki5Cozmo12AnimKeyFrame9FaceImage4SizeEv
                0x0000000040207a04        0x7 clad/.output/eagle/release/lib/libclad.a(animationKeyFrames.o)
                0x0000000040207a04                _ZNK4Anki5Cozmo12AnimKeyFrame9FaceImage4SizeEv
 *fill*         0x0000000040207a0b        0x1 
 .literal._ZNK4Anki5Cozmo10ImageChunk7IsValidEv
                0x0000000040207a0c        0x0 clad/.output/eagle/release/lib/libclad.a(imageTypes.o)
 .literal._ZNK4Anki5Cozmo10ImageChunk4SizeEv
                0x0000000040207a0c        0x0 clad/.output/eagle/release/lib/libclad.a(imageTypes.o)
 .text          0x0000000040207a0c        0x0 clad/.output/eagle/release/lib/libclad.a(imageTypes.o)
 .text._ZNK4Anki5Cozmo10ImageChunk7IsValidEv
                0x0000000040207a0c       0x12 clad/.output/eagle/release/lib/libclad.a(imageTypes.o)
                0x0000000040207a0c                _ZNK4Anki5Cozmo10ImageChunk7IsValidEv
 *fill*         0x0000000040207a1e        0x2 
 .text._ZNK4Anki5Cozmo10ImageChunk4SizeEv
                0x0000000040207a20        0x8 clad/.output/eagle/release/lib/libclad.a(imageTypes.o)
                0x0000000040207a20                _ZNK4Anki5Cozmo10ImageChunk4SizeEv
 .literal._ZNK4Anki5Cozmo9NVStorage13NVStorageBlob7IsValidEv
                0x0000000040207a28        0x0 clad/.output/eagle/release/lib/libclad.a(nvStorage.o)
 .literal._ZNK4Anki5Cozmo9NVStorage13NVStorageBlob4SizeEv
                0x0000000040207a28        0x0 clad/.output/eagle/release/lib/libclad.a(nvStorage.o)
 .literal._ZNK4Anki5Cozmo9NVStorage14NVStorageWrite7IsValidEv
                0x0000000040207a28        0x0 clad/.output/eagle/release/lib/libclad.a(nvStorage.o)
 .literal._ZNK4Anki5Cozmo9NVStorage14NVStorageWrite4SizeEv
                0x0000000040207a28        0x0 clad/.output/eagle/release/lib/libclad.a(nvStorage.o)
 .literal._ZNK4Anki5Cozmo9NVStorage9NVWipeAll7IsValidEv
                0x0000000040207a28        0x0 clad/.output/eagle/release/lib/libclad.a(nvStorage.o)
 .literal._ZNK4Anki5Cozmo9NVStorage9NVWipeAll4SizeEv
                0x0000000040207a28        0x0 clad/.output/eagle/release/lib/libclad.a(nvStorage.o)
 .text          0x0000000040207a28        0x0 clad/.output/eagle/release/lib/libclad.a(nvStorage.o)
 .text._ZNK4Anki5Cozmo9NVStorage13NVStorageBlob7IsValidEv
                0x0000000040207a28       0x11 clad/.output/eagle/release/lib/libclad.a(nvStorage.o)
                0x0000000040207a28                _ZNK4Anki5Cozmo9NVStorage13NVStorageBlob7IsValidEv
 *fill*         0x0000000040207a39        0x3 
 .text._ZNK4Anki5Cozmo9NVStorage13NVStorageBlob4SizeEv
                0x0000000040207a3c        0x6 clad/.output/eagle/release/lib/libclad.a(nvStorage.o)
                0x0000000040207a3c                _ZNK4Anki5Cozmo9NVStorage13NVStorageBlob4SizeEv
 *fill*         0x0000000040207a42        0x2 
 .text._ZNK4Anki5Cozmo9NVStorage14NVStorageWrite7IsValidEv
                0x0000000040207a44       0x11 clad/.output/eagle/release/lib/libclad.a(nvStorage.o)
                0x0000000040207a44                _ZNK4Anki5Cozmo9NVStorage14NVStorageWrite7IsValidEv
 *fill*         0x0000000040207a55        0x3 
 .text._ZNK4Anki5Cozmo9NVStorage14NVStorageWrite4SizeEv
                0x0000000040207a58        0x7 clad/.output/eagle/release/lib/libclad.a(nvStorage.o)
                0x0000000040207a58                _ZNK4Anki5Cozmo9NVStorage14NVStorageWrite4SizeEv
 *fill*         0x0000000040207a5f        0x1 
 .text._ZNK4Anki5Cozmo9NVStorage9NVWipeAll7IsValidEv
                0x0000000040207a60        0x4 clad/.output/eagle/release/lib/libclad.a(nvStorage.o)
                0x0000000040207a60                _ZNK4Anki5Cozmo9NVStorage9NVWipeAll7IsValidEv
 .text._ZNK4Anki5Cozmo9NVStorage9NVWipeAll4SizeEv
                0x0000000040207a64        0x7 clad/.output/eagle/release/lib/libclad.a(nvStorage.o)
                0x0000000040207a64                _ZNK4Anki5Cozmo9NVStorage9NVWipeAll4SizeEv
 *fill*         0x0000000040207a6b        0x1 
 .literal._ZNK4Anki5Cozmo14RobotInterface10PrintTrace7IsValidEv
                0x0000000040207a6c        0x0 clad/.output/eagle/release/lib/libclad.a(robotLogging.o)
 .literal._ZNK4Anki5Cozmo14RobotInterface10PrintTrace4SizeEv
                0x0000000040207a6c        0x0 clad/.output/eagle/release/lib/libclad.a(robotLogging.o)
 .literal._ZNK4Anki5Cozmo14RobotInterface15TimeProfileStat7IsValidEv
                0x0000000040207a6c        0x0 clad/.output/eagle/release/lib/libclad.a(robotLogging.o)
 .literal._ZNK4Anki5Cozmo14RobotInterface15TimeProfileStat4SizeEv
                0x0000000040207a6c        0x0 clad/.output/eagle/release/lib/libclad.a(robotLogging.o)
 .literal._ZNK4Anki5Cozmo14RobotInterface8DataDump4SizeEv
                0x0000000040207a6c        0x0 clad/.output/eagle/release/lib/libclad.a(robotLogging.o)
 .literal._ZNK4Anki5Cozmo14RobotInterface9PrintText7IsValidEv
                0x0000000040207a6c        0x0 clad/.output/eagle/release/lib/libclad.a(robotLogging.o)
 .literal._ZNK4Anki5Cozmo14RobotInterface9PrintText4SizeEv
                0x0000000040207a6c        0x0 clad/.output/eagle/release/lib/libclad.a(robotLogging.o)
 .text          0x0000000040207a6c        0x0 clad/.output/eagle/release/lib/libclad.a(robotLogging.o)
 .text._ZNK4Anki5Cozmo14RobotInterface10PrintTrace7IsValidEv
                0x0000000040207a6c       0x11 clad/.output/eagle/release/lib/libclad.a(robotLogging.o)
                0x0000000040207a6c                _ZNK4Anki5Cozmo14RobotInterface10PrintTrace7IsValidEv
 *fill*         0x0000000040207a7d        0x3 
 .text._ZNK4Anki5Cozmo14RobotInterface10PrintTrace4SizeEv
                0x0000000040207a80        0xa clad/.output/eagle/release/lib/libclad.a(robotLogging.o)
                0x0000000040207a80                _ZNK4Anki5Cozmo14RobotInterface10PrintTrace4SizeEv
 *fill*         0x0000000040207a8a        0x2 
 .text._ZNK4Anki5Cozmo14RobotInterface15TimeProfileStat7IsValidEv
                0x0000000040207a8c        0x4 clad/.output/eagle/release/lib/libclad.a(robotLogging.o)
                0x0000000040207a8c                _ZNK4Anki5Cozmo14RobotInterface15TimeProfileStat7IsValidEv
 .text._ZNK4Anki5Cozmo14RobotInterface15TimeProfileStat4SizeEv
                0x0000000040207a90        0x7 clad/.output/eagle/release/lib/libclad.a(robotLogging.o)
                0x0000000040207a90                _ZNK4Anki5Cozmo14RobotInterface15TimeProfileStat4SizeEv
 *fill*         0x0000000040207a97        0x1 
 .text._ZNK4Anki5Cozmo14RobotInterface8DataDump4SizeEv
                0x0000000040207a98        0x7 clad/.output/eagle/release/lib/libclad.a(robotLogging.o)
                0x0000000040207a98                _ZNK4Anki5Cozmo14RobotInterface8DataDump4SizeEv
 *fill*         0x0000000040207a9f        0x1 
 .text._ZNK4Anki5Cozmo14RobotInterface9PrintText7IsValidEv
                0x0000000040207aa0        0x4 clad/.output/eagle/release/lib/libclad.a(robotLogging.o)
                0x0000000040207aa0                _ZNK4Anki5Cozmo14RobotInterface9PrintText7IsValidEv
 .text._ZNK4Anki5Cozmo14RobotInterface9PrintText4SizeEv
                0x0000000040207aa4        0x7 clad/.output/eagle/release/lib/libclad.a(robotLogging.o)
                0x0000000040207aa4                _ZNK4Anki5Cozmo14RobotInterface9PrintText4SizeEv
 hal/.output/eagle/release/lib/libuserhal.a(.literal .text .literal.* .text.* .stub .gnu.warning .gnu.linkonce.literal.* .gnu.linkonce.t.*.literal .gnu.linkonce.t.*)
 *fill*         0x0000000040207aab        0x1 
 .text.socketRecvCB
                0x0000000040207aac       0xbd hal/.output/eagle/release/lib/libuserhal.a(client.o)
                                         0xd9 (size before relaxing)
 *fill*         0x0000000040207b69        0x3 
 .text.clientConnected
                0x0000000040207b6c        0xe hal/.output/eagle/release/lib/libuserhal.a(client.o)
                                         0x12 (size before relaxing)
                0x0000000040207b6c                clientConnected
 *fill*         0x0000000040207b7a        0x2 
 .text.clientAccept
                0x0000000040207b7c        0xc hal/.output/eagle/release/lib/libuserhal.a(client.o)
                0x0000000040207b80                clientAccept
 .text.clientQueueAvailable
                0x0000000040207b88       0x1b hal/.output/eagle/release/lib/libuserhal.a(client.o)
                                         0x27 (size before relaxing)
                0x0000000040207b88                clientQueueAvailable
 *fill*         0x0000000040207ba3        0x1 
 .text.clientInit
                0x0000000040207ba4       0xaf hal/.output/eagle/release/lib/libuserhal.a(client.o)
                                         0xdf (size before relaxing)
                0x0000000040207bc0                clientInit
 *fill*         0x0000000040207c53        0x1 
 .text.UnreliableTransport_SendPacket
                0x0000000040207c54       0x7a hal/.output/eagle/release/lib/libuserhal.a(client.o)
                                         0x92 (size before relaxing)
                0x0000000040207c58                UnreliableTransport_SendPacket
 *fill*         0x0000000040207cce        0x2 
 .text.Receiver_OnConnected
                0x0000000040207cd0       0x19 hal/.output/eagle/release/lib/libuserhal.a(client.o)
                                         0x1d (size before relaxing)
                0x0000000040207cd4                Receiver_OnConnected
 *fill*         0x0000000040207ce9        0x3 
 .text.Receiver_OnDisconnect
                0x0000000040207cec       0x45 hal/.output/eagle/release/lib/libuserhal.a(client.o)
                                         0x55 (size before relaxing)
                0x0000000040207cf4                Receiver_OnDisconnect
 *fill*         0x0000000040207d31        0x3 
 .text.clientUpdate
                0x0000000040207d34       0x32 hal/.output/eagle/release/lib/libuserhal.a(client.o)
                                         0x46 (size before relaxing)
                0x0000000040207d38                clientUpdate
 *fill*         0x0000000040207d66        0x2 
 .text.clientSendMessage
                0x0000000040207d68       0x55 hal/.output/eagle/release/lib/libuserhal.a(client.o)
                                         0x79 (size before relaxing)
                0x0000000040207d68                clientSendMessage
 *fill*         0x0000000040207dbd        0x3 
 .text.Receiver_OnConnectionRequest
                0x0000000040207dc0       0x64 hal/.output/eagle/release/lib/libuserhal.a(client.o)
                                         0x84 (size before relaxing)
                0x0000000040207dcc                Receiver_OnConnectionRequest
 .text.Receiver_ReceiveData
                0x0000000040207e24       0x15 hal/.output/eagle/release/lib/libuserhal.a(client.o)
                                         0x19 (size before relaxing)
                0x0000000040207e24                Receiver_ReceiveData
 *fill*         0x0000000040207e39        0x3 
 .text.foregroundTaskTask
                0x0000000040207e3c       0x50 hal/.output/eagle/release/lib/libuserhal.a(foregroundTask.o)
                                         0x5c (size before relaxing)
                0x0000000040207e44                foregroundTaskTask
 .text.foregroundTaskInit
                0x0000000040207e8c       0x39 hal/.output/eagle/release/lib/libuserhal.a(foregroundTask.o)
                                         0x45 (size before relaxing)
                0x0000000040207e98                foregroundTaskInit
 *fill*         0x0000000040207ec5        0x3 
 .text.foregroundTaskPost
                0x0000000040207ec8       0x1b hal/.output/eagle/release/lib/libuserhal.a(foregroundTask.o)
                                         0x1f (size before relaxing)
                0x0000000040207ec8                foregroundTaskPost
 *fill*         0x0000000040207ee3        0x1 
 .text.system_init_done
                0x0000000040207ee4       0x23 hal/.output/eagle/release/lib/libuserhal.a(user_main.o)
                                         0x3f (size before relaxing)
 *fill*         0x0000000040207f07        0x1 
 .text.user_rf_pre_init
                0x0000000040207f08        0xf hal/.output/eagle/release/lib/libuserhal.a(user_main.o)
                                         0x17 (size before relaxing)
                0x0000000040207f08                user_rf_pre_init
 *fill*         0x0000000040207f17        0x1 
 .text.user_init
                0x0000000040207f18      0x209 hal/.output/eagle/release/lib/libuserhal.a(user_main.o)
                                        0x2f1 (size before relaxing)
                0x0000000040207f68                user_init
 *fill*         0x0000000040208121        0x3 
 .text._ZN4Anki5Cozmo3HAL16RadioSendMessageEPKvth
                0x0000000040208124       0x65 hal/.output/eagle/release/lib/libuserhal.a(radio.o)
                                         0x79 (size before relaxing)
                0x0000000040208124                _ZN4Anki5Cozmo3HAL16RadioSendMessageEPKvth
 *fill*         0x0000000040208189        0x3 
 .text._ZN4Anki5Cozmo12sendImgChunkERNS0_10ImageChunkEb
                0x000000004020818c       0x70 hal/.output/eagle/release/lib/libuserhal.a(radio.o)
                                         0x7c (size before relaxing)
                0x0000000040208190                _ZN4Anki5Cozmo12sendImgChunkERNS0_10ImageChunkEb
 .text.imageSenderQueueData
                0x00000000402081fc       0xa5 hal/.output/eagle/release/lib/libuserhal.a(radio.o)
                                         0xb9 (size before relaxing)
                0x0000000040208200                imageSenderQueueData
 *fill*         0x00000000402082a1        0x3 
 .text._ZN4Anki5Cozmo17WiFiConfigurationL10sendResultEih
                0x00000000402082a4       0x1d hal/.output/eagle/release/lib/libuserhal.a(wifi_configuration.o)
                                         0x21 (size before relaxing)
 *fill*         0x00000000402082c1        0x3 
 .text._ZN4Anki5Cozmo17WiFiConfiguration4InitEv
                0x00000000402082c4       0x89 hal/.output/eagle/release/lib/libuserhal.a(wifi_configuration.o)
                                         0xa9 (size before relaxing)
                0x00000000402082d8                _ZN4Anki5Cozmo17WiFiConfiguration4InitEv
 *fill*         0x000000004020834d        0x3 
 .text._ZN4Anki5Cozmo17WiFiConfiguration3OffEb
                0x0000000040208350       0x39 hal/.output/eagle/release/lib/libuserhal.a(wifi_configuration.o)
                                         0x45 (size before relaxing)
                0x0000000040208358                _ZN4Anki5Cozmo17WiFiConfiguration3OffEb
 *fill*         0x0000000040208389        0x3 
 .text._ZN4Anki5Cozmo17WiFiConfiguration15SendRobotIpInfoEh
                0x000000004020838c       0xa4 hal/.output/eagle/release/lib/libuserhal.a(wifi_configuration.o)
                                         0xc4 (size before relaxing)
                0x0000000040208390                _ZN4Anki5Cozmo17WiFiConfiguration15SendRobotIpInfoEh
 .text._ZN4Anki5Cozmo17WiFiConfiguration19ProcessConfigStringERKNS0_14RobotInterface22AppConnectConfigStringE
                0x0000000040208430       0xeb hal/.output/eagle/release/lib/libuserhal.a(wifi_configuration.o)
                                        0x11a (size before relaxing)
                0x0000000040208448                _ZN4Anki5Cozmo17WiFiConfiguration19ProcessConfigStringERKNS0_14RobotInterface22AppConnectConfigStringE
 *fill*         0x000000004020851b        0x1 
 .text._ZN4Anki5Cozmo17WiFiConfiguration18ProcessConfigFlagsERKNS0_14RobotInterface21AppConnectConfigFlagsE
                0x000000004020851c      0x270 hal/.output/eagle/release/lib/libuserhal.a(wifi_configuration.o)
                                        0x314 (size before relaxing)
                0x000000004020855c                _ZN4Anki5Cozmo17WiFiConfiguration18ProcessConfigFlagsERKNS0_14RobotInterface21AppConnectConfigFlagsE
 .text._ZN4Anki5Cozmo17WiFiConfiguration19ProcessConfigIPInfoERKNS0_14RobotInterface22AppConnectConfigIPInfoE
                0x000000004020878c       0x53 hal/.output/eagle/release/lib/libuserhal.a(wifi_configuration.o)
                                         0x5f (size before relaxing)
                0x0000000040208790                _ZN4Anki5Cozmo17WiFiConfiguration19ProcessConfigIPInfoERKNS0_14RobotInterface22AppConnectConfigIPInfoE
 *fill*         0x00000000402087df        0x1 
 .literal.socketRecvCB
                0x00000000402087e0        0x0 hal/.output/eagle/release/lib/libuserhal.a(client.o)
 .literal.clientConnected
                0x00000000402087e0        0x0 hal/.output/eagle/release/lib/libuserhal.a(client.o)
 .literal.clientAccept
                0x00000000402087e0        0x0 hal/.output/eagle/release/lib/libuserhal.a(client.o)
 .literal.clientQueueAvailable
                0x00000000402087e0        0x0 hal/.output/eagle/release/lib/libuserhal.a(client.o)
 .literal.clientInit
                0x00000000402087e0        0x0 hal/.output/eagle/release/lib/libuserhal.a(client.o)
 .literal.UnreliableTransport_SendPacket
                0x00000000402087e0        0x0 hal/.output/eagle/release/lib/libuserhal.a(client.o)
 .literal.Receiver_OnConnected
                0x00000000402087e0        0x0 hal/.output/eagle/release/lib/libuserhal.a(client.o)
 .literal.Receiver_OnDisconnect
                0x00000000402087e0        0x0 hal/.output/eagle/release/lib/libuserhal.a(client.o)
 .literal.clientUpdate
                0x00000000402087e0        0x0 hal/.output/eagle/release/lib/libuserhal.a(client.o)
 .literal.clientSendMessage
                0x00000000402087e0        0x0 hal/.output/eagle/release/lib/libuserhal.a(client.o)
 .literal.Receiver_OnConnectionRequest
                0x00000000402087e0        0x0 hal/.output/eagle/release/lib/libuserhal.a(client.o)
 .literal.Receiver_ReceiveData
                0x00000000402087e0        0x0 hal/.output/eagle/release/lib/libuserhal.a(client.o)
 .text          0x00000000402087e0        0x0 hal/.output/eagle/release/lib/libuserhal.a(client.o)
 *fill*         0x00000000402087e0        0x0 
 *fill*         0x00000000402087e0        0x0 
 *fill*         0x00000000402087e0        0x0 
 *fill*         0x00000000402087e0        0x0 
 *fill*         0x00000000402087e0        0x0 
 *fill*         0x00000000402087e0        0x0 
 *fill*         0x00000000402087e0        0x0 
 *fill*         0x00000000402087e0        0x0 
 *fill*         0x00000000402087e0        0x0 
 *fill*         0x00000000402087e0        0x0 
 .literal.foregroundTaskTask
                0x00000000402087e0        0x0 hal/.output/eagle/release/lib/libuserhal.a(foregroundTask.o)
 .literal.foregroundTaskInit
                0x00000000402087e0        0x0 hal/.output/eagle/release/lib/libuserhal.a(foregroundTask.o)
 .literal.foregroundTaskPost
                0x00000000402087e0        0x0 hal/.output/eagle/release/lib/libuserhal.a(foregroundTask.o)
 .text          0x00000000402087e0        0x0 hal/.output/eagle/release/lib/libuserhal.a(foregroundTask.o)
 *fill*         0x00000000402087e0        0x0 
 *fill*         0x00000000402087e0        0x0 
 .literal.system_init_done
                0x00000000402087e0        0x0 hal/.output/eagle/release/lib/libuserhal.a(user_main.o)
 .literal.user_rf_pre_init
                0x00000000402087e0        0x0 hal/.output/eagle/release/lib/libuserhal.a(user_main.o)
 .literal.user_init
                0x00000000402087e0        0x0 hal/.output/eagle/release/lib/libuserhal.a(user_main.o)
 .text          0x00000000402087e0        0x0 hal/.output/eagle/release/lib/libuserhal.a(user_main.o)
 *fill*         0x00000000402087e0        0x0 
 *fill*         0x00000000402087e0        0x0 
 *fill*         0x00000000402087e0        0x0 
 .literal._ZN4Anki5Cozmo3HAL16RadioSendMessageEPKvth
                0x00000000402087e0        0x0 hal/.output/eagle/release/lib/libuserhal.a(radio.o)
 .literal._ZN4Anki5Cozmo12sendImgChunkERNS0_10ImageChunkEb
                0x00000000402087e0        0x0 hal/.output/eagle/release/lib/libuserhal.a(radio.o)
 .literal.imageSenderQueueData
                0x00000000402087e0        0x0 hal/.output/eagle/release/lib/libuserhal.a(radio.o)
 .text          0x00000000402087e0        0x0 hal/.output/eagle/release/lib/libuserhal.a(radio.o)
 *fill*         0x00000000402087e0        0x0 
 *fill*         0x00000000402087e0        0x0 
 .literal._ZN4Anki5Cozmo17WiFiConfigurationL10sendResultEih
                0x00000000402087e0        0x0 hal/.output/eagle/release/lib/libuserhal.a(wifi_configuration.o)
 .literal._ZN4Anki5Cozmo17WiFiConfiguration4InitEv
                0x00000000402087e0        0x0 hal/.output/eagle/release/lib/libuserhal.a(wifi_configuration.o)
 .literal._ZN4Anki5Cozmo17WiFiConfiguration3OffEb
                0x00000000402087e0        0x0 hal/.output/eagle/release/lib/libuserhal.a(wifi_configuration.o)
 .literal._ZN4Anki5Cozmo17WiFiConfiguration15SendRobotIpInfoEh
                0x00000000402087e0        0x0 hal/.output/eagle/release/lib/libuserhal.a(wifi_configuration.o)
 .literal._ZN4Anki5Cozmo17WiFiConfiguration19ProcessConfigStringERKNS0_14RobotInterface22AppConnectConfigStringE
                0x00000000402087e0        0x0 hal/.output/eagle/release/lib/libuserhal.a(wifi_configuration.o)
 .literal._ZN4Anki5Cozmo17WiFiConfiguration18ProcessConfigFlagsERKNS0_14RobotInterface21AppConnectConfigFlagsE
                0x00000000402087e0        0x0 hal/.output/eagle/release/lib/libuserhal.a(wifi_configuration.o)
 .literal._ZN4Anki5Cozmo17WiFiConfiguration19ProcessConfigIPInfoERKNS0_14RobotInterface22AppConnectConfigIPInfoE
                0x00000000402087e0        0x0 hal/.output/eagle/release/lib/libuserhal.a(wifi_configuration.o)
 .text          0x00000000402087e0        0x0 hal/.output/eagle/release/lib/libuserhal.a(wifi_configuration.o)
 *fill*         0x00000000402087e0        0x0 
 *fill*         0x00000000402087e0        0x0 
 *fill*         0x00000000402087e0        0x0 
 *fill*         0x00000000402087e0        0x0 
 supervisor/.output/eagle/release/lib/libsupervisor.a(.literal .text .literal.* .text.* .stub .gnu.warning .gnu.linkonce.literal.* .gnu.linkonce.t.*.literal .gnu.linkonce.t.*)
 .text._ZN4Anki5Cozmo19AnimationControllerL20GetNumBytesAvailableEv
                0x00000000402087e0       0x1e supervisor/.output/eagle/release/lib/libsupervisor.a(animationController.o)
 *fill*         0x00000000402087fe        0x2 
 .text._ZN4Anki5Cozmo19AnimationControllerL13GetFromBufferEPhj
                0x0000000040208800       0xa5 supervisor/.output/eagle/release/lib/libsupervisor.a(animationController.o)
                                         0xc1 (size before relaxing)
 *fill*         0x00000000402088a5        0x3 
 .text._ZN4Anki5Cozmo19AnimationController22GetTotalNumBytesPlayedEv
                0x00000000402088a8        0xb supervisor/.output/eagle/release/lib/libsupervisor.a(animationController.o)
                0x00000000402088ac                _ZN4Anki5Cozmo19AnimationController22GetTotalNumBytesPlayedEv
 *fill*         0x00000000402088b3        0x1 
 .text._ZN4Anki5Cozmo19AnimationController19ClearNumBytesPlayedEv
                0x00000000402088b4        0x9 supervisor/.output/eagle/release/lib/libsupervisor.a(animationController.o)
                                          0xd (size before relaxing)
                0x00000000402088b4                _ZN4Anki5Cozmo19AnimationController19ClearNumBytesPlayedEv
 *fill*         0x00000000402088bd        0x3 
 .text._ZN4Anki5Cozmo19AnimationController28GetTotalNumAudioFramesPlayedEv
                0x00000000402088c0        0xb supervisor/.output/eagle/release/lib/libsupervisor.a(animationController.o)
                0x00000000402088c4                _ZN4Anki5Cozmo19AnimationController28GetTotalNumAudioFramesPlayedEv
 *fill*         0x00000000402088cb        0x1 
 .text._ZN4Anki5Cozmo19AnimationController25ClearNumAudioFramesPlayedEv
                0x00000000402088cc        0x9 supervisor/.output/eagle/release/lib/libsupervisor.a(animationController.o)
                                          0xd (size before relaxing)
                0x00000000402088cc                _ZN4Anki5Cozmo19AnimationController25ClearNumAudioFramesPlayedEv
 *fill*         0x00000000402088d5        0x3 
 .text._ZN4Anki5Cozmo19AnimationController18CountConsumedBytesEi
                0x00000000402088d8       0x19 supervisor/.output/eagle/release/lib/libsupervisor.a(animationController.o)
                                         0x1d (size before relaxing)
                0x00000000402088dc                _ZN4Anki5Cozmo19AnimationController18CountConsumedBytesEi
 *fill*         0x00000000402088f1        0x3 
 .text._ZN4Anki5Cozmo19AnimationController15StopTracksInUseEv
                0x00000000402088f4       0x72 supervisor/.output/eagle/release/lib/libsupervisor.a(animationController.o)
                                         0x82 (size before relaxing)
                0x00000000402088f8                _ZN4Anki5Cozmo19AnimationController15StopTracksInUseEv
 *fill*         0x0000000040208966        0x2 
 .text._ZN4Anki5Cozmo19AnimationController18SendAnimationEndedEv
                0x0000000040208968       0x2d supervisor/.output/eagle/release/lib/libsupervisor.a(animationController.o)
                                         0x3d (size before relaxing)
                0x000000004020896c                _ZN4Anki5Cozmo19AnimationController18SendAnimationEndedEv
 *fill*         0x0000000040208995        0x3 
 .text._ZN4Anki5Cozmo19AnimationController5ClearEv
                0x0000000040208998       0x84 supervisor/.output/eagle/release/lib/libsupervisor.a(animationController.o)
                                         0xa0 (size before relaxing)
                0x00000000402089b4                _ZN4Anki5Cozmo19AnimationController5ClearEv
 .text._ZN4Anki5Cozmo19AnimationController4InitEv
                0x0000000040208a1c       0x29 supervisor/.output/eagle/release/lib/libsupervisor.a(animationController.o)
                                         0x31 (size before relaxing)
                0x0000000040208a24                _ZN4Anki5Cozmo19AnimationController4InitEv
 *fill*         0x0000000040208a45        0x3 
 .text._ZN4Anki5Cozmo19AnimationControllerL13GetFromBufferEPNS0_14RobotInterface13EngineToRobotE
                0x0000000040208a48       0x74 supervisor/.output/eagle/release/lib/libsupervisor.a(animationController.o)
                                         0xa4 (size before relaxing)
 .text._ZN4Anki5Cozmo19AnimationController14BufferKeyFrameEPKht
                0x0000000040208abc      0x151 supervisor/.output/eagle/release/lib/libsupervisor.a(animationController.o)
                                        0x1ad (size before relaxing)
                0x0000000040208abc                _ZN4Anki5Cozmo19AnimationController14BufferKeyFrameEPKht
 *fill*         0x0000000040208c0d        0x3 
 .text._ZN4Anki5Cozmo19AnimationController12IsBufferFullEv
                0x0000000040208c10       0x18 supervisor/.output/eagle/release/lib/libsupervisor.a(animationController.o)
                                         0x20 (size before relaxing)
                0x0000000040208c10                _ZN4Anki5Cozmo19AnimationController12IsBufferFullEv
 .text._ZN4Anki5Cozmo19AnimationController20SendAnimStateMessageEv
                0x0000000040208c28       0x6d supervisor/.output/eagle/release/lib/libsupervisor.a(animationController.o)
                                         0x91 (size before relaxing)
                0x0000000040208c28                _ZN4Anki5Cozmo19AnimationController20SendAnimStateMessageEv
 *fill*         0x0000000040208c95        0x3 
 .text._ZN4Anki5Cozmo19AnimationController9IsPlayingEv
                0x0000000040208c98        0x8 supervisor/.output/eagle/release/lib/libsupervisor.a(animationController.o)
                                          0xc (size before relaxing)
                0x0000000040208c98                _ZN4Anki5Cozmo19AnimationController9IsPlayingEv
 .text._ZN4Anki5Cozmo19AnimationController6UpdateEv
                0x0000000040208ca0      0x244 supervisor/.output/eagle/release/lib/libsupervisor.a(animationController.o)
                                        0x2f0 (size before relaxing)
                0x0000000040208ca8                _ZN4Anki5Cozmo19AnimationController6UpdateEv
 .text.PumpAudioData
                0x0000000040208ee4      0x1ba supervisor/.output/eagle/release/lib/libsupervisor.a(animationController.o)
                                        0x242 (size before relaxing)
                0x0000000040208ee4                PumpAudioData
 *fill*         0x000000004020909e        0x2 
 .text._ZN4Anki5Cozmo19AnimationController12EnableTracksEh
                0x00000000402090a0        0xf supervisor/.output/eagle/release/lib/libsupervisor.a(animationController.o)
                                         0x13 (size before relaxing)
                0x00000000402090a0                _ZN4Anki5Cozmo19AnimationController12EnableTracksEh
 *fill*         0x00000000402090af        0x1 
 .text._ZN4Anki5Cozmo19AnimationController13DisableTracksEh
                0x00000000402090b0       0x14 supervisor/.output/eagle/release/lib/libsupervisor.a(animationController.o)
                                         0x18 (size before relaxing)
                0x00000000402090b0                _ZN4Anki5Cozmo19AnimationController13DisableTracksEh
 .text._ZN4Anki5Cozmo19AnimationController16GetEnabledTracksEv
                0x00000000402090c4        0x8 supervisor/.output/eagle/release/lib/libsupervisor.a(animationController.o)
                                          0xc (size before relaxing)
                0x00000000402090c4                _ZN4Anki5Cozmo19AnimationController16GetEnabledTracksEv
 .text._ZN4Anki5Cozmo19AnimationController13GetCurrentTagEv
                0x00000000402090cc        0x8 supervisor/.output/eagle/release/lib/libsupervisor.a(animationController.o)
                                          0xc (size before relaxing)
                0x00000000402090cc                _ZN4Anki5Cozmo19AnimationController13GetCurrentTagEv
 .text._ZN4Anki5Cozmo19AnimationController19SuspendAndGetBufferEPPh
                0x00000000402090d4       0x25 supervisor/.output/eagle/release/lib/libsupervisor.a(animationController.o)
                                         0x39 (size before relaxing)
                0x00000000402090d4                _ZN4Anki5Cozmo19AnimationController19SuspendAndGetBufferEPPh
 *fill*         0x00000000402090f9        0x3 
 .text._ZN4Anki5Cozmo19AnimationController22ResumeAndRestoreBufferEv
                0x00000000402090fc        0xa supervisor/.output/eagle/release/lib/libsupervisor.a(animationController.o)
                                          0xe (size before relaxing)
                0x00000000402090fc                _ZN4Anki5Cozmo19AnimationController22ResumeAndRestoreBufferEv
 *fill*         0x0000000040209106        0x2 
 .literal._ZN4Anki5Cozmo19AnimationControllerL20GetNumBytesAvailableEv
                0x0000000040209108        0x0 supervisor/.output/eagle/release/lib/libsupervisor.a(animationController.o)
 .literal._ZN4Anki5Cozmo19AnimationControllerL13GetFromBufferEPhj
                0x0000000040209108        0x0 supervisor/.output/eagle/release/lib/libsupervisor.a(animationController.o)
 .literal._ZN4Anki5Cozmo19AnimationController22GetTotalNumBytesPlayedEv
                0x0000000040209108        0x0 supervisor/.output/eagle/release/lib/libsupervisor.a(animationController.o)
 .literal._ZN4Anki5Cozmo19AnimationController19ClearNumBytesPlayedEv
                0x0000000040209108        0x0 supervisor/.output/eagle/release/lib/libsupervisor.a(animationController.o)
 .literal._ZN4Anki5Cozmo19AnimationController28GetTotalNumAudioFramesPlayedEv
                0x0000000040209108        0x0 supervisor/.output/eagle/release/lib/libsupervisor.a(animationController.o)
 .literal._ZN4Anki5Cozmo19AnimationController25ClearNumAudioFramesPlayedEv
                0x0000000040209108        0x0 supervisor/.output/eagle/release/lib/libsupervisor.a(animationController.o)
 .literal._ZN4Anki5Cozmo19AnimationController18CountConsumedBytesEi
                0x0000000040209108        0x0 supervisor/.output/eagle/release/lib/libsupervisor.a(animationController.o)
 .literal._ZN4Anki5Cozmo19AnimationController15StopTracksInUseEv
                0x0000000040209108        0x0 supervisor/.output/eagle/release/lib/libsupervisor.a(animationController.o)
 .literal._ZN4Anki5Cozmo19AnimationController18SendAnimationEndedEv
                0x0000000040209108        0x0 supervisor/.output/eagle/release/lib/libsupervisor.a(animationController.o)
 .literal._ZN4Anki5Cozmo19AnimationController5ClearEv
                0x0000000040209108        0x0 supervisor/.output/eagle/release/lib/libsupervisor.a(animationController.o)
 .literal._ZN4Anki5Cozmo19AnimationController4InitEv
                0x0000000040209108        0x0 supervisor/.output/eagle/release/lib/libsupervisor.a(animationController.o)
 .literal._ZN4Anki5Cozmo19AnimationControllerL13GetFromBufferEPNS0_14RobotInterface13EngineToRobotE
                0x0000000040209108        0x0 supervisor/.output/eagle/release/lib/libsupervisor.a(animationController.o)
 .literal._ZN4Anki5Cozmo19AnimationController14BufferKeyFrameEPKht
                0x0000000040209108        0x0 supervisor/.output/eagle/release/lib/libsupervisor.a(animationController.o)
 .literal._ZN4Anki5Cozmo19AnimationController12IsBufferFullEv
                0x0000000040209108        0x0 supervisor/.output/eagle/release/lib/libsupervisor.a(animationController.o)
 .literal._ZN4Anki5Cozmo19AnimationController20SendAnimStateMessageEv
                0x0000000040209108        0x0 supervisor/.output/eagle/release/lib/libsupervisor.a(animationController.o)
 .literal._ZN4Anki5Cozmo19AnimationController9IsPlayingEv
                0x0000000040209108        0x0 supervisor/.output/eagle/release/lib/libsupervisor.a(animationController.o)
 .literal._ZN4Anki5Cozmo19AnimationController6UpdateEv
                0x0000000040209108        0x0 supervisor/.output/eagle/release/lib/libsupervisor.a(animationController.o)
 .literal.PumpAudioData
                0x0000000040209108        0x0 supervisor/.output/eagle/release/lib/libsupervisor.a(animationController.o)
 .literal._ZN4Anki5Cozmo19AnimationController12EnableTracksEh
                0x0000000040209108        0x0 supervisor/.output/eagle/release/lib/libsupervisor.a(animationController.o)
 .literal._ZN4Anki5Cozmo19AnimationController13DisableTracksEh
                0x0000000040209108        0x0 supervisor/.output/eagle/release/lib/libsupervisor.a(animationController.o)
 .literal._ZN4Anki5Cozmo19AnimationController16GetEnabledTracksEv
                0x0000000040209108        0x0 supervisor/.output/eagle/release/lib/libsupervisor.a(animationController.o)
 .literal._ZN4Anki5Cozmo19AnimationController13GetCurrentTagEv
                0x0000000040209108        0x0 supervisor/.output/eagle/release/lib/libsupervisor.a(animationController.o)
 .literal._ZN4Anki5Cozmo19AnimationController19SuspendAndGetBufferEPPh
                0x0000000040209108        0x0 supervisor/.output/eagle/release/lib/libsupervisor.a(animationController.o)
 .literal._ZN4Anki5Cozmo19AnimationController22ResumeAndRestoreBufferEv
                0x0000000040209108        0x0 supervisor/.output/eagle/release/lib/libsupervisor.a(animationController.o)
 .text          0x0000000040209108        0x0 supervisor/.output/eagle/release/lib/libsupervisor.a(animationController.o)
 *fill*         0x0000000040209108        0x0 
 *fill*         0x0000000040209108        0x0 
 *fill*         0x0000000040209108        0x0 
 *fill*         0x0000000040209108        0x0 
 *fill*         0x0000000040209108        0x0 
 *fill*         0x0000000040209108        0x0 
 *fill*         0x0000000040209108        0x0 
 *fill*         0x0000000040209108        0x0 
 *fill*         0x0000000040209108        0x0 
 *fill*         0x0000000040209108        0x0 
 *fill*         0x0000000040209108        0x0 
 *fill*         0x0000000040209108        0x0 
 *fill*         0x0000000040209108        0x0 
 *fill*         0x0000000040209108        0x0 
 *fill*         0x0000000040209108        0x0 
 crypto/.output/eagle/release/lib/libusercrypto.a(.literal .text .literal.* .text.* .stub .gnu.warning .gnu.linkonce.literal.* .gnu.linkonce.t.*.literal .gnu.linkonce.t.*)
 .text._ZL11Sha512RoundPyyyyyRyyyyS0_
                0x0000000040209108      0x182 crypto/.output/eagle/release/lib/libusercrypto.a(sha512.o)
 *fill*         0x000000004020928a        0x2 
 .text._ZL17TransformFunctionR12sha512_statePKh
                0x000000004020928c      0x464 crypto/.output/eagle/release/lib/libusercrypto.a(sha512.o)
                                        0x4a0 (size before relaxing)
 .text._Z11sha512_initR12sha512_state
                0x00000000402096f0       0xa3 crypto/.output/eagle/release/lib/libusercrypto.a(sha512.o)
                                         0xab (size before relaxing)
                0x0000000040209730                _Z11sha512_initR12sha512_state
 *fill*         0x0000000040209793        0x1 
 .text._Z14sha512_processR12sha512_statePKvj
                0x0000000040209794       0xbf crypto/.output/eagle/release/lib/libusercrypto.a(sha512.o)
                                         0xcf (size before relaxing)
                0x0000000040209794                _Z14sha512_processR12sha512_statePKvj
 *fill*         0x0000000040209853        0x1 
 .text._Z11sha512_doneR12sha512_statePv
                0x0000000040209854       0xb9 crypto/.output/eagle/release/lib/libusercrypto.a(sha512.o)
                                         0xcd (size before relaxing)
                0x0000000040209854                _Z11sha512_doneR12sha512_statePv
 *fill*         0x000000004020990d        0x3 
 .text._Z11big_compareRK9big_num_tS1_
                0x0000000040209910       0x3b crypto/.output/eagle/release/lib/libusercrypto.a(bignum.o)
                                         0x3f (size before relaxing)
                0x0000000040209910                _Z11big_compareRK9big_num_tS1_
 *fill*         0x000000004020994b        0x1 
 .text._Z11big_bit_getRK9big_num_ti
                0x000000004020994c       0x38 crypto/.output/eagle/release/lib/libusercrypto.a(bignum.o)
                0x0000000040209950                _Z11big_bit_getRK9big_num_ti
 .text._Z11big_bit_setR9big_num_ti
                0x0000000040209984       0x50 crypto/.output/eagle/release/lib/libusercrypto.a(bignum.o)
                                         0x54 (size before relaxing)
                0x0000000040209984                _Z11big_bit_setR9big_num_ti
 .text._Z7big_shrR9big_num_tRKS_i
                0x00000000402099d4       0x8b crypto/.output/eagle/release/lib/libusercrypto.a(bignum.o)
                                         0x93 (size before relaxing)
                0x00000000402099d8                _Z7big_shrR9big_num_tRKS_i
 *fill*         0x0000000040209a5f        0x1 
 .text._Z7big_shlR9big_num_tRKS_i
                0x0000000040209a60       0xbb crypto/.output/eagle/release/lib/libusercrypto.a(bignum.o)
                                         0xd3 (size before relaxing)
                0x0000000040209a60                _Z7big_shlR9big_num_tRKS_i
 *fill*         0x0000000040209b1b        0x1 
 .text._Z21big_unsigned_subtractR9big_num_tRKS_S2_
                0x0000000040209b1c       0x78 crypto/.output/eagle/release/lib/libusercrypto.a(bignum.o)
                                         0x7c (size before relaxing)
                0x0000000040209b1c                _Z21big_unsigned_subtractR9big_num_tRKS_S2_
 .text._ZL11big_add_subR9big_num_tRKS_S2_b
                0x0000000040209b94       0x5a crypto/.output/eagle/release/lib/libusercrypto.a(bignum.o)
                                         0x76 (size before relaxing)
 *fill*         0x0000000040209bee        0x2 
 .text._Z7big_addR9big_num_tRKS_S2_
                0x0000000040209bf0       0x17 crypto/.output/eagle/release/lib/libusercrypto.a(bignum.o)
                                         0x1b (size before relaxing)
                0x0000000040209bf0                _Z7big_addR9big_num_tRKS_S2_
 *fill*         0x0000000040209c07        0x1 
 .text._Z12big_subtractR9big_num_tRKS_S2_
                0x0000000040209c08       0x1d crypto/.output/eagle/release/lib/libusercrypto.a(bignum.o)
                                         0x21 (size before relaxing)
                0x0000000040209c08                _Z12big_subtractR9big_num_tRKS_S2_
 *fill*         0x0000000040209c25        0x3 
 .text._Z12big_multiplyR9big_num_tRKS_S2_
                0x0000000040209c28       0xdf crypto/.output/eagle/release/lib/libusercrypto.a(bignum.o)
                0x0000000040209c2c                _Z12big_multiplyR9big_num_tRKS_S2_
 *fill*         0x0000000040209d07        0x1 
 .text._Z9big_powerR9big_num_tRKS_S2_
                0x0000000040209d08       0xd6 crypto/.output/eagle/release/lib/libusercrypto.a(bignum.o)
                                         0xfe (size before relaxing)
                0x0000000040209d08                _Z9big_powerR9big_num_tRKS_S2_
 *fill*         0x0000000040209dde        0x2 
 .text._Z10big_divideR9big_num_tS0_RKS_S2_
                0x0000000040209de0       0xb4 crypto/.output/eagle/release/lib/libusercrypto.a(bignum.o)
                                         0xf8 (size before relaxing)
                0x0000000040209de0                _Z10big_divideR9big_num_tS0_RKS_S2_
 .text._Z10big_moduloR9big_num_tRKS_S2_
                0x0000000040209e94       0x82 crypto/.output/eagle/release/lib/libusercrypto.a(bignum.o)
                                         0xb2 (size before relaxing)
                0x0000000040209e94                _Z10big_moduloR9big_num_tRKS_S2_
 *fill*         0x0000000040209f16        0x2 
 .text._Z21big_modulo_async_initR12big_modulo_tRK9big_num_tS3_
                0x0000000040209f18       0x4c crypto/.output/eagle/release/lib/libusercrypto.a(bignum.o)
                                         0x64 (size before relaxing)
                0x0000000040209f18                _Z21big_modulo_async_initR12big_modulo_tRK9big_num_tS3_
 .text._Z16big_modulo_asyncR12big_modulo_t
                0x0000000040209f64       0x55 crypto/.output/eagle/release/lib/libusercrypto.a(bignum.o)
                                         0x6d (size before relaxing)
                0x0000000040209f64                _Z16big_modulo_asyncR12big_modulo_t
 *fill*         0x0000000040209fb9        0x3 
 .text._Z8big_invmR9big_num_tRKS_S2_
                0x0000000040209fbc      0x1ea crypto/.output/eagle/release/lib/libusercrypto.a(bignum.o)
                                        0x276 (size before relaxing)
                0x0000000040209fc4                _Z8big_invmR9big_num_tRKS_S2_
 *fill*         0x000000004020a1a6        0x2 
 .text._Z7mont_toRK10big_mont_tR9big_num_tRKS2_
                0x000000004020a1a8       0x37 crypto/.output/eagle/release/lib/libusercrypto.a(bignum.o)
                                         0x47 (size before relaxing)
                0x000000004020a1a8                _Z7mont_toRK10big_mont_tR9big_num_tRKS2_
 *fill*         0x000000004020a1df        0x1 
 .text._Z9mont_initR10big_mont_tRK9big_num_t
                0x000000004020a1e0       0xf2 crypto/.output/eagle/release/lib/libusercrypto.a(bignum.o)
                                        0x152 (size before relaxing)
                0x000000004020a1e4                _Z9mont_initR10big_mont_tRK9big_num_t
 *fill*         0x000000004020a2d2        0x2 
 .text._Z9mont_fromRK10big_mont_tR9big_num_tRKS2_
                0x000000004020a2d4       0x70 crypto/.output/eagle/release/lib/libusercrypto.a(bignum.o)
                                         0x84 (size before relaxing)
                0x000000004020a2d4                _Z9mont_fromRK10big_mont_tR9big_num_tRKS2_
 .text._Z13mont_multiplyRK10big_mont_tR9big_num_tRKS2_S5_
                0x000000004020a344      0x152 crypto/.output/eagle/release/lib/libusercrypto.a(bignum.o)
                                        0x1a2 (size before relaxing)
                0x000000004020a344                _Z13mont_multiplyRK10big_mont_tR9big_num_tRKS2_S5_
 *fill*         0x000000004020a496        0x2 
 .text._Z10mont_powerRK10big_mont_tR9big_num_tRKS2_S5_
                0x000000004020a498      0x118 crypto/.output/eagle/release/lib/libusercrypto.a(bignum.o)
                                        0x148 (size before relaxing)
                0x000000004020a498                _Z10mont_powerRK10big_mont_tR9big_num_tRKS2_S5_
 .text._Z21mont_power_async_initRK10big_mont_tR14big_mont_pow_tRK9big_num_tS6_
                0x000000004020a5b0       0x7c crypto/.output/eagle/release/lib/libusercrypto.a(bignum.o)
                                         0x98 (size before relaxing)
                0x000000004020a5b0                _Z21mont_power_async_initRK10big_mont_tR14big_mont_pow_tRK9big_num_tS6_
 .text._Z16mont_power_asyncRK10big_mont_tR14big_mont_pow_t
                0x000000004020a62c       0xb7 crypto/.output/eagle/release/lib/libusercrypto.a(bignum.o)
                                         0xd7 (size before relaxing)
                0x000000004020a62c                _Z16mont_power_asyncRK10big_mont_tR14big_mont_pow_t
 *fill*         0x000000004020a6e3        0x1 
 .text._ZL4MGF1PhPKhi
                0x000000004020a6e4       0x90 crypto/.output/eagle/release/lib/libusercrypto.a(rsa_pss.o)
                                         0xac (size before relaxing)
 .text._Z11verify_initR12cert_state_tRK10big_mont_tRK9big_rsa_tPKhS8_i
                0x000000004020a774       0x61 crypto/.output/eagle/release/lib/libusercrypto.a(rsa_pss.o)
                                         0x69 (size before relaxing)
                0x000000004020a774                _Z11verify_initR12cert_state_tRK10big_mont_tRK9big_rsa_tPKhS8_i
 *fill*         0x000000004020a7d5        0x3 
 .text._Z13verify_stage1R12cert_state_t
                0x000000004020a7d8       0x3e crypto/.output/eagle/release/lib/libusercrypto.a(rsa_pss.o)
                                         0x4a (size before relaxing)
                0x000000004020a7dc                _Z13verify_stage1R12cert_state_t
 *fill*         0x000000004020a816        0x2 
 .text._Z13verify_stage2R12cert_state_t
                0x000000004020a818       0x5b crypto/.output/eagle/release/lib/libusercrypto.a(rsa_pss.o)
                                         0x6b (size before relaxing)
                0x000000004020a81c                _Z13verify_stage2R12cert_state_t
 *fill*         0x000000004020a873        0x1 
 .text._Z13verify_stage3R12cert_state_t
                0x000000004020a874       0x3a crypto/.output/eagle/release/lib/libusercrypto.a(rsa_pss.o)
                                         0x4a (size before relaxing)
                0x000000004020a874                _Z13verify_stage3R12cert_state_t
 *fill*         0x000000004020a8ae        0x2 
 .text._Z13verify_stage4R12cert_state_t
                0x000000004020a8b0      0x106 crypto/.output/eagle/release/lib/libusercrypto.a(rsa_pss.o)
                                        0x14a (size before relaxing)
                0x000000004020a8bc                _Z13verify_stage4R12cert_state_t
 *fill*         0x000000004020a9b6        0x2 
 .text._Z11verify_certRK10big_mont_tRK9big_rsa_tPKhS6_i
                0x000000004020a9b8      0x126 crypto/.output/eagle/release/lib/libusercrypto.a(rsa_pss.o)
                                        0x18a (size before relaxing)
                0x000000004020a9b8                _Z11verify_certRK10big_mont_tRK9big_rsa_tPKhS6_i
 *fill*         0x000000004020aade        0x2 
 .text._Z10calc_crc32PKhi
                0x000000004020aae0       0x3a crypto/.output/eagle/release/lib/libusercrypto.a(crc32.o)
                0x000000004020aae4                _Z10calc_crc32PKhi
 *fill*         0x000000004020ab1a        0x2 
 .text._ZL12KeyExpansionv
                0x000000004020ab1c       0xdd crypto/.output/eagle/release/lib/libusercrypto.a(aes.o)
 *fill*         0x000000004020abf9        0x3 
 .text._ZL11AddRoundKeyh
                0x000000004020abfc       0x3b crypto/.output/eagle/release/lib/libusercrypto.a(aes.o)
                                         0x3f (size before relaxing)
 *fill*         0x000000004020ac37        0x1 
 .text._ZL8SubBytesv
                0x000000004020ac38       0x2f crypto/.output/eagle/release/lib/libusercrypto.a(aes.o)
                                         0x37 (size before relaxing)
 *fill*         0x000000004020ac67        0x1 
 .text._ZL9ShiftRowsv
                0x000000004020ac68       0x4f crypto/.output/eagle/release/lib/libusercrypto.a(aes.o)
                                         0x53 (size before relaxing)
 *fill*         0x000000004020acb7        0x1 
 .text._ZL11InvSubBytesv
                0x000000004020acb8       0x33 crypto/.output/eagle/release/lib/libusercrypto.a(aes.o)
                                         0x37 (size before relaxing)
 *fill*         0x000000004020aceb        0x1 
 .text._ZL12InvShiftRowsv
                0x000000004020acec       0x4f crypto/.output/eagle/release/lib/libusercrypto.a(aes.o)
                                         0x53 (size before relaxing)
 *fill*         0x000000004020ad3b        0x1 
 .text._Z18AES128_ECB_encryptPKhS0_Ph
                0x000000004020ad3c       0xf5 crypto/.output/eagle/release/lib/libusercrypto.a(aes.o)
                                        0x159 (size before relaxing)
                0x000000004020ad3c                _Z18AES128_ECB_encryptPKhS0_Ph
 *fill*         0x000000004020ae31        0x3 
 .text._Z18AES128_ECB_decryptPKhS0_Ph
                0x000000004020ae34      0x196 crypto/.output/eagle/release/lib/libusercrypto.a(aes.o)
                                        0x22a (size before relaxing)
                0x000000004020ae34                _Z18AES128_ECB_decryptPKhS0_Ph
 *fill*         0x000000004020afca        0x2 
 .text._Z13aes_fix_blockPhRi
                0x000000004020afcc       0x3f crypto/.output/eagle/release/lib/libusercrypto.a(aes.o)
                                         0x4b (size before relaxing)
                0x000000004020afcc                _Z13aes_fix_blockPhRi
 *fill*         0x000000004020b00b        0x1 
 .text._Z14aes_cfb_encodePKvPvPKhPhi
                0x000000004020b00c       0xa3 crypto/.output/eagle/release/lib/libusercrypto.a(aes.o)
                                         0xb7 (size before relaxing)
                0x000000004020b00c                _Z14aes_cfb_encodePKvPvPKhPhi
 *fill*         0x000000004020b0af        0x1 
 .text._Z14aes_cfb_decodePKvS0_PKhPhiPv
                0x000000004020b0b0       0x9b crypto/.output/eagle/release/lib/libusercrypto.a(aes.o)
                                         0xa7 (size before relaxing)
                0x000000004020b0b0                _Z14aes_cfb_decodePKvS0_PKhPhiPv
 *fill*         0x000000004020b14b        0x1 
 .literal._ZL7BIGSWAPPvPKv
                0x000000004020b14c        0x0 crypto/.output/eagle/release/lib/libusercrypto.a(sha512.o)
 .literal._ZL11Sha512RoundPyyyyyRyyyyS0_
                0x000000004020b14c        0x0 crypto/.output/eagle/release/lib/libusercrypto.a(sha512.o)
 .literal._ZL17TransformFunctionR12sha512_statePKh
                0x000000004020b14c        0x0 crypto/.output/eagle/release/lib/libusercrypto.a(sha512.o)
 .literal._Z11sha512_initR12sha512_state
                0x000000004020b14c        0x0 crypto/.output/eagle/release/lib/libusercrypto.a(sha512.o)
 .literal._Z14sha512_processR12sha512_statePKvj
                0x000000004020b14c        0x0 crypto/.output/eagle/release/lib/libusercrypto.a(sha512.o)
 .literal._Z11sha512_doneR12sha512_statePv
                0x000000004020b14c        0x0 crypto/.output/eagle/release/lib/libusercrypto.a(sha512.o)
 .text          0x000000004020b14c        0x0 crypto/.output/eagle/release/lib/libusercrypto.a(sha512.o)
 .text._ZL7BIGSWAPPvPKv
                0x000000004020b14c       0x18 crypto/.output/eagle/release/lib/libusercrypto.a(sha512.o)
 *fill*         0x000000004020b164        0x0 
 *fill*         0x000000004020b164        0x0 
 *fill*         0x000000004020b164        0x0 
 *fill*         0x000000004020b164        0x0 
 .literal._ZL10bit_reduceR9big_num_t
                0x000000004020b164        0x0 crypto/.output/eagle/release/lib/libusercrypto.a(bignum.o)
 .literal._Z8big_initR9big_num_t
                0x000000004020b164        0x0 crypto/.output/eagle/release/lib/libusercrypto.a(bignum.o)
 .literal._Z20big_unsigned_compareRK9big_num_tS1_
                0x000000004020b164        0x0 crypto/.output/eagle/release/lib/libusercrypto.a(bignum.o)
 .literal._Z11big_compareRK9big_num_tS1_
                0x000000004020b164        0x0 crypto/.output/eagle/release/lib/libusercrypto.a(bignum.o)
 .literal._Z8big_zeroRK9big_num_t
                0x000000004020b164        0x0 crypto/.output/eagle/release/lib/libusercrypto.a(bignum.o)
 .literal._Z11big_bit_getRK9big_num_ti
                0x000000004020b164        0x0 crypto/.output/eagle/release/lib/libusercrypto.a(bignum.o)
 .literal._Z11big_bit_setR9big_num_ti
                0x000000004020b164        0x0 crypto/.output/eagle/release/lib/libusercrypto.a(bignum.o)
 .literal._Z7big_msbRK9big_num_t
                0x000000004020b164        0x0 crypto/.output/eagle/release/lib/libusercrypto.a(bignum.o)
 .literal._Z7big_lsbRK9big_num_t
                0x000000004020b164        0x0 crypto/.output/eagle/release/lib/libusercrypto.a(bignum.o)
 .literal._Z7big_shrR9big_num_tRKS_i
                0x000000004020b164        0x0 crypto/.output/eagle/release/lib/libusercrypto.a(bignum.o)
 .literal._Z7big_shlR9big_num_tRKS_i
                0x000000004020b164        0x0 crypto/.output/eagle/release/lib/libusercrypto.a(bignum.o)
 .literal._Z16big_unsigned_addR9big_num_tRKS_S2_
                0x000000004020b164        0x0 crypto/.output/eagle/release/lib/libusercrypto.a(bignum.o)
 .literal._Z21big_unsigned_subtractR9big_num_tRKS_S2_
                0x000000004020b164        0x0 crypto/.output/eagle/release/lib/libusercrypto.a(bignum.o)
 .literal._ZL11big_add_subR9big_num_tRKS_S2_b
                0x000000004020b164        0x0 crypto/.output/eagle/release/lib/libusercrypto.a(bignum.o)
 .literal._Z7big_addR9big_num_tRKS_S2_
                0x000000004020b164        0x0 crypto/.output/eagle/release/lib/libusercrypto.a(bignum.o)
 .literal._Z12big_subtractR9big_num_tRKS_S2_
                0x000000004020b164        0x0 crypto/.output/eagle/release/lib/libusercrypto.a(bignum.o)
 .literal._Z12big_multiplyR9big_num_tRKS_S2_
                0x000000004020b164        0x0 crypto/.output/eagle/release/lib/libusercrypto.a(bignum.o)
 .literal._Z9big_powerR9big_num_tRKS_S2_
                0x000000004020b164        0x0 crypto/.output/eagle/release/lib/libusercrypto.a(bignum.o)
 .literal._Z10big_divideR9big_num_tS0_RKS_S2_
                0x000000004020b164        0x0 crypto/.output/eagle/release/lib/libusercrypto.a(bignum.o)
 .literal._Z10big_moduloR9big_num_tRKS_S2_
                0x000000004020b164        0x0 crypto/.output/eagle/release/lib/libusercrypto.a(bignum.o)
 .literal._Z21big_modulo_async_initR12big_modulo_tRK9big_num_tS3_
                0x000000004020b164        0x0 crypto/.output/eagle/release/lib/libusercrypto.a(bignum.o)
 .literal._Z16big_modulo_asyncR12big_modulo_t
                0x000000004020b164        0x0 crypto/.output/eagle/release/lib/libusercrypto.a(bignum.o)
 .literal._Z8big_invmR9big_num_tRKS_S2_
                0x000000004020b164        0x0 crypto/.output/eagle/release/lib/libusercrypto.a(bignum.o)
 .literal._Z7mont_toRK10big_mont_tR9big_num_tRKS2_
                0x000000004020b164        0x0 crypto/.output/eagle/release/lib/libusercrypto.a(bignum.o)
 .literal._Z9mont_initR10big_mont_tRK9big_num_t
                0x000000004020b164        0x0 crypto/.output/eagle/release/lib/libusercrypto.a(bignum.o)
 .literal._Z9mont_fromRK10big_mont_tR9big_num_tRKS2_
                0x000000004020b164        0x0 crypto/.output/eagle/release/lib/libusercrypto.a(bignum.o)
 .literal._Z13mont_multiplyRK10big_mont_tR9big_num_tRKS2_S5_
                0x000000004020b164        0x0 crypto/.output/eagle/release/lib/libusercrypto.a(bignum.o)
 .literal._Z10mont_powerRK10big_mont_tR9big_num_tRKS2_S5_
                0x000000004020b164        0x0 crypto/.output/eagle/release/lib/libusercrypto.a(bignum.o)
 .literal._Z21mont_power_async_initRK10big_mont_tR14big_mont_pow_tRK9big_num_tS6_
                0x000000004020b164        0x0 crypto/.output/eagle/release/lib/libusercrypto.a(bignum.o)
 .literal._Z16mont_power_asyncRK10big_mont_tR14big_mont_pow_t
                0x000000004020b164        0x0 crypto/.output/eagle/release/lib/libusercrypto.a(bignum.o)
 .text          0x000000004020b164        0x0 crypto/.output/eagle/release/lib/libusercrypto.a(bignum.o)
 .text._ZL10bit_reduceR9big_num_t
                0x000000004020b164       0x18 crypto/.output/eagle/release/lib/libusercrypto.a(bignum.o)
 .text._Z8big_initR9big_num_t
                0x000000004020b17c        0xb crypto/.output/eagle/release/lib/libusercrypto.a(bignum.o)
                0x000000004020b17c                _Z8big_initR9big_num_t
 *fill*         0x000000004020b187        0x1 
 .text._Z20big_unsigned_compareRK9big_num_tS1_
                0x000000004020b188       0x3b crypto/.output/eagle/release/lib/libusercrypto.a(bignum.o)
                0x000000004020b188                _Z20big_unsigned_compareRK9big_num_tS1_
 *fill*         0x000000004020b1c3        0x0 
 *fill*         0x000000004020b1c3        0x1 
 .text._Z8big_zeroRK9big_num_t
                0x000000004020b1c4        0xb crypto/.output/eagle/release/lib/libusercrypto.a(bignum.o)
                0x000000004020b1c4                _Z8big_zeroRK9big_num_t
 *fill*         0x000000004020b1cf        0x1 
 .text._Z7big_msbRK9big_num_t
                0x000000004020b1d0       0x25 crypto/.output/eagle/release/lib/libusercrypto.a(bignum.o)
                0x000000004020b1d0                _Z7big_msbRK9big_num_t
 *fill*         0x000000004020b1f5        0x3 
 .text._Z7big_lsbRK9big_num_t
                0x000000004020b1f8       0x2c crypto/.output/eagle/release/lib/libusercrypto.a(bignum.o)
                0x000000004020b1f8                _Z7big_lsbRK9big_num_t
 *fill*         0x000000004020b224        0x0 
 *fill*         0x000000004020b224        0x0 
 .text._Z16big_unsigned_addR9big_num_tRKS_S2_
                0x000000004020b224       0x80 crypto/.output/eagle/release/lib/libusercrypto.a(bignum.o)
                0x000000004020b224                _Z16big_unsigned_addR9big_num_tRKS_S2_
 *fill*         0x000000004020b2a4        0x0 
 *fill*         0x000000004020b2a4        0x0 
 *fill*         0x000000004020b2a4        0x0 
 *fill*         0x000000004020b2a4        0x0 
 *fill*         0x000000004020b2a4        0x0 
 *fill*         0x000000004020b2a4        0x0 
 *fill*         0x000000004020b2a4        0x0 
 *fill*         0x000000004020b2a4        0x0 
 *fill*         0x000000004020b2a4        0x0 
 *fill*         0x000000004020b2a4        0x0 
 *fill*         0x000000004020b2a4        0x0 
 *fill*         0x000000004020b2a4        0x0 
 .literal._ZL4MGF1PhPKhi
                0x000000004020b2a4        0x0 crypto/.output/eagle/release/lib/libusercrypto.a(rsa_pss.o)
 .literal._Z11verify_initR12cert_state_tRK10big_mont_tRK9big_rsa_tPKhS8_i
                0x000000004020b2a4        0x0 crypto/.output/eagle/release/lib/libusercrypto.a(rsa_pss.o)
 .literal._Z13verify_stage1R12cert_state_t
                0x000000004020b2a4        0x0 crypto/.output/eagle/release/lib/libusercrypto.a(rsa_pss.o)
 .literal._Z13verify_stage2R12cert_state_t
                0x000000004020b2a4        0x0 crypto/.output/eagle/release/lib/libusercrypto.a(rsa_pss.o)
 .literal._Z13verify_stage3R12cert_state_t
                0x000000004020b2a4        0x0 crypto/.output/eagle/release/lib/libusercrypto.a(rsa_pss.o)
 .literal._Z13verify_stage4R12cert_state_t
                0x000000004020b2a4        0x0 crypto/.output/eagle/release/lib/libusercrypto.a(rsa_pss.o)
 .literal._Z11verify_certRK10big_mont_tRK9big_rsa_tPKhS6_i
                0x000000004020b2a4        0x0 crypto/.output/eagle/release/lib/libusercrypto.a(rsa_pss.o)
 .text          0x000000004020b2a4        0x0 crypto/.output/eagle/release/lib/libusercrypto.a(rsa_pss.o)
 *fill*         0x000000004020b2a4        0x0 
 *fill*         0x000000004020b2a4        0x0 
 *fill*         0x000000004020b2a4        0x0 
 *fill*         0x000000004020b2a4        0x0 
 *fill*         0x000000004020b2a4        0x0 
 *fill*         0x000000004020b2a4        0x0 
 .literal._Z10calc_crc32PKhi
                0x000000004020b2a4        0x0 crypto/.output/eagle/release/lib/libusercrypto.a(crc32.o)
 .text          0x000000004020b2a4        0x0 crypto/.output/eagle/release/lib/libusercrypto.a(crc32.o)
 *fill*         0x000000004020b2a4        0x0 
 .literal._ZL12KeyExpansionv
                0x000000004020b2a4        0x0 crypto/.output/eagle/release/lib/libusercrypto.a(aes.o)
 .literal._ZL11AddRoundKeyh
                0x000000004020b2a4        0x0 crypto/.output/eagle/release/lib/libusercrypto.a(aes.o)
 .literal._ZL8SubBytesv
                0x000000004020b2a4        0x0 crypto/.output/eagle/release/lib/libusercrypto.a(aes.o)
 .literal._ZL9ShiftRowsv
                0x000000004020b2a4        0x0 crypto/.output/eagle/release/lib/libusercrypto.a(aes.o)
 .literal._ZL5xtimeh
                0x000000004020b2a4        0x0 crypto/.output/eagle/release/lib/libusercrypto.a(aes.o)
 .literal._ZL11InvSubBytesv
                0x000000004020b2a4        0x0 crypto/.output/eagle/release/lib/libusercrypto.a(aes.o)
 .literal._ZL12InvShiftRowsv
                0x000000004020b2a4        0x0 crypto/.output/eagle/release/lib/libusercrypto.a(aes.o)
 .literal._Z18AES128_ECB_encryptPKhS0_Ph
                0x000000004020b2a4        0x0 crypto/.output/eagle/release/lib/libusercrypto.a(aes.o)
 .literal._Z18AES128_ECB_decryptPKhS0_Ph
                0x000000004020b2a4        0x0 crypto/.output/eagle/release/lib/libusercrypto.a(aes.o)
 .literal._Z13aes_fix_blockPhRi
                0x000000004020b2a4        0x0 crypto/.output/eagle/release/lib/libusercrypto.a(aes.o)
 .literal._Z14aes_cfb_encodePKvPvPKhPhi
                0x000000004020b2a4        0x0 crypto/.output/eagle/release/lib/libusercrypto.a(aes.o)
 .literal._Z14aes_cfb_decodePKvS0_PKhPhiPv
                0x000000004020b2a4        0x0 crypto/.output/eagle/release/lib/libusercrypto.a(aes.o)
 .text          0x000000004020b2a4        0x0 crypto/.output/eagle/release/lib/libusercrypto.a(aes.o)
 *fill*         0x000000004020b2a4        0x0 
 *fill*         0x000000004020b2a4        0x0 
 *fill*         0x000000004020b2a4        0x0 
 *fill*         0x000000004020b2a4        0x0 
 .text._ZL5xtimeh
                0x000000004020b2a4       0x16 crypto/.output/eagle/release/lib/libusercrypto.a(aes.o)
 *fill*         0x000000004020b2ba        0x0 
 *fill*         0x000000004020b2ba        0x0 
 *fill*         0x000000004020b2ba        0x0 
 *fill*         0x000000004020b2ba        0x0 
 *fill*         0x000000004020b2ba        0x0 
 *fill*         0x000000004020b2ba        0x0 
 *fill*         0x000000004020b2ba        0x0 
 *(.irom0.literal .irom.literal .irom.text.literal .irom0.text .irom.text)
 *fill*         0x000000004020b2ba        0x2 
 .irom0.text    0x000000004020b2bc     0x35a1 ../lib/libmain_w.a(user_interface.o)
                                       0x3f9d (size before relaxing)
                0x000000004020b2c0                system_set_os_print
                0x000000004020b2d0                system_get_os_print
                0x000000004020b4a4                system_pp_recycle_rx_pkt
                0x000000004020b4c0                system_adc_read
                0x000000004020b500                system_adc_read_fast
                0x000000004020b560                system_get_vdd33
                0x000000004020b58c                system_restart_hook
                0x000000004020b5b4                system_restart_local
                0x000000004020b694                system_restart
                0x000000004020b6f4                system_restore
                0x000000004020b75c                system_get_flash_size_map
                0x000000004020b780                system_get_boot_version
                0x000000004020b7b8                system_get_test_result
                0x000000004020b7e0                system_get_userbin_addr
                0x000000004020b878                system_get_boot_mode
                0x000000004020b8a8                system_restart_enhance
                0x000000004020b9d8                system_upgrade_userbin_set
                0x000000004020ba24                system_upgrade_userbin_check
                0x000000004020ba64                system_upgrade_flag_set
                0x000000004020ba78                system_upgrade_flag_check
                0x000000004020baa0                system_upgrade_reboot
                0x000000004020bbd8                system_deep_sleep_instant
                0x000000004020bd70                system_deep_sleep
                0x000000004020bdd0                system_deep_sleep_set_option
                0x000000004020bdec                system_phy_temperature_alert
                0x000000004020be00                system_phy_set_max_tpw
                0x000000004020be14                system_phy_set_tpw_via_vdd33
                0x000000004020be28                system_phy_set_rfoption
                0x000000004020be3c                system_phy_set_powerup_option
                0x000000004020be54                system_update_cpu_freq
                0x000000004020beb0                system_get_cpu_freq
                0x000000004020bec8                system_overclock
                0x000000004020bef4                system_restoreclock
                0x000000004020bf24                system_timer_reinit
                0x000000004020bf3c                system_relative_time
                0x000000004020bf64                system_station_got_ip_set
                0x000000004020c09c                system_print_meminfo
                0x000000004020c0fc                system_get_free_heap_size
                0x000000004020c114                system_get_chip_id
                0x000000004020c138                system_rtc_clock_cali_proc
                0x000000004020c14c                system_get_rtc_time
                0x000000004020c15c                system_mktime
                0x000000004020c22c                system_init_done_cb
                0x000000004020c238                system_get_rst_info
                0x000000004020c240                system_get_data_of_array_8
                0x000000004020c264                system_get_data_of_array_16
                0x000000004020c28c                system_get_string_from_flash
                0x000000004020c2f8                wifi_softap_dhcps_start
                0x000000004020c340                wifi_softap_dhcps_stop
                0x000000004020c380                wifi_softap_dhcps_status
                0x000000004020c388                wifi_station_dhcpc_start
                0x000000004020c3e0                wifi_station_dhcpc_stop
                0x000000004020c424                wifi_station_dhcpc_event
                0x000000004020c49c                wifi_station_dhcpc_set_maxtry
                0x000000004020c4ac                wifi_station_dhcpc_status
                0x000000004020c524                wifi_get_opmode
                0x000000004020c538                wifi_get_opmode_default
                0x000000004020c5b4                wifi_get_broadcast_if
                0x000000004020c5f0                wifi_set_broadcast_if
                0x000000004020c770                wifi_set_opmode
                0x000000004020c784                wifi_set_opmode_current
                0x000000004020c798                system_get_checksum
                0x000000004020c7d4                wifi_param_save_protect_with_check
                0x000000004020c890                system_param_save_with_protect
                0x000000004020c938                system_save_sys_param
                0x000000004020c964                system_param_load
                0x000000004020ca9c                wifi_station_get_config
                0x000000004020cab0                wifi_station_get_config_default
                0x000000004020cad0                wifi_station_get_ap_info
                0x000000004020cb88                wifi_station_ap_number_set
                0x000000004020cf24                wifi_station_set_config
                0x000000004020cf3c                wifi_station_set_config_current
                0x000000004020cf54                wifi_station_restore_config
                0x000000004020cf6c                wifi_station_get_current_ap_id
                0x000000004020cf80                wifi_station_ap_check
                0x000000004020cfcc                wifi_station_ap_change
                0x000000004020d0f8                wifi_station_scan
                0x000000004020d144                wifi_station_get_auto_connect
                0x000000004020d158                wifi_station_set_auto_connect
                0x000000004020d1a8                wifi_station_save_pmk2cache
                0x000000004020d258                wifi_station_connect
                0x000000004020d2ec                wifi_station_disconnect
                0x000000004020d3ac                wifi_station_get_connect_status
                0x000000004020d3dc                wifi_station_set_reconnect_policy
                0x000000004020d3f4                wifi_station_get_reconnect_policy
                0x000000004020d3fc                wifi_station_get_rssi
                0x000000004020d44c                wifi_station_set_default_hostname
                0x000000004020d4b4                wifi_station_get_hostname
                0x000000004020d4e4                wifi_station_set_hostname
                0x000000004020d580                wifi_softap_cacl_mac
                0x000000004020d5f0                wifi_softap_set_default_ssid
                0x000000004020d7d4                wifi_softap_get_config
                0x000000004020d7e8                wifi_softap_get_config_default
                0x000000004020db40                wifi_softap_set_config
                0x000000004020db54                wifi_softap_set_config_current
                0x000000004020db68                wifi_softap_set_station_info
                0x000000004020dbd4                wifi_softap_get_station_info
                0x000000004020dc84                wifi_softap_free_station_info
                0x000000004020dccc                wifi_softap_get_station_num
                0x000000004020dd20                wifi_softap_deauth
                0x000000004020ddd0                wifi_softap_get_beacon_only_mode
                0x000000004020dde4                wifi_softap_set_beacon_only_mode
                0x000000004020de48                wifi_register_user_ie_manufacturer_recv_cb
                0x000000004020de5c                wifi_unregister_user_ie_manufacturer_recv_cb
                0x000000004020de90                wifi_set_user_ie
                0x000000004020dfa0                wifi_get_user_ie
                0x000000004020dfd4                wifi_get_phy_mode
                0x000000004020dfdc                wifi_set_phy_mode
                0x000000004020e0a4                wifi_set_sleep_type
                0x000000004020e0c0                wifi_get_sleep_type
                0x000000004020e0d8                wifi_get_channel
                0x000000004020e0f4                wifi_set_channel
                0x000000004020e138                wifi_promiscuous_set_mac
                0x000000004020e19c                wifi_promiscuous_enable
                0x000000004020e280                wifi_set_promiscuous_rx_cb
                0x000000004020e290                wifi_get_ip_info
                0x000000004020e310                wifi_set_ip_info
                0x000000004020e388                wifi_get_macaddr
                0x000000004020e3e8                wifi_set_macaddr
                0x000000004020e504                wifi_enable_6m_rate
                0x000000004020e50c                wifi_get_user_fixed_rate
                0x000000004020e52c                wifi_set_user_fixed_rate
                0x000000004020e54c                wifi_set_user_sup_rate
                0x000000004020e588                wifi_set_user_rate_limit
                0x000000004020e5ac                wifi_get_user_limit_rate_mask
                0x000000004020e5b4                wifi_set_user_limit_rate_mask
                0x000000004020e5cc                wifi_register_send_pkt_freedom_cb
                0x000000004020e5e0                wifi_unregister_send_pkt_freedom_cb
                0x000000004020e5ec                wifi_send_pkt_freedom
                0x000000004020e638                wifi_rfid_locp_recv_open
                0x000000004020e64c                wifi_rfid_locp_recv_close
                0x000000004020e660                wifi_register_rfid_locp_recv_cb
                0x000000004020e674                wifi_unregister_rfid_locp_recv_cb
                0x000000004020e68c                wifi_status_led_install
                0x000000004020e6c0                wifi_status_led_uninstall
                0x000000004020e6e4                wifi_set_status_led_output_level
                0x000000004020e73c                wifi_set_event_handler_cb
                0x000000004020e784                system_os_task
                0x000000004020e7c0                system_uart_swap
                0x000000004020e820                system_uart_de_swap
                0x000000004020e858                system_get_sdk_version
 *fill*         0x000000004020e85d        0x3 
 .irom0.text    0x000000004020e860      0x9f1 ../lib/libmain_w.a(app_main.o)
                                        0xc9d (size before relaxing)
                0x000000004020ea18                wdt_init
                0x000000004020eabc                user_uart_wait_tx_fifo_empty
 *fill*         0x000000004020f251        0x3 
 .irom0.text    0x000000004020f254      0x60c ../lib/libmain_w.a(eagle_lib.o)
                                        0x620 (size before relaxing)
                0x000000004020f254                divide
                0x000000004020f290                skip_atoi
                0x000000004020f410                ets_vsnprintf
                0x000000004020f770                ets_vsprintf
                0x000000004020f794                ets_sprintf
                0x000000004020f7bc                ets_strcat
                0x000000004020f7dc                ets_strrchr
                0x000000004020f808                ets_strchr
                0x000000004020f820                bit_popcount
                0x000000004020f83c                ets_snprintf
 .irom0.text    0x000000004020f860      0x31e ../lib/libmain_w.a(eagle_lwip_if.o)
                                        0x3e6 (size before relaxing)
                0x000000004020f918                eagle_lwip_if_alloc
                0x000000004020fad8                eagle_lwip_if_free
                0x000000004020fb5c                eagle_lwip_getif
 *fill*         0x000000004020fb7e        0x2 
 .irom0.text    0x000000004020fb80      0x176 ../lib/libmain_w.a(ets_timer.o)
                                        0x1b2 (size before relaxing)
                0x000000004020fb88                ets_timer_done
                0x000000004020fbc8                ets_timer_handler_isr
                0x000000004020fc94                ets_timer_init
 *fill*         0x000000004020fcf6        0x2 
 .irom0.text    0x000000004020fcf8       0xe4 ../lib/libmain_w.a(mem_manager.o)
                                         0xf8 (size before relaxing)
                0x000000004020fcf8                check_memleak_debug_enable
                0x000000004020fd60                xPortGetFreeHeapSize
                0x000000004020fd68                vPortInitialiseBlocks
 .irom0.text    0x000000004020fddc        0xb ../lib/libmain_w.a(spi_flash.o)
                0x000000004020fde0                spi_flash_set_read_func
 *fill*         0x000000004020fde7        0x1 
 .irom0.text    0x000000004020fde8       0x1c hal/.output/eagle/release/lib/libuserhal.a(user_main.o)
                                         0x28 (size before relaxing)
 .irom0.text    0x000000004020fe04      0x191 driver/.output/eagle/release/lib/libdriver.a(crash.o)
                                        0x1c9 (size before relaxing)
                0x000000004020fe1c                crashHandlerInit
                0x000000004020ff20                crashHandlerGetReport
                0x000000004020ff6c                crashHandlerMarkReported
 *fill*         0x000000004020ff95        0x3 
 .irom0.text    0x000000004020ff98       0x9b driver/.output/eagle/release/lib/libdriver.a(factoryData.o)
                                         0xbb (size before relaxing)
                0x000000004020ff9c                factoryDataInit
                0x000000004020ffd0                getSerialNumber
                0x000000004020ffd8                getSSIDNumber
                0x000000004020fff8                getModelNumber
                0x0000000040210004                getFactoryRandomSeed
 *fill*         0x0000000040210033        0x1 
 .irom0.text    0x0000000040210034      0x72c driver/.output/eagle/release/lib/libdriver.a(i2spi.o)
                                        0x7bc (size before relaxing)
                0x0000000040210128                i2spiInit
                0x000000004021052c                i2spiQueueMessage
                0x00000000402105f0                i2spiMessageQueueIsEmpty
                0x0000000040210640                i2spiSwitchMode
                0x0000000040210718                i2spiGetRtipBootloaderState
                0x0000000040210730                i2spiBootloaderPushChunk
                0x000000004021074c                i2spiBootloaderCommandDone
 .irom0.text    0x0000000040210760      0x468 driver/.output/eagle/release/lib/libdriver.a(uart.o)
                                        0x4dc (size before relaxing)
                0x00000000402108a8                uart_tx_buffer
                0x00000000402108f4                uart_init
                0x0000000040210924                uart_start
                0x000000004021094c                UART_SetWordLength
                0x0000000040210974                UART_SetStopBits
                0x00000000402109a4                UART_SetLineInverse
                0x00000000402109d4                UART_SetParity
                0x0000000040210a0c                UART_SetBaudrate
                0x0000000040210a44                UART_SetFlowCtrl
                0x0000000040210b08                UART_WaitTxFifoEmpty
                0x0000000040210b5c                UART_ResetFifo
                0x0000000040210b90                UART_ClearIntrStatus
                0x0000000040210ba8                UART_SetIntrEna
 .irom0.text    0x0000000040210bc8      0x979 transport/.output/eagle/release/lib/libtransport.a(reliableTransport.o)
                                        0xa39 (size before relaxing)
                0x0000000040210d40                ReliableConnection_printState
                0x0000000040210d74                haveDataToSend
                0x0000000040210d8c                ReliableTransport_Init
                0x0000000040210da0                ReliableConnection_Init
                0x0000000040210e24                AppendPendingMessages
                0x0000000040210f9c                SendTxBuf
                0x0000000040210fec                SendPendingMessages
                0x0000000040211030                ReliableTransport_Connect
                0x0000000040211060                ReliableTransport_FinishConnection
                0x0000000040211090                ReliableTransport_Disconnect
                0x00000000402110c4                UpdateLastAckedMessage
                0x00000000402111b0                ReliableTransport_SendMessage
                0x00000000402112cc                ReceivePing
                0x00000000402112f4                HandleSubMessage
                0x00000000402113d0                ReliableTransport_ReceiveData
                0x00000000402114e0                ReliableTransport_SetConnectionTimeout
                0x00000000402114ec                ReliableTransport_Update
                0x0000000040211530                ReliableConnection_GetReliableQueueAvailable
 *fill*         0x0000000040211541        0x3 
 .irom0.text    0x0000000040211544       0xfa ../lib/libphy.a(phy.o)
                                        0x11e (size before relaxing)
                0x0000000040211548                rf_init
                0x0000000040211564                bb_init
                0x000000004021157c                phy_init
                0x00000000402115ac                RFChannelSel
                0x00000000402115c8                phy_delete_channel
                0x00000000402115e0                phy_enable_agc
                0x00000000402115f8                phy_disable_agc
                0x0000000040211610                phy_initialize_bb
                0x0000000040211628                phy_set_sense
 *fill*         0x000000004021163e        0x2 
 .irom0.text    0x0000000040211640     0x175f ../lib/libphy.a(phy_chip_v6_ana.o)
                                       0x1973 (size before relaxing)
                0x0000000040211644                ram_pbus_set_rxgain
                0x0000000040211718                ram_pbus_debugmode
                0x00000000402117cc                ram_pbus_xpd_tx_on
                0x0000000040211838                set_rf_freq_offset
                0x00000000402118a8                chip_v6_rxmax_ext_ana
                0x00000000402119fc                ram_chip_v6_rx_init
                0x0000000040211a28                tsen_meas
                0x0000000040211ad4                readvdd33
                0x0000000040211ca0                txpwr_offset
                0x0000000040211d5c                set_txcap_reg
                0x0000000040211ddc                ram_ana_inf_gating_en
                0x0000000040211f3c                ram_restart_cal
                0x0000000040211fa8                wait_rfpll_cal_end
                0x0000000040212040                ram_rfpll_set_freq
                0x0000000040212148                ram_set_channel_freq
                0x0000000040212444                chip_60_set_channel
                0x00000000402125e4                chip_v6_set_chan_offset
                0x0000000040212644                chip_v6_set_chan
                0x00000000402126ec                chip_v6_set_chan_wakeup
                0x000000004021276c                chip_v6_rf_init
                0x00000000402129d0                low_power_set
                0x0000000040212a20                test_tout
                0x0000000040212b98                check_data_flag
                0x0000000040212bb8                phy_get_check_flag
                0x0000000040212cec                phy_get_vdd33
 *fill*         0x0000000040212d9f        0x1 
 .irom0.text    0x0000000040212da0     0x3e78 ../lib/libphy.a(phy_chip_v6.o)
                                       0x453c (size before relaxing)
                0x0000000040212da0                ram_tx_mac_enable
                0x0000000040212da4                ram_tx_mac_disable
                0x0000000040212da8                rtc_mem_backup
                0x0000000040212dd8                rtc_mem_recovery
                0x0000000040212e08                set_cal_rxdc
                0x0000000040212ebc                set_rx_gain_cal_iq
                0x0000000040213218                gen_rx_gain_table
                0x0000000040213370                pbus_set_rxbbgain
                0x00000000402133ec                set_rx_gain_testchip_50
                0x0000000040213720                ram_get_corr_power
                0x0000000040213810                check_data_func
                0x0000000040213830                do_noisefloor_lsleep_v50
                0x0000000040213864                do_noisefloor
                0x00000000402138d4                start_dig_rx
                0x0000000040213918                stop_dig_rx
                0x0000000040213944                chip_v6_set_chanfreq
                0x0000000040213974                tx_cap_init
                0x0000000040213b60                target_power_add_backoff
                0x0000000040213b8c                tx_pwctrl_init_cal
                0x0000000040213d04                tx_atten_set_interp
                0x0000000040213f64                check_tx_pwr_cal
                0x00000000402140a8                tx_pwctrl_init
                0x00000000402141cc                ram_get_noisefloor
                0x00000000402141e8                get_noisefloor_sat
                0x0000000040214218                ram_set_noise_floor
                0x0000000040214270                ram_start_noisefloor
                0x00000000402142bc                read_hw_noisefloor
                0x00000000402142e8                noise_check_loop
                0x0000000040214440                noise_init
                0x0000000040214640                target_power_backoff
                0x0000000040214694                sdt_on_noise_start
                0x0000000040214714                chip_v6_set_chan_rx_cmp
                0x00000000402148a0                chip_v6_set_chan_misc
                0x000000004021492c                phy_dig_spur_set
                0x0000000040214c84                phy_dig_spur_prot
                0x0000000040214ebc                chip_v6_rxmax_ext_dig
                0x0000000040214f08                chip_v6_rxmax_ext
                0x0000000040214fac                phy_bb_rx_cfg
                0x00000000402153c4                uart_wait_idle
                0x00000000402153fc                phy_pbus_soc_cfg
                0x00000000402154b4                phy_gpio_cfg
                0x00000000402156cc                tx_cont_en
                0x0000000040215774                tx_cont_dis
                0x00000000402157c8                tx_cont_cfg
                0x00000000402157ec                chip_v6_initialize_bb
                0x0000000040215958                periodic_cal
                0x0000000040215a38                bbpll_cal
                0x0000000040215ad0                periodic_cal_top
                0x0000000040215b30                register_chipv6_phy_init_param
                0x0000000040215dd8                change_bbpll160_sleep
                0x0000000040215f88                change_bbpll160
                0x0000000040215fc0                set_crystal_uart
                0x0000000040216050                ant_switch_init
                0x0000000040216100                reduce_current_init
                0x00000000402161ec                rtc_mem_check
                0x0000000040216228                phy_afterwake_set_rfoption
                0x0000000040216248                deep_sleep_set_option
                0x0000000040216274                write_data_to_rtc
                0x00000000402162ac                get_data_from_rtc
                0x000000004021632c                register_chipv6_phy
                0x00000000402167c8                set_dpd_bypass
                0x00000000402167f0                set_rf_gain_stage10
                0x0000000040216820                get_vdd33_offset
                0x0000000040216894                get_phy_target_power
                0x0000000040216948                set_most_pwr_reg
                0x0000000040216a1c                phy_set_most_tpw
                0x0000000040216a3c                phy_vdd33_set_tpw
                0x0000000040216a54                get_adc_rand
                0x0000000040216a88                phy_get_rand
                0x0000000040216aa0                phy_tx_pwctrl_cali
                0x0000000040216ac8                phy_check_data_table
                0x0000000040216b04                phy_after_init_enrx
                0x0000000040216b68                phy_set_rx11b_reg
                0x0000000040216b9c                phy_set_powerup_option
                0x0000000040216bac                phy_get_txpwr_param
                0x0000000040216bf8                phy_get_rxnf_param
                0x0000000040216c04                phy_get_freq_param
 .irom0.text    0x0000000040216c18     0x216c ../lib/libphy.a(phy_chip_v6_cal.o)
                                       0x23a4 (size before relaxing)
                0x0000000040216c18                txbbgain2dcoindex
                0x0000000040216c38                dcoindex2txbbgain
                0x0000000040216c5c                init_cal_dcoffset
                0x0000000040216d20                set_rfanagain_dc_reg
                0x0000000040216dbc                set_txdc_pbus
                0x0000000040216e28                get_rf_gain_qdb
                0x0000000040216e50                correct_rf_ana_gain
                0x0000000040216f58                get_sar_dout
                0x0000000040216fe4                cal_rf_ana_gain
                0x0000000040217110                meas_tone_pwr_db
                0x0000000040217180                tx_pwr_backoff
                0x0000000040217308                get_fcc_1m2m_pwr_offset
                0x0000000040217344                ram_set_txbb_atten
                0x00000000402173d8                txiq_get_mis_pwr
                0x000000004021747c                txiq_cover
                0x0000000040217698                ram_rfcal_txiq
                0x0000000040217904                rc_cal
                0x0000000040217ac4                get_target_power_offset
                0x0000000040217bcc                get_pwctrl_correct
                0x0000000040217c24                tx_pwctrl_cal
                0x0000000040217f20                tx_pwctrl_bg_init
                0x0000000040217f98                tx_pwctrl_background
                0x0000000040218050                read_sar_dout
                0x00000000402180b4                ram_get_fm_sar_dout
                0x0000000040218158                ram_cal_tos_v60
                0x0000000040218328                ram_get_bb_atten
                0x0000000040218358                ram_rfcal_txcap
                0x000000004021851c                ram_rfcal_pwrctrl
                0x0000000040218744                ram_rxiq_get_mis
                0x0000000040218910                ram_rxiq_cover_mg_mp
                0x0000000040218ab4                ram_rfcal_rxiq
                0x0000000040218cc0                dpd_scale_set
                0x0000000040218d08                dpd_mem_write
 .irom0.text    0x0000000040218d84      0xd8e ../lib/libphy.a(phy_sleep.o)
                                        0xfc6 (size before relaxing)
                0x0000000040218d84                pm_usec2rtc
                0x0000000040218db8                pm_rtc2usec
                0x0000000040218dc8                pm_set_sleep_cycles
                0x0000000040218dec                pm_sleep_opt
                0x0000000040218f30                pm_wakeup_opt
                0x0000000040218f68                get_chip_version
                0x0000000040218fa8                pm_sleep_opt_bb_off
                0x0000000040218fe8                pm_sleep_opt_bb_on
                0x0000000040219030                pm_set_pll_xtal_wait_time
                0x000000004021905c                pm_prepare_to_sleep
                0x0000000040219064                pm_sdio_nidle
                0x00000000402190d8                chg_lslp_mem_opt_8266
                0x0000000040219104                pm_goto_sleep
                0x0000000040219250                pm_wait4wakeup
                0x000000004021928c                pm_open_rf
                0x00000000402192c8                pm_sleep_set_mac
                0x000000004021934c                pm_set_wakeup_mac
                0x00000000402193e4                pm_check_mac_idle
                0x000000004021943c                pm_set_sleep_btco
                0x00000000402194dc                pm_set_wakeup_btco
                0x00000000402195f4                pm_set_sleep_mode
                0x0000000040219710                pm_unmask_bt
                0x0000000040219778                pm_wakeup_init
                0x00000000402199b8                sleep_opt_8266
                0x00000000402199d8                sleep_opt_bb_on_8266
                0x0000000040219a10                sleep_reset_analog_rtcreg_8266
 *fill*         0x0000000040219b12        0x2 
 .irom0.text    0x0000000040219b14      0x465 ../lib/libpp.a(if_hwctrl.o)
                                        0x581 (size before relaxing)
                0x0000000040219b34                ic_get_addr
                0x0000000040219b40                ic_set_opmode
                0x0000000040219b54                ic_enable_interface
                0x0000000040219ba4                ic_interface_enabled
                0x0000000040219bb8                ic_disable_interface
                0x0000000040219c00                ic_is_pure_sta
                0x0000000040219c1c                ic_get_ptk_alg
                0x0000000040219c2c                ic_get_gtk_alg
                0x0000000040219c3c                ic_set_ptk_alg
                0x0000000040219c4c                ic_set_gtk_alg
                0x0000000040219c5c                ic_interface_is_p2p
                0x0000000040219cf4                ic_set_vif
                0x0000000040219db0                ic_set_sta
                0x0000000040219e88                ic_bss_info_update
                0x0000000040219ee4                ic_set_key
                0x0000000040219f40                ic_remove_key
                0x0000000040219f54                ic_get_rssi
 *fill*         0x0000000040219f79        0x3 
 .irom0.text    0x0000000040219f7c      0x100 ../lib/libpp.a(lmac.o)
                                        0x118 (size before relaxing)
                0x0000000040219f80                lmacInitAc
                0x0000000040219fb4                lmacInit
                0x000000004021a060                lmacSetRetryLimit
 .irom0.text    0x000000004021a07c     0x19e5 ../lib/libpp.a(pm.o)
                                       0x1f91 (size before relaxing)
                0x000000004021a084                pm_rtc_clock_cali_proc
                0x000000004021a0bc                pm_get_ck170_period
                0x000000004021a0e0                pm_set_sleep_time
                0x000000004021a464                pm_rf_is_closed
                0x000000004021a494                pm_set_sleep_type_from_upper
                0x000000004021a584                pm_get_sleep_type
                0x000000004021a740                uart_tx_flush
                0x000000004021a744                pm_suspend
                0x000000004021a960                pm_shutdown
                0x000000004021aa28                pm_reset_idle_sleep
                0x000000004021aa68                pm_idle_sleep
                0x000000004021aa74                pm_open
                0x000000004021ab54                pm_onBcnRx
                0x000000004021aeec                StopLightSleepSetFunc
                0x000000004021aef4                LightSleepWakedCbSetFunc
                0x000000004021b4ac                pm_enable_gpio_wakeup
                0x000000004021b4e4                pm_attach
                0x000000004021b5d0                pm_send_nullfunc
                0x000000004021b774                pm_is_waked
                0x000000004021b78c                pm_is_open
                0x000000004021b7a4                pm_scan_lock
                0x000000004021b7cc                pm_try_scan_unlock
                0x000000004021b7e4                pm_force_scan_unlock
                0x000000004021b884                pm_scan_unlocked
                0x000000004021b898                pm_allow_tx
                0x000000004021b8b4                pm_assoc_parse
                0x000000004021b8cc                pm_set_addr
                0x000000004021b8ec                pm_sleep_for
                0x000000004021b91c                pm_post
                0x000000004021ba20                pm_get_idle_wait_time
 *fill*         0x000000004021ba61        0x3 
 .irom0.text    0x000000004021ba64      0xb48 ../lib/libpp.a(pm_for_bcn_only_mode.o)
                                        0xf0c (size before relaxing)
                0x000000004021ba78                wifi_fpm_set_sleep_type
                0x000000004021ba78                fpm_set_type_from_upper
                0x000000004021bb34                fpm_get_slp_type
                0x000000004021bb34                wifi_fpm_get_sleep_type
                0x000000004021bb3c                fpm_rf_is_closed
                0x000000004021bb50                fpm_is_open
                0x000000004021bb5c                fpm_allow_tx
                0x000000004021bb80                fpm_close
                0x000000004021bb80                wifi_fpm_close
                0x000000004021bbfc                wifi_fpm_open
                0x000000004021bbfc                fpm_open
                0x000000004021bc64                fpm_attach
                0x000000004021be48                fpm_set_wakeup_cb
                0x000000004021be48                wifi_fpm_set_wakeup_cb
                0x000000004021bf8c                wifi_fpm_do_wakeup
                0x000000004021bf8c                fpm_do_wakeup
                0x000000004021c4c4                fpm_do_sleep
                0x000000004021c4c4                wifi_fpm_do_sleep
                0x000000004021c564                wifi_fpm_auto_sleep_set_in_null_mode
                0x000000004021c564                fpm_auto_sleep_set_in_null_mode
                0x000000004021c5a4                get_fpm_auto_sleep_flag
 .irom0.text    0x000000004021c5ac     0x15ba ../lib/libpp.a(pp.o)
                                       0x19a2 (size before relaxing)
                0x000000004021c5b8                PPWdtReset
                0x000000004021c5ec                pp_soft_wdt_init
                0x000000004021c60c                system_soft_wdt_feed
                0x000000004021c60c                pp_soft_wdt_feed
                0x000000004021c628                pp_soft_wdt_stop
                0x000000004021c628                system_soft_wdt_stop
                0x000000004021c654                pp_soft_wdt_restart
                0x000000004021c654                system_soft_wdt_restart
                0x000000004021c68c                RxNodeNum
                0x000000004021c6a4                TxNodeNum
                0x000000004021c6c8                pp_disable_noise_timer
                0x000000004021c6e8                pp_enable_noise_timer
                0x000000004021c7f8                pp_noise_test
                0x000000004021c808                reset_noise_timer
                0x000000004021c840                pp_disable_idle_timer
                0x000000004021c864                pp_enable_idle_timer
                0x000000004021c88c                pp_try_enable_idle_timer
                0x000000004021c8c8                ppPeocessRxPktHdr
                0x000000004021cbfc                HdlAllBuffedEb
                0x000000004021cc84                ppTxPkt
                0x000000004021cdfc                ppProcessWaitQ
                0x000000004021ce0c                ppRegisterTxCallback
                0x000000004021ce34                ppUnregisterTxCallback
                0x000000004021ce68                ppRecycleRxPkt
                0x000000004021cec8                ppCheckTxIdle
                0x000000004021d144                pp_tx_idle_timeout
                0x000000004021d308                DefFreqCalTimerCB
                0x000000004021d684                ppGetTxQFirstAvail_Locked
                0x000000004021d764                pp_attach
 *fill*         0x000000004021db66        0x2 
 .irom0.text    0x000000004021db68      0x296 ../lib/libpp.a(rate_control.o)
                                        0x2a2 (size before relaxing)
                0x000000004021ddb4                RC_SetBasicRate
 *fill*         0x000000004021ddfe        0x2 
 .irom0.text    0x000000004021de00      0x5e9 ../lib/libpp.a(trc.o)
                                        0x64d (size before relaxing)
                0x000000004021de00                phytype2mode
                0x000000004021de1c                rc_set_rate_limit_id
                0x000000004021df38                rcUpdatePhyMode
                0x000000004021e104                rcAttach
                0x000000004021e150                rcGetTrc
                0x000000004021e158                trc_onDisconnect
                0x000000004021e15c                trc_onScanStart
                0x000000004021e170                trc_onScanDone
                0x000000004021e18c                rc_enable_trc
                0x000000004021e264                rc_get_mask
                0x000000004021e278                rc_disable_trc
                0x000000004021e2cc                rc_disable_trc_by_interface
                0x000000004021e2e8                rc_get_sta_trc
                0x000000004021e32c                rc_get_trc
                0x000000004021e39c                rc_get_trc_by_index
                0x000000004021e3bc                rc_only_sta_trc
 *fill*         0x000000004021e3e9        0x3 
 .irom0.text    0x000000004021e3ec      0xaf7 ../lib/libpp.a(wdev.o)
                                        0xc53 (size before relaxing)
                0x000000004021e3f8                wDev_Option_Init
                0x000000004021e4ec                wDev_Enable_Beacon_Tsf
                0x000000004021e508                wDev_Disable_Beacon_Tsf
                0x000000004021e524                wDev_Set_Beacon_Int
                0x000000004021e52c                wDev_Reset_TBTT
                0x000000004021e55c                wDev_Get_Next_TBTT
                0x000000004021e7d8                wDev_Initialize
                0x000000004021e848                wDevForceAck6M
                0x000000004021e864                wDev_SetMacAddress
                0x000000004021e900                wDev_SetRxPolicy
                0x000000004021e954                wDev_SetBssid
                0x000000004021ea2c                wDev_ClearBssid
                0x000000004021ea64                wDev_Insert_KeyEntry
                0x000000004021eb58                wDev_remove_KeyEntry
                0x000000004021eb94                wDev_remove_KeyEntry_all_cnx
                0x000000004021ebe4                wDev_Crypto_Conf
                0x000000004021ec80                wDev_Crypto_Disable
                0x000000004021ecb8                wDevEnableRx
                0x000000004021ece0                wdev_go_sniffer
                0x000000004021edbc                wdev_set_sniffer_addr
                0x000000004021ee14                wdev_exit_sniffer
 *fill*         0x000000004021eee3        0x1 
 .irom0.text    0x000000004021eee4      0x3ed ../lib/libpp.a(esf_buf.o)
                                        0x4c1 (size before relaxing)
                0x000000004021eeec                esf_buf_alloc
                0x000000004021f0d4                esf_buf_recycle
                0x000000004021f214                esf_buf_setup
 *fill*         0x000000004021f2d1        0x3 
 .irom0.text    0x000000004021f2d4      0x475 ../lib/libnet80211.a(ieee80211.o)
                                        0x545 (size before relaxing)
                0x000000004021f358                ieee80211_rate_ref_init
                0x000000004021f36c                ieee80211_freedom_inside_cb
                0x000000004021f39c                ieee80211_freedom_init
                0x000000004021f3c0                ieee80211_user_ie_init
                0x000000004021f3dc                ieee80211_ifattach
                0x000000004021f440                ieee80211_mhz2ieee
                0x000000004021f49c                ieee80211_chan2ieee
                0x000000004021f4b8                ieee80211_ieee2mhz
                0x000000004021f4f8                ieee80211_find_channel
                0x000000004021f524                ieee80211_find_channel_byieee
                0x000000004021f574                wifi_mode_set
 *fill*         0x000000004021f749        0x3 
 .irom0.text    0x000000004021f74c       0xcf ../lib/libnet80211.a(ieee80211_crypto.o)
                                         0xd7 (size before relaxing)
                0x000000004021f74c                ieee80211_crypto_attach
                0x000000004021f750                ieee80211_crypto_available
                0x000000004021f754                ieee80211_crypto_setkey
                0x000000004021f758                ieee80211_crypto_encap
                0x000000004021f7b0                ieee80211_crypto_decap
 *fill*         0x000000004021f81b        0x1 
 .irom0.text    0x000000004021f81c       0x4c ../lib/libnet80211.a(ieee80211_ets.o)
                                         0x50 (size before relaxing)
                0x000000004021f820                ieee80211_getmgtframe
 .irom0.text    0x000000004021f868     0x1a08 ../lib/libnet80211.a(ieee80211_hostap.o)
                                       0x1f77 (size before relaxing)
                0x000000004021fe8c                ieee80211_hostap_attach
                0x000000004021ff88                hostap_handle_timer
                0x0000000040220020                hostap_input
                0x0000000040220f6c                wifi_softap_start
                0x00000000402210d8                wifi_softap_stop
 *fill*         0x0000000040221270        0x0 
 .irom0.text    0x0000000040221270      0xa7e ../lib/libnet80211.a(ieee80211_ht.o)
                                        0xb4e (size before relaxing)
                0x0000000040221280                ieee80211_ht_attach
                0x00000000402212d4                ieee80211_ht_node_init
                0x0000000040221314                ieee80211_ht_node_cleanup
                0x000000004022134c                ieee80211_parse_htcap
                0x000000004022142c                ieee80211_ht_updateparams
                0x0000000040221540                ieee80211_setup_htrates
                0x000000004022160c                ieee80211_setup_basic_htrates
                0x0000000040221958                ieee80211_add_htcap
                0x0000000040221974                ieee80211_add_htcap_vendor
                0x0000000040221a98                ieee80211_add_htinfo
                0x0000000040221ab4                ieee80211_add_htinfo_vendor
 *fill*         0x0000000040221cee        0x2 
 .irom0.text    0x0000000040221cf0      0xa8c ../lib/libnet80211.a(ieee80211_input.o)
                                        0xb1c (size before relaxing)
                0x0000000040221cf0                ieee80211_deliver_data
                0x0000000040221d44                ieee80211_decap
                0x0000000040221e48                ieee80211_setup_rates
                0x0000000040221eb8                ieee80211_alloc_challenge
                0x0000000040221ef4                ieee80211_parse_beacon
                0x00000000402224c8                ieee80211_parse_wpa
                0x00000000402225dc                ieee80211_parse_rsn
                0x00000000402226dc                ieee80211_parse_action
                0x0000000040222778                ieee80211_setup_rateset
 .irom0.text    0x000000004022277c      0x2a6 ../lib/libnet80211.a(ieee80211_mesh_quick.o)
                                        0x302 (size before relaxing)
                0x0000000040222788                ieee80211_mesh_quick_init
                0x00000000402227f8                ieee80211_mesh_quick_deinit
                0x0000000040222828                ieee80211_mesh_quick_set
                0x0000000040222924                ieee80211_mesh_quick_get
                0x00000000402229f0                ieee80211_mesh_quick_ie_add
 *fill*         0x0000000040222a22        0x2 
 .irom0.text    0x0000000040222a24     0x1c56 ../lib/libnet80211.a(ieee80211_output.o)
                                       0x1ff2 (size before relaxing)
                0x0000000040222a28                ieee80211_output_pbuf
                0x0000000040222c98                ieee80211_send_setup
                0x0000000040222dcc                ieee80211_mgmt_output
                0x0000000040222eb0                ieee80211_tx_mgt_cb
                0x0000000040222eb4                ieee80211_send_nulldata
                0x0000000040223324                ieee80211_add_rates
                0x0000000040223374                ieee80211_add_xrates
                0x0000000040223444                ieee80211_send_probereq
                0x0000000040223658                ieee80211_getcapinfo
                0x00000000402236b4                ieee80211_send_mgmt
                0x0000000040223c5c                ieee80211_alloc_proberesp
                0x0000000040223e34                ieee80211_send_proberesp
                0x0000000040223f7c                ieee80211_alloc_deauth
                0x0000000040223fbc                ieee80211_send_deauth
                0x00000000402240f8                ieee80211_freedom_output
                0x00000000402244e4                ieee80211_beacon_alloc
 *fill*         0x000000004022467a        0x2 
 .irom0.text    0x000000004022467c       0xe0 ../lib/libnet80211.a(ieee80211_phy.o)
                                        0x108 (size before relaxing)
                0x000000004022467c                ieee80211_phy_init
                0x00000000402246b0                ieee80211_phy_type_get
                0x00000000402246cc                ieee80211_setup_ratetable
 .irom0.text    0x000000004022475c      0x1b6 ../lib/libnet80211.a(ieee80211_power.o)
                                        0x1f2 (size before relaxing)
                0x000000004022475c                ieee80211_psq_init
                0x000000004022477c                ieee80211_psq_cleanup
                0x0000000040224784                ieee80211_set_tim
                0x00000000402247c4                ieee80211_pwrsave
                0x000000004022482c                pwrsave_flushq
                0x00000000402248dc                ieee80211_node_pwrsave
 *fill*         0x0000000040224912        0x2 
 .irom0.text    0x0000000040224914      0x101 ../lib/libnet80211.a(ieee80211_proto.o)
                                        0x129 (size before relaxing)
                0x0000000040224918                ieee80211_proto_attach
                0x0000000040224940                ieee80211_set_shortslottime
                0x000000004022495c                ieee80211_iserp_rateset
                0x0000000040224990                ieee80211_wme_initparams
                0x0000000040224994                ieee80211_wme_updateparams
                0x000000004022499c                ieee80211_mlme_connect_bss
 *fill*         0x0000000040224a15        0x3 
 .irom0.text    0x0000000040224a18       0xaa ../lib/libnet80211.a(ieee80211_rfid.o)
                                         0xd6 (size before relaxing)
                0x0000000040224a18                ieee80211_rfid_locp_recv_open
                0x0000000040224a50                ieee80211_rfid_locp_recv_close
                0x0000000040224a68                ieee80211_rfid_locp_recv_reset
                0x0000000040224a88                ieee80211_rfid_locp_recv
                0x0000000040224aa4                register_ieee80211_rfid_locp_recv_cb
                0x0000000040224ab8                unregister_ieee80211_rfid_locp_recv_cb
 *fill*         0x0000000040224ac2        0x2 
 .irom0.text    0x0000000040224ac4      0xf51 ../lib/libnet80211.a(ieee80211_scan.o)
                                       0x12a1 (size before relaxing)
                0x0000000040224ad0                ieee80211_scan_attach
                0x0000000040224b64                scan_start
                0x0000000040224d24                scan_pm_channel_op_cb
                0x0000000040224ec4                scan_cancel
                0x0000000040225020                scan_add_bssid
                0x0000000040225044                scan_remove_bssid
                0x0000000040225050                scan_hidden_ssid
                0x0000000040225058                scan_add_probe_ssid
                0x00000000402250ac                scan_remove_probe_ssid
                0x00000000402251e8                scan_clear_channles
                0x000000004022525c                scan_set_desChan
                0x0000000040225268                scan_get_type
                0x0000000040225270                cannel_scan_connect_state
                0x0000000040225288                scan_connect_state
                0x00000000402252d0                scan_check_hidden
                0x00000000402252fc                scan_profile_check
                0x00000000402256a4                scan_parse_beacon
 *fill*         0x0000000040225a15        0x3 
 .irom0.text    0x0000000040225a18     0x103e ../lib/libnet80211.a(ieee80211_sta.o)
                                       0x12c1 (size before relaxing)
                0x0000000040225a74                sta_status_set
                0x0000000040225ae0                ieee80211_sta_new_state
                0x0000000040225e70                sta_input
                0x00000000402263bc                ieee80211_parse_wmeparams
                0x00000000402269ac                wifi_station_start
                0x0000000040226a1c                wifi_station_stop
 *fill*         0x0000000040226a56        0x2 
 .irom0.text    0x0000000040226a58      0x29e ../lib/libnet80211.a(wl_chm.o)
                                        0x31e (size before relaxing)
                0x0000000040226a64                chm_init
                0x0000000040226ac8                chm_acquire_lock
                0x0000000040226b0c                chm_release_lock
                0x0000000040226b20                chm_start_op
                0x0000000040226bc4                chm_end_op
                0x0000000040226c0c                chm_cancel_op
                0x0000000040226c40                chm_return_home_channel
                0x0000000040226c70                chm_set_current_channel
                0x0000000040226ca0                chm_freq2index
                0x0000000040226cc8                chm_check_same_channel
 *fill*         0x0000000040226cf6        0x2 
 .irom0.text    0x0000000040226cf8     0x17d5 ../lib/libnet80211.a(wl_cnx.o)
                                       0x1d4d (size before relaxing)
                0x0000000040226d04                cnx_attach
                0x0000000040226d44                cnx_sta_connect_led_timer_cb
                0x0000000040226d98                cnx_sta_connect_cmd
                0x0000000040226e54                cnx_sta_scan_cmd
                0x00000000402270bc                cnx_connect_timeout
                0x0000000040227138                cnx_auth_timeout
                0x000000004022715c                cnx_assoc_timeout
                0x0000000040227180                cnx_handshake_timeout
                0x00000000402271c0                cnx_start_handoff_cb
                0x0000000040227630                cnx_bss_alloc
                0x00000000402276d0                cnx_rc_search
                0x0000000040227750                cnx_add_rc
                0x00000000402277bc                cnx_remove_all_rc
                0x0000000040227808                cnx_remove_rc
                0x00000000402278d8                cnx_rc_update_rssi
                0x0000000040227960                cnx_rc_update_state_metric
                0x00000000402279cc                cnx_rc_update_age
                0x00000000402279f0                cnx_update_bss
                0x0000000040227a24                cnx_update_bss_more
                0x0000000040227c00                cnx_sta_leave
                0x0000000040227e90                cnx_sta_associated
                0x0000000040227f98                cnx_node_alloc
                0x000000004022800c                cnx_node_remove
                0x0000000040228098                cnx_node_search
                0x0000000040228114                cnx_node_leave
                0x0000000040228214                wifi_softap_staconnected_event_policy
                0x000000004022823c                wifi_softap_toomany_deny
                0x0000000040228278                cnx_node_join
 *fill*         0x00000000402284cd        0x3 
 .irom0.text    0x00000000402284d0      0x16f ../lib/libnet80211.a(ieee80211_action.o)
                                        0x193 (size before relaxing)
                0x00000000402284e0                ieee80211_send_action_register
                0x0000000040228514                ieee80211_send_action_unregister
                0x0000000040228528                ieee80211_send_action
                0x0000000040228594                ieee80211_recv_action_register
                0x00000000402285c8                ieee80211_recv_action_unregister
                0x00000000402285dc                ieee80211_recv_action
 *fill*         0x000000004022863f        0x1 
 .irom0.text    0x0000000040228640      0x479 ../lib/libnet80211.a(ieee80211_action_vendor.o)
                                        0x505 (size before relaxing)
                0x0000000040228644                get_iav_key
                0x0000000040228664                register_ieee80211_action_vendor_get_key_cb
                0x0000000040228678                unregister_ieee80211_action_vendor_get_key_cb
                0x000000004022868c                ieee80211_add_action_vendor_spec_esp
                0x00000000402286d4                ieee80211_alloc_action_vendor_spec
                0x00000000402287c0                ieee80211_send_action_vendor_spec
                0x0000000040228954                ieee80211_recv_action_vendor_spec
                0x0000000040228a5c                ieee80211_action_vendor_spec_attach
                0x0000000040228a9c                register_ieee80211_action_vendor_spec_cb
                0x0000000040228ab0                unregister_ieee80211_action_vendor_spec_cb
 *fill*         0x0000000040228ab9        0x3 
 .irom0.text    0x0000000040228abc      0x15d ../lib/libnet80211.a(ieee80211_crypto_ccmp.o)
                                        0x165 (size before relaxing)
 *fill*         0x0000000040228c19        0x3 
 .irom0.text    0x0000000040228c1c      0x23d ../lib/libnet80211.a(ieee80211_ie_vendor.o)
                                        0x25d (size before relaxing)
                0x0000000040228c20                ieee80211_add_ie_vendor_esp_head
                0x0000000040228c58                ieee80211_add_ie_vendor_esp_mesh_assoc
                0x0000000040228cdc                ieee80211_add_ie_vendor_esp_mesh_group
                0x0000000040228d0c                ieee80211_add_ie_vendor_esp_simple_pair
                0x0000000040228d5c                ieee80211_add_ie_vendor_esp_freq_annon
                0x0000000040228d94                ieee80211_add_ie_vendor_esp_now
                0x0000000040228dcc                ieee80211_add_ie_vendor_esp_ssid
                0x0000000040228e0c                ieee80211_add_ie_vendor_esp_manufacturer
 *fill*         0x0000000040228e59        0x3 
 .irom0.text    0x0000000040228e5c     0x1466 ../lib/liblwip.a(dhcp.o)
                                       0x1666 (size before relaxing)
                0x00000000402290d8                dhcp_coarse_tmr
                0x0000000040229124                dhcp_fine_tmr
                0x000000004022937c                dhcp_set_struct
                0x00000000402293a4                dhcp_cleanup
                0x00000000402293d0                dhcp_start
                0x0000000040229488                dhcp_inform
                0x0000000040229534                dhcp_network_changed
                0x000000004022957c                dhcp_arp_reply
                0x0000000040229874                dhcp_renew
                0x0000000040229ba0                dhcp_release
                0x0000000040229c60                dhcp_stop
 *fill*         0x000000004022a2c2        0x2 
 .irom0.text    0x000000004022a2c4      0xdd6 ../lib/liblwip.a(dhcpserver.o)
                                       0x1006 (size before relaxing)
                0x000000004022a2c4                node_insert_to_list
                0x000000004022a2fc                node_remove_from_list
                0x000000004022aa04                dhcps_start
                0x000000004022aa6c                dhcps_stop
                0x000000004022aad8                wifi_softap_set_dhcps_lease
                0x000000004022abc4                wifi_softap_get_dhcps_lease
                0x000000004022ac64                dhcps_coarse_tmr
                0x000000004022acd8                wifi_softap_set_dhcps_offer_option
                0x000000004022ad1c                wifi_softap_set_dhcps_lease_time
                0x000000004022ad4c                wifi_softap_reset_dhcps_lease_time
                0x000000004022ad78                wifi_softap_get_dhcps_lease_time
                0x000000004022ad80                wifi_softap_dhcps_client_leave
                0x000000004022ae28                wifi_softap_dhcps_client_update
 *fill*         0x000000004022b09a        0x2 
 .irom0.text    0x000000004022b09c      0x5cf ../lib/liblwip.a(dns.o)
                                        0x68b (size before relaxing)
                0x000000004022b0a8                dns_init
                0x000000004022b0e8                dns_setserver
                0x000000004022b108                dns_getserver
                0x000000004022b11c                dns_tmr
                0x000000004022b614                dns_gethostbyname
 *fill*         0x000000004022b66b        0x1 
 .irom0.text    0x000000004022b66c      0xa7a ../lib/liblwip.a(espconn.o)
                                        0xb72 (size before relaxing)
                0x000000004022b66c                espconn_copy_partial
                0x000000004022b6fc                espconn_list_creat
                0x000000004022b71c                espconn_list_delete
                0x000000004022b744                espconn_pbuf_create
                0x000000004022b760                espconn_pbuf_delete
                0x000000004022b788                espconn_find_connection
                0x000000004022b844                espconn_connect
                0x000000004022b928                espconn_create
                0x000000004022b970                espconn_sent
                0x000000004022b970                espconn_send
                0x000000004022ba34                espconn_sendto
                0x000000004022ba7c                espconn_tcp_get_wnd
                0x000000004022baa0                espconn_tcp_set_wnd
                0x000000004022babc                espconn_tcp_get_mss
                0x000000004022bac4                espconn_tcp_get_max_con
                0x000000004022bad4                espconn_tcp_set_max_con
                0x000000004022baec                espconn_tcp_get_max_retran
                0x000000004022bafc                espconn_tcp_set_max_retran
                0x000000004022bb14                espconn_tcp_get_max_syn
                0x000000004022bb24                espconn_tcp_set_max_syn
                0x000000004022bb3c                espconn_tcp_get_max_con_allow
                0x000000004022bb64                espconn_tcp_set_max_con_allow
                0x000000004022bb94                espconn_tcp_set_buf_count
                0x000000004022bbd8                espconn_regist_sentcb
                0x000000004022bbe4                espconn_regist_write_finish
                0x000000004022bbfc                espconn_regist_connectcb
                0x000000004022bc0c                espconn_regist_recvcb
                0x000000004022bc18                espconn_regist_reconcb
                0x000000004022bc28                espconn_regist_disconcb
                0x000000004022bc3c                espconn_get_connection_info
                0x000000004022bd04                espconn_accept
                0x000000004022bd48                espconn_regist_time
                0x000000004022bd88                espconn_disconnect
                0x000000004022bdcc                espconn_abort
                0x000000004022be14                espconn_get_packet_info
                0x000000004022bea4                espconn_set_opt
                0x000000004022befc                espconn_clear_opt
                0x000000004022bf5c                espconn_set_keepalive
                0x000000004022bfc8                espconn_get_keepalive
                0x000000004022c038                espconn_delete
                0x000000004022c080                espconn_port
                0x000000004022c0b8                espconn_gethostbyname
                0x000000004022c0d4                espconn_dns_setserver
 *fill*         0x000000004022c0e6        0x2 
 .irom0.text    0x000000004022c0e8      0xfd8 ../lib/liblwip.a(espconn_tcp.o)
                                       0x1308 (size before relaxing)
                0x000000004022c1d0                espconn_kill_oldest_pcb
                0x000000004022c254                espconn_kill_pcb
                0x000000004022c2d0                espconn_find_current_pcb
                0x000000004022c36c                espconn_tcp_memp_free
                0x000000004022c5cc                espconn_tcp_sent
                0x000000004022c684                espconn_tcp_disconnect
                0x000000004022c72c                espconn_recv_hold
                0x000000004022c770                espconn_recv_unhold
                0x000000004022c87c                espconn_tcp_write
                0x000000004022caac                espconn_tcp_client
                0x000000004022cf5c                espconn_tcp_server
                0x000000004022d018                espconn_tcp_delete
                0x000000004022d0a4                espconn_init
 .irom0.text    0x000000004022d0c0      0x4e7 ../lib/liblwip.a(espconn_udp.o)
                                        0x63f (size before relaxing)
                0x000000004022d110                espconn_udp_sent
                0x000000004022d278                espconn_udp_sendto
                0x000000004022d4cc                espconn_udp_disconnect
                0x000000004022d508                espconn_udp_server
                0x000000004022d570                espconn_igmp_leave
                0x000000004022d58c                espconn_igmp_join
 *fill*         0x000000004022d5a7        0x1 
 .irom0.text    0x000000004022d5a8      0x8cf ../lib/liblwip.a(etharp.o)
                                        0x9b7 (size before relaxing)
                0x000000004022d5dc                etharp_tmr
                0x000000004022d808                etharp_cleanup_netif
                0x000000004022d844                etharp_find_addr
                0x000000004022da98                etharp_output
                0x000000004022dbac                etharp_query
                0x000000004022dddc                etharp_request
                0x000000004022de00                ethernet_input
 *fill*         0x000000004022de77        0x1 
 .irom0.text    0x000000004022de78      0x5f6 ../lib/liblwip.a(igmp.o)
                                        0x68a (size before relaxing)
                0x000000004022de84                igmp_init
                0x000000004022de94                igmp_start
                0x000000004022ded8                igmp_stop
                0x000000004022df3c                igmp_report_groups
                0x000000004022df6c                igmp_lookfor_group
                0x000000004022e034                igmp_input
                0x000000004022e17c                igmp_joingroup
                0x000000004022e224                igmp_leavegroup
                0x000000004022e2c8                igmp_tmr
 *fill*         0x000000004022e46e        0x2 
 .irom0.text    0x000000004022e470       0x40 ../lib/liblwip.a(init.o)
                                         0x60 (size before relaxing)
                0x000000004022e474                lwip_init
 .irom0.text    0x000000004022e4b0      0x37a ../lib/liblwip.a(ip_addr.o)
                                        0x3a2 (size before relaxing)
                0x000000004022e4b0                ip4_addr_isbroadcast
                0x000000004022e4dc                ip4_addr_netmask_valid
                0x000000004022e51c                ipaddr_addr
                0x000000004022e538                ipaddr_aton
                0x000000004022e754                ipaddr_ntoa
                0x000000004022e768                ipaddr_ntoa_r
 *fill*         0x000000004022e82a        0x2 
 .irom0.text    0x000000004022e82c      0x581 ../lib/liblwip.a(ip.o)
                                        0x62d (size before relaxing)
                0x000000004022e82c                ip_route
                0x000000004022e8a8                ip_router
                0x000000004022e924                ip_input
                0x000000004022eb7c                ip_output_if
                0x000000004022eb98                ip_output_if_opt
                0x000000004022ed74                ip_output
 *fill*         0x000000004022edad        0x3 
 .irom0.text    0x000000004022edb0      0x27d ../lib/liblwip.a(netif.o)
                                        0x2bd (size before relaxing)
                0x000000004022edb0                netif_init
                0x000000004022edb8                netif_add
                0x000000004022ee20                netif_set_addr
                0x000000004022ee48                netif_remove
                0x000000004022eea4                netif_find
                0x000000004022eee0                netif_set_ipaddr
                0x000000004022ef48                netif_set_gw
                0x000000004022ef58                netif_set_netmask
                0x000000004022ef68                netif_set_default
                0x000000004022ef70                netif_set_up
                0x000000004022efac                netif_set_down
                0x000000004022efd0                netif_set_link_up
                0x000000004022f01c                netif_set_link_down
 *fill*         0x000000004022f02d        0x3 
 .irom0.text    0x000000004022f030      0x68e ../lib/liblwip.a(pbuf.o)
                                        0x6f6 (size before relaxing)
                0x000000004022f030                pbuf_free_ooseq_new
                0x000000004022f088                pbuf_alloc
                0x000000004022f1e8                pbuf_realloc
                0x000000004022f230                pbuf_header
                0x000000004022f29c                pbuf_free
                0x000000004022f328                pbuf_clen
                0x000000004022f340                pbuf_ref
                0x000000004022f34c                pbuf_cat
                0x000000004022f378                pbuf_chain
                0x000000004022f394                pbuf_dechain
                0x000000004022f3d0                pbuf_copy
                0x000000004022f474                pbuf_copy_partial
                0x000000004022f4f4                pbuf_take
                0x000000004022f554                pbuf_coalesce
                0x000000004022f588                pbuf_get_at
                0x000000004022f5b0                pbuf_memcmp
                0x000000004022f61c                pbuf_memfind
                0x000000004022f674                pbuf_strstr
 *fill*         0x000000004022f6be        0x2 
 .irom0.text    0x000000004022f6c0      0x1f1 ../lib/liblwip.a(raw.o)
                                        0x249 (size before relaxing)
                0x000000004022f6c8                raw_input
                0x000000004022f750                raw_bind
                0x000000004022f760                raw_connect
                0x000000004022f770                raw_recv
                0x000000004022f778                raw_sendto
                0x000000004022f814                raw_send
                0x000000004022f82c                raw_remove
                0x000000004022f868                raw_new
 *fill*         0x000000004022f8b1        0x3 
 .irom0.text    0x000000004022f8b4     0x157c ../lib/liblwip.a(tcp_in.o)
                                       0x17c0 (size before relaxing)
                0x000000004022f8bc                tcp_input
 .irom0.text    0x0000000040230e30      0xaeb ../lib/liblwip.a(tcp.o)
                                        0xc23 (size before relaxing)
                0x0000000040230e34                tcp_tmr
                0x0000000040230e58                tcp_close
                0x0000000040230e7c                tcp_shutdown
                0x0000000040230edc                tcp_abandon
                0x0000000040230f84                tcp_abort
                0x0000000040230f9c                tcp_bind
                0x0000000040231018                tcp_listen_with_backlog
                0x00000000402310d8                tcp_update_rcv_ann_wnd
                0x000000004023111c                tcp_recved
                0x0000000040231178                tcp_connect
                0x0000000040231284                tcp_slowtmr
                0x000000004023152c                tcp_fasttmr
                0x00000000402315a8                tcp_segs_free
                0x00000000402315c4                tcp_seg_free
                0x00000000402315f0                tcp_setprio
                0x00000000402315f8                tcp_seg_copy
                0x000000004023163c                tcp_recv_null
                0x00000000402316f4                tcp_alloc
                0x00000000402317dc                tcp_new
                0x00000000402317f0                tcp_arg
                0x00000000402317f4                tcp_recv
                0x00000000402317fc                tcp_sent
                0x0000000040231804                tcp_err
                0x000000004023180c                tcp_accept
                0x0000000040231810                tcp_poll
                0x0000000040231818                tcp_pcb_purge
                0x000000004023186c                tcp_pcb_remove
                0x00000000402318d4                tcp_next_iss
                0x00000000402318e8                tcp_eff_send_mss
 *fill*         0x000000004023191b        0x1 
 .irom0.text    0x000000004023191c      0xee8 ../lib/liblwip.a(tcp_out.o)
                                        0xfec (size before relaxing)
                0x0000000040231a14                tcp_send_fin
                0x0000000040231bfc                tcp_write
                0x0000000040231f38                tcp_enqueue_flags
                0x000000004023201c                tcp_send_empty_ack
                0x00000000402320b0                tcp_output
                0x00000000402323c0                tcp_rst
                0x0000000040232500                tcp_rexmit_rto
                0x000000004023253c                tcp_rexmit
                0x00000000402325e8                tcp_rexmit_fast
                0x0000000040232640                tcp_keepalive
                0x00000000402326c0                tcp_zero_window_probe
 .irom0.text    0x0000000040232804      0x2c7 ../lib/liblwip.a(timers.o)
                                        0x357 (size before relaxing)
                0x0000000040232844                tcp_timer_needed
                0x00000000402328cc                sys_timeouts_init
                0x0000000040232934                sys_timeout
                0x00000000402329b0                sys_untimeout
                0x0000000040232a00                sys_check_timeouts
                0x0000000040232abc                sys_restart_timeouts
 *fill*         0x0000000040232acb        0x1 
 .irom0.text    0x0000000040232acc      0x573 ../lib/liblwip.a(udp.o)
                                        0x62b (size before relaxing)
                0x0000000040232ad0                udp_input
                0x0000000040232d28                udp_send
                0x0000000040232d3c                udp_sendto
                0x0000000040232d88                udp_sendto_if
                0x0000000040232ed0                udp_bind
                0x0000000040232f4c                udp_connect
                0x0000000040232fa8                udp_disconnect
                0x0000000040232fc0                udp_recv
                0x0000000040232fcc                udp_remove
                0x0000000040233008                udp_new
 *fill*         0x000000004023303f        0x1 
 .irom0.text    0x0000000040233040      0x26e ../lib/liblwip.a(icmp.o)
                                        0x312 (size before relaxing)
                0x0000000040233044                icmp_input
                0x00000000402331f0                icmp_dest_unreach
 *fill*         0x00000000402332ae        0x2 
 .irom0.text    0x00000000402332b0      0x2aa ../lib/libwpa.a(ap_config.o)
                                        0x2ee (size before relaxing)
                0x00000000402332b4                hostapd_config_defaults_bss
                0x0000000040233300                hostapd_config_defaults
                0x0000000040233384                hostapd_mac_comp
                0x0000000040233398                hostapd_mac_comp_empty
                0x0000000040233404                hostapd_setup_wpa_psk
                0x0000000040233434                hostapd_wep_key_cmp
                0x0000000040233484                hostapd_maclist_found
                0x00000000402334ec                hostapd_rate_found
                0x0000000040233508                hostapd_get_psk
 *fill*         0x000000004023355a        0x2 
 .irom0.text    0x000000004023355c      0x2b6 ../lib/libwpa.a(common.o)
                                        0x302 (size before relaxing)
                0x000000004023355c                inc_byte_array
                0x00000000402335b0                hex2byte
                0x00000000402335e4                hexstr2bin
                0x0000000040233630                wpa_get_ntp_timestamp
                0x00000000402336c8                wpa_config_parse_string
                0x00000000402337cc                dup_binstr
 *fill*         0x0000000040233812        0x2 
 .irom0.text    0x0000000040233814       0xcc ../lib/libwpa.a(os_xtensa.o)
                                         0xdc (size before relaxing)
                0x0000000040233818                ets_strdup
                0x000000004023385c                os_get_time
                0x0000000040233860                r_rand
                0x0000000040233874                os_random
                0x0000000040233884                os_get_random
 .irom0.text    0x00000000402338e0     0x1c86 ../lib/libwpa.a(wpa_auth.o)
                                       0x1f66 (size before relaxing)
                0x0000000040233a2c                wpa_auth_for_each_sta
                0x0000000040233bac                wpa_init
                0x0000000040233c3c                wpa_auth_sta_init
                0x0000000040233c84                wpa_auth_sta_associated
                0x0000000040233cf0                wpa_auth_sta_no_wpa
                0x0000000040233d4c                wpa_auth_sta_deinit
                0x0000000040233e1c                wpa_receive
                0x0000000040234280                __wpa_send_eapol
                0x00000000402347a4                wpa_remove_ptk
                0x00000000402347f0                wpa_auth_sm_event
 *fill*         0x0000000040235566        0x2 
 .irom0.text    0x0000000040235568      0x582 ../lib/libwpa.a(wpa_auth_ie.o)
                                        0x5f6 (size before relaxing)
                0x000000004023562c                wpa_write_rsn_ie
                0x0000000040235738                wpa_auth_gen_wpa_ie
                0x00000000402357c8                wpa_add_kde
                0x0000000040235834                wpa_validate_wpa_ie
                0x0000000040235a40                wpa_parse_kde_ies
                0x0000000040235adc                wpa_auth_uses_mfp
 *fill*         0x0000000040235aea        0x2 
 .irom0.text    0x0000000040235aec     0x14d0 ../lib/libwpa.a(wpa.o)
                                       0x1708 (size before relaxing)
                0x0000000040236a78                wpa_sm_rx_eapol
                0x0000000040236bf0                wpa_register
                0x0000000040236c1c                wpa_set_profile
                0x0000000040236c34                wpa_set_pmk
                0x0000000040236c60                wpa_set_bss
                0x0000000040236e64                pp_michael_mic_failure
                0x0000000040236f08                eapol_txcb
                0x0000000040236f94                wpa_sm_set_state
 .irom0.text    0x0000000040236fbc      0x76a ../lib/libwpa.a(wpa_common.o)
                                        0x7fa (size before relaxing)
                0x0000000040237104                wpa_parse_wpa_ie_rsn
                0x0000000040237298                wpa_parse_wpa_ie_wpa
                0x0000000040237428                wpa_eapol_key_mic
                0x0000000040237468                wpa_compare_rsn_ie
                0x0000000040237490                wpa_pmk_to_ptk
                0x0000000040237580                rsn_pmkid
                0x00000000402375dc                wpa_cipher_key_len
                0x0000000040237600                wpa_cipher_to_alg
                0x0000000040237628                wpa_cipher_to_suite
                0x000000004023767c                rsn_cipher_put_suites
                0x00000000402376dc                wpa_cipher_put_suites
 *fill*         0x0000000040237726        0x2 
 .irom0.text    0x0000000040237728       0xa8 ../lib/libwpa.a(wpa_debug.o)
                                         0xac (size before relaxing)
                0x00000000402377a0                wpa_snprintf_hex_uppercase
                0x00000000402377b4                wpa_snprintf_hex
                0x00000000402377c8                eloop_cancel_timeout
                0x00000000402377cc                eloop_register_timeout
 .irom0.text    0x00000000402377d0      0x325 ../lib/libwpa.a(wpa_ie.o)
                                        0x341 (size before relaxing)
                0x00000000402377d0                wpa_parse_wpa_ie
                0x00000000402378c4                wpa_supplicant_parse_ies
                0x0000000040237ac4                wpa_gen_wpa_ie
 *fill*         0x0000000040237af5        0x3 
 .irom0.text    0x0000000040237af8      0x418 ../lib/libwpa.a(wpa_main.o)
                                        0x52c (size before relaxing)
                0x0000000040237afc                ppInstallKey
                0x0000000040237c8c                wpa_config_profile
                0x0000000040237cc0                wpa_config_bss
                0x0000000040237cec                wpa_config_assoc_ie
                0x0000000040237d00                dhcp_bind_check
                0x0000000040237d34                eagle_auth_done
                0x0000000040237eb0                wpa_neg_complete
                0x0000000040237ed8                wpa_attach
 .irom0.text    0x0000000040237f10       0xd6 ../lib/libwpa.a(wpas_glue.o)
                                         0xe2 (size before relaxing)
                0x0000000040237f80                wpa_sm_alloc_eapol
                0x0000000040237fc0                wpa_sm_deauthenticate
                0x0000000040237fdc                wpa_sm_mlme_setprotection
                0x0000000040237fe0                wpa_sm_get_beacon_ie
                0x0000000040237fe4                wpa_sm_disassociate
 *fill*         0x0000000040237fe6        0x2 
 .irom0.text    0x0000000040237fe8      0x187 ../lib/libnet80211.a(ieee80211_crypto_tkip.o)
                                        0x197 (size before relaxing)
 *fill*         0x000000004023816f        0x1 
 .irom0.text    0x0000000040238170       0x78 ../lib/libnet80211.a(ieee80211_crypto_wep.o)
                                         0x7c (size before relaxing)
 .irom0.text    0x00000000402381e8       0xdf ../lib/libcrypto.a(aes-wrap.o)
                                        0x103 (size before relaxing)
                0x00000000402381e8                aes_wrap
 *fill*         0x00000000402382c7        0x1 
 .irom0.text    0x00000000402382c8      0x4b7 ../lib/libcrypto.a(aes-internal-enc.o)
                                        0x4df (size before relaxing)
                0x00000000402382cc                rijndaelEncrypt
                0x00000000402386e8                aes_encrypt_init
                0x000000004023873c                aes_encrypt
                0x0000000040238754                aes_encrypt_deinit
 *fill*         0x000000004023877f        0x1 
 .irom0.text    0x0000000040238780      0x304 ../lib/libcrypto.a(aes-internal.o)
                                        0x31c (size before relaxing)
                0x0000000040238784                rijndaelKeySetupEnc
 *fill*         0x0000000040238a84        0x0 
 .irom0.literal
                0x0000000040238a84        0x0 ../lib/libmain_w.a(user_interface.o)
 *fill*         0x0000000040238a84        0xc 
 .irom.text     0x0000000040238a90      0x2d5 ../lib/libmain_w.a(user_interface.o)
                0x0000000040238ab0                default_ssid
 *fill*         0x0000000040238d65        0x3 
 .irom0.literal
                0x0000000040238d68        0x0 ../lib/libmain_w.a(app_main.o)
 *fill*         0x0000000040238d68        0x8 
 .irom.text     0x0000000040238d70      0x4c0 ../lib/libmain_w.a(app_main.o)
 .irom0.literal
                0x0000000040239230        0x0 ../lib/libmain_w.a(eagle_lib.o)
 .irom0.literal
                0x0000000040239230        0x0 ../lib/libmain_w.a(eagle_lwip_if.o)
 *fill*         0x0000000040239230        0x0 
 .irom.text     0x0000000040239230       0x63 ../lib/libmain_w.a(eagle_lwip_if.o)
 *fill*         0x0000000040239293        0x1 
 .irom0.literal
                0x0000000040239294        0x0 ../lib/libmain_w.a(ets_timer.o)
 *fill*         0x0000000040239294        0xc 
 .irom.text     0x00000000402392a0      0x14c ../lib/libmain_w.a(ets_timer.o)
 .irom0.literal
                0x00000000402393ec        0x0 ../lib/libmain_w.a(mem_manager.o)
 *fill*         0x00000000402393ec        0x4 
 .irom.text     0x00000000402393f0       0x11 ../lib/libmain_w.a(mem_manager.o)
 *fill*         0x0000000040239401        0x3 
 .irom0.literal
                0x0000000040239404        0x0 ../lib/libmain_w.a(spi_flash.o)
 *fill*         0x0000000040239404        0xc 
 .irom.text     0x0000000040239410       0x5b ../lib/libmain_w.a(spi_flash.o)
 *fill*         0x000000004023946b        0x1 
 .irom0.literal
                0x000000004023946c        0x0 hal/.output/eagle/release/lib/libuserhal.a(user_main.o)
 .irom.text     0x000000004023946c      0x142 hal/.output/eagle/release/lib/libuserhal.a(user_main.o)
 *fill*         0x00000000402395ae        0x2 
 .irom.text     0x00000000402395b0      0x1ca hal/.output/eagle/release/lib/libuserhal.a(client.o)
 *fill*         0x000000004023977a        0x2 
 .irom.text     0x000000004023977c       0x72 hal/.output/eagle/release/lib/libuserhal.a(foregroundTask.o)
 *fill*         0x00000000402397ee        0x2 
 .irom0.literal
                0x00000000402397f0        0x0 driver/.output/eagle/release/lib/libdriver.a(crash.o)
 *fill*         0x00000000402397f0        0x0 
 .irom.text     0x00000000402397f0      0x107 driver/.output/eagle/release/lib/libdriver.a(crash.o)
 *fill*         0x00000000402398f7        0x1 
 .irom0.literal
                0x00000000402398f8        0x0 driver/.output/eagle/release/lib/libdriver.a(factoryData.o)
 *fill*         0x00000000402398f8        0x0 
 .irom0.literal
                0x00000000402398f8        0x0 driver/.output/eagle/release/lib/libdriver.a(i2spi.o)
 .irom.text     0x00000000402398f8      0x1aa driver/.output/eagle/release/lib/libdriver.a(i2spi.o)
 *fill*         0x0000000040239aa2        0x2 
 .irom0.literal
                0x0000000040239aa4        0x0 driver/.output/eagle/release/lib/libdriver.a(uart.o)
 .irom0.literal
                0x0000000040239aa4        0x0 transport/.output/eagle/release/lib/libtransport.a(reliableTransport.o)
 *fill*         0x0000000040239aa4        0x0 
 .irom.text     0x0000000040239aa4      0x22d transport/.output/eagle/release/lib/libtransport.a(reliableTransport.o)
 *fill*         0x0000000040239cd1        0x3 
 .irom.text     0x0000000040239cd4      0x1d8 application/.output/eagle/release/lib/libapplication.a(backgroundTask.o)
 .irom.text     0x0000000040239eac      0xc78 application/.output/eagle/release/lib/libapplication.a(dhTask.o)
 .irom.text     0x000000004023ab24     0x1120 application/.output/eagle/release/lib/libapplication.a(face.o)
 .irom.text     0x000000004023bc44      0x427 application/.output/eagle/release/lib/libapplication.a(nvStorage.o)
 *fill*         0x000000004023c06b        0x1 
 .irom.text     0x000000004023c06c     0x12b0 application/.output/eagle/release/lib/libapplication.a(upgradeController.o)
 *fill*         0x000000004023d31c        0x4 
 .irom.text     0x000000004023d320      0x5c0 factory/.output/eagle/release/lib/libfactory.a(factoryTests.o)
 .irom.text     0x000000004023d8e0      0x280 crypto/.output/eagle/release/lib/libusercrypto.a(sha512.o)
 .irom0.literal
                0x000000004023db60        0x0 ../lib/libphy.a(phy.o)
 *fill*         0x000000004023db60        0x0 
 .irom0.literal
                0x000000004023db60        0x0 ../lib/libphy.a(phy_chip_v6_ana.o)
 *fill*         0x000000004023db60        0x0 
 .irom.text     0x000000004023db60       0x65 ../lib/libphy.a(phy_chip_v6_ana.o)
 *fill*         0x000000004023dbc5        0x3 
 .irom0.literal
                0x000000004023dbc8        0x0 ../lib/libphy.a(phy_chip_v6.o)
 *fill*         0x000000004023dbc8        0x8 
 .irom.text     0x000000004023dbd0      0x14c ../lib/libphy.a(phy_chip_v6.o)
 .irom0.literal
                0x000000004023dd1c        0x0 ../lib/libphy.a(phy_chip_v6_cal.o)
 *fill*         0x000000004023dd1c        0x4 
 .irom.text     0x000000004023dd20      0x1f4 ../lib/libphy.a(phy_chip_v6_cal.o)
 .irom0.literal
                0x000000004023df14        0x0 ../lib/libphy.a(phy_chip_v6_unused.o)
 .irom0.text    0x000000004023df14        0xc ../lib/libphy.a(phy_chip_v6_unused.o)
                0x000000004023df14                chip_v6_set_sense
                0x000000004023df18                chip_v6_get_sense
                0x000000004023df1c                chip_v6_unset_chanfreq
 .irom0.literal
                0x000000004023df20        0x0 ../lib/libphy.a(phy_sleep.o)
 *fill*         0x000000004023df20        0x0 
 .irom0.literal
                0x000000004023df20        0x0 ../lib/libpp.a(if_hwctrl.o)
 *fill*         0x000000004023df20        0x0 
 .irom.text     0x000000004023df20       0x50 ../lib/libpp.a(if_hwctrl.o)
 .irom0.literal
                0x000000004023df70        0x0 ../lib/libpp.a(lmac.o)
 *fill*         0x000000004023df70        0x0 
 .irom.text     0x000000004023df70       0x2f ../lib/libpp.a(lmac.o)
 *fill*         0x000000004023df9f        0x1 
 .irom0.literal
                0x000000004023dfa0        0x0 ../lib/libpp.a(pm.o)
 *fill*         0x000000004023dfa0        0x0 
 .irom.text     0x000000004023dfa0      0x10d ../lib/libpp.a(pm.o)
 *fill*         0x000000004023e0ad        0x3 
 .irom0.literal
                0x000000004023e0b0        0x0 ../lib/libpp.a(pm_for_bcn_only_mode.o)
 *fill*         0x000000004023e0b0        0x0 
 .irom.text     0x000000004023e0b0       0xf8 ../lib/libpp.a(pm_for_bcn_only_mode.o)
 .irom0.literal
                0x000000004023e1a8        0x0 ../lib/libpp.a(pp.o)
 *fill*         0x000000004023e1a8        0x8 
 .irom.text     0x000000004023e1b0       0x5b ../lib/libpp.a(pp.o)
 *fill*         0x000000004023e20b        0x1 
 .irom0.literal
                0x000000004023e20c        0x0 ../lib/libpp.a(rate_control.o)
 *fill*         0x000000004023e20c        0x0 
 .irom0.literal
                0x000000004023e20c        0x0 ../lib/libpp.a(trc.o)
 *fill*         0x000000004023e20c        0x4 
 .irom.text     0x000000004023e210       0x38 ../lib/libpp.a(trc.o)
 .irom0.literal
                0x000000004023e248        0x0 ../lib/libpp.a(wdev.o)
 *fill*         0x000000004023e248        0x0 
 .irom.text     0x000000004023e248        0x7 ../lib/libpp.a(wdev.o)
 *fill*         0x000000004023e24f        0x1 
 .irom0.literal
                0x000000004023e250        0x0 ../lib/libpp.a(esf_buf.o)
 *fill*         0x000000004023e250        0x0 
 .irom.text     0x000000004023e250        0xa ../lib/libpp.a(esf_buf.o)
 *fill*         0x000000004023e25a        0x2 
 .irom0.literal
                0x000000004023e25c        0x0 ../lib/libnet80211.a(ieee80211.o)
 *fill*         0x000000004023e25c        0x4 
 .irom.text     0x000000004023e260       0x82 ../lib/libnet80211.a(ieee80211.o)
                0x000000004023e270                ieee80211_opcap
 *fill*         0x000000004023e2e2        0x2 
 .irom0.literal
                0x000000004023e2e4        0x0 ../lib/libnet80211.a(ieee80211_crypto.o)
 *fill*         0x000000004023e2e4        0x0 
 .irom0.literal
                0x000000004023e2e4        0x0 ../lib/libnet80211.a(ieee80211_ets.o)
 .irom0.literal
                0x000000004023e2e4        0x0 ../lib/libnet80211.a(ieee80211_hostap.o)
 *fill*         0x000000004023e2e4        0xc 
 .irom.text     0x000000004023e2f0       0x5b ../lib/libnet80211.a(ieee80211_hostap.o)
 *fill*         0x000000004023e34b        0x1 
 .irom0.literal
                0x000000004023e34c        0x0 ../lib/libnet80211.a(ieee80211_ht.o)
 *fill*         0x000000004023e34c        0x4 
 .irom.text     0x000000004023e350       0x19 ../lib/libnet80211.a(ieee80211_ht.o)
 *fill*         0x000000004023e369        0x3 
 .irom0.literal
                0x000000004023e36c        0x0 ../lib/libnet80211.a(ieee80211_input.o)
 *fill*         0x000000004023e36c        0x4 
 .irom.text     0x000000004023e370       0x12 ../lib/libnet80211.a(ieee80211_input.o)
 *fill*         0x000000004023e382        0x2 
 .irom0.literal
                0x000000004023e384        0x0 ../lib/libnet80211.a(ieee80211_mesh_quick.o)
 *fill*         0x000000004023e384        0xc 
 .irom.text     0x000000004023e390       0x43 ../lib/libnet80211.a(ieee80211_mesh_quick.o)
 *fill*         0x000000004023e3d3        0x1 
 .irom0.literal
                0x000000004023e3d4        0x0 ../lib/libnet80211.a(ieee80211_output.o)
 *fill*         0x000000004023e3d4        0xc 
 .irom.text     0x000000004023e3e0       0x1d ../lib/libnet80211.a(ieee80211_output.o)
 *fill*         0x000000004023e3fd        0x3 
 .irom0.literal
                0x000000004023e400        0x0 ../lib/libnet80211.a(ieee80211_phy.o)
 *fill*         0x000000004023e400        0x0 
 .irom.text     0x000000004023e400      0x1b8 ../lib/libnet80211.a(ieee80211_phy.o)
 .irom0.literal
                0x000000004023e5b8        0x0 ../lib/libnet80211.a(ieee80211_power.o)
 *fill*         0x000000004023e5b8        0x0 
 .irom0.literal
                0x000000004023e5b8        0x0 ../lib/libnet80211.a(ieee80211_proto.o)
 *fill*         0x000000004023e5b8        0x8 
 .irom.text     0x000000004023e5c0       0x1c ../lib/libnet80211.a(ieee80211_proto.o)
 .irom0.literal
                0x000000004023e5dc        0x0 ../lib/libnet80211.a(ieee80211_rfid.o)
 *fill*         0x000000004023e5dc        0x0 
 .irom0.literal
                0x000000004023e5dc        0x0 ../lib/libnet80211.a(ieee80211_scan.o)
 *fill*         0x000000004023e5dc        0x4 
 .irom.text     0x000000004023e5e0       0x99 ../lib/libnet80211.a(ieee80211_scan.o)
 *fill*         0x000000004023e679        0x3 
 .irom0.literal
                0x000000004023e67c        0x0 ../lib/libnet80211.a(ieee80211_sta.o)
 *fill*         0x000000004023e67c        0x4 
 .irom.text     0x000000004023e680       0x26 ../lib/libnet80211.a(ieee80211_sta.o)
 *fill*         0x000000004023e6a6        0x2 
 .irom0.literal
                0x000000004023e6a8        0x0 ../lib/libnet80211.a(wl_chm.o)
 *fill*         0x000000004023e6a8        0x0 
 .irom0.literal
                0x000000004023e6a8        0x0 ../lib/libnet80211.a(wl_cnx.o)
 *fill*         0x000000004023e6a8        0x8 
 .irom.text     0x000000004023e6b0      0x187 ../lib/libnet80211.a(wl_cnx.o)
 *fill*         0x000000004023e837        0x1 
 .irom0.literal
                0x000000004023e838        0x0 ../lib/libnet80211.a(ieee80211_action.o)
 *fill*         0x000000004023e838        0x0 
 .irom0.literal
                0x000000004023e838        0x0 ../lib/libnet80211.a(ieee80211_action_vendor.o)
 *fill*         0x000000004023e838        0x8 
 .irom.text     0x000000004023e840       0x83 ../lib/libnet80211.a(ieee80211_action_vendor.o)
 *fill*         0x000000004023e8c3        0x1 
 .irom0.literal
                0x000000004023e8c4        0x0 ../lib/libnet80211.a(ieee80211_crypto_ccmp.o)
 *fill*         0x000000004023e8c4        0x0 
 .irom.text     0x000000004023e8c4       0x18 ../lib/libnet80211.a(ieee80211_crypto_ccmp.o)
                0x000000004023e8c4                ccmp
 .irom0.literal
                0x000000004023e8dc        0x0 ../lib/libnet80211.a(ieee80211_ie_vendor.o)
 *fill*         0x000000004023e8dc        0x0 
 .irom0.literal
                0x000000004023e8dc        0x0 ../lib/liblwip.a(dhcp.o)
 *fill*         0x000000004023e8dc        0x4 
 .irom.text     0x000000004023e8e0       0x1e ../lib/liblwip.a(dhcp.o)
 *fill*         0x000000004023e8fe        0x2 
 .irom0.literal
                0x000000004023e900        0x0 ../lib/liblwip.a(dhcpserver.o)
 *fill*         0x000000004023e900        0x0 
 .irom.text     0x000000004023e900       0x45 ../lib/liblwip.a(dhcpserver.o)
 *fill*         0x000000004023e945        0x3 
 .irom0.literal
                0x000000004023e948        0x0 ../lib/liblwip.a(dns.o)
 *fill*         0x000000004023e948        0x0 
 .irom.text     0x000000004023e948        0x6 ../lib/liblwip.a(dns.o)
 *fill*         0x000000004023e94e        0x2 
 .irom0.literal
                0x000000004023e950        0x0 ../lib/liblwip.a(espconn.o)
 *fill*         0x000000004023e950        0x0 
 .irom.text     0x000000004023e950        0xa ../lib/liblwip.a(espconn.o)
 *fill*         0x000000004023e95a        0x2 
 .irom0.literal
                0x000000004023e95c        0x0 ../lib/liblwip.a(espconn_tcp.o)
 *fill*         0x000000004023e95c        0x4 
 .irom.text     0x000000004023e960       0xab ../lib/liblwip.a(espconn_tcp.o)
 *fill*         0x000000004023ea0b        0x1 
 .irom0.literal
                0x000000004023ea0c        0x0 ../lib/liblwip.a(espconn_udp.o)
 *fill*         0x000000004023ea0c        0x4 
 .irom.text     0x000000004023ea10        0xe ../lib/liblwip.a(espconn_udp.o)
 *fill*         0x000000004023ea1e        0x2 
 .irom0.literal
                0x000000004023ea20        0x0 ../lib/liblwip.a(etharp.o)
 *fill*         0x000000004023ea20        0x0 
 .irom.text     0x000000004023ea20        0x9 ../lib/liblwip.a(etharp.o)
 *fill*         0x000000004023ea29        0x3 
 .irom0.literal
                0x000000004023ea2c        0x0 ../lib/liblwip.a(igmp.o)
 *fill*         0x000000004023ea2c        0x4 
 .irom.text     0x000000004023ea30        0x7 ../lib/liblwip.a(igmp.o)
 *fill*         0x000000004023ea37        0x1 
 .irom0.literal
                0x000000004023ea38        0x0 ../lib/liblwip.a(inet_chksum.o)
 .irom0.text    0x000000004023ea38      0x298 ../lib/liblwip.a(inet_chksum.o)
                0x000000004023eab0                inet_chksum_pseudo
                0x000000004023eb70                inet_chksum_pseudo_partial
                0x000000004023ec4c                inet_chksum
                0x000000004023ec64                inet_chksum_pbuf
 .irom0.literal
                0x000000004023ecd0        0x0 ../lib/liblwip.a(init.o)
 .irom0.literal
                0x000000004023ecd0        0x0 ../lib/liblwip.a(ip_addr.o)
 *fill*         0x000000004023ecd0        0x0 
 .irom.text     0x000000004023ecd0        0x8 ../lib/liblwip.a(ip_addr.o)
                0x000000004023ecd0                ip_addr_any
                0x000000004023ecd4                ip_addr_broadcast
 .irom0.literal
                0x000000004023ecd8        0x0 ../lib/liblwip.a(ip.o)
 *fill*         0x000000004023ecd8        0x8 
 .irom.text     0x000000004023ece0       0x11 ../lib/liblwip.a(ip.o)
 *fill*         0x000000004023ecf1        0xf 
 .irom.text     0x000000004023ed00       0x28 ../lib/liblwip.a(memp.o)
                0x000000004023ed00                memp_sizes
 .irom0.literal
                0x000000004023ed28        0x0 ../lib/liblwip.a(netif.o)
 *fill*         0x000000004023ed28        0x0 
 .irom0.literal
                0x000000004023ed28        0x0 ../lib/liblwip.a(pbuf.o)
 *fill*         0x000000004023ed28        0x0 
 .irom.text     0x000000004023ed28        0x7 ../lib/liblwip.a(pbuf.o)
 *fill*         0x000000004023ed2f        0x1 
 .irom0.literal
                0x000000004023ed30        0x0 ../lib/liblwip.a(raw.o)
 *fill*         0x000000004023ed30        0x0 
 .irom.text     0x000000004023ed30        0x6 ../lib/liblwip.a(raw.o)
 *fill*         0x000000004023ed36        0x2 
 .irom0.literal
                0x000000004023ed38        0x0 ../lib/liblwip.a(tcp_in.o)
 *fill*         0x000000004023ed38        0x8 
 .irom.text     0x000000004023ed40        0x9 ../lib/liblwip.a(tcp_in.o)
 *fill*         0x000000004023ed49        0x3 
 .irom0.literal
                0x000000004023ed4c        0x0 ../lib/liblwip.a(tcp.o)
 *fill*         0x000000004023ed4c        0x4 
 .irom.text     0x000000004023ed50       0x3d ../lib/liblwip.a(tcp.o)
                0x000000004023ed60                tcp_pcb_lists
                0x000000004023ed70                tcp_persist_backoff
                0x000000004023ed80                tcp_backoff
 *fill*         0x000000004023ed8d        0x3 
 .irom0.literal
                0x000000004023ed90        0x0 ../lib/liblwip.a(tcp_out.o)
 *fill*         0x000000004023ed90        0x0 
 .irom.text     0x000000004023ed90        0xa ../lib/liblwip.a(tcp_out.o)
 *fill*         0x000000004023ed9a        0x2 
 .irom0.literal
                0x000000004023ed9c        0x0 ../lib/liblwip.a(timers.o)
 *fill*         0x000000004023ed9c        0x4 
 .irom.text     0x000000004023eda0        0x9 ../lib/liblwip.a(timers.o)
 *fill*         0x000000004023eda9        0x3 
 .irom0.literal
                0x000000004023edac        0x0 ../lib/liblwip.a(udp.o)
 *fill*         0x000000004023edac        0x4 
 .irom.text     0x000000004023edb0        0x6 ../lib/liblwip.a(udp.o)
 *fill*         0x000000004023edb6        0x2 
 .irom0.literal
                0x000000004023edb8        0x0 ../lib/liblwip.a(icmp.o)
 *fill*         0x000000004023edb8        0x0 
 .irom0.literal
                0x000000004023edb8        0x0 ../lib/libwpa.a(ap_config.o)
 *fill*         0x000000004023edb8        0x8 
 .irom.text     0x000000004023edc0        0xc ../lib/libwpa.a(ap_config.o)
 .irom0.literal
                0x000000004023edcc        0x0 ../lib/libwpa.a(common.o)
 *fill*         0x000000004023edcc        0x4 
 .irom.text     0x000000004023edd0        0x9 ../lib/libwpa.a(common.o)
 *fill*         0x000000004023edd9        0x3 
 .irom0.literal
                0x000000004023eddc        0x0 ../lib/libwpa.a(os_xtensa.o)
 *fill*         0x000000004023eddc        0x4 
 .irom.text     0x000000004023ede0        0xc ../lib/libwpa.a(os_xtensa.o)
 .irom0.literal
                0x000000004023edec        0x0 ../lib/libwpa.a(wpa_auth.o)
 *fill*         0x000000004023edec        0x4 
 .irom.text     0x000000004023edf0       0x74 ../lib/libwpa.a(wpa_auth.o)
 .irom0.literal
                0x000000004023ee64        0x0 ../lib/libwpa.a(wpa_auth_ie.o)
 *fill*         0x000000004023ee64        0xc 
 .irom.text     0x000000004023ee70        0xe ../lib/libwpa.a(wpa_auth_ie.o)
 *fill*         0x000000004023ee7e        0x2 
 .irom0.literal
                0x000000004023ee80        0x0 ../lib/libwpa.a(wpa.o)
 *fill*         0x000000004023ee80        0x0 
 .irom.text     0x000000004023ee80       0x17 ../lib/libwpa.a(wpa.o)
 *fill*         0x000000004023ee97        0x1 
 .irom0.literal
                0x000000004023ee98        0x0 ../lib/libwpa.a(wpa_common.o)
 *fill*         0x000000004023ee98        0x8 
 .irom.text     0x000000004023eea0       0x1c ../lib/libwpa.a(wpa_common.o)
 .irom0.literal
                0x000000004023eebc        0x0 ../lib/libwpa.a(wpa_debug.o)
 .irom0.literal
                0x000000004023eebc        0x0 ../lib/libwpa.a(wpa_ie.o)
 *fill*         0x000000004023eebc        0x0 
 .irom0.literal
                0x000000004023eebc        0x0 ../lib/libwpa.a(wpa_main.o)
 *fill*         0x000000004023eebc        0x4 
 .irom.text     0x000000004023eec0       0x67 ../lib/libwpa.a(wpa_main.o)
 *fill*         0x000000004023ef27        0x1 
 .irom0.literal
                0x000000004023ef28        0x0 ../lib/libwpa.a(wpas_glue.o)
 *fill*         0x000000004023ef28        0x0 
 .irom.text     0x000000004023ef28      0x3e6 hal/.output/eagle/release/lib/libuserhal.a(wifi_configuration.o)
 *fill*         0x000000004023f30e        0x2 
 .irom0.literal
                0x000000004023f310        0x0 ../lib/libnet80211.a(ieee80211_crypto_tkip.o)
 *fill*         0x000000004023f310        0x0 
 .irom.text     0x000000004023f310       0x18 ../lib/libnet80211.a(ieee80211_crypto_tkip.o)
                0x000000004023f310                tkip
 .irom0.literal
                0x000000004023f328        0x0 ../lib/libnet80211.a(ieee80211_crypto_wep.o)
 .irom.text     0x000000004023f328       0x18 ../lib/libnet80211.a(ieee80211_crypto_wep.o)
                0x000000004023f328                wep
 .irom0.literal
                0x000000004023f340        0x0 ../lib/libcrypto.a(aes-wrap.o)
 *fill*         0x000000004023f340        0x0 
 .irom0.literal
                0x000000004023f340        0x0 ../lib/libcrypto.a(aes-internal-enc.o)
 *fill*         0x000000004023f340        0x0 
 .irom.text     0x000000004023f340       0x13 ../lib/libcrypto.a(aes-internal-enc.o)
 *fill*         0x000000004023f353        0x1 
 .irom0.literal
                0x000000004023f354        0x0 ../lib/libcrypto.a(aes-internal.o)
                0x000000004023f354                _irom0_text_end = ABSOLUTE (.)

.text           0x0000000040100000     0x7034
                0x0000000040100000                _stext = .
                0x0000000040100000                _text_start = ABSOLUTE (.)
 *(.UserEnter.text)
 .UserEnter.text
                0x0000000040100000        0xd ../lib/libmain_w.a(vector.o)
                                         0x14 (size before relaxing)
                0x0000000040100004                call_user_start
                0x0000000040100010                . = ALIGN (0x10)
 *fill*         0x000000004010000d        0x3 
 *(.DebugExceptionVector.text)
 .DebugExceptionVector.text
                0x0000000040100010        0x6 ../lib/libmain_w.a(debug-vector.o)
                0x0000000040100010                _DebugExceptionVector
                0x0000000040100020                . = ALIGN (0x10)
 *fill*         0x0000000040100016        0xa 
 *(.NMIExceptionVector.text)
 .NMIExceptionVector.text
                0x0000000040100020        0x6 ../lib/libmain_w.a(nmi-vector.o)
                                          0xd (size before relaxing)
                0x0000000040100020                _NMIExceptionVector
                0x0000000040100030                . = ALIGN (0x10)
 *fill*         0x0000000040100026        0xa 
 *(.KernelExceptionVector.text)
 .KernelExceptionVector.text
                0x0000000040100030        0x6 ../lib/libmain_w.a(kernel-vector.o)
                0x0000000040100030                _KernelExceptionVector
                0x0000000040100036        0x4 LONG 0x0
                0x000000004010003a        0x4 LONG 0x0
                0x000000004010003e        0x4 LONG 0x0
                0x0000000040100042        0x4 LONG 0x0
                0x0000000040100050                . = ALIGN (0x10)
 *fill*         0x0000000040100046        0xa 
 *(.UserExceptionVector.text)
 .UserExceptionVector.text
                0x0000000040100050        0x6 ../lib/libmain_w.a(user-vector.o)
                                          0xd (size before relaxing)
                0x0000000040100050                _UserExceptionVector
                0x0000000040100056        0x4 LONG 0x0
                0x000000004010005a        0x4 LONG 0x0
                0x000000004010005e        0x4 LONG 0x0
                0x0000000040100062        0x4 LONG 0x0
                0x0000000040100070                . = ALIGN (0x10)
 *fill*         0x0000000040100066        0xa 
 *(.DoubleExceptionVector.text)
 .DoubleExceptionVector.text
                0x0000000040100070        0x6 ../lib/libmain_w.a(double-vector.o)
                0x0000000040100070                _DoubleExceptionVector
                0x0000000040100076        0x4 LONG 0x0
                0x000000004010007a        0x4 LONG 0x0
                0x000000004010007e        0x4 LONG 0x0
                0x0000000040100082        0x4 LONG 0x0
                0x0000000040100090                . = ALIGN (0x10)
 *fill*         0x0000000040100086        0xa 
 *(.entry.text)
 *(.init.literal)
 *(.init)
 *(.literal .text .literal.* .text.* .stub .gnu.warning .gnu.linkonce.literal.* .gnu.linkonce.t.*.literal .gnu.linkonce.t.*)
 .text.Cache_Read_Enable_New
                0x0000000040100090       0x7f driver/.output/eagle/release/lib/libdriver.a(cache.o)
                                         0x83 (size before relaxing)
                0x00000000401000a4                Cache_Read_Enable_New
 *fill*         0x000000004010010f        0x1 
 .text          0x0000000040100110      0x31e ../lib/libmain_w.a(user_interface.o)
                                        0x34a (size before relaxing)
                0x0000000040100130                os_printf_plus
                0x000000004010026c                system_restart_core
                0x00000000401002bc                system_deep_sleep_local_2
                0x0000000040100330                system_get_time
                0x000000004010034c                system_os_post
                0x0000000040100380                system_rtc_mem_write
                0x00000000401003d8                system_rtc_mem_read
 *fill*         0x000000004010042e        0x2 
 .text          0x0000000040100430       0xc7 ../lib/libmain_w.a(nmi-vector.o)
                                         0xcb (size before relaxing)
                0x000000004010043c                _NMILevelVector
 *fill*         0x00000000401004f7        0x1 
 .text          0x00000000401004f8       0x1e ../lib/libmain_w.a(user-vector.o)
                0x00000000401004fc                _UserExceptionVector_1
 *fill*         0x0000000040100516        0x2 
 .text          0x0000000040100518      0x5d6 ../lib/libmain_w.a(app_main.o)
                                        0x66a (size before relaxing)
                0x0000000040100584                NmiTimSetFunc
                0x00000000401005a4                NMI_Handler
                0x00000000401005fc                call_user_start_local
                0x0000000040100758                wdt_feed
 *fill*         0x0000000040100aee        0x2 
 .text          0x0000000040100af0      0x3c8 ../lib/libmain_w.a(ets_timer.o)
                                        0x450 (size before relaxing)
                0x0000000040100bc4                ets_timer_setfn
                0x0000000040100ca0                ets_timer_disarm
                0x0000000040100d4c                ets_timer_arm_new
 .text          0x0000000040100eb8      0x30b ../lib/libmain_w.a(mem_manager.o)
                                        0x367 (size before relaxing)
                0x0000000040100ebc                prvInsertBlockIntoUsedList
                0x0000000040100eec                pvShowMalloc
                0x0000000040100eec                system_show_malloc
                0x0000000040100f78                prvRemoveBlockFromUsedList
                0x0000000040100fa4                xPortWantedSizeAlign
                0x0000000040100fcc                pvPortMalloc
                0x0000000040101094                vPortFree
                0x00000000401010e8                pvPortCalloc
                0x0000000040101118                pvPortZalloc
                0x0000000040101134                pvPortRealloc
 *fill*         0x00000000401011c3        0x1 
 .text          0x00000000401011c4      0x599 ../lib/libmain_w.a(spi_flash.o)
                                        0x650 (size before relaxing)
                0x00000000401011c8                Cache_Read_Disable_2
                0x0000000040101208                Cache_Read_Enable_2
                0x0000000040101258                spi_flash_get_unique_id
                0x00000000401013bc                spi_flash_get_id
                0x0000000040101418                spi_flash_read_status
                0x000000004010144c                spi_flash_write_status
                0x00000000401014cc                spi_flash_erase_sector
                0x0000000040101500                spi_flash_write
                0x0000000040101554                spi_flash_read
                0x00000000401015d0                spi_flash_issi_enable_QIO_mode
 *fill*         0x000000004010175d        0x3 
 .text.os_put_str
                0x0000000040101760       0x22 driver/.output/eagle/release/lib/libdriver.a(crash.o)
                                         0x29 (size before relaxing)
                0x0000000040101760                os_put_str
 *fill*         0x0000000040101782        0x2 
 .text.crashHandlerPutReport
                0x0000000040101784       0x4d driver/.output/eagle/release/lib/libdriver.a(crash.o)
                                         0x51 (size before relaxing)
                0x0000000040101788                crashHandlerPutReport
 *fill*         0x00000000401017d1        0x3 
 .text.crash_dump
                0x00000000401017d4      0x15b driver/.output/eagle/release/lib/libdriver.a(crash.o)
                                        0x19b (size before relaxing)
                0x00000000401017f8                crash_dump
 *fill*         0x000000004010192f        0x1 
 .text.dmaisr   0x0000000040101930      0x240 driver/.output/eagle/release/lib/libdriver.a(i2spi.o)
                                        0x2c0 (size before relaxing)
                0x0000000040101974                dmaisr
 .text.prepSdioQueue
                0x0000000040101b70       0x3f driver/.output/eagle/release/lib/libdriver.a(i2spi.o)
                                         0x5b (size before relaxing)
                0x0000000040101b70                prepSdioQueue
 *fill*         0x0000000040101baf        0x1 
 .text.processDrop
                0x0000000040101bb0       0x47 driver/.output/eagle/release/lib/libdriver.a(i2spi.o)
                0x0000000040101bb8                processDrop
 *fill*         0x0000000040101bf7        0x1 
 .text.makeDrop
                0x0000000040101bf8      0x201 driver/.output/eagle/release/lib/libdriver.a(i2spi.o)
                                        0x221 (size before relaxing)
                0x0000000040101c1c                makeDrop
 *fill*         0x0000000040101df9        0x3 
 .text.i2spiTask
                0x0000000040101dfc      0x423 driver/.output/eagle/release/lib/libdriver.a(i2spi.o)
                                        0x493 (size before relaxing)
                0x0000000040101e50                i2spiTask
 *fill*         0x000000004010221f        0x1 
 .text.os_put_char
                0x0000000040102220       0x26 driver/.output/eagle/release/lib/libdriver.a(uart.o)
                0x0000000040102228                os_put_char
 *fill*         0x0000000040102246        0x2 
 .text.uart_rx_intr_handler
                0x0000000040102248      0x156 driver/.output/eagle/release/lib/libdriver.a(uart.o)
                                        0x166 (size before relaxing)
 *fill*         0x000000004010239e        0x2 
 .text.uart_rx_intr_disable
                0x00000000401023a0       0x27 driver/.output/eagle/release/lib/libdriver.a(uart.o)
                0x00000000401023a4                uart_rx_intr_disable
 *fill*         0x00000000401023c7        0x1 
 .text.uart_rx_intr_enable
                0x00000000401023c8       0x23 driver/.output/eagle/release/lib/libdriver.a(uart.o)
                                         0x27 (size before relaxing)
                0x00000000401023c8                uart_rx_intr_enable
 *fill*         0x00000000401023eb        0x1 
 .text.uart_tx_intr_disable
                0x00000000401023ec       0x22 driver/.output/eagle/release/lib/libdriver.a(uart.o)
                                         0x26 (size before relaxing)
                0x00000000401023ec                uart_tx_intr_disable
 *fill*         0x000000004010240e        0x2 
 .text.uart_tx_intr_enable
                0x0000000040102410       0x22 driver/.output/eagle/release/lib/libdriver.a(uart.o)
                                         0x26 (size before relaxing)
                0x0000000040102410                uart_tx_intr_enable
 *fill*         0x0000000040102432        0x2 
 .text.uart_tx_one_char
                0x0000000040102434       0x31 driver/.output/eagle/release/lib/libdriver.a(uart.o)
                                         0x39 (size before relaxing)
                0x0000000040102434                uart_tx_one_char
 *fill*         0x0000000040102465        0x3 
 .text.uart_tx_one_char_no_wait
                0x0000000040102468       0x32 driver/.output/eagle/release/lib/libdriver.a(uart.o)
                                         0x3a (size before relaxing)
                0x0000000040102468                uart_tx_one_char_no_wait
 *fill*         0x000000004010249a        0x2 
 .text.os_put_hex
                0x000000004010249c       0x46 driver/.output/eagle/release/lib/libdriver.a(uart.o)
                                         0x4e (size before relaxing)
                0x00000000401024a0                os_put_hex
 *fill*         0x00000000401024e2        0x2 
 .text.ReliableMessageTypeToString
                0x00000000401024e4       0x22 transport/.output/eagle/release/lib/libtransport.a(reliableMessageTypes.o)
                0x00000000401024ec                ReliableMessageTypeToString
 *fill*         0x0000000040102506        0x2 
 .text.PreviousSequenceId
                0x0000000040102508       0x14 transport/.output/eagle/release/lib/libtransport.a(reliableSequenceId.o)
                0x000000004010250c                PreviousSequenceId
 .text          0x000000004010251c       0x53 ../lib/libphy.a(phy.o)
                                         0x5f (size before relaxing)
                0x0000000040102524                register_phy_ops
                0x0000000040102544                register_get_phy_addr
                0x000000004010254c                phy_change_channel
                0x0000000040102564                phy_get_mactime
 *fill*         0x000000004010256f        0x1 
 .text          0x0000000040102570      0x266 ../lib/libphy.a(phy_chip_v6_ana.o)
                                        0x276 (size before relaxing)
                0x0000000040102594                phy_adc_read_fast
 *fill*         0x00000000401027d6        0x2 
 .text          0x00000000401027d8       0x4d ../lib/libphy.a(phy_chip_v6.o)
                                         0x55 (size before relaxing)
                0x00000000401027e8                phy_debug_print
 *fill*         0x0000000040102825        0x3 
 .text          0x0000000040102828       0xb2 ../lib/libphy.a(phy_chip_v6_cal.o)
                                         0xba (size before relaxing)
                0x0000000040102828                unsign_to_sign
                0x0000000040102864                phy_get_bb_freqoffset
                0x00000000401028cc                phy_get_bb_evm
 *fill*         0x00000000401028da        0x2 
 .text          0x00000000401028dc       0xeb ../lib/libphy.a(phy_sleep.o)
                                        0x103 (size before relaxing)
                0x00000000401028e4                pm_rtc_clock_cali
                0x000000004010299c                clockgate_watchdog
 *fill*         0x00000000401029c7        0x1 
 .text          0x00000000401029c8     0x1602 ../lib/libpp.a(lmac.o)
                                       0x1962 (size before relaxing)
                0x00000000401029cc                lmacIsActive
                0x00000000401029e0                lmacIsIdle
                0x0000000040102e60                lmacSetAcParam
                0x0000000040102eb4                lmacProcessTXStartData
                0x0000000040103034                lmacProcessTxSuccess
                0x0000000040103178                GetAccess
                0x0000000040103184                lmacDiscardAgedMSDU
                0x0000000040103198                lmacRecycleMPDU
                0x000000004010375c                lmacProcessTxTimeout
                0x00000000401037c4                lmacProcessAllTxTimeout
                0x00000000401037d8                lmacProcessCollisions
                0x0000000040103838                lmacProcessCollision
                0x00000000401038bc                lmacMSDUAged
                0x0000000040103c4c                lmacProcessCtsTimeout
                0x0000000040103c84                lmacProcessAckTimeout
                0x0000000040103cdc                lmacProcessRtsStart
                0x0000000040103ce8                lmacProcessTxRtsError
                0x0000000040103d88                lmacProcessTxError
                0x0000000040103e18                lmacTxFrame
                0x0000000040103fb4                lmacRxDone
 *fill*         0x0000000040103fca        0x2 
 .text          0x0000000040103fcc      0x8e1 ../lib/libpp.a(pp.o)
                                        0x9fd (size before relaxing)
                0x0000000040104000                pp_soft_wdt_feed_local
                0x0000000040104094                ppProcessTxQ
                0x0000000040104108                ppFetchTxQFirstAvail
                0x0000000040104148                ppDequeueTxQ
                0x0000000040104170                ppRollBackTxQ
                0x0000000040104194                ppRecordBarRRC
                0x00000000401041a4                ppTxqUpdateBitmap
                0x00000000401041cc                ppEnqueueTxDone
                0x0000000040104200                ppEnqueueRxq
                0x00000000401046e8                ppDiscardMPDU
                0x000000004010470c                pp_post
                0x0000000040104798                pp_post2
                0x00000000401047c0                ppCalTxop
                0x0000000040104840                ppCalFrameTimes
 *fill*         0x00000000401048ad        0x3 
 .text          0x00000000401048b0       0xf5 ../lib/libpp.a(rate_control.o)
                                        0x109 (size before relaxing)
                0x00000000401048d0                RC_GetAckRate
                0x00000000401048dc                RC_GetRtsRate
                0x00000000401048ec                RC_GetAckTime
                0x0000000040104900                RC_GetCtsTime
                0x0000000040104938                RC_GetBlockAckTime
 *fill*         0x00000000401049a5        0x3 
 .text          0x00000000401049a8      0x9a1 ../lib/libpp.a(trc.o)
                                        0xa05 (size before relaxing)
                0x0000000040104b7c                rcUpdateTxDone
                0x0000000040104c10                rcUpdateRxDone
                0x0000000040104c6c                rcUpdateDataRxDone
                0x0000000040104c88                rcGetSched
                0x0000000040104d6c                rcGetRate
                0x000000004010527c                rcReachRetryLimit
                0x0000000040105294                trc_NeedRTS
 *fill*         0x0000000040105349        0x3 
 .text          0x000000004010534c     0x1053 ../lib/libpp.a(wdev.o)
                                       0x1347 (size before relaxing)
                0x00000000401056f0                wDev_MacTim1SetFunc
                0x0000000040105710                wDev_MacTim1Arm
                0x00000000401057a4                wDev_ProcessFiq
                0x0000000040105ae8                wDev_EnableTransmit
                0x0000000040105b20                wDev_DisableTransmit
                0x0000000040105b40                Tx_Copy2Queue
                0x0000000040105b88                wDev_ProcessCollision
                0x0000000040105bac                wDev_GetTxqCollisions
                0x0000000040105bbc                wDev_ClearTxqCollisions
                0x0000000040105bd4                wDev_SetWaitingQueue
                0x0000000040105c1c                wDev_ClearWaitingQueue
                0x0000000040105c40                wDev_SetFrameAckType
                0x0000000040105c9c                wDev_AppendRxBlocks
                0x0000000040105de0                wDev_AppendRxAmpduLensBlocks
                0x0000000040105eb4                wDev_GetBAInfo
                0x0000000040105ee8                wDevDisableRx
 *fill*         0x000000004010639f        0x1 
 .text          0x00000000401063a0       0x4c ../lib/libpp.a(esf_buf.o)
                                         0x5c (size before relaxing)
                0x00000000401063a4                esf_rx_buf_alloc
 .text          0x00000000401063ec       0x23 ../lib/libnet80211.a(ieee80211_output.o)
                                         0x27 (size before relaxing)
 *fill*         0x000000004010640f        0x1 
 .text          0x0000000040106410        0xb ../lib/libnet80211.a(wl_chm.o)
                0x0000000040106414                chm_get_current_channel
 *fill*         0x000000004010641b        0x1 
 .text          0x000000004010641c       0x43 ../lib/liblwip.a(etharp.o)
                                         0x47 (size before relaxing)
 *fill*         0x000000004010645f        0x1 
 .text          0x0000000040106460      0x201 ../lib/liblwip.a(tcp.o)
                                        0x229 (size before relaxing)
 *fill*         0x0000000040106661        0x3 
 .text          0x0000000040106664      0x15d ../lib/liblwip.a(tcp_out.o)
                                        0x161 (size before relaxing)
 *fill*         0x00000000401067c1        0x3 
 .text          0x00000000401067c4       0xb4 ../lib/liblwip.a(timers.o)
                                         0xc0 (size before relaxing)
 .literal       0x0000000040106878        0x0 /opt/xtensa-lx106-elf/bin/../lib/gcc/xtensa-lx106-elf/4.8.2/../../../../xtensa-lx106-elf/lib/libc.a(lib_a-atoi.o)
                                          0x8 (size before relaxing)
 .literal       0x0000000040106878        0x8 /opt/xtensa-lx106-elf/bin/../lib/gcc/xtensa-lx106-elf/4.8.2/../../../../xtensa-lx106-elf/lib/libc.a(lib_a-strtol.o)
                                         0x18 (size before relaxing)
 .literal       0x0000000040106880        0x4 ../lib/libgcc.a(_mulsf3.o)
                                         0x10 (size before relaxing)
 .literal       0x0000000040106884        0x0 ../lib/libgcc.a(_divsf3.o)
                                         0x10 (size before relaxing)
 .literal       0x0000000040106884        0x0 ../lib/libgcc.a(_fixsfsi.o)
                                          0x4 (size before relaxing)
 .text          0x0000000040106884       0x27 /opt/xtensa-lx106-elf/bin/../lib/gcc/xtensa-lx106-elf/4.8.2/../../../../xtensa-lx106-elf/lib/libc.a(lib_a-atoi.o)
                                         0x2f (size before relaxing)
                0x0000000040106884                atoi
                0x0000000040106898                _atoi_r
 *fill*         0x00000000401068ab        0x1 
 .text          0x00000000401068ac      0x15f /opt/xtensa-lx106-elf/bin/../lib/gcc/xtensa-lx106-elf/4.8.2/../../../../xtensa-lx106-elf/lib/libc.a(lib_a-strtol.o)
                0x00000000401068ac                _strtol_r
                0x00000000401069ec                strtol
 *fill*         0x0000000040106a0b        0x1 
 .text          0x0000000040106a0c      0x15d ../lib/libgcc.a(_mulsf3.o)
                0x0000000040106a84                __mulsf3
 *fill*         0x0000000040106b69        0x3 
 .text          0x0000000040106b6c      0x135 ../lib/libgcc.a(_divsf3.o)
                0x0000000040106be8                __divsf3
 *fill*         0x0000000040106ca1        0x3 
 .text          0x0000000040106ca4       0x40 ../lib/libgcc.a(_fixsfsi.o)
                0x0000000040106ca4                __fixsfsi
 .literal.Cache_Read_Enable_New
                0x0000000040106ce4        0x0 driver/.output/eagle/release/lib/libdriver.a(cache.o)
 .text          0x0000000040106ce4        0x0 driver/.output/eagle/release/lib/libdriver.a(cache.o)
 *fill*         0x0000000040106ce4        0x0 
 .literal       0x0000000040106ce4        0x0 ../lib/libmain_w.a(user_interface.o)
 .text          0x0000000040106ce4        0x0 ../lib/libmain_w.a(debug-vector.o)
 .text          0x0000000040106ce4        0x0 ../lib/libmain_w.a(double-vector.o)
 .text          0x0000000040106ce4        0x0 ../lib/libmain_w.a(kernel-vector.o)
 *fill*         0x0000000040106ce4        0x0 
 .literal       0x0000000040106ce4        0x0 ../lib/libmain_w.a(nmi-vector.o)
 *fill*         0x0000000040106ce4        0x0 
 .literal       0x0000000040106ce4        0x0 ../lib/libmain_w.a(user-vector.o)
 .text          0x0000000040106ce4        0x0 ../lib/libmain_w.a(vector.o)
 *fill*         0x0000000040106ce4        0x0 
 .literal       0x0000000040106ce4        0x0 ../lib/libmain_w.a(app_main.o)
 .text          0x0000000040106ce4        0x0 ../lib/libmain_w.a(eagle_lib.o)
 .text          0x0000000040106ce4        0x0 ../lib/libmain_w.a(eagle_lwip_if.o)
 *fill*         0x0000000040106ce4        0x0 
 .literal       0x0000000040106ce4        0x0 ../lib/libmain_w.a(ets_timer.o)
 .literal       0x0000000040106ce4        0x0 ../lib/libmain_w.a(mem_manager.o)
 *fill*         0x0000000040106ce4        0x0 
 .literal       0x0000000040106ce4        0x0 ../lib/libmain_w.a(spi_flash.o)
 .text          0x0000000040106ce4        0x5 /opt/xtensa-lx106-elf/bin/../xtensa-lx106-elf/sysroot/usr/lib/libhal.a(int_asm--set_intclear.o)
                0x0000000040106ce4                xthal_set_intclear
 *fill*         0x0000000040106ce9        0x3 
 .literal.crash_handler
                0x0000000040106cec        0x0 driver/.output/eagle/release/lib/libdriver.a(crash.o)
 .literal.os_put_str
                0x0000000040106cec        0x0 driver/.output/eagle/release/lib/libdriver.a(crash.o)
 .literal.crashHandlerPutReport
                0x0000000040106cec        0x0 driver/.output/eagle/release/lib/libdriver.a(crash.o)
 .literal.crash_dump
                0x0000000040106cec        0x0 driver/.output/eagle/release/lib/libdriver.a(crash.o)
 .text          0x0000000040106cec        0x0 driver/.output/eagle/release/lib/libdriver.a(crash.o)
 .text.crash_handler
                0x0000000040106cec        0xd driver/.output/eagle/release/lib/libdriver.a(crash.o)
                0x0000000040106cec                crash_handler
 *fill*         0x0000000040106cf9        0x0 
 *fill*         0x0000000040106cf9        0x0 
 *fill*         0x0000000040106cf9        0x0 
 .text          0x0000000040106cf9        0x0 driver/.output/eagle/release/lib/libdriver.a(factoryData.o)
 *fill*         0x0000000040106cf9        0x3 
 .literal.dmaisr
                0x0000000040106cfc        0x0 driver/.output/eagle/release/lib/libdriver.a(i2spi.o)
 .literal.prepSdioQueue
                0x0000000040106cfc        0x0 driver/.output/eagle/release/lib/libdriver.a(i2spi.o)
 .literal.halfWordCopy
                0x0000000040106cfc        0x0 driver/.output/eagle/release/lib/libdriver.a(i2spi.o)
 .literal.processDrop
                0x0000000040106cfc        0x0 driver/.output/eagle/release/lib/libdriver.a(i2spi.o)
 .literal.makeDrop
                0x0000000040106cfc        0x0 driver/.output/eagle/release/lib/libdriver.a(i2spi.o)
 .literal.i2spiTask
                0x0000000040106cfc        0x0 driver/.output/eagle/release/lib/libdriver.a(i2spi.o)
 .text          0x0000000040106cfc        0x0 driver/.output/eagle/release/lib/libdriver.a(i2spi.o)
 *fill*         0x0000000040106cfc        0x0 
 .text.halfWordCopy
                0x0000000040106cfc       0x1a driver/.output/eagle/release/lib/libdriver.a(i2spi.o)
                0x0000000040106cfc                halfWordCopy
 *fill*         0x0000000040106d16        0x0 
 *fill*         0x0000000040106d16        0x0 
 *fill*         0x0000000040106d16        0x0 
 *fill*         0x0000000040106d16        0x2 
 .literal.os_put_char
                0x0000000040106d18        0x0 driver/.output/eagle/release/lib/libdriver.a(uart.o)
 .literal.uart_rx_intr_handler
                0x0000000040106d18        0x0 driver/.output/eagle/release/lib/libdriver.a(uart.o)
 .literal.uart_rx_intr_disable
                0x0000000040106d18        0x0 driver/.output/eagle/release/lib/libdriver.a(uart.o)
 .literal.uart_rx_intr_enable
                0x0000000040106d18        0x0 driver/.output/eagle/release/lib/libdriver.a(uart.o)
 .literal.uart_tx_intr_disable
                0x0000000040106d18        0x0 driver/.output/eagle/release/lib/libdriver.a(uart.o)
 .literal.uart_tx_intr_enable
                0x0000000040106d18        0x0 driver/.output/eagle/release/lib/libdriver.a(uart.o)
 .literal.uart_tx_one_char
                0x0000000040106d18        0x0 driver/.output/eagle/release/lib/libdriver.a(uart.o)
 .literal.uart_tx_one_char_no_wait
                0x0000000040106d18        0x0 driver/.output/eagle/release/lib/libdriver.a(uart.o)
 .literal.os_put_hex
                0x0000000040106d18        0x0 driver/.output/eagle/release/lib/libdriver.a(uart.o)
 .text          0x0000000040106d18        0x0 driver/.output/eagle/release/lib/libdriver.a(uart.o)
 *fill*         0x0000000040106d18        0x0 
 *fill*         0x0000000040106d18        0x0 
 *fill*         0x0000000040106d18        0x0 
 *fill*         0x0000000040106d18        0x0 
 *fill*         0x0000000040106d18        0x0 
 *fill*         0x0000000040106d18        0x0 
 *fill*         0x0000000040106d18        0x0 
 *fill*         0x0000000040106d18        0x0 
 .text          0x0000000040106d18        0x0 transport/.output/eagle/release/lib/libtransport.a(reliableTransport.o)
 *fill*         0x0000000040106d18        0x0 
 .literal.IsMessageTypeAlwaysSentUnreliably
                0x0000000040106d18        0x0 transport/.output/eagle/release/lib/libtransport.a(reliableMessageTypes.o)
 .literal.IsMutlipleMessagesType
                0x0000000040106d18        0x0 transport/.output/eagle/release/lib/libtransport.a(reliableMessageTypes.o)
 .literal.ReliableMessageTypeToString
                0x0000000040106d18        0x0 transport/.output/eagle/release/lib/libtransport.a(reliableMessageTypes.o)
 .literal.IsValidMessageType
                0x0000000040106d18        0x0 transport/.output/eagle/release/lib/libtransport.a(reliableMessageTypes.o)
 .text          0x0000000040106d18        0x0 transport/.output/eagle/release/lib/libtransport.a(reliableMessageTypes.o)
 .text.IsMessageTypeAlwaysSentUnreliably
                0x0000000040106d18       0x24 transport/.output/eagle/release/lib/libtransport.a(reliableMessageTypes.o)
                0x0000000040106d18                IsMessageTypeAlwaysSentUnreliably
 .text.IsMutlipleMessagesType
                0x0000000040106d3c       0x12 transport/.output/eagle/release/lib/libtransport.a(reliableMessageTypes.o)
                0x0000000040106d3c                IsMutlipleMessagesType
 *fill*         0x0000000040106d4e        0x0 
 *fill*         0x0000000040106d4e        0x2 
 .text.IsValidMessageType
                0x0000000040106d50       0x16 transport/.output/eagle/release/lib/libtransport.a(reliableMessageTypes.o)
                0x0000000040106d50                IsValidMessageType
 *fill*         0x0000000040106d66        0x2 
 .literal.PreviousSequenceId
                0x0000000040106d68        0x0 transport/.output/eagle/release/lib/libtransport.a(reliableSequenceId.o)
 .literal.NextSequenceId
                0x0000000040106d68        0x0 transport/.output/eagle/release/lib/libtransport.a(reliableSequenceId.o)
 .literal.IsSequenceIdInRange
                0x0000000040106d68        0x0 transport/.output/eagle/release/lib/libtransport.a(reliableSequenceId.o)
 .text          0x0000000040106d68        0x0 transport/.output/eagle/release/lib/libtransport.a(reliableSequenceId.o)
 .text.NextSequenceId
                0x0000000040106d68       0x16 transport/.output/eagle/release/lib/libtransport.a(reliableSequenceId.o)
                0x0000000040106d68                NextSequenceId
 *fill*         0x0000000040106d7e        0x2 
 .text.IsSequenceIdInRange
                0x0000000040106d80       0x38 transport/.output/eagle/release/lib/libtransport.a(reliableSequenceId.o)
                0x0000000040106d80                IsSequenceIdInRange
 .literal       0x0000000040106db8        0x0 ../lib/libphy.a(phy.o)
 *fill*         0x0000000040106db8        0x0 
 .literal       0x0000000040106db8        0x0 ../lib/libphy.a(phy_chip_v6_ana.o)
 *fill*         0x0000000040106db8        0x0 
 .literal       0x0000000040106db8        0x0 ../lib/libphy.a(phy_chip_v6.o)
 *fill*         0x0000000040106db8        0x0 
 .literal       0x0000000040106db8        0x0 ../lib/libphy.a(phy_chip_v6_cal.o)
 .text          0x0000000040106db8        0x0 ../lib/libphy.a(phy_chip_v6_unused.o)
 *fill*         0x0000000040106db8        0x0 
 .literal       0x0000000040106db8        0x0 ../lib/libphy.a(phy_sleep.o)
 .text          0x0000000040106db8        0x0 ../lib/libpp.a(if_hwctrl.o)
 *fill*         0x0000000040106db8        0x0 
 .literal       0x0000000040106db8        0x0 ../lib/libpp.a(lmac.o)
 .text          0x0000000040106db8        0x0 ../lib/libpp.a(pm.o)
 .text          0x0000000040106db8        0x0 ../lib/libpp.a(pm_for_bcn_only_mode.o)
 *fill*         0x0000000040106db8        0x0 
 .literal       0x0000000040106db8        0x0 ../lib/libpp.a(pp.o)
 *fill*         0x0000000040106db8        0x0 
 .literal       0x0000000040106db8        0x0 ../lib/libpp.a(rate_control.o)
 *fill*         0x0000000040106db8        0x0 
 .literal       0x0000000040106db8        0x0 ../lib/libpp.a(trc.o)
 *fill*         0x0000000040106db8        0x0 
 .literal       0x0000000040106db8        0x0 ../lib/libpp.a(wdev.o)
 *fill*         0x0000000040106db8        0x0 
 .literal       0x0000000040106db8        0x0 ../lib/libpp.a(esf_buf.o)
 .text          0x0000000040106db8        0x0 ../lib/libnet80211.a(ieee80211.o)
 .text          0x0000000040106db8        0x0 ../lib/libnet80211.a(ieee80211_crypto.o)
 .text          0x0000000040106db8        0x0 ../lib/libnet80211.a(ieee80211_ets.o)
 .literal       0x0000000040106db8        0x0 ../lib/libnet80211.a(ieee80211_hostap.o)
 .text          0x0000000040106db8       0x25 ../lib/libnet80211.a(ieee80211_hostap.o)
 .text          0x0000000040106ddd        0x0 ../lib/libnet80211.a(ieee80211_ht.o)
 .text          0x0000000040106ddd        0x0 ../lib/libnet80211.a(ieee80211_input.o)
 .text          0x0000000040106ddd        0x0 ../lib/libnet80211.a(ieee80211_mesh_quick.o)
 *fill*         0x0000000040106ddd        0x3 
 .literal       0x0000000040106de0        0x0 ../lib/libnet80211.a(ieee80211_output.o)
 .text          0x0000000040106de0        0x0 ../lib/libnet80211.a(ieee80211_phy.o)
 .text          0x0000000040106de0        0x0 ../lib/libnet80211.a(ieee80211_power.o)
 .text          0x0000000040106de0        0x0 ../lib/libnet80211.a(ieee80211_proto.o)
 .text          0x0000000040106de0        0x0 ../lib/libnet80211.a(ieee80211_rfid.o)
 .text          0x0000000040106de0        0x0 ../lib/libnet80211.a(ieee80211_scan.o)
 .text          0x0000000040106de0        0x0 ../lib/libnet80211.a(ieee80211_sta.o)
 *fill*         0x0000000040106de0        0x0 
 .literal       0x0000000040106de0        0x0 ../lib/libnet80211.a(wl_chm.o)
 .text          0x0000000040106de0        0x0 ../lib/libnet80211.a(wl_cnx.o)
 .text          0x0000000040106de0        0x0 ../lib/libnet80211.a(ieee80211_action.o)
 .text          0x0000000040106de0        0x0 ../lib/libnet80211.a(ieee80211_action_vendor.o)
 .text          0x0000000040106de0        0x0 ../lib/libnet80211.a(ieee80211_crypto_ccmp.o)
 .text          0x0000000040106de0        0x0 ../lib/libnet80211.a(ieee80211_ie_vendor.o)
 .text          0x0000000040106de0        0x0 ../lib/liblwip.a(dhcp.o)
 .text          0x0000000040106de0        0x0 ../lib/liblwip.a(dhcpserver.o)
 .text          0x0000000040106de0        0x0 ../lib/liblwip.a(dns.o)
 .text          0x0000000040106de0        0x0 ../lib/liblwip.a(espconn.o)
 .text          0x0000000040106de0        0x0 ../lib/liblwip.a(espconn_tcp.o)
 .text          0x0000000040106de0        0x0 ../lib/liblwip.a(espconn_udp.o)
 *fill*         0x0000000040106de0        0x0 
 .literal       0x0000000040106de0        0x0 ../lib/liblwip.a(etharp.o)
 .text          0x0000000040106de0        0x0 ../lib/liblwip.a(igmp.o)
 .text          0x0000000040106de0        0x0 ../lib/liblwip.a(inet_chksum.o)
 .text          0x0000000040106de0        0x0 ../lib/liblwip.a(init.o)
 .text          0x0000000040106de0        0x0 ../lib/liblwip.a(ip_addr.o)
 .text          0x0000000040106de0        0x0 ../lib/liblwip.a(ip.o)
 .text          0x0000000040106de0        0x0 ../lib/liblwip.a(memp.o)
 .text          0x0000000040106de0        0x0 ../lib/liblwip.a(netif.o)
 .text          0x0000000040106de0        0x0 ../lib/liblwip.a(pbuf.o)
 .text          0x0000000040106de0        0x0 ../lib/liblwip.a(raw.o)
 .text          0x0000000040106de0        0x0 ../lib/liblwip.a(tcp_in.o)
 *fill*         0x0000000040106de0        0x0 
 .literal       0x0000000040106de0        0x0 ../lib/liblwip.a(tcp.o)
 *fill*         0x0000000040106de0        0x0 
 .literal       0x0000000040106de0        0x0 ../lib/liblwip.a(tcp_out.o)
 *fill*         0x0000000040106de0        0x0 
 .literal       0x0000000040106de0        0x0 ../lib/liblwip.a(timers.o)
 .text          0x0000000040106de0        0x0 ../lib/liblwip.a(udp.o)
 .text          0x0000000040106de0        0x0 ../lib/liblwip.a(icmp.o)
 .text          0x0000000040106de0        0x0 ../lib/libwpa.a(ap_config.o)
 .text          0x0000000040106de0        0x0 ../lib/libwpa.a(common.o)
 .text          0x0000000040106de0        0x0 ../lib/libwpa.a(os_xtensa.o)
 .literal       0x0000000040106de0        0x0 ../lib/libwpa.a(wpa_auth.o)
 .text          0x0000000040106de0       0x11 ../lib/libwpa.a(wpa_auth.o)
 .text          0x0000000040106df1        0x0 ../lib/libwpa.a(wpa_auth_ie.o)
 .text          0x0000000040106df1        0x0 ../lib/libwpa.a(wpa.o)
 .text          0x0000000040106df1        0x0 ../lib/libwpa.a(wpa_common.o)
 .text          0x0000000040106df1        0x0 ../lib/libwpa.a(wpa_debug.o)
 .text          0x0000000040106df1        0x0 ../lib/libwpa.a(wpa_ie.o)
 .text          0x0000000040106df1        0x0 ../lib/libwpa.a(wpa_main.o)
 .text          0x0000000040106df1        0x0 ../lib/libwpa.a(wpas_glue.o)
 *fill*         0x0000000040106df1        0x0 
 *fill*         0x0000000040106df1        0x3 
 .text          0x0000000040106df4      0x145 /opt/xtensa-lx106-elf/bin/../lib/gcc/xtensa-lx106-elf/4.8.2/../../../../xtensa-lx106-elf/lib/libc.a(lib_a-memcpy.o)
                0x0000000040106e38                memcpy
 *fill*         0x0000000040106f39        0x3 
 .text          0x0000000040106f3c       0x7c /opt/xtensa-lx106-elf/bin/../lib/gcc/xtensa-lx106-elf/4.8.2/../../../../xtensa-lx106-elf/lib/libc.a(lib_a-memset.o)
                0x0000000040106f68                memset
 .text          0x0000000040106fb8        0x0 /opt/xtensa-lx106-elf/bin/../lib/gcc/xtensa-lx106-elf/4.8.2/../../../../xtensa-lx106-elf/lib/libc.a(lib_a-ctype_.o)
 .text          0x0000000040106fb8        0x0 /opt/xtensa-lx106-elf/bin/../lib/gcc/xtensa-lx106-elf/4.8.2/../../../../xtensa-lx106-elf/lib/libc.a(lib_a-impure.o)
 *fill*         0x0000000040106fb8        0x0 
 .text          0x0000000040106fb8       0x49 ../lib/libgcc.a(_modsi3.o)
                0x0000000040106fb8                __modsi3
 *fill*         0x0000000040107001        0x3 
 .text          0x0000000040107004       0x17 ../lib/libgcc.a(_ashldi3.o)
                0x0000000040107004                __ashldi3
 *fill*         0x000000004010701b        0x1 
 .text          0x000000004010701c       0x18 ../lib/libgcc.a(_ashrdi3.o)
                0x000000004010701c                __ashrdi3
 *fill*         0x0000000040107034        0x0 
 *fill*         0x0000000040107034        0x0 
 .text          0x0000000040107034        0x0 ../lib/libnet80211.a(ieee80211_crypto_tkip.o)
 .text          0x0000000040107034        0x0 ../lib/libnet80211.a(ieee80211_crypto_wep.o)
 .text          0x0000000040107034        0x0 ../lib/libcrypto.a(aes-wrap.o)
 .text          0x0000000040107034        0x0 ../lib/libcrypto.a(aes-internal-enc.o)
 .text          0x0000000040107034        0x0 ../lib/libcrypto.a(aes-internal.o)
 *(.fini.literal)
 *(.fini)
 *(.gnu.version)
                0x0000000040107034                _text_end = ABSOLUTE (.)
                0x0000000040107034                _etext = .

.NMIExceptionVector.literal
                0x0000000040107034        0x0
 .NMIExceptionVector.literal
                0x0000000040107034        0x0 ../lib/libmain_w.a(nmi-vector.o)

.UserExceptionVector.literal
                0x0000000040107034        0x0
 .UserExceptionVector.literal
                0x0000000040107034        0x0 ../lib/libmain_w.a(user-vector.o)

.UserEnter.literal
                0x0000000040107034        0x0
 .UserEnter.literal
                0x0000000040107034        0x0 ../lib/libmain_w.a(vector.o)

.lit4           0x0000000040107034        0x0
                0x0000000040107034                _lit4_start = ABSOLUTE (.)
 *(*.lit4)
 *(.lit4.*)
 *(.gnu.linkonce.lit4.*)
                0x0000000040107034                _lit4_end = ABSOLUTE (.)
                0x00000000400047f0                PROVIDE (Cache_Read_Disable, 0x400047f0)
                0x0000000040004678                PROVIDE (Cache_Read_Enable, 0x40004678)
                0x00000000400035a0                PROVIDE (FilePacketSendReqMsgProc, 0x400035a0)
                0x000000004000368c                PROVIDE (FlashDwnLdParamCfgMsgProc, 0x4000368c)
                0x0000000040003538                PROVIDE (FlashDwnLdStartMsgProc, 0x40003538)
                0x0000000040003658                PROVIDE (FlashDwnLdStopReqMsgProc, 0x40003658)
                0x0000000040003f4c                PROVIDE (GetUartDevice, 0x40003f4c)
                0x0000000040009900                PROVIDE (MD5Final, 0x40009900)
                0x0000000040009818                PROVIDE (MD5Init, 0x40009818)
                0x0000000040009834                PROVIDE (MD5Update, 0x40009834)
                0x00000000400036c4                PROVIDE (MemDwnLdStartMsgProc, 0x400036c4)
                0x000000004000377c                PROVIDE (MemDwnLdStopReqMsgProc, 0x4000377c)
                0x00000000400036f0                PROVIDE (MemPacketSendReqMsgProc, 0x400036f0)
                0x0000000040003eac                PROVIDE (RcvMsg, 0x40003eac)
                0x000000004000b648                PROVIDE (SHA1Final, 0x4000b648)
                0x000000004000b584                PROVIDE (SHA1Init, 0x4000b584)
                0x000000004000a364                PROVIDE (SHA1Transform, 0x4000a364)
                0x000000004000b5a8                PROVIDE (SHA1Update, 0x4000b5a8)
                0x00000000400043c8                PROVIDE (SPI_read_status, 0x400043c8)
                0x0000000040004400                PROVIDE (SPI_write_status, 0x40004400)
                0x000000004000443c                PROVIDE (SPI_write_enable, 0x4000443c)
                0x000000004000448c                PROVIDE (Wait_SPI_Idle, 0x4000448c)
                0x0000000040004b44                PROVIDE (SPIEraseArea, 0x40004b44)
                0x00000000400049b4                PROVIDE (SPIEraseBlock, 0x400049b4)
                0x0000000040004984                PROVIDE (SPIEraseChip, 0x40004984)
                0x0000000040004a00                PROVIDE (SPIEraseSector, 0x40004a00)
                0x00000000400048a8                PROVIDE (SPILock, 0x400048a8)
                0x0000000040004c2c                PROVIDE (SPIParamCfg, 0x40004c2c)
                0x0000000040004b1c                PROVIDE (SPIRead, 0x40004b1c)
                0x00000000400048ec                PROVIDE (SPIReadModeCnfig, 0x400048ec)
                0x0000000040004878                PROVIDE (SPIUnlock, 0x40004878)
                0x0000000040004a4c                PROVIDE (SPIWrite, 0x40004a4c)
                0x0000000040003f58                PROVIDE (SelectSpiFunction, 0x40003f58)
                0x0000000040003cf4                PROVIDE (SendMsg, 0x40003cf4)
                0x0000000040003230                PROVIDE (UartConnCheck, 0x40003230)
                0x00000000400037a0                PROVIDE (UartConnectProc, 0x400037a0)
                0x0000000040003368                PROVIDE (UartDwnLdProc, 0x40003368)
                0x0000000040003ef4                PROVIDE (UartGetCmdLn, 0x40003ef4)
                0x000000004000381c                PROVIDE (UartRegReadProc, 0x4000381c)
                0x00000000400037ac                PROVIDE (UartRegWriteProc, 0x400037ac)
                0x0000000040003c30                PROVIDE (UartRxString, 0x40003c30)
                0x0000000040003a14                PROVIDE (Uart_Init, 0x40003a14)
                0x0000000040000010                PROVIDE (_DebugExceptionVector, 0x40000010)
                0x0000000040000070                PROVIDE (_DoubleExceptionVector, 0x40000070)
                0x0000000040000030                PROVIDE (_KernelExceptionVector, 0x40000030)
                0x0000000040000020                PROVIDE (_NMIExceptionVector, 0x40000020)
                0x00000000400000a4                PROVIDE (_ResetHandler, 0x400000a4)
                0x0000000040000080                PROVIDE (_ResetVector, 0x40000080)
                0x0000000040000050                PROVIDE (_UserExceptionVector, 0x40000050)
                0x000000004000c538                PROVIDE (__adddf3, 0x4000c538)
                0x000000004000c180                PROVIDE (__addsf3, 0x4000c180)
                0x000000004000cb94                PROVIDE (__divdf3, 0x4000cb94)
                0x000000004000ce60                PROVIDE (__divdi3, 0x4000ce60)
                0x000000004000dc88                PROVIDE (__divsi3, 0x4000dc88)
                0x000000004000cdfc                PROVIDE (__extendsfdf2, 0x4000cdfc)
                0x000000004000ccb8                PROVIDE (__fixdfsi, 0x4000ccb8)
                0x000000004000cd00                PROVIDE (__fixunsdfsi, 0x4000cd00)
                0x000000004000c4c4                PROVIDE (__fixunssfsi, 0x4000c4c4)
                0x000000004000e2f0                PROVIDE (__floatsidf, 0x4000e2f0)
                0x000000004000e2ac                PROVIDE (__floatsisf, 0x4000e2ac)
                0x000000004000e2e8                PROVIDE (__floatunsidf, 0x4000e2e8)
                0x000000004000e2a4                PROVIDE (__floatunsisf, 0x4000e2a4)
                0x000000004000c8f0                PROVIDE (__muldf3, 0x4000c8f0)
                0x0000000040000650                PROVIDE (__muldi3, 0x40000650)
                0x000000004000c3dc                PROVIDE (__mulsf3, 0x4000c3dc)
                0x000000004000c688                PROVIDE (__subdf3, 0x4000c688)
                0x000000004000c268                PROVIDE (__subsf3, 0x4000c268)
                0x000000004000cd5c                PROVIDE (__truncdfsf2, 0x4000cd5c)
                0x000000004000d310                PROVIDE (__udivdi3, 0x4000d310)
                0x000000004000e21c                PROVIDE (__udivsi3, 0x4000e21c)
                0x000000004000d770                PROVIDE (__umoddi3, 0x4000d770)
                0x000000004000e268                PROVIDE (__umodsi3, 0x4000e268)
                0x000000004000dcf0                PROVIDE (__umulsidi3, 0x4000dcf0)
                0x000000004000e388                PROVIDE (_rom_store, 0x4000e388)
                0x000000004000e328                PROVIDE (_rom_store_table, 0x4000e328)
                0x000000004000042c                PROVIDE (_start, 0x4000042c)
                0x000000004000dbe0                PROVIDE (_xtos_alloca_handler, 0x4000dbe0)
                0x0000000040000598                PROVIDE (_xtos_c_wrapper_handler, 0x40000598)
                0x0000000040000590                PROVIDE (_xtos_cause3_handler, 0x40000590)
                0x000000004000bda4                PROVIDE (_xtos_ints_off, 0x4000bda4)
                0x000000004000bd84                PROVIDE (_xtos_ints_on, 0x4000bd84)
                0x000000004000048c                PROVIDE (_xtos_l1int_handler, 0x4000048c)
                0x000000004000dbf8                PROVIDE (_xtos_p_none, 0x4000dbf8)
                0x000000004000056c                PROVIDE (_xtos_restore_intlevel, 0x4000056c)
                0x000000004000dc54                PROVIDE (_xtos_return_from_exc, 0x4000dc54)
                0x0000000040000454                PROVIDE (_xtos_set_exception_handler, 0x40000454)
                0x000000004000bd70                PROVIDE (_xtos_set_interrupt_handler, 0x4000bd70)
                0x000000004000bd28                PROVIDE (_xtos_set_interrupt_handler_arg, 0x4000bd28)
                0x000000004000dbfc                PROVIDE (_xtos_set_intlevel, 0x4000dbfc)
                0x000000004000dc18                PROVIDE (_xtos_set_min_intlevel, 0x4000dc18)
                0x0000000040000574                PROVIDE (_xtos_set_vpri, 0x40000574)
                0x000000004000dbe4                PROVIDE (_xtos_syscall_handler, 0x4000dbe4)
                0x000000004000dc44                PROVIDE (_xtos_unhandled_exception, 0x4000dc44)
                0x000000004000dc3c                PROVIDE (_xtos_unhandled_interrupt, 0x4000dc3c)
                0x00000000400092d4                PROVIDE (aes_decrypt, 0x400092d4)
                0x00000000400092e4                PROVIDE (aes_decrypt_deinit, 0x400092e4)
                0x0000000040008ea4                PROVIDE (aes_decrypt_init, 0x40008ea4)
                0x0000000040009410                PROVIDE (aes_unwrap, 0x40009410)
                0x0000000040009648                PROVIDE (base64_decode, 0x40009648)
                0x00000000400094fc                PROVIDE (base64_encode, 0x400094fc)
                0x000000004000de84                PROVIDE (bzero, 0x4000de84)
                0x0000000040000814                PROVIDE (cmd_parse, 0x40000814)
                0x0000000040000b24                PROVIDE (conv_str_decimal, 0x40000b24)
                0x0000000040000cb8                PROVIDE (conv_str_hex, 0x40000cb8)
                0x0000000040000a60                PROVIDE (convert_para_str, 0x40000a60)
                0x00000000400026d0                PROVIDE (dtm_get_intr_mask, 0x400026d0)
                0x000000004000269c                PROVIDE (dtm_params_init, 0x4000269c)
                0x00000000400026c8                PROVIDE (dtm_set_intr_mask, 0x400026c8)
                0x00000000400026dc                PROVIDE (dtm_set_params, 0x400026dc)
                0x0000000040001d14                PROVIDE (eprintf, 0x40001d14)
                0x0000000040001cb8                PROVIDE (eprintf_init_buf, 0x40001cb8)
                0x0000000040001d48                PROVIDE (eprintf_to_host, 0x40001d48)
                0x0000000040002494                PROVIDE (est_get_printf_buf_remain_len, 0x40002494)
                0x000000004000249c                PROVIDE (est_reset_printf_buf_len, 0x4000249c)
                0x0000000040002ae8                PROVIDE (ets_bzero, 0x40002ae8)
                0x0000000040002b74                PROVIDE (ets_char2xdigit, 0x40002b74)
                0x0000000040002ecc                PROVIDE (ets_delay_us, 0x40002ecc)
                0x00000000400027b8                PROVIDE (ets_enter_sleep, 0x400027b8)
                0x0000000040002578                PROVIDE (ets_external_printf, 0x40002578)
                0x0000000040002f0c                PROVIDE (ets_get_cpu_frequency, 0x40002f0c)
                0x0000000040002bcc                PROVIDE (ets_getc, 0x40002bcc)
                0x0000000040002450                PROVIDE (ets_install_external_printf, 0x40002450)
                0x000000004000242c                PROVIDE (ets_install_putc1, 0x4000242c)
                0x000000004000248c                PROVIDE (ets_install_putc2, 0x4000248c)
                0x0000000040002438                PROVIDE (ets_install_uart_printf, 0x40002438)
                0x0000000040000f74                PROVIDE (ets_intr_lock, 0x40000f74)
                0x0000000040000f80                PROVIDE (ets_intr_unlock, 0x40000f80)
                0x0000000040000f88                PROVIDE (ets_isr_attach, 0x40000f88)
                0x0000000040000f98                PROVIDE (ets_isr_mask, 0x40000f98)
                0x0000000040000fa8                PROVIDE (ets_isr_unmask, 0x40000fa8)
                0x00000000400018d4                PROVIDE (ets_memcmp, 0x400018d4)
                0x00000000400018b4                PROVIDE (ets_memcpy, 0x400018b4)
                0x00000000400018c4                PROVIDE (ets_memmove, 0x400018c4)
                0x00000000400018a4                PROVIDE (ets_memset, 0x400018a4)
                0x0000000040000e24                PROVIDE (ets_post, 0x40000e24)
                0x00000000400024cc                PROVIDE (ets_printf, 0x400024cc)
                0x0000000040002be8                PROVIDE (ets_putc, 0x40002be8)
                0x0000000040002a40                PROVIDE (ets_rtc_int_register, 0x40002a40)
                0x0000000040000e04                PROVIDE (ets_run, 0x40000e04)
                0x0000000040000dc0                PROVIDE (ets_set_idle_cb, 0x40000dc0)
                0x0000000040000fbc                PROVIDE (ets_set_user_start, 0x40000fbc)
                0x0000000040002af8                PROVIDE (ets_str2macaddr, 0x40002af8)
                0x0000000040002aa8                PROVIDE (ets_strcmp, 0x40002aa8)
                0x0000000040002a88                PROVIDE (ets_strcpy, 0x40002a88)
                0x0000000040002ac8                PROVIDE (ets_strlen, 0x40002ac8)
                0x0000000040002ab8                PROVIDE (ets_strncmp, 0x40002ab8)
                0x0000000040002a98                PROVIDE (ets_strncpy, 0x40002a98)
                0x0000000040002ad8                PROVIDE (ets_strstr, 0x40002ad8)
                0x0000000040000dd0                PROVIDE (ets_task, 0x40000dd0)
                0x0000000040002cc4                PROVIDE (ets_timer_arm, 0x40002cc4)
                0x0000000040002d40                PROVIDE (ets_timer_disarm, 0x40002d40)
                0x0000000040002d80                PROVIDE (ets_timer_done, 0x40002d80)
                0x0000000040002da8                PROVIDE (ets_timer_handler_isr, 0x40002da8)
                0x0000000040002e68                PROVIDE (ets_timer_init, 0x40002e68)
                0x0000000040002c48                PROVIDE (ets_timer_setfn, 0x40002c48)
                0x0000000040002544                PROVIDE (ets_uart_printf, 0x40002544)
                0x0000000040002f04                PROVIDE (ets_update_cpu_frequency, 0x40002f04)
                0x0000000040001f00                PROVIDE (ets_vprintf, 0x40001f00)
                0x00000000400030f0                PROVIDE (ets_wdt_disable, 0x400030f0)
                0x0000000040002fa0                PROVIDE (ets_wdt_enable, 0x40002fa0)
                0x0000000040002f34                PROVIDE (ets_wdt_get_mode, 0x40002f34)
                0x0000000040003170                PROVIDE (ets_wdt_init, 0x40003170)
                0x0000000040003158                PROVIDE (ets_wdt_restore, 0x40003158)
                0x0000000040001da0                PROVIDE (ets_write_char, 0x40001da0)
                0x000000004000091c                PROVIDE (get_first_seg, 0x4000091c)
                0x0000000040004c50                PROVIDE (gpio_init, 0x40004c50)
                0x0000000040004cf0                PROVIDE (gpio_input_get, 0x40004cf0)
                0x0000000040004dcc                PROVIDE (gpio_intr_ack, 0x40004dcc)
                0x0000000040004e28                PROVIDE (gpio_intr_handler_register, 0x40004e28)
                0x0000000040004d88                PROVIDE (gpio_intr_pending, 0x40004d88)
                0x0000000040004efc                PROVIDE (gpio_intr_test, 0x40004efc)
                0x0000000040004cd0                PROVIDE (gpio_output_set, 0x40004cd0)
                0x0000000040004d90                PROVIDE (gpio_pin_intr_state_set, 0x40004d90)
                0x0000000040004ed4                PROVIDE (gpio_pin_wakeup_disable, 0x40004ed4)
                0x0000000040004e90                PROVIDE (gpio_pin_wakeup_enable, 0x40004e90)
                0x0000000040004d5c                PROVIDE (gpio_register_get, 0x40004d5c)
                0x0000000040004d04                PROVIDE (gpio_register_set, 0x40004d04)
                0x000000004000a2cc                PROVIDE (hmac_md5, 0x4000a2cc)
                0x000000004000a160                PROVIDE (hmac_md5_vector, 0x4000a160)
                0x000000004000ba28                PROVIDE (hmac_sha1, 0x4000ba28)
                0x000000004000b8b4                PROVIDE (hmac_sha1_vector, 0x4000b8b4)
                0x0000000040004f40                PROVIDE (lldesc_build_chain, 0x40004f40)
                0x0000000040005050                PROVIDE (lldesc_num2link, 0x40005050)
                0x000000004000507c                PROVIDE (lldesc_set_owner, 0x4000507c)
                0x0000000040000fec                PROVIDE (main, 0x40000fec)
                0x00000000400097ac                PROVIDE (md5_vector, 0x400097ac)
                0x0000000040001c2c                PROVIDE (mem_calloc, 0x40001c2c)
                0x00000000400019e0                PROVIDE (mem_free, 0x400019e0)
                0x0000000040001998                PROVIDE (mem_init, 0x40001998)
                0x0000000040001b40                PROVIDE (mem_malloc, 0x40001b40)
                0x0000000040001c6c                PROVIDE (mem_realloc, 0x40001c6c)
                0x0000000040001a14                PROVIDE (mem_trim, 0x40001a14)
                0x0000000040001c58                PROVIDE (mem_zalloc, 0x40001c58)
                0x000000004000dea8                PROVIDE (memcmp, 0x4000dea8)
                0x000000004000df48                PROVIDE (memcpy, 0x4000df48)
                0x000000004000e04c                PROVIDE (memmove, 0x4000e04c)
                0x000000004000e190                PROVIDE (memset, 0x4000e190)
                0x00000000400031c0                PROVIDE (multofup, 0x400031c0)
                0x000000004000b840                PROVIDE (pbkdf2_sha1, 0x4000b840)
                0x0000000040006b08                PROVIDE (phy_get_romfuncs, 0x40006b08)
                0x0000000040000600                PROVIDE (rand, 0x40000600)
                0x000000004000dd68                PROVIDE (rc4_skip, 0x4000dd68)
                0x0000000040003d08                PROVIDE (recv_packet, 0x40003d08)
                0x0000000040000a04                PROVIDE (remove_head_space, 0x40000a04)
                0x0000000040008dd0                PROVIDE (rijndaelKeySetupDec, 0x40008dd0)
                0x0000000040009300                PROVIDE (rijndaelKeySetupEnc, 0x40009300)
                0x00000000400060c0                PROVIDE (rom_abs_temp, 0x400060c0)
                0x0000000040006b10                PROVIDE (rom_ana_inf_gating_en, 0x40006b10)
                0x0000000040007a28                PROVIDE (rom_cal_tos_v50, 0x40007a28)
                0x0000000040006f84                PROVIDE (rom_chip_50_set_channel, 0x40006f84)
                0x00000000400060d0                PROVIDE (rom_chip_v5_disable_cca, 0x400060d0)
                0x00000000400060ec                PROVIDE (rom_chip_v5_enable_cca, 0x400060ec)
                0x000000004000711c                PROVIDE (rom_chip_v5_rx_init, 0x4000711c)
                0x000000004000610c                PROVIDE (rom_chip_v5_sense_backoff, 0x4000610c)
                0x000000004000718c                PROVIDE (rom_chip_v5_tx_init, 0x4000718c)
                0x000000004000615c                PROVIDE (rom_dc_iq_est, 0x4000615c)
                0x00000000400061b8                PROVIDE (rom_en_pwdet, 0x400061b8)
                0x0000000040006238                PROVIDE (rom_get_bb_atten, 0x40006238)
                0x0000000040006260                PROVIDE (rom_get_corr_power, 0x40006260)
                0x00000000400062dc                PROVIDE (rom_get_fm_sar_dout, 0x400062dc)
                0x0000000040006394                PROVIDE (rom_get_noisefloor, 0x40006394)
                0x00000000400063b0                PROVIDE (rom_get_power_db, 0x400063b0)
                0x0000000040007268                PROVIDE (rom_i2c_readReg, 0x40007268)
                0x000000004000729c                PROVIDE (rom_i2c_readReg_Mask, 0x4000729c)
                0x00000000400072d8                PROVIDE (rom_i2c_writeReg, 0x400072d8)
                0x000000004000730c                PROVIDE (rom_i2c_writeReg_Mask, 0x4000730c)
                0x0000000040006400                PROVIDE (rom_iq_est_disable, 0x40006400)
                0x0000000040006430                PROVIDE (rom_iq_est_enable, 0x40006430)
                0x0000000040006484                PROVIDE (rom_linear_to_db, 0x40006484)
                0x00000000400065a4                PROVIDE (rom_mhz2ieee, 0x400065a4)
                0x0000000040007bf0                PROVIDE (rom_pbus_dco___SA2, 0x40007bf0)
                0x000000004000737c                PROVIDE (rom_pbus_debugmode, 0x4000737c)
                0x0000000040007410                PROVIDE (rom_pbus_enter_debugmode, 0x40007410)
                0x0000000040007448                PROVIDE (rom_pbus_exit_debugmode, 0x40007448)
                0x000000004000747c                PROVIDE (rom_pbus_force_test, 0x4000747c)
                0x00000000400074d8                PROVIDE (rom_pbus_rd, 0x400074d8)
                0x000000004000754c                PROVIDE (rom_pbus_set_rxgain, 0x4000754c)
                0x0000000040007610                PROVIDE (rom_pbus_set_txgain, 0x40007610)
                0x0000000040007648                PROVIDE (rom_pbus_workmode, 0x40007648)
                0x0000000040007688                PROVIDE (rom_pbus_xpd_rx_off, 0x40007688)
                0x00000000400076cc                PROVIDE (rom_pbus_xpd_rx_on, 0x400076cc)
                0x00000000400076fc                PROVIDE (rom_pbus_xpd_tx_off, 0x400076fc)
                0x0000000040007740                PROVIDE (rom_pbus_xpd_tx_on, 0x40007740)
                0x00000000400077a0                PROVIDE (rom_pbus_xpd_tx_on__low_gain, 0x400077a0)
                0x0000000040007804                PROVIDE (rom_phy_reset_req, 0x40007804)
                0x000000004000781c                PROVIDE (rom_restart_cal, 0x4000781c)
                0x0000000040007eb4                PROVIDE (rom_rfcal_pwrctrl, 0x40007eb4)
                0x000000004000804c                PROVIDE (rom_rfcal_rxiq, 0x4000804c)
                0x0000000040008264                PROVIDE (rom_rfcal_rxiq_set_reg, 0x40008264)
                0x0000000040008388                PROVIDE (rom_rfcal_txcap, 0x40008388)
                0x0000000040008610                PROVIDE (rom_rfcal_txiq, 0x40008610)
                0x00000000400088b8                PROVIDE (rom_rfcal_txiq_cover, 0x400088b8)
                0x0000000040008a70                PROVIDE (rom_rfcal_txiq_set_reg, 0x40008a70)
                0x0000000040007868                PROVIDE (rom_rfpll_reset, 0x40007868)
                0x0000000040007968                PROVIDE (rom_rfpll_set_freq, 0x40007968)
                0x0000000040008b6c                PROVIDE (rom_rxiq_cover_mg_mp, 0x40008b6c)
                0x0000000040006628                PROVIDE (rom_rxiq_get_mis, 0x40006628)
                0x0000000040006738                PROVIDE (rom_sar_init, 0x40006738)
                0x000000004000678c                PROVIDE (rom_set_ana_inf_tx_scale, 0x4000678c)
                0x0000000040006c50                PROVIDE (rom_set_channel_freq, 0x40006c50)
                0x00000000400067c8                PROVIDE (rom_set_loopback_gain, 0x400067c8)
                0x0000000040006830                PROVIDE (rom_set_noise_floor, 0x40006830)
                0x0000000040006550                PROVIDE (rom_set_rxclk_en, 0x40006550)
                0x0000000040008c6c                PROVIDE (rom_set_txbb_atten, 0x40008c6c)
                0x000000004000650c                PROVIDE (rom_set_txclk_en, 0x4000650c)
                0x0000000040008d34                PROVIDE (rom_set_txiq_cal, 0x40008d34)
                0x0000000040006874                PROVIDE (rom_start_noisefloor, 0x40006874)
                0x00000000400068b4                PROVIDE (rom_start_tx_tone, 0x400068b4)
                0x000000004000698c                PROVIDE (rom_stop_tx_tone, 0x4000698c)
                0x0000000040006a98                PROVIDE (rom_tx_mac_disable, 0x40006a98)
                0x0000000040006ad4                PROVIDE (rom_tx_mac_enable, 0x40006ad4)
                0x0000000040006a1c                PROVIDE (rom_txtone_linear_pwr, 0x40006a1c)
                0x00000000400078dc                PROVIDE (rom_write_rfpll_sdm, 0x400078dc)
                0x00000000400031b4                PROVIDE (roundup2, 0x400031b4)
                0x0000000040002870                PROVIDE (rtc_enter_sleep, 0x40002870)
                0x00000000400025e0                PROVIDE (rtc_get_reset_reason, 0x400025e0)
                0x00000000400029ec                PROVIDE (rtc_intr_handler, 0x400029ec)
                0x0000000040002668                PROVIDE (rtc_set_sleep_mode, 0x40002668)
                0x00000000400027a4                PROVIDE (save_rxbcn_mactime, 0x400027a4)
                0x00000000400027ac                PROVIDE (save_tsf_us, 0x400027ac)
                0x0000000040003c80                PROVIDE (send_packet, 0x40003c80)
                0x000000004000ba48                PROVIDE (sha1_prf, 0x4000ba48)
                0x000000004000a2ec                PROVIDE (sha1_vector, 0x4000a2ec)
                0x0000000040005180                PROVIDE (sip_alloc_to_host_evt, 0x40005180)
                0x00000000400058a8                PROVIDE (sip_get_ptr, 0x400058a8)
                0x0000000040005668                PROVIDE (sip_get_state, 0x40005668)
                0x000000004000567c                PROVIDE (sip_init_attach, 0x4000567c)
                0x000000004000544c                PROVIDE (sip_install_rx_ctrl_cb, 0x4000544c)
                0x000000004000545c                PROVIDE (sip_install_rx_data_cb, 0x4000545c)
                0x00000000400050fc                PROVIDE (sip_post, 0x400050fc)
                0x00000000400056c4                PROVIDE (sip_post_init, 0x400056c4)
                0x000000004000534c                PROVIDE (sip_reclaim_from_host_cmd, 0x4000534c)
                0x00000000400052c0                PROVIDE (sip_reclaim_tx_data_pkt, 0x400052c0)
                0x0000000040005808                PROVIDE (sip_send, 0x40005808)
                0x0000000040005864                PROVIDE (sip_to_host_chain_append, 0x40005864)
                0x0000000040005234                PROVIDE (sip_to_host_evt_send_done, 0x40005234)
                0x00000000400060ac                PROVIDE (slc_add_credits, 0x400060ac)
                0x0000000040005d90                PROVIDE (slc_enable, 0x40005d90)
                0x0000000040005f24                PROVIDE (slc_from_host_chain_fetch, 0x40005f24)
                0x0000000040005e94                PROVIDE (slc_from_host_chain_recycle, 0x40005e94)
                0x0000000040005c50                PROVIDE (slc_init_attach, 0x40005c50)
                0x000000004000608c                PROVIDE (slc_init_credit, 0x4000608c)
                0x0000000040006014                PROVIDE (slc_pause_from_host, 0x40006014)
                0x0000000040005c1c                PROVIDE (slc_reattach, 0x40005c1c)
                0x000000004000603c                PROVIDE (slc_resume_from_host, 0x4000603c)
                0x0000000040005dc0                PROVIDE (slc_select_tohost_gpio, 0x40005dc0)
                0x0000000040005db8                PROVIDE (slc_select_tohost_gpio_mode, 0x40005db8)
                0x0000000040005de4                PROVIDE (slc_send_to_host_chain, 0x40005de4)
                0x0000000040006068                PROVIDE (slc_set_host_io_max_window, 0x40006068)
                0x0000000040005f10                PROVIDE (slc_to_host_chain_recycle, 0x40005f10)
                0x000000004000264c                PROVIDE (software_reset, 0x4000264c)
                0x0000000040004644                PROVIDE (spi_flash_attach, 0x40004644)
                0x00000000400005f0                PROVIDE (srand, 0x400005f0)
                0x000000004000bdc8                PROVIDE (strcmp, 0x4000bdc8)
                0x000000004000bec8                PROVIDE (strcpy, 0x4000bec8)
                0x000000004000bf4c                PROVIDE (strlen, 0x4000bf4c)
                0x000000004000bfa8                PROVIDE (strncmp, 0x4000bfa8)
                0x000000004000c0a0                PROVIDE (strncpy, 0x4000c0a0)
                0x000000004000e1e0                PROVIDE (strstr, 0x4000e1e0)
                0x0000000040002c64                PROVIDE (timer_insert, 0x40002c64)
                0x000000004000383c                PROVIDE (uartAttach, 0x4000383c)
                0x0000000040003924                PROVIDE (uart_baudrate_detect, 0x40003924)
                0x00000000400038a4                PROVIDE (uart_buff_switch, 0x400038a4)
                0x00000000400039d8                PROVIDE (uart_div_modify, 0x400039d8)
                0x0000000040003bbc                PROVIDE (uart_rx_intr_handler, 0x40003bbc)
                0x0000000040003b8c                PROVIDE (uart_rx_one_char, 0x40003b8c)
                0x0000000040003b64                PROVIDE (uart_rx_one_char_block, 0x40003b64)
                0x0000000040003ec8                PROVIDE (uart_rx_readbuff, 0x40003ec8)
                0x0000000040003b30                PROVIDE (uart_tx_one_char, 0x40003b30)
                0x000000004000bc40                PROVIDE (wepkey_128, 0x4000bc40)
                0x000000004000bb3c                PROVIDE (wepkey_64, 0x4000bb3c)
                0x0000000040000688                PROVIDE (xthal_bcopy, 0x40000688)
                0x000000004000074c                PROVIDE (xthal_copy123, 0x4000074c)
                0x000000004000dd4c                PROVIDE (xthal_get_ccompare, 0x4000dd4c)
                0x000000004000dd38                PROVIDE (xthal_get_ccount, 0x4000dd38)
                0x000000004000dd58                PROVIDE (xthal_get_interrupt, 0x4000dd58)
                0x000000004000dd58                PROVIDE (xthal_get_intread, 0x4000dd58)
                0x00000000400006c4                PROVIDE (xthal_memcpy, 0x400006c4)
                0x000000004000dd40                PROVIDE (xthal_set_ccompare, 0x4000dd40)
                0x000000004000dd60                PROVIDE (xthal_set_intclear, 0x4000dd60)
                0x000000004000e320                PROVIDE (xthal_spill_registers_into_stack_nw, 0x4000e320)
                0x000000004000e324                PROVIDE (xthal_window_spill, 0x4000e324)
                0x000000004000e320                PROVIDE (xthal_window_spill_nw, 0x4000e320)
                0x000000003fffccf0                PROVIDE (Te0, 0x3fffccf0)
                0x000000003fffd100                PROVIDE (Td0, 0x3fffd100)
                0x000000003fffd500                PROVIDE (Td4s, 0x3fffd500)
                0x000000003fffd0f0                PROVIDE (rcons, 0x3fffd0f0)
                0x000000003fffde10                PROVIDE (UartDev, 0x3fffde10)
                0x000000003fffc714                PROVIDE (flashchip, 0x3fffc714)
OUTPUT(.output/eagle/release/image/eagle.app.v6.out elf32-xtensa-le)

.debug_frame    0x0000000000000000     0x2814
 .debug_frame   0x0000000000000000       0x38 driver/.output/eagle/release/lib/libdriver.a(cache.o)
 .debug_frame   0x0000000000000038       0x94 hal/.output/eagle/release/lib/libuserhal.a(user_main.o)
 .debug_frame   0x00000000000000cc      0x1b4 hal/.output/eagle/release/lib/libuserhal.a(client.o)
 .debug_frame   0x0000000000000280       0x78 hal/.output/eagle/release/lib/libuserhal.a(foregroundTask.o)
 .debug_frame   0x00000000000002f8      0x110 driver/.output/eagle/release/lib/libdriver.a(crash.o)
 .debug_frame   0x0000000000000408       0x88 driver/.output/eagle/release/lib/libdriver.a(factoryData.o)
 .debug_frame   0x0000000000000490      0x184 driver/.output/eagle/release/lib/libdriver.a(i2spi.o)
 .debug_frame   0x0000000000000614      0x1f4 driver/.output/eagle/release/lib/libdriver.a(uart.o)
 .debug_frame   0x0000000000000808      0x2a4 transport/.output/eagle/release/lib/libtransport.a(reliableTransport.o)
 .debug_frame   0x0000000000000aac       0x50 transport/.output/eagle/release/lib/libtransport.a(reliableMessageTypes.o)
 .debug_frame   0x0000000000000afc       0x40 transport/.output/eagle/release/lib/libtransport.a(reliableSequenceId.o)
 .debug_frame   0x0000000000000b3c       0xa8 application/.output/eagle/release/lib/libapplication.a(backgroundTask.o)
 .debug_frame   0x0000000000000be4       0xb0 application/.output/eagle/release/lib/libapplication.a(crashReporter.o)
 .debug_frame   0x0000000000000c94       0x80 application/.output/eagle/release/lib/libapplication.a(dhTask.o)
 .debug_frame   0x0000000000000d14      0x328 application/.output/eagle/release/lib/libapplication.a(face.o)
 .debug_frame   0x000000000000103c      0x17c application/.output/eagle/release/lib/libapplication.a(messages.o)
 .debug_frame   0x00000000000011b8      0x2b0 application/.output/eagle/release/lib/libapplication.a(nvStorage.o)
 .debug_frame   0x0000000000001468       0x90 application/.output/eagle/release/lib/libapplication.a(rtip.o)
 .debug_frame   0x00000000000014f8      0x154 application/.output/eagle/release/lib/libapplication.a(upgradeController.o)
 .debug_frame   0x000000000000164c       0xc4 application/.output/eagle/release/lib/libapplication.a(activeObjectManager.o)
 .debug_frame   0x0000000000001710      0x14c factory/.output/eagle/release/lib/libfactory.a(factoryTests.o)
 .debug_frame   0x000000000000185c      0x294 supervisor/.output/eagle/release/lib/libsupervisor.a(animationController.o)
 .debug_frame   0x0000000000001af0       0xdc crypto/.output/eagle/release/lib/libusercrypto.a(sha512.o)
 .debug_frame   0x0000000000001bcc      0x40c crypto/.output/eagle/release/lib/libusercrypto.a(bignum.o)
 .debug_frame   0x0000000000001fd8      0x138 crypto/.output/eagle/release/lib/libusercrypto.a(rsa_pss.o)
 .debug_frame   0x0000000000002110       0x20 crypto/.output/eagle/release/lib/libusercrypto.a(crc32.o)
 .debug_frame   0x0000000000002130      0x168 crypto/.output/eagle/release/lib/libusercrypto.a(aes.o)
 .debug_frame   0x0000000000002298       0x50 /opt/xtensa-lx106-elf/bin/../lib/gcc/xtensa-lx106-elf/4.8.2/../../../../xtensa-lx106-elf/lib/libc.a(lib_a-atoi.o)
 .debug_frame   0x00000000000022e8       0x5c /opt/xtensa-lx106-elf/bin/../lib/gcc/xtensa-lx106-elf/4.8.2/../../../../xtensa-lx106-elf/lib/libc.a(lib_a-strtol.o)
 .debug_frame   0x0000000000002344       0x98 hal/.output/eagle/release/lib/libuserhal.a(radio.o)
 .debug_frame   0x00000000000023dc      0x128 hal/.output/eagle/release/lib/libuserhal.a(wifi_configuration.o)
 .debug_frame   0x0000000000002504       0xf0 clad/.output/eagle/release/lib/libclad.a(messageEngineToRobot.o)
 .debug_frame   0x00000000000025f4       0xa0 clad/.output/eagle/release/lib/libclad.a(messageRobotToEngine.o)
 .debug_frame   0x0000000000002694       0x30 clad/.output/eagle/release/lib/libclad.a(otaMessages.o)
 .debug_frame   0x00000000000026c4       0x30 clad/.output/eagle/release/lib/libclad.a(animationKeyFrames.o)
 .debug_frame   0x00000000000026f4       0x30 clad/.output/eagle/release/lib/libclad.a(imageTypes.o)
 .debug_frame   0x0000000000002724       0x70 clad/.output/eagle/release/lib/libclad.a(nvStorage.o)
 .debug_frame   0x0000000000002794       0x80 clad/.output/eagle/release/lib/libclad.a(robotLogging.o)

.debug_info     0x0000000000000000    0x41514
 .debug_info    0x0000000000000000      0x183 driver/.output/eagle/release/lib/libdriver.a(cache.o)
 .debug_info    0x0000000000000183      0xbcf hal/.output/eagle/release/lib/libuserhal.a(user_main.o)
 .debug_info    0x0000000000000d52      0xf43 hal/.output/eagle/release/lib/libuserhal.a(client.o)
 .debug_info    0x0000000000001c95      0x418 hal/.output/eagle/release/lib/libuserhal.a(foregroundTask.o)
 .debug_info    0x00000000000020ad      0xabb driver/.output/eagle/release/lib/libdriver.a(crash.o)
 .debug_info    0x0000000000002b68      0x2d8 driver/.output/eagle/release/lib/libdriver.a(factoryData.o)
 .debug_info    0x0000000000002e40     0x1623 driver/.output/eagle/release/lib/libdriver.a(i2spi.o)
 .debug_info    0x0000000000004463      0xe13 driver/.output/eagle/release/lib/libdriver.a(uart.o)
 .debug_info    0x0000000000005276     0x1366 transport/.output/eagle/release/lib/libtransport.a(reliableTransport.o)
 .debug_info    0x00000000000065dc      0x196 transport/.output/eagle/release/lib/libtransport.a(reliableMessageTypes.o)
 .debug_info    0x0000000000006772      0x169 transport/.output/eagle/release/lib/libtransport.a(reliableSequenceId.o)
 .debug_info    0x00000000000068db     0x14a3 application/.output/eagle/release/lib/libapplication.a(backgroundTask.o)
 .debug_info    0x0000000000007d7e      0xe90 application/.output/eagle/release/lib/libapplication.a(crashReporter.o)
 .debug_info    0x0000000000008c0e      0xb04 application/.output/eagle/release/lib/libapplication.a(dhTask.o)
 .debug_info    0x0000000000009712     0x2712 application/.output/eagle/release/lib/libapplication.a(face.o)
 .debug_info    0x000000000000be24     0x7432 application/.output/eagle/release/lib/libapplication.a(messages.o)
 .debug_info    0x0000000000013256     0x2554 application/.output/eagle/release/lib/libapplication.a(nvStorage.o)
 .debug_info    0x00000000000157aa     0x5c97 application/.output/eagle/release/lib/libapplication.a(rtip.o)
 .debug_info    0x000000000001b441     0x28ae application/.output/eagle/release/lib/libapplication.a(upgradeController.o)
 .debug_info    0x000000000001dcef      0x57f application/.output/eagle/release/lib/libapplication.a(activeObjectManager.o)
 .debug_info    0x000000000001e26e     0x6b72 factory/.output/eagle/release/lib/libfactory.a(factoryTests.o)
 .debug_info    0x0000000000024de0     0x75c9 supervisor/.output/eagle/release/lib/libsupervisor.a(animationController.o)
 .debug_info    0x000000000002c3a9      0x938 crypto/.output/eagle/release/lib/libusercrypto.a(sha512.o)
 .debug_info    0x000000000002cce1     0x2129 crypto/.output/eagle/release/lib/libusercrypto.a(bignum.o)
 .debug_info    0x000000000002ee0a      0xcae crypto/.output/eagle/release/lib/libusercrypto.a(rsa_pss.o)
 .debug_info    0x000000000002fab8       0xfc crypto/.output/eagle/release/lib/libusercrypto.a(crc32.o)
 .debug_info    0x000000000002fbb4      0xbbd crypto/.output/eagle/release/lib/libusercrypto.a(aes.o)
 .debug_info    0x0000000000030771      0x93d /opt/xtensa-lx106-elf/bin/../lib/gcc/xtensa-lx106-elf/4.8.2/../../../../xtensa-lx106-elf/lib/libc.a(lib_a-atoi.o)
 .debug_info    0x00000000000310ae      0x11b /opt/xtensa-lx106-elf/bin/../lib/gcc/xtensa-lx106-elf/4.8.2/../../../../xtensa-lx106-elf/lib/libc.a(lib_a-memcpy.o)
 .debug_info    0x00000000000311c9      0x11b /opt/xtensa-lx106-elf/bin/../lib/gcc/xtensa-lx106-elf/4.8.2/../../../../xtensa-lx106-elf/lib/libc.a(lib_a-memset.o)
 .debug_info    0x00000000000312e4      0x9a5 /opt/xtensa-lx106-elf/bin/../lib/gcc/xtensa-lx106-elf/4.8.2/../../../../xtensa-lx106-elf/lib/libc.a(lib_a-strtol.o)
 .debug_info    0x0000000000031c89       0x6b /opt/xtensa-lx106-elf/bin/../lib/gcc/xtensa-lx106-elf/4.8.2/../../../../xtensa-lx106-elf/lib/libc.a(lib_a-ctype_.o)
 .debug_info    0x0000000000031cf4      0x890 /opt/xtensa-lx106-elf/bin/../lib/gcc/xtensa-lx106-elf/4.8.2/../../../../xtensa-lx106-elf/lib/libc.a(lib_a-impure.o)
 .debug_info    0x0000000000032584       0xf3 ../lib/libgcc.a(_modsi3.o)
 .debug_info    0x0000000000032677       0xf3 ../lib/libgcc.a(_ashldi3.o)
 .debug_info    0x000000000003276a       0xf3 ../lib/libgcc.a(_ashrdi3.o)
 .debug_info    0x000000000003285d       0xf4 ../lib/libgcc.a(_mulsf3.o)
 .debug_info    0x0000000000032951       0xf4 ../lib/libgcc.a(_divsf3.o)
 .debug_info    0x0000000000032a45       0xf4 ../lib/libgcc.a(_fixsfsi.o)
 .debug_info    0x0000000000032b39      0xe47 hal/.output/eagle/release/lib/libuserhal.a(radio.o)
 .debug_info    0x0000000000033980     0x20c5 hal/.output/eagle/release/lib/libuserhal.a(wifi_configuration.o)
 .debug_info    0x0000000000035a45     0x6eb0 clad/.output/eagle/release/lib/libclad.a(messageEngineToRobot.o)
 .debug_info    0x000000000003c8f5     0x3a71 clad/.output/eagle/release/lib/libclad.a(messageRobotToEngine.o)
 .debug_info    0x0000000000040366      0x21d clad/.output/eagle/release/lib/libclad.a(otaMessages.o)
 .debug_info    0x0000000000040583      0x1ff clad/.output/eagle/release/lib/libclad.a(animationKeyFrames.o)
 .debug_info    0x0000000000040782      0x277 clad/.output/eagle/release/lib/libclad.a(imageTypes.o)
 .debug_info    0x00000000000409f9      0x52d clad/.output/eagle/release/lib/libclad.a(nvStorage.o)
 .debug_info    0x0000000000040f26      0x5ee clad/.output/eagle/release/lib/libclad.a(robotLogging.o)

.debug_abbrev   0x0000000000000000     0x706c
 .debug_abbrev  0x0000000000000000       0xcc driver/.output/eagle/release/lib/libdriver.a(cache.o)
 .debug_abbrev  0x00000000000000cc      0x27f hal/.output/eagle/release/lib/libuserhal.a(user_main.o)
 .debug_abbrev  0x000000000000034b      0x2dc hal/.output/eagle/release/lib/libuserhal.a(client.o)
 .debug_abbrev  0x0000000000000627      0x1b6 hal/.output/eagle/release/lib/libuserhal.a(foregroundTask.o)
 .debug_abbrev  0x00000000000007dd      0x2ae driver/.output/eagle/release/lib/libdriver.a(crash.o)
 .debug_abbrev  0x0000000000000a8b      0x1a5 driver/.output/eagle/release/lib/libdriver.a(factoryData.o)
 .debug_abbrev  0x0000000000000c30      0x391 driver/.output/eagle/release/lib/libdriver.a(i2spi.o)
 .debug_abbrev  0x0000000000000fc1      0x32d driver/.output/eagle/release/lib/libdriver.a(uart.o)
 .debug_abbrev  0x00000000000012ee      0x3a6 transport/.output/eagle/release/lib/libtransport.a(reliableTransport.o)
 .debug_abbrev  0x0000000000001694       0xa2 transport/.output/eagle/release/lib/libtransport.a(reliableMessageTypes.o)
 .debug_abbrev  0x0000000000001736       0xb4 transport/.output/eagle/release/lib/libtransport.a(reliableSequenceId.o)
 .debug_abbrev  0x00000000000017ea      0x428 application/.output/eagle/release/lib/libapplication.a(backgroundTask.o)
 .debug_abbrev  0x0000000000001c12      0x37a application/.output/eagle/release/lib/libapplication.a(crashReporter.o)
 .debug_abbrev  0x0000000000001f8c      0x3a2 application/.output/eagle/release/lib/libapplication.a(dhTask.o)
 .debug_abbrev  0x000000000000232e      0x490 application/.output/eagle/release/lib/libapplication.a(face.o)
 .debug_abbrev  0x00000000000027be      0x549 application/.output/eagle/release/lib/libapplication.a(messages.o)
 .debug_abbrev  0x0000000000002d07      0x4e1 application/.output/eagle/release/lib/libapplication.a(nvStorage.o)
 .debug_abbrev  0x00000000000031e8      0x3e4 application/.output/eagle/release/lib/libapplication.a(rtip.o)
 .debug_abbrev  0x00000000000035cc      0x514 application/.output/eagle/release/lib/libapplication.a(upgradeController.o)
 .debug_abbrev  0x0000000000003ae0      0x2e2 application/.output/eagle/release/lib/libapplication.a(activeObjectManager.o)
 .debug_abbrev  0x0000000000003dc2      0x592 factory/.output/eagle/release/lib/libfactory.a(factoryTests.o)
 .debug_abbrev  0x0000000000004354      0x680 supervisor/.output/eagle/release/lib/libsupervisor.a(animationController.o)
 .debug_abbrev  0x00000000000049d4      0x20e crypto/.output/eagle/release/lib/libusercrypto.a(sha512.o)
 .debug_abbrev  0x0000000000004be2      0x3cc crypto/.output/eagle/release/lib/libusercrypto.a(bignum.o)
 .debug_abbrev  0x0000000000004fae      0x236 crypto/.output/eagle/release/lib/libusercrypto.a(rsa_pss.o)
 .debug_abbrev  0x00000000000051e4       0xaf crypto/.output/eagle/release/lib/libusercrypto.a(crc32.o)
 .debug_abbrev  0x0000000000005293      0x2fd crypto/.output/eagle/release/lib/libusercrypto.a(aes.o)
 .debug_abbrev  0x0000000000005590      0x1cc /opt/xtensa-lx106-elf/bin/../lib/gcc/xtensa-lx106-elf/4.8.2/../../../../xtensa-lx106-elf/lib/libc.a(lib_a-atoi.o)
 .debug_abbrev  0x000000000000575c       0x14 /opt/xtensa-lx106-elf/bin/../lib/gcc/xtensa-lx106-elf/4.8.2/../../../../xtensa-lx106-elf/lib/libc.a(lib_a-memcpy.o)
 .debug_abbrev  0x0000000000005770       0x14 /opt/xtensa-lx106-elf/bin/../lib/gcc/xtensa-lx106-elf/4.8.2/../../../../xtensa-lx106-elf/lib/libc.a(lib_a-memset.o)
 .debug_abbrev  0x0000000000005784      0x20f /opt/xtensa-lx106-elf/bin/../lib/gcc/xtensa-lx106-elf/4.8.2/../../../../xtensa-lx106-elf/lib/libc.a(lib_a-strtol.o)
 .debug_abbrev  0x0000000000005993       0x4c /opt/xtensa-lx106-elf/bin/../lib/gcc/xtensa-lx106-elf/4.8.2/../../../../xtensa-lx106-elf/lib/libc.a(lib_a-ctype_.o)
 .debug_abbrev  0x00000000000059df      0x17e /opt/xtensa-lx106-elf/bin/../lib/gcc/xtensa-lx106-elf/4.8.2/../../../../xtensa-lx106-elf/lib/libc.a(lib_a-impure.o)
 .debug_abbrev  0x0000000000005b5d       0x14 ../lib/libgcc.a(_modsi3.o)
 .debug_abbrev  0x0000000000005b71       0x14 ../lib/libgcc.a(_ashldi3.o)
 .debug_abbrev  0x0000000000005b85       0x14 ../lib/libgcc.a(_ashrdi3.o)
 .debug_abbrev  0x0000000000005b99       0x14 ../lib/libgcc.a(_mulsf3.o)
 .debug_abbrev  0x0000000000005bad       0x14 ../lib/libgcc.a(_divsf3.o)
 .debug_abbrev  0x0000000000005bc1       0x14 ../lib/libgcc.a(_fixsfsi.o)
 .debug_abbrev  0x0000000000005bd5      0x34f hal/.output/eagle/release/lib/libuserhal.a(radio.o)
 .debug_abbrev  0x0000000000005f24      0x468 hal/.output/eagle/release/lib/libuserhal.a(wifi_configuration.o)
 .debug_abbrev  0x000000000000638c      0x301 clad/.output/eagle/release/lib/libclad.a(messageEngineToRobot.o)
 .debug_abbrev  0x000000000000668d      0x308 clad/.output/eagle/release/lib/libclad.a(messageRobotToEngine.o)
 .debug_abbrev  0x0000000000006995      0x148 clad/.output/eagle/release/lib/libclad.a(otaMessages.o)
 .debug_abbrev  0x0000000000006add      0x13d clad/.output/eagle/release/lib/libclad.a(animationKeyFrames.o)
 .debug_abbrev  0x0000000000006c1a      0x13d clad/.output/eagle/release/lib/libclad.a(imageTypes.o)
 .debug_abbrev  0x0000000000006d57      0x1ba clad/.output/eagle/release/lib/libclad.a(nvStorage.o)
 .debug_abbrev  0x0000000000006f11      0x15b clad/.output/eagle/release/lib/libclad.a(robotLogging.o)

.debug_aranges  0x0000000000000000      0xea0
 .debug_aranges
                0x0000000000000000       0x20 driver/.output/eagle/release/lib/libdriver.a(cache.o)
 .debug_aranges
                0x0000000000000020       0x38 hal/.output/eagle/release/lib/libuserhal.a(user_main.o)
 .debug_aranges
                0x0000000000000058       0x78 hal/.output/eagle/release/lib/libuserhal.a(client.o)
 .debug_aranges
                0x00000000000000d0       0x30 hal/.output/eagle/release/lib/libuserhal.a(foregroundTask.o)
 .debug_aranges
                0x0000000000000100       0x50 driver/.output/eagle/release/lib/libdriver.a(crash.o)
 .debug_aranges
                0x0000000000000150       0x40 driver/.output/eagle/release/lib/libdriver.a(factoryData.o)
 .debug_aranges
                0x0000000000000190       0x80 driver/.output/eagle/release/lib/libdriver.a(i2spi.o)
 .debug_aranges
                0x0000000000000210       0xd0 driver/.output/eagle/release/lib/libdriver.a(uart.o)
 .debug_aranges
                0x00000000000002e0       0xb0 transport/.output/eagle/release/lib/libtransport.a(reliableTransport.o)
 .debug_aranges
                0x0000000000000390       0x38 transport/.output/eagle/release/lib/libtransport.a(reliableMessageTypes.o)
 .debug_aranges
                0x00000000000003c8       0x30 transport/.output/eagle/release/lib/libtransport.a(reliableSequenceId.o)
 .debug_aranges
                0x00000000000003f8       0x38 application/.output/eagle/release/lib/libapplication.a(backgroundTask.o)
 .debug_aranges
                0x0000000000000430       0x48 application/.output/eagle/release/lib/libapplication.a(crashReporter.o)
 .debug_aranges
                0x0000000000000478       0x30 application/.output/eagle/release/lib/libapplication.a(dhTask.o)
 .debug_aranges
                0x00000000000004a8       0xd8 application/.output/eagle/release/lib/libapplication.a(face.o)
 .debug_aranges
                0x0000000000000580       0x70 application/.output/eagle/release/lib/libapplication.a(messages.o)
 .debug_aranges
                0x00000000000005f0       0xa8 application/.output/eagle/release/lib/libapplication.a(nvStorage.o)
 .debug_aranges
                0x0000000000000698       0x38 application/.output/eagle/release/lib/libapplication.a(rtip.o)
 .debug_aranges
                0x00000000000006d0       0x68 application/.output/eagle/release/lib/libapplication.a(upgradeController.o)
 .debug_aranges
                0x0000000000000738       0x40 application/.output/eagle/release/lib/libapplication.a(activeObjectManager.o)
 .debug_aranges
                0x0000000000000778       0x70 factory/.output/eagle/release/lib/libfactory.a(factoryTests.o)
 .debug_aranges
                0x00000000000007e8       0xd8 supervisor/.output/eagle/release/lib/libsupervisor.a(animationController.o)
 .debug_aranges
                0x00000000000008c0       0x48 crypto/.output/eagle/release/lib/libusercrypto.a(sha512.o)
 .debug_aranges
                0x0000000000000908      0x108 crypto/.output/eagle/release/lib/libusercrypto.a(bignum.o)
 .debug_aranges
                0x0000000000000a10       0x50 crypto/.output/eagle/release/lib/libusercrypto.a(rsa_pss.o)
 .debug_aranges
                0x0000000000000a60       0x20 crypto/.output/eagle/release/lib/libusercrypto.a(crc32.o)
 .debug_aranges
                0x0000000000000a80       0x78 crypto/.output/eagle/release/lib/libusercrypto.a(aes.o)
 .debug_aranges
                0x0000000000000af8       0x20 /opt/xtensa-lx106-elf/bin/../lib/gcc/xtensa-lx106-elf/4.8.2/../../../../xtensa-lx106-elf/lib/libc.a(lib_a-atoi.o)
 .debug_aranges
                0x0000000000000b18       0x20 /opt/xtensa-lx106-elf/bin/../lib/gcc/xtensa-lx106-elf/4.8.2/../../../../xtensa-lx106-elf/lib/libc.a(lib_a-memcpy.o)
 .debug_aranges
                0x0000000000000b38       0x20 /opt/xtensa-lx106-elf/bin/../lib/gcc/xtensa-lx106-elf/4.8.2/../../../../xtensa-lx106-elf/lib/libc.a(lib_a-memset.o)
 .debug_aranges
                0x0000000000000b58       0x20 /opt/xtensa-lx106-elf/bin/../lib/gcc/xtensa-lx106-elf/4.8.2/../../../../xtensa-lx106-elf/lib/libc.a(lib_a-strtol.o)
 .debug_aranges
                0x0000000000000b78       0x18 /opt/xtensa-lx106-elf/bin/../lib/gcc/xtensa-lx106-elf/4.8.2/../../../../xtensa-lx106-elf/lib/libc.a(lib_a-ctype_.o)
 .debug_aranges
                0x0000000000000b90       0x18 /opt/xtensa-lx106-elf/bin/../lib/gcc/xtensa-lx106-elf/4.8.2/../../../../xtensa-lx106-elf/lib/libc.a(lib_a-impure.o)
 .debug_aranges
                0x0000000000000ba8       0x20 ../lib/libgcc.a(_modsi3.o)
 .debug_aranges
                0x0000000000000bc8       0x20 ../lib/libgcc.a(_ashldi3.o)
 .debug_aranges
                0x0000000000000be8       0x20 ../lib/libgcc.a(_ashrdi3.o)
 .debug_aranges
                0x0000000000000c08       0x20 ../lib/libgcc.a(_mulsf3.o)
 .debug_aranges
                0x0000000000000c28       0x20 ../lib/libgcc.a(_divsf3.o)
 .debug_aranges
                0x0000000000000c48       0x20 ../lib/libgcc.a(_fixsfsi.o)
 .debug_aranges
                0x0000000000000c68       0x30 hal/.output/eagle/release/lib/libuserhal.a(radio.o)
 .debug_aranges
                0x0000000000000c98       0x50 hal/.output/eagle/release/lib/libuserhal.a(wifi_configuration.o)
 .debug_aranges
                0x0000000000000ce8       0x68 clad/.output/eagle/release/lib/libclad.a(messageEngineToRobot.o)
 .debug_aranges
                0x0000000000000d50       0x40 clad/.output/eagle/release/lib/libclad.a(messageRobotToEngine.o)
 .debug_aranges
                0x0000000000000d90       0x28 clad/.output/eagle/release/lib/libclad.a(otaMessages.o)
 .debug_aranges
                0x0000000000000db8       0x28 clad/.output/eagle/release/lib/libclad.a(animationKeyFrames.o)
 .debug_aranges
                0x0000000000000de0       0x28 clad/.output/eagle/release/lib/libclad.a(imageTypes.o)
 .debug_aranges
                0x0000000000000e08       0x48 clad/.output/eagle/release/lib/libclad.a(nvStorage.o)
 .debug_aranges
                0x0000000000000e50       0x50 clad/.output/eagle/release/lib/libclad.a(robotLogging.o)

.debug_ranges   0x0000000000000000     0x20d8
 .debug_ranges  0x0000000000000000       0x10 driver/.output/eagle/release/lib/libdriver.a(cache.o)
 .debug_ranges  0x0000000000000010       0x28 hal/.output/eagle/release/lib/libuserhal.a(user_main.o)
 .debug_ranges  0x0000000000000038       0x98 hal/.output/eagle/release/lib/libuserhal.a(client.o)
 .debug_ranges  0x00000000000000d0       0x20 hal/.output/eagle/release/lib/libuserhal.a(foregroundTask.o)
 .debug_ranges  0x00000000000000f0       0x88 driver/.output/eagle/release/lib/libdriver.a(crash.o)
 .debug_ranges  0x0000000000000178       0x30 driver/.output/eagle/release/lib/libdriver.a(factoryData.o)
 .debug_ranges  0x00000000000001a8      0x1f8 driver/.output/eagle/release/lib/libdriver.a(i2spi.o)
 .debug_ranges  0x00000000000003a0      0x148 driver/.output/eagle/release/lib/libdriver.a(uart.o)
 .debug_ranges  0x00000000000004e8      0x170 transport/.output/eagle/release/lib/libtransport.a(reliableTransport.o)
 .debug_ranges  0x0000000000000658       0x28 transport/.output/eagle/release/lib/libtransport.a(reliableMessageTypes.o)
 .debug_ranges  0x0000000000000680       0x20 transport/.output/eagle/release/lib/libtransport.a(reliableSequenceId.o)
 .debug_ranges  0x00000000000006a0       0x70 application/.output/eagle/release/lib/libapplication.a(backgroundTask.o)
 .debug_ranges  0x0000000000000710       0x38 application/.output/eagle/release/lib/libapplication.a(crashReporter.o)
 .debug_ranges  0x0000000000000748       0x70 application/.output/eagle/release/lib/libapplication.a(dhTask.o)
 .debug_ranges  0x00000000000007b8      0x340 application/.output/eagle/release/lib/libapplication.a(face.o)
 .debug_ranges  0x0000000000000af8      0x160 application/.output/eagle/release/lib/libapplication.a(messages.o)
 .debug_ranges  0x0000000000000c58      0x248 application/.output/eagle/release/lib/libapplication.a(nvStorage.o)
 .debug_ranges  0x0000000000000ea0       0x88 application/.output/eagle/release/lib/libapplication.a(rtip.o)
 .debug_ranges  0x0000000000000f28      0x160 application/.output/eagle/release/lib/libapplication.a(upgradeController.o)
 .debug_ranges  0x0000000000001088       0xc0 application/.output/eagle/release/lib/libapplication.a(activeObjectManager.o)
 .debug_ranges  0x0000000000001148      0x118 factory/.output/eagle/release/lib/libfactory.a(factoryTests.o)
 .debug_ranges  0x0000000000001260      0x1d0 supervisor/.output/eagle/release/lib/libsupervisor.a(animationController.o)
 .debug_ranges  0x0000000000001430      0x2e8 crypto/.output/eagle/release/lib/libusercrypto.a(sha512.o)
 .debug_ranges  0x0000000000001718      0x3b8 crypto/.output/eagle/release/lib/libusercrypto.a(bignum.o)
 .debug_ranges  0x0000000000001ad0      0x160 crypto/.output/eagle/release/lib/libusercrypto.a(rsa_pss.o)
 .debug_ranges  0x0000000000001c30       0x28 crypto/.output/eagle/release/lib/libusercrypto.a(crc32.o)
 .debug_ranges  0x0000000000001c58      0x178 crypto/.output/eagle/release/lib/libusercrypto.a(aes.o)
 .debug_ranges  0x0000000000001dd0       0x78 hal/.output/eagle/release/lib/libuserhal.a(radio.o)
 .debug_ranges  0x0000000000001e48      0x130 hal/.output/eagle/release/lib/libuserhal.a(wifi_configuration.o)
 .debug_ranges  0x0000000000001f78       0x58 clad/.output/eagle/release/lib/libclad.a(messageEngineToRobot.o)
 .debug_ranges  0x0000000000001fd0       0x48 clad/.output/eagle/release/lib/libclad.a(messageRobotToEngine.o)
 .debug_ranges  0x0000000000002018       0x18 clad/.output/eagle/release/lib/libclad.a(otaMessages.o)
 .debug_ranges  0x0000000000002030       0x18 clad/.output/eagle/release/lib/libclad.a(animationKeyFrames.o)
 .debug_ranges  0x0000000000002048       0x18 clad/.output/eagle/release/lib/libclad.a(imageTypes.o)
 .debug_ranges  0x0000000000002060       0x38 clad/.output/eagle/release/lib/libclad.a(nvStorage.o)
 .debug_ranges  0x0000000000002098       0x40 clad/.output/eagle/release/lib/libclad.a(robotLogging.o)

.debug_line     0x0000000000000000     0xf154
 .debug_line    0x0000000000000000       0xf4 driver/.output/eagle/release/lib/libdriver.a(cache.o)
 .debug_line    0x00000000000000f4      0x37d hal/.output/eagle/release/lib/libuserhal.a(user_main.o)
 .debug_line    0x0000000000000471      0x54a hal/.output/eagle/release/lib/libuserhal.a(client.o)
 .debug_line    0x00000000000009bb      0x198 hal/.output/eagle/release/lib/libuserhal.a(foregroundTask.o)
 .debug_line    0x0000000000000b53      0x539 driver/.output/eagle/release/lib/libdriver.a(crash.o)
 .debug_line    0x000000000000108c      0x167 driver/.output/eagle/release/lib/libdriver.a(factoryData.o)
 .debug_line    0x00000000000011f3      0xfea driver/.output/eagle/release/lib/libdriver.a(i2spi.o)
 .debug_line    0x00000000000021dd      0x5fd driver/.output/eagle/release/lib/libdriver.a(uart.o)
 .debug_line    0x00000000000027da      0xad6 transport/.output/eagle/release/lib/libtransport.a(reliableTransport.o)
 .debug_line    0x00000000000032b0      0x19c transport/.output/eagle/release/lib/libtransport.a(reliableMessageTypes.o)
 .debug_line    0x000000000000344c      0x191 transport/.output/eagle/release/lib/libtransport.a(reliableSequenceId.o)
 .debug_line    0x00000000000035dd      0x77b application/.output/eagle/release/lib/libapplication.a(backgroundTask.o)
 .debug_line    0x0000000000003d58      0x5de application/.output/eagle/release/lib/libapplication.a(crashReporter.o)
 .debug_line    0x0000000000004336      0x3d4 application/.output/eagle/release/lib/libapplication.a(dhTask.o)
 .debug_line    0x000000000000470a      0xbcd application/.output/eagle/release/lib/libapplication.a(face.o)
 .debug_line    0x00000000000052d7      0xaaa application/.output/eagle/release/lib/libapplication.a(messages.o)
 .debug_line    0x0000000000005d81     0x1366 application/.output/eagle/release/lib/libapplication.a(nvStorage.o)
 .debug_line    0x00000000000070e7      0x4f4 application/.output/eagle/release/lib/libapplication.a(rtip.o)
 .debug_line    0x00000000000075db      0xe58 application/.output/eagle/release/lib/libapplication.a(upgradeController.o)
 .debug_line    0x0000000000008433      0x3a3 application/.output/eagle/release/lib/libapplication.a(activeObjectManager.o)
 .debug_line    0x00000000000087d6      0x8a2 factory/.output/eagle/release/lib/libfactory.a(factoryTests.o)
 .debug_line    0x0000000000009078      0xd63 supervisor/.output/eagle/release/lib/libsupervisor.a(animationController.o)
 .debug_line    0x0000000000009ddb      0x618 crypto/.output/eagle/release/lib/libusercrypto.a(sha512.o)
 .debug_line    0x000000000000a3f3      0xfcd crypto/.output/eagle/release/lib/libusercrypto.a(bignum.o)
 .debug_line    0x000000000000b3c0      0x40a crypto/.output/eagle/release/lib/libusercrypto.a(rsa_pss.o)
 .debug_line    0x000000000000b7ca       0xba crypto/.output/eagle/release/lib/libusercrypto.a(crc32.o)
 .debug_line    0x000000000000b884      0x725 crypto/.output/eagle/release/lib/libusercrypto.a(aes.o)
 .debug_line    0x000000000000bfa9      0x240 /opt/xtensa-lx106-elf/bin/../lib/gcc/xtensa-lx106-elf/4.8.2/../../../../xtensa-lx106-elf/lib/libc.a(lib_a-atoi.o)
 .debug_line    0x000000000000c1e9      0x38d /opt/xtensa-lx106-elf/bin/../lib/gcc/xtensa-lx106-elf/4.8.2/../../../../xtensa-lx106-elf/lib/libc.a(lib_a-memcpy.o)
 .debug_line    0x000000000000c576      0x1b2 /opt/xtensa-lx106-elf/bin/../lib/gcc/xtensa-lx106-elf/4.8.2/../../../../xtensa-lx106-elf/lib/libc.a(lib_a-memset.o)
 .debug_line    0x000000000000c728      0x3db /opt/xtensa-lx106-elf/bin/../lib/gcc/xtensa-lx106-elf/4.8.2/../../../../xtensa-lx106-elf/lib/libc.a(lib_a-strtol.o)
 .debug_line    0x000000000000cb03       0x86 /opt/xtensa-lx106-elf/bin/../lib/gcc/xtensa-lx106-elf/4.8.2/../../../../xtensa-lx106-elf/lib/libc.a(lib_a-ctype_.o)
 .debug_line    0x000000000000cb89      0x190 /opt/xtensa-lx106-elf/bin/../lib/gcc/xtensa-lx106-elf/4.8.2/../../../../xtensa-lx106-elf/lib/libc.a(lib_a-impure.o)
 .debug_line    0x000000000000cd19      0x11a ../lib/libgcc.a(_modsi3.o)
 .debug_line    0x000000000000ce33       0xba ../lib/libgcc.a(_ashldi3.o)
 .debug_line    0x000000000000ceed       0xba ../lib/libgcc.a(_ashrdi3.o)
 .debug_line    0x000000000000cfa7      0x37f ../lib/libgcc.a(_mulsf3.o)
 .debug_line    0x000000000000d326      0x319 ../lib/libgcc.a(_divsf3.o)
 .debug_line    0x000000000000d63f      0x115 ../lib/libgcc.a(_fixsfsi.o)
 .debug_line    0x000000000000d754      0x425 hal/.output/eagle/release/lib/libuserhal.a(radio.o)
 .debug_line    0x000000000000db79      0x707 hal/.output/eagle/release/lib/libuserhal.a(wifi_configuration.o)
 .debug_line    0x000000000000e280      0x543 clad/.output/eagle/release/lib/libclad.a(messageEngineToRobot.o)
 .debug_line    0x000000000000e7c3      0x410 clad/.output/eagle/release/lib/libclad.a(messageRobotToEngine.o)
 .debug_line    0x000000000000ebd3       0xe8 clad/.output/eagle/release/lib/libclad.a(otaMessages.o)
 .debug_line    0x000000000000ecbb      0x101 clad/.output/eagle/release/lib/libclad.a(animationKeyFrames.o)
 .debug_line    0x000000000000edbc       0xdd clad/.output/eagle/release/lib/libclad.a(imageTypes.o)
 .debug_line    0x000000000000ee99      0x159 clad/.output/eagle/release/lib/libclad.a(nvStorage.o)
 .debug_line    0x000000000000eff2      0x162 clad/.output/eagle/release/lib/libclad.a(robotLogging.o)

.debug_str      0x0000000000000000    0x11151
 .debug_str     0x0000000000000000      0x1d8 driver/.output/eagle/release/lib/libdriver.a(cache.o)
                                        0x1f1 (size before relaxing)
 .debug_str     0x00000000000001d8      0x5c4 hal/.output/eagle/release/lib/libuserhal.a(user_main.o)
                                        0x6b4 (size before relaxing)
 .debug_str     0x000000000000079c      0x726 hal/.output/eagle/release/lib/libuserhal.a(client.o)
                                        0x95f (size before relaxing)
 .debug_str     0x0000000000000ec2      0x14d hal/.output/eagle/release/lib/libuserhal.a(foregroundTask.o)
                                        0x2dd (size before relaxing)
 .debug_str     0x000000000000100f      0x30a driver/.output/eagle/release/lib/libdriver.a(crash.o)
                                        0x534 (size before relaxing)
 .debug_str     0x0000000000001319       0x4b driver/.output/eagle/release/lib/libdriver.a(factoryData.o)
                                        0x350 (size before relaxing)
 .debug_str     0x0000000000001364      0x6fb driver/.output/eagle/release/lib/libdriver.a(i2spi.o)
                                        0xa0a (size before relaxing)
 .debug_str     0x0000000000001a5f      0x58e driver/.output/eagle/release/lib/libdriver.a(uart.o)
                                        0x889 (size before relaxing)
 .debug_str     0x0000000000001fed      0x333 transport/.output/eagle/release/lib/libtransport.a(reliableTransport.o)
                                        0x92a (size before relaxing)
 .debug_str     0x0000000000002320       0x59 transport/.output/eagle/release/lib/libtransport.a(reliableMessageTypes.o)
                                        0x306 (size before relaxing)
 .debug_str     0x0000000000002379       0x41 transport/.output/eagle/release/lib/libtransport.a(reliableSequenceId.o)
                                        0x20c (size before relaxing)
 .debug_str     0x00000000000023ba      0xfe6 application/.output/eagle/release/lib/libapplication.a(backgroundTask.o)
                                       0x12d3 (size before relaxing)
 .debug_str     0x00000000000033a0      0x57a application/.output/eagle/release/lib/libapplication.a(crashReporter.o)
                                        0xa59 (size before relaxing)
 .debug_str     0x000000000000391a      0x3e4 application/.output/eagle/release/lib/libapplication.a(dhTask.o)
                                        0x70e (size before relaxing)
 .debug_str     0x0000000000003cfe      0x652 application/.output/eagle/release/lib/libapplication.a(face.o)
                                        0xb74 (size before relaxing)
 .debug_str     0x0000000000004350     0x705f application/.output/eagle/release/lib/libapplication.a(messages.o)
                                       0x8466 (size before relaxing)
 .debug_str     0x000000000000b3af      0x546 application/.output/eagle/release/lib/libapplication.a(nvStorage.o)
                                       0x12e4 (size before relaxing)
 .debug_str     0x000000000000b8f5       0x8a application/.output/eagle/release/lib/libapplication.a(rtip.o)
                                       0x6caf (size before relaxing)
 .debug_str     0x000000000000b97f      0x91b application/.output/eagle/release/lib/libapplication.a(upgradeController.o)
                                       0x1594 (size before relaxing)
 .debug_str     0x000000000000c29a      0x10b application/.output/eagle/release/lib/libapplication.a(activeObjectManager.o)
                                        0x51a (size before relaxing)
 .debug_str     0x000000000000c3a5      0x2a2 factory/.output/eagle/release/lib/libfactory.a(factoryTests.o)
                                       0x7d28 (size before relaxing)
 .debug_str     0x000000000000c647     0x10fe supervisor/.output/eagle/release/lib/libsupervisor.a(animationController.o)
                                       0x87ef (size before relaxing)
 .debug_str     0x000000000000d745       0xb4 crypto/.output/eagle/release/lib/libusercrypto.a(sha512.o)
                                        0x2ad (size before relaxing)
 .debug_str     0x000000000000d7f9      0x50d crypto/.output/eagle/release/lib/libusercrypto.a(bignum.o)
                                        0x8ee (size before relaxing)
 .debug_str     0x000000000000dd06       0xb1 crypto/.output/eagle/release/lib/libusercrypto.a(rsa_pss.o)
                                        0x597 (size before relaxing)
 .debug_str     0x000000000000ddb7       0x28 crypto/.output/eagle/release/lib/libusercrypto.a(crc32.o)
                                        0x19f (size before relaxing)
 .debug_str     0x000000000000dddf      0x190 crypto/.output/eagle/release/lib/libusercrypto.a(aes.o)
                                        0x3b7 (size before relaxing)
 .debug_str     0x000000000000df6f      0x432 /opt/xtensa-lx106-elf/bin/../lib/gcc/xtensa-lx106-elf/4.8.2/../../../../xtensa-lx106-elf/lib/libc.a(lib_a-atoi.o)
                                        0x4fa (size before relaxing)
 .debug_str     0x000000000000e3a1       0x93 /opt/xtensa-lx106-elf/bin/../lib/gcc/xtensa-lx106-elf/4.8.2/../../../../xtensa-lx106-elf/lib/libc.a(lib_a-strtol.o)
                                        0x52d (size before relaxing)
 .debug_str     0x000000000000e434       0x6d /opt/xtensa-lx106-elf/bin/../lib/gcc/xtensa-lx106-elf/4.8.2/../../../../xtensa-lx106-elf/lib/libc.a(lib_a-ctype_.o)
                                         0xb9 (size before relaxing)
 .debug_str     0x000000000000e4a1       0x84 /opt/xtensa-lx106-elf/bin/../lib/gcc/xtensa-lx106-elf/4.8.2/../../../../xtensa-lx106-elf/lib/libc.a(lib_a-impure.o)
                                        0x508 (size before relaxing)
 .debug_str     0x000000000000e525      0x234 hal/.output/eagle/release/lib/libuserhal.a(radio.o)
                                        0xd4e (size before relaxing)
 .debug_str     0x000000000000e759      0x4e8 hal/.output/eagle/release/lib/libuserhal.a(wifi_configuration.o)
                                       0x1a55 (size before relaxing)
 .debug_str     0x000000000000ec41       0x88 clad/.output/eagle/release/lib/libclad.a(messageEngineToRobot.o)
                                       0x7039 (size before relaxing)
 .debug_str     0x000000000000ecc9     0x235d clad/.output/eagle/release/lib/libclad.a(messageRobotToEngine.o)
                                       0x37b6 (size before relaxing)
 .debug_str     0x0000000000011026       0x42 clad/.output/eagle/release/lib/libclad.a(otaMessages.o)
                                        0x30c (size before relaxing)
 .debug_str     0x0000000000011068       0x40 clad/.output/eagle/release/lib/libclad.a(animationKeyFrames.o)
                                        0x2d0 (size before relaxing)
 .debug_str     0x00000000000110a8       0x38 clad/.output/eagle/release/lib/libclad.a(imageTypes.o)
                                        0x30b (size before relaxing)
 .debug_str     0x00000000000110e0       0x37 clad/.output/eagle/release/lib/libclad.a(nvStorage.o)
                                        0x4de (size before relaxing)
 .debug_str     0x0000000000011117       0x3a clad/.output/eagle/release/lib/libclad.a(robotLogging.o)
                                        0x5f0 (size before relaxing)

.comment        0x0000000000000000     0x1aec
 .comment       0x0000000000000000       0x21 driver/.output/eagle/release/lib/libdriver.a(cache.o)
                                         0x22 (size before relaxing)
 .comment       0x0000000000000021       0x5b ../lib/libmain_w.a(user_interface.o)
                                         0x5c (size before relaxing)
 .comment       0x000000000000007c       0x55 ../lib/libmain_w.a(app_main.o)
                                         0x56 (size before relaxing)
 .comment       0x00000000000000d1       0x56 ../lib/libmain_w.a(eagle_lib.o)
                                         0x57 (size before relaxing)
 .comment       0x0000000000000127       0x5a ../lib/libmain_w.a(eagle_lwip_if.o)
                                         0x5b (size before relaxing)
 .comment       0x0000000000000181       0x56 ../lib/libmain_w.a(ets_timer.o)
                                         0x57 (size before relaxing)
 .comment       0x00000000000001d7       0x58 ../lib/libmain_w.a(mem_manager.o)
                                         0x59 (size before relaxing)
 .comment       0x000000000000022f       0x56 ../lib/libmain_w.a(spi_flash.o)
                                         0x57 (size before relaxing)
 .comment       0x0000000000000000       0x22 hal/.output/eagle/release/lib/libuserhal.a(user_main.o)
 .comment       0x0000000000000000       0x22 hal/.output/eagle/release/lib/libuserhal.a(client.o)
 .comment       0x0000000000000000       0x22 hal/.output/eagle/release/lib/libuserhal.a(foregroundTask.o)
 .comment       0x0000000000000000       0x22 driver/.output/eagle/release/lib/libdriver.a(crash.o)
 .comment       0x0000000000000000       0x22 driver/.output/eagle/release/lib/libdriver.a(factoryData.o)
 .comment       0x0000000000000000       0x22 driver/.output/eagle/release/lib/libdriver.a(i2spi.o)
 .comment       0x0000000000000000       0x22 driver/.output/eagle/release/lib/libdriver.a(uart.o)
 .comment       0x0000000000000000       0x22 transport/.output/eagle/release/lib/libtransport.a(reliableTransport.o)
 .comment       0x0000000000000000       0x22 transport/.output/eagle/release/lib/libtransport.a(reliableMessageTypes.o)
 .comment       0x0000000000000000       0x22 transport/.output/eagle/release/lib/libtransport.a(reliableSequenceId.o)
 .comment       0x0000000000000000       0x22 application/.output/eagle/release/lib/libapplication.a(backgroundTask.o)
 .comment       0x0000000000000000       0x22 application/.output/eagle/release/lib/libapplication.a(crashReporter.o)
 .comment       0x0000000000000000       0x22 application/.output/eagle/release/lib/libapplication.a(dhTask.o)
 .comment       0x0000000000000000       0x22 application/.output/eagle/release/lib/libapplication.a(face.o)
 .comment       0x0000000000000000       0x22 application/.output/eagle/release/lib/libapplication.a(messages.o)
 .comment       0x0000000000000000       0x22 application/.output/eagle/release/lib/libapplication.a(nvStorage.o)
 .comment       0x0000000000000000       0x22 application/.output/eagle/release/lib/libapplication.a(rtip.o)
 .comment       0x0000000000000000       0x22 application/.output/eagle/release/lib/libapplication.a(upgradeController.o)
 .comment       0x0000000000000000       0x22 application/.output/eagle/release/lib/libapplication.a(activeObjectManager.o)
 .comment       0x0000000000000000       0x22 factory/.output/eagle/release/lib/libfactory.a(factoryTests.o)
 .comment       0x0000000000000000       0x22 supervisor/.output/eagle/release/lib/libsupervisor.a(animationController.o)
 .comment       0x0000000000000000       0x22 crypto/.output/eagle/release/lib/libusercrypto.a(sha512.o)
 .comment       0x0000000000000000       0x22 crypto/.output/eagle/release/lib/libusercrypto.a(bignum.o)
 .comment       0x0000000000000000       0x22 crypto/.output/eagle/release/lib/libusercrypto.a(rsa_pss.o)
 .comment       0x0000000000000000       0x22 crypto/.output/eagle/release/lib/libusercrypto.a(crc32.o)
 .comment       0x0000000000000000       0x22 crypto/.output/eagle/release/lib/libusercrypto.a(aes.o)
 .comment       0x0000000000000285       0x41 ../lib/libphy.a(phy.o)
 .comment       0x00000000000002c6       0x4d ../lib/libphy.a(phy_chip_v6_ana.o)
 .comment       0x0000000000000313       0x49 ../lib/libphy.a(phy_chip_v6.o)
 .comment       0x000000000000035c       0x4d ../lib/libphy.a(phy_chip_v6_cal.o)
 .comment       0x00000000000003a9       0x50 ../lib/libphy.a(phy_chip_v6_unused.o)
 .comment       0x00000000000003f9       0x47 ../lib/libphy.a(phy_sleep.o)
 .comment       0x0000000000000440       0x56 ../lib/libpp.a(if_hwctrl.o)
                                         0x57 (size before relaxing)
 .comment       0x0000000000000496       0x51 ../lib/libpp.a(lmac.o)
                                         0x52 (size before relaxing)
 .comment       0x00000000000004e7       0x4f ../lib/libpp.a(pm.o)
                                         0x50 (size before relaxing)
 .comment       0x0000000000000536       0x61 ../lib/libpp.a(pm_for_bcn_only_mode.o)
                                         0x62 (size before relaxing)
 .comment       0x0000000000000597       0x4f ../lib/libpp.a(pp.o)
                                         0x50 (size before relaxing)
 .comment       0x00000000000005e6       0x59 ../lib/libpp.a(rate_control.o)
                                         0x5a (size before relaxing)
 .comment       0x000000000000063f       0x50 ../lib/libpp.a(trc.o)
                                         0x51 (size before relaxing)
 .comment       0x000000000000068f       0x51 ../lib/libpp.a(wdev.o)
                                         0x52 (size before relaxing)
 .comment       0x00000000000006e0       0x54 ../lib/libpp.a(esf_buf.o)
                                         0x55 (size before relaxing)
 .comment       0x0000000000000734       0x56 ../lib/libnet80211.a(ieee80211.o)
                                         0x57 (size before relaxing)
 .comment       0x000000000000078a       0x5d ../lib/libnet80211.a(ieee80211_crypto.o)
                                         0x5e (size before relaxing)
 .comment       0x00000000000007e7       0x5a ../lib/libnet80211.a(ieee80211_ets.o)
                                         0x5b (size before relaxing)
 .comment       0x0000000000000841       0x5d ../lib/libnet80211.a(ieee80211_hostap.o)
                                         0x5e (size before relaxing)
 .comment       0x000000000000089e       0x59 ../lib/libnet80211.a(ieee80211_ht.o)
                                         0x5a (size before relaxing)
 .comment       0x00000000000008f7       0x5c ../lib/libnet80211.a(ieee80211_input.o)
                                         0x5d (size before relaxing)
 .comment       0x0000000000000953       0x61 ../lib/libnet80211.a(ieee80211_mesh_quick.o)
                                         0x62 (size before relaxing)
 .comment       0x00000000000009b4       0x5d ../lib/libnet80211.a(ieee80211_output.o)
                                         0x5e (size before relaxing)
 .comment       0x0000000000000a11       0x5a ../lib/libnet80211.a(ieee80211_phy.o)
                                         0x5b (size before relaxing)
 .comment       0x0000000000000a6b       0x5c ../lib/libnet80211.a(ieee80211_power.o)
                                         0x5d (size before relaxing)
 .comment       0x0000000000000ac7       0x5c ../lib/libnet80211.a(ieee80211_proto.o)
                                         0x5d (size before relaxing)
 .comment       0x0000000000000b23       0x5b ../lib/libnet80211.a(ieee80211_rfid.o)
                                         0x5c (size before relaxing)
 .comment       0x0000000000000b7e       0x5b ../lib/libnet80211.a(ieee80211_scan.o)
                                         0x5c (size before relaxing)
 .comment       0x0000000000000bd9       0x5a ../lib/libnet80211.a(ieee80211_sta.o)
                                         0x5b (size before relaxing)
 .comment       0x0000000000000c33       0x53 ../lib/libnet80211.a(wl_chm.o)
                                         0x54 (size before relaxing)
 .comment       0x0000000000000c86       0x53 ../lib/libnet80211.a(wl_cnx.o)
                                         0x54 (size before relaxing)
 .comment       0x0000000000000cd9       0x5d ../lib/libnet80211.a(ieee80211_action.o)
                                         0x5e (size before relaxing)
 .comment       0x0000000000000d36       0x64 ../lib/libnet80211.a(ieee80211_action_vendor.o)
                                         0x65 (size before relaxing)
 .comment       0x0000000000000d9a       0x62 ../lib/libnet80211.a(ieee80211_crypto_ccmp.o)
                                         0x63 (size before relaxing)
 .comment       0x0000000000000dfc       0x60 ../lib/libnet80211.a(ieee80211_ie_vendor.o)
                                         0x61 (size before relaxing)
 .comment       0x0000000000000e5c       0x51 ../lib/liblwip.a(dhcp.o)
                                         0x52 (size before relaxing)
 .comment       0x0000000000000ead       0x57 ../lib/liblwip.a(dhcpserver.o)
                                         0x58 (size before relaxing)
 .comment       0x0000000000000f04       0x50 ../lib/liblwip.a(dns.o)
                                         0x51 (size before relaxing)
 .comment       0x0000000000000f54       0x54 ../lib/liblwip.a(espconn.o)
                                         0x55 (size before relaxing)
 .comment       0x0000000000000fa8       0x58 ../lib/liblwip.a(espconn_tcp.o)
                                         0x59 (size before relaxing)
 .comment       0x0000000000001000       0x58 ../lib/liblwip.a(espconn_udp.o)
                                         0x59 (size before relaxing)
 .comment       0x0000000000001058       0x53 ../lib/liblwip.a(etharp.o)
                                         0x54 (size before relaxing)
 .comment       0x00000000000010ab       0x51 ../lib/liblwip.a(igmp.o)
                                         0x52 (size before relaxing)
 .comment       0x00000000000010fc       0x58 ../lib/liblwip.a(inet_chksum.o)
                                         0x59 (size before relaxing)
 .comment       0x0000000000001154       0x51 ../lib/liblwip.a(init.o)
                                         0x52 (size before relaxing)
 .comment       0x00000000000011a5       0x54 ../lib/liblwip.a(ip_addr.o)
                                         0x55 (size before relaxing)
 .comment       0x00000000000011f9       0x4f ../lib/liblwip.a(ip.o)
                                         0x50 (size before relaxing)
 .comment       0x0000000000001248       0x51 ../lib/liblwip.a(memp.o)
                                         0x52 (size before relaxing)
 .comment       0x0000000000001299       0x52 ../lib/liblwip.a(netif.o)
                                         0x53 (size before relaxing)
 .comment       0x00000000000012eb       0x51 ../lib/liblwip.a(pbuf.o)
                                         0x52 (size before relaxing)
 .comment       0x000000000000133c       0x50 ../lib/liblwip.a(raw.o)
                                         0x51 (size before relaxing)
 .comment       0x000000000000138c       0x53 ../lib/liblwip.a(tcp_in.o)
                                         0x54 (size before relaxing)
 .comment       0x00000000000013df       0x50 ../lib/liblwip.a(tcp.o)
                                         0x51 (size before relaxing)
 .comment       0x000000000000142f       0x54 ../lib/liblwip.a(tcp_out.o)
                                         0x55 (size before relaxing)
 .comment       0x0000000000001483       0x53 ../lib/liblwip.a(timers.o)
                                         0x54 (size before relaxing)
 .comment       0x00000000000014d6       0x50 ../lib/liblwip.a(udp.o)
                                         0x51 (size before relaxing)
 .comment       0x0000000000001526       0x51 ../lib/liblwip.a(icmp.o)
                                         0x52 (size before relaxing)
 .comment       0x0000000000001577       0x56 ../lib/libwpa.a(ap_config.o)
                                         0x57 (size before relaxing)
 .comment       0x00000000000015cd       0x53 ../lib/libwpa.a(common.o)
                                         0x54 (size before relaxing)
 .comment       0x0000000000001620       0x56 ../lib/libwpa.a(os_xtensa.o)
                                         0x57 (size before relaxing)
 .comment       0x0000000000001676       0x55 ../lib/libwpa.a(wpa_auth.o)
                                         0x56 (size before relaxing)
 .comment       0x00000000000016cb       0x58 ../lib/libwpa.a(wpa_auth_ie.o)
                                         0x59 (size before relaxing)
 .comment       0x0000000000001723       0x50 ../lib/libwpa.a(wpa.o)
                                         0x51 (size before relaxing)
 .comment       0x0000000000001773       0x57 ../lib/libwpa.a(wpa_common.o)
                                         0x58 (size before relaxing)
 .comment       0x00000000000017ca       0x56 ../lib/libwpa.a(wpa_debug.o)
                                         0x57 (size before relaxing)
 .comment       0x0000000000001820       0x53 ../lib/libwpa.a(wpa_ie.o)
                                         0x54 (size before relaxing)
 .comment       0x0000000000001873       0x55 ../lib/libwpa.a(wpa_main.o)
                                         0x56 (size before relaxing)
 .comment       0x00000000000018c8       0x56 ../lib/libwpa.a(wpas_glue.o)
                                         0x57 (size before relaxing)
 .comment       0x0000000000000000       0x22 /opt/xtensa-lx106-elf/bin/../lib/gcc/xtensa-lx106-elf/4.8.2/../../../../xtensa-lx106-elf/lib/libc.a(lib_a-atoi.o)
 .comment       0x0000000000000000       0x22 /opt/xtensa-lx106-elf/bin/../lib/gcc/xtensa-lx106-elf/4.8.2/../../../../xtensa-lx106-elf/lib/libc.a(lib_a-strtol.o)
 .comment       0x0000000000000000       0x22 /opt/xtensa-lx106-elf/bin/../lib/gcc/xtensa-lx106-elf/4.8.2/../../../../xtensa-lx106-elf/lib/libc.a(lib_a-ctype_.o)
 .comment       0x0000000000000000       0x22 /opt/xtensa-lx106-elf/bin/../lib/gcc/xtensa-lx106-elf/4.8.2/../../../../xtensa-lx106-elf/lib/libc.a(lib_a-impure.o)
 .comment       0x0000000000000000       0x22 hal/.output/eagle/release/lib/libuserhal.a(radio.o)
 .comment       0x0000000000000000       0x22 hal/.output/eagle/release/lib/libuserhal.a(wifi_configuration.o)
 .comment       0x0000000000000000       0x22 clad/.output/eagle/release/lib/libclad.a(messageEngineToRobot.o)
 .comment       0x0000000000000000       0x22 clad/.output/eagle/release/lib/libclad.a(messageRobotToEngine.o)
 .comment       0x0000000000000000       0x22 clad/.output/eagle/release/lib/libclad.a(otaMessages.o)
 .comment       0x0000000000000000       0x22 clad/.output/eagle/release/lib/libclad.a(animationKeyFrames.o)
 .comment       0x0000000000000000       0x22 clad/.output/eagle/release/lib/libclad.a(imageTypes.o)
 .comment       0x0000000000000000       0x22 clad/.output/eagle/release/lib/libclad.a(nvStorage.o)
 .comment       0x0000000000000000       0x22 clad/.output/eagle/release/lib/libclad.a(robotLogging.o)
 .comment       0x000000000000191e       0x62 ../lib/libnet80211.a(ieee80211_crypto_tkip.o)
                                         0x63 (size before relaxing)
 .comment       0x0000000000001980       0x61 ../lib/libnet80211.a(ieee80211_crypto_wep.o)
                                         0x62 (size before relaxing)
 .comment       0x00000000000019e1       0x55 ../lib/libcrypto.a(aes-wrap.o)
                                         0x56 (size before relaxing)
 .comment       0x0000000000001a36       0x5d ../lib/libcrypto.a(aes-internal-enc.o)
                                         0x5e (size before relaxing)
 .comment       0x0000000000001a93       0x59 ../lib/libcrypto.a(aes-internal.o)
                                         0x5a (size before relaxing)

.xtensa.info    0x0000000000000000       0x38
 .xtensa.info   0x0000000000000000       0x38 driver/.output/eagle/release/lib/libdriver.a(cache.o)
 .xtensa.info   0x0000000000000000        0x0 ../lib/libmain_w.a(user_interface.o)
 .xtensa.info   0x0000000000000000        0x0 ../lib/libmain_w.a(debug-vector.o)
 .xtensa.info   0x0000000000000000        0x0 ../lib/libmain_w.a(double-vector.o)
 .xtensa.info   0x0000000000000000        0x0 ../lib/libmain_w.a(kernel-vector.o)
 .xtensa.info   0x0000000000000000        0x0 ../lib/libmain_w.a(nmi-vector.o)
 .xtensa.info   0x0000000000000000        0x0 ../lib/libmain_w.a(user-vector.o)
 .xtensa.info   0x0000000000000000        0x0 ../lib/libmain_w.a(vector.o)
 .xtensa.info   0x0000000000000000        0x0 ../lib/libmain_w.a(app_main.o)
 .xtensa.info   0x0000000000000000        0x0 ../lib/libmain_w.a(eagle_lib.o)
 .xtensa.info   0x0000000000000000        0x0 ../lib/libmain_w.a(eagle_lwip_if.o)
 .xtensa.info   0x0000000000000000        0x0 ../lib/libmain_w.a(ets_timer.o)
 .xtensa.info   0x0000000000000000        0x0 ../lib/libmain_w.a(mem_manager.o)
 .xtensa.info   0x0000000000000000        0x0 ../lib/libmain_w.a(spi_flash.o)
 .xtensa.info   0x0000000000000000        0x0 /opt/xtensa-lx106-elf/bin/../xtensa-lx106-elf/sysroot/usr/lib/libhal.a(int_asm--set_intclear.o)
 .xtensa.info   0x0000000000000000        0x0 hal/.output/eagle/release/lib/libuserhal.a(user_main.o)
 .xtensa.info   0x0000000000000000        0x0 hal/.output/eagle/release/lib/libuserhal.a(client.o)
 .xtensa.info   0x0000000000000000        0x0 hal/.output/eagle/release/lib/libuserhal.a(foregroundTask.o)
 .xtensa.info   0x0000000000000000        0x0 driver/.output/eagle/release/lib/libdriver.a(crash.o)
 .xtensa.info   0x0000000000000000        0x0 driver/.output/eagle/release/lib/libdriver.a(factoryData.o)
 .xtensa.info   0x0000000000000000        0x0 driver/.output/eagle/release/lib/libdriver.a(i2spi.o)
 .xtensa.info   0x0000000000000000        0x0 driver/.output/eagle/release/lib/libdriver.a(uart.o)
 .xtensa.info   0x0000000000000000        0x0 transport/.output/eagle/release/lib/libtransport.a(reliableTransport.o)
 .xtensa.info   0x0000000000000000        0x0 transport/.output/eagle/release/lib/libtransport.a(reliableMessageTypes.o)
 .xtensa.info   0x0000000000000000        0x0 transport/.output/eagle/release/lib/libtransport.a(reliableSequenceId.o)
 .xtensa.info   0x0000000000000000        0x0 application/.output/eagle/release/lib/libapplication.a(backgroundTask.o)
 .xtensa.info   0x0000000000000000        0x0 application/.output/eagle/release/lib/libapplication.a(crashReporter.o)
 .xtensa.info   0x0000000000000000        0x0 application/.output/eagle/release/lib/libapplication.a(dhTask.o)
 .xtensa.info   0x0000000000000000        0x0 application/.output/eagle/release/lib/libapplication.a(face.o)
 .xtensa.info   0x0000000000000000        0x0 application/.output/eagle/release/lib/libapplication.a(messages.o)
 .xtensa.info   0x0000000000000000        0x0 application/.output/eagle/release/lib/libapplication.a(nvStorage.o)
 .xtensa.info   0x0000000000000000        0x0 application/.output/eagle/release/lib/libapplication.a(rtip.o)
 .xtensa.info   0x0000000000000000        0x0 application/.output/eagle/release/lib/libapplication.a(upgradeController.o)
 .xtensa.info   0x0000000000000000        0x0 application/.output/eagle/release/lib/libapplication.a(activeObjectManager.o)
 .xtensa.info   0x0000000000000000        0x0 factory/.output/eagle/release/lib/libfactory.a(factoryTests.o)
 .xtensa.info   0x0000000000000000        0x0 supervisor/.output/eagle/release/lib/libsupervisor.a(animationController.o)
 .xtensa.info   0x0000000000000000        0x0 crypto/.output/eagle/release/lib/libusercrypto.a(sha512.o)
 .xtensa.info   0x0000000000000000        0x0 crypto/.output/eagle/release/lib/libusercrypto.a(bignum.o)
 .xtensa.info   0x0000000000000000        0x0 crypto/.output/eagle/release/lib/libusercrypto.a(rsa_pss.o)
 .xtensa.info   0x0000000000000000        0x0 crypto/.output/eagle/release/lib/libusercrypto.a(crc32.o)
 .xtensa.info   0x0000000000000000        0x0 crypto/.output/eagle/release/lib/libusercrypto.a(aes.o)
 .xtensa.info   0x0000000000000000        0x0 ../lib/libphy.a(phy.o)
 .xtensa.info   0x0000000000000000        0x0 ../lib/libphy.a(phy_chip_v6_ana.o)
 .xtensa.info   0x0000000000000000        0x0 ../lib/libphy.a(phy_chip_v6.o)
 .xtensa.info   0x0000000000000000        0x0 ../lib/libphy.a(phy_chip_v6_cal.o)
 .xtensa.info   0x0000000000000000        0x0 ../lib/libphy.a(phy_chip_v6_unused.o)
 .xtensa.info   0x0000000000000000        0x0 ../lib/libphy.a(phy_sleep.o)
 .xtensa.info   0x0000000000000000        0x0 ../lib/libpp.a(if_hwctrl.o)
 .xtensa.info   0x0000000000000000        0x0 ../lib/libpp.a(lmac.o)
 .xtensa.info   0x0000000000000000        0x0 ../lib/libpp.a(pm.o)
 .xtensa.info   0x0000000000000000        0x0 ../lib/libpp.a(pm_for_bcn_only_mode.o)
 .xtensa.info   0x0000000000000000        0x0 ../lib/libpp.a(pp.o)
 .xtensa.info   0x0000000000000000        0x0 ../lib/libpp.a(rate_control.o)
 .xtensa.info   0x0000000000000000        0x0 ../lib/libpp.a(trc.o)
 .xtensa.info   0x0000000000000000        0x0 ../lib/libpp.a(wdev.o)
 .xtensa.info   0x0000000000000000        0x0 ../lib/libpp.a(esf_buf.o)
 .xtensa.info   0x0000000000000000        0x0 ../lib/libnet80211.a(ieee80211.o)
 .xtensa.info   0x0000000000000000        0x0 ../lib/libnet80211.a(ieee80211_crypto.o)
 .xtensa.info   0x0000000000000000        0x0 ../lib/libnet80211.a(ieee80211_ets.o)
 .xtensa.info   0x0000000000000000        0x0 ../lib/libnet80211.a(ieee80211_hostap.o)
 .xtensa.info   0x0000000000000000        0x0 ../lib/libnet80211.a(ieee80211_ht.o)
 .xtensa.info   0x0000000000000000        0x0 ../lib/libnet80211.a(ieee80211_input.o)
 .xtensa.info   0x0000000000000000        0x0 ../lib/libnet80211.a(ieee80211_mesh_quick.o)
 .xtensa.info   0x0000000000000000        0x0 ../lib/libnet80211.a(ieee80211_output.o)
 .xtensa.info   0x0000000000000000        0x0 ../lib/libnet80211.a(ieee80211_phy.o)
 .xtensa.info   0x0000000000000000        0x0 ../lib/libnet80211.a(ieee80211_power.o)
 .xtensa.info   0x0000000000000000        0x0 ../lib/libnet80211.a(ieee80211_proto.o)
 .xtensa.info   0x0000000000000000        0x0 ../lib/libnet80211.a(ieee80211_rfid.o)
 .xtensa.info   0x0000000000000000        0x0 ../lib/libnet80211.a(ieee80211_scan.o)
 .xtensa.info   0x0000000000000000        0x0 ../lib/libnet80211.a(ieee80211_sta.o)
 .xtensa.info   0x0000000000000000        0x0 ../lib/libnet80211.a(wl_chm.o)
 .xtensa.info   0x0000000000000000        0x0 ../lib/libnet80211.a(wl_cnx.o)
 .xtensa.info   0x0000000000000000        0x0 ../lib/libnet80211.a(ieee80211_action.o)
 .xtensa.info   0x0000000000000000        0x0 ../lib/libnet80211.a(ieee80211_action_vendor.o)
 .xtensa.info   0x0000000000000000        0x0 ../lib/libnet80211.a(ieee80211_crypto_ccmp.o)
 .xtensa.info   0x0000000000000000        0x0 ../lib/libnet80211.a(ieee80211_ie_vendor.o)
 .xtensa.info   0x0000000000000000        0x0 ../lib/liblwip.a(dhcp.o)
 .xtensa.info   0x0000000000000000        0x0 ../lib/liblwip.a(dhcpserver.o)
 .xtensa.info   0x0000000000000000        0x0 ../lib/liblwip.a(dns.o)
 .xtensa.info   0x0000000000000000        0x0 ../lib/liblwip.a(espconn.o)
 .xtensa.info   0x0000000000000000        0x0 ../lib/liblwip.a(espconn_tcp.o)
 .xtensa.info   0x0000000000000000        0x0 ../lib/liblwip.a(espconn_udp.o)
 .xtensa.info   0x0000000000000000        0x0 ../lib/liblwip.a(etharp.o)
 .xtensa.info   0x0000000000000000        0x0 ../lib/liblwip.a(igmp.o)
 .xtensa.info   0x0000000000000000        0x0 ../lib/liblwip.a(inet_chksum.o)
 .xtensa.info   0x0000000000000000        0x0 ../lib/liblwip.a(init.o)
 .xtensa.info   0x0000000000000000        0x0 ../lib/liblwip.a(ip_addr.o)
 .xtensa.info   0x0000000000000000        0x0 ../lib/liblwip.a(ip.o)
 .xtensa.info   0x0000000000000000        0x0 ../lib/liblwip.a(memp.o)
 .xtensa.info   0x0000000000000000        0x0 ../lib/liblwip.a(netif.o)
 .xtensa.info   0x0000000000000000        0x0 ../lib/liblwip.a(pbuf.o)
 .xtensa.info   0x0000000000000000        0x0 ../lib/liblwip.a(raw.o)
 .xtensa.info   0x0000000000000000        0x0 ../lib/liblwip.a(tcp_in.o)
 .xtensa.info   0x0000000000000000        0x0 ../lib/liblwip.a(tcp.o)
 .xtensa.info   0x0000000000000000        0x0 ../lib/liblwip.a(tcp_out.o)
 .xtensa.info   0x0000000000000000        0x0 ../lib/liblwip.a(timers.o)
 .xtensa.info   0x0000000000000000        0x0 ../lib/liblwip.a(udp.o)
 .xtensa.info   0x0000000000000000        0x0 ../lib/liblwip.a(icmp.o)
 .xtensa.info   0x0000000000000000        0x0 ../lib/libwpa.a(ap_config.o)
 .xtensa.info   0x0000000000000000        0x0 ../lib/libwpa.a(common.o)
 .xtensa.info   0x0000000000000000        0x0 ../lib/libwpa.a(os_xtensa.o)
 .xtensa.info   0x0000000000000000        0x0 ../lib/libwpa.a(wpa_auth.o)
 .xtensa.info   0x0000000000000000        0x0 ../lib/libwpa.a(wpa_auth_ie.o)
 .xtensa.info   0x0000000000000000        0x0 ../lib/libwpa.a(wpa.o)
 .xtensa.info   0x0000000000000000        0x0 ../lib/libwpa.a(wpa_common.o)
 .xtensa.info   0x0000000000000000        0x0 ../lib/libwpa.a(wpa_debug.o)
 .xtensa.info   0x0000000000000000        0x0 ../lib/libwpa.a(wpa_ie.o)
 .xtensa.info   0x0000000000000000        0x0 ../lib/libwpa.a(wpa_main.o)
 .xtensa.info   0x0000000000000000        0x0 ../lib/libwpa.a(wpas_glue.o)
 .xtensa.info   0x0000000000000000        0x0 /opt/xtensa-lx106-elf/bin/../lib/gcc/xtensa-lx106-elf/4.8.2/../../../../xtensa-lx106-elf/lib/libc.a(lib_a-atoi.o)
 .xtensa.info   0x0000000000000000        0x0 /opt/xtensa-lx106-elf/bin/../lib/gcc/xtensa-lx106-elf/4.8.2/../../../../xtensa-lx106-elf/lib/libc.a(lib_a-memcpy.o)
 .xtensa.info   0x0000000000000000        0x0 /opt/xtensa-lx106-elf/bin/../lib/gcc/xtensa-lx106-elf/4.8.2/../../../../xtensa-lx106-elf/lib/libc.a(lib_a-memset.o)
 .xtensa.info   0x0000000000000000        0x0 /opt/xtensa-lx106-elf/bin/../lib/gcc/xtensa-lx106-elf/4.8.2/../../../../xtensa-lx106-elf/lib/libc.a(lib_a-strtol.o)
 .xtensa.info   0x0000000000000000        0x0 /opt/xtensa-lx106-elf/bin/../lib/gcc/xtensa-lx106-elf/4.8.2/../../../../xtensa-lx106-elf/lib/libc.a(lib_a-ctype_.o)
 .xtensa.info   0x0000000000000000        0x0 /opt/xtensa-lx106-elf/bin/../lib/gcc/xtensa-lx106-elf/4.8.2/../../../../xtensa-lx106-elf/lib/libc.a(lib_a-impure.o)
 .xtensa.info   0x0000000000000000        0x0 ../lib/libgcc.a(_modsi3.o)
 .xtensa.info   0x0000000000000000        0x0 ../lib/libgcc.a(_ashldi3.o)
 .xtensa.info   0x0000000000000000        0x0 ../lib/libgcc.a(_ashrdi3.o)
 .xtensa.info   0x0000000000000000        0x0 ../lib/libgcc.a(_mulsf3.o)
 .xtensa.info   0x0000000000000000        0x0 ../lib/libgcc.a(_divsf3.o)
 .xtensa.info   0x0000000000000000        0x0 ../lib/libgcc.a(_fixsfsi.o)
 .xtensa.info   0x0000000000000000        0x0 hal/.output/eagle/release/lib/libuserhal.a(radio.o)
 .xtensa.info   0x0000000000000000        0x0 hal/.output/eagle/release/lib/libuserhal.a(wifi_configuration.o)
 .xtensa.info   0x0000000000000000        0x0 clad/.output/eagle/release/lib/libclad.a(messageEngineToRobot.o)
 .xtensa.info   0x0000000000000000        0x0 clad/.output/eagle/release/lib/libclad.a(messageRobotToEngine.o)
 .xtensa.info   0x0000000000000000        0x0 clad/.output/eagle/release/lib/libclad.a(otaMessages.o)
 .xtensa.info   0x0000000000000000        0x0 clad/.output/eagle/release/lib/libclad.a(animationKeyFrames.o)
 .xtensa.info   0x0000000000000000        0x0 clad/.output/eagle/release/lib/libclad.a(imageTypes.o)
 .xtensa.info   0x0000000000000000        0x0 clad/.output/eagle/release/lib/libclad.a(nvStorage.o)
 .xtensa.info   0x0000000000000000        0x0 clad/.output/eagle/release/lib/libclad.a(robotLogging.o)
 .xtensa.info   0x0000000000000000        0x0 ../lib/libnet80211.a(ieee80211_crypto_tkip.o)
 .xtensa.info   0x0000000000000000        0x0 ../lib/libnet80211.a(ieee80211_crypto_wep.o)
 .xtensa.info   0x0000000000000000        0x0 ../lib/libcrypto.a(aes-wrap.o)
 .xtensa.info   0x0000000000000000        0x0 ../lib/libcrypto.a(aes-internal-enc.o)
 .xtensa.info   0x0000000000000000        0x0 ../lib/libcrypto.a(aes-internal.o)

.xt.lit         0x0000000000000000     0x15f8
 .xt.lit        0x0000000000000000        0x8 driver/.output/eagle/release/lib/libdriver.a(cache.o)
 .xt.lit        0x0000000000000008      0x218 ../lib/libmain_w.a(user_interface.o)
                                        0x498 (size before relaxing)
 .xt.lit        0x0000000000000220        0x8 ../lib/libmain_w.a(nmi-vector.o)
                                         0x10 (size before relaxing)
 .xt.lit        0x0000000000000228        0x8 ../lib/libmain_w.a(user-vector.o)
                                         0x10 (size before relaxing)
 .xt.lit        0x0000000000000230        0x8 ../lib/libmain_w.a(vector.o)
 .xt.lit        0x0000000000000238       0x88 ../lib/libmain_w.a(app_main.o)
                                         0xa0 (size before relaxing)
 .xt.lit        0x00000000000002c0       0x10 ../lib/libmain_w.a(eagle_lib.o)
                                         0x18 (size before relaxing)
 .xt.lit        0x00000000000002d0        0x8 ../lib/libmain_w.a(eagle_lwip_if.o)
                                         0x28 (size before relaxing)
 .xt.lit        0x00000000000002d8       0x40 ../lib/libmain_w.a(ets_timer.o)
                                         0x48 (size before relaxing)
 .xt.lit        0x0000000000000318       0x38 ../lib/libmain_w.a(mem_manager.o)
                                         0x60 (size before relaxing)
 .xt.lit        0x0000000000000350       0x58 ../lib/libmain_w.a(spi_flash.o)
 .xt.lit        0x00000000000003a8       0x18 hal/.output/eagle/release/lib/libuserhal.a(user_main.o)
                                         0x20 (size before relaxing)
 .xt.lit        0x00000000000003c0       0x40 hal/.output/eagle/release/lib/libuserhal.a(client.o)
                                         0x60 (size before relaxing)
 .xt.lit        0x0000000000000400       0x10 hal/.output/eagle/release/lib/libuserhal.a(foregroundTask.o)
                                         0x18 (size before relaxing)
 .xt.lit        0x0000000000000410       0x20 driver/.output/eagle/release/lib/libdriver.a(crash.o)
                                         0x30 (size before relaxing)
 .xt.lit        0x0000000000000430       0x10 driver/.output/eagle/release/lib/libdriver.a(factoryData.o)
                                         0x28 (size before relaxing)
 .xt.lit        0x0000000000000440       0x40 driver/.output/eagle/release/lib/libdriver.a(i2spi.o)
                                         0x60 (size before relaxing)
 .xt.lit        0x0000000000000480       0x48 driver/.output/eagle/release/lib/libdriver.a(uart.o)
                                         0xb8 (size before relaxing)
 .xt.lit        0x00000000000004c8       0x58 transport/.output/eagle/release/lib/libtransport.a(reliableTransport.o)
                                         0x68 (size before relaxing)
 .xt.lit        0x0000000000000520        0x8 transport/.output/eagle/release/lib/libtransport.a(reliableMessageTypes.o)
 .xt.lit        0x0000000000000528        0x8 transport/.output/eagle/release/lib/libtransport.a(reliableSequenceId.o)
 .xt.lit        0x0000000000000530       0x18 application/.output/eagle/release/lib/libapplication.a(backgroundTask.o)
                                         0x20 (size before relaxing)
 .xt.lit        0x0000000000000548       0x18 application/.output/eagle/release/lib/libapplication.a(crashReporter.o)
                                         0x28 (size before relaxing)
 .xt.lit        0x0000000000000560       0x18 application/.output/eagle/release/lib/libapplication.a(dhTask.o)
 .xt.lit        0x0000000000000578       0x58 application/.output/eagle/release/lib/libapplication.a(face.o)
                                         0xa8 (size before relaxing)
 .xt.lit        0x00000000000005d0       0x18 application/.output/eagle/release/lib/libapplication.a(messages.o)
                                         0x50 (size before relaxing)
 .xt.lit        0x00000000000005e8       0x50 application/.output/eagle/release/lib/libapplication.a(nvStorage.o)
                                         0x90 (size before relaxing)
 .xt.lit        0x0000000000000638        0x8 application/.output/eagle/release/lib/libapplication.a(rtip.o)
                                         0x18 (size before relaxing)
 .xt.lit        0x0000000000000640       0x20 application/.output/eagle/release/lib/libapplication.a(upgradeController.o)
                                         0x48 (size before relaxing)
 .xt.lit        0x0000000000000660       0x18 application/.output/eagle/release/lib/libapplication.a(activeObjectManager.o)
                                         0x28 (size before relaxing)
 .xt.lit        0x0000000000000678       0x40 factory/.output/eagle/release/lib/libfactory.a(factoryTests.o)
                                         0x58 (size before relaxing)
 .xt.lit        0x00000000000006b8       0x50 supervisor/.output/eagle/release/lib/libsupervisor.a(animationController.o)
                                         0xc0 (size before relaxing)
 .xt.lit        0x0000000000000708       0x10 crypto/.output/eagle/release/lib/libusercrypto.a(sha512.o)
                                         0x28 (size before relaxing)
 .xt.lit        0x0000000000000718       0x28 crypto/.output/eagle/release/lib/libusercrypto.a(bignum.o)
                                         0xb8 (size before relaxing)
 .xt.lit        0x0000000000000740       0x18 crypto/.output/eagle/release/lib/libusercrypto.a(rsa_pss.o)
                                         0x38 (size before relaxing)
 .xt.lit        0x0000000000000758        0x8 crypto/.output/eagle/release/lib/libusercrypto.a(crc32.o)
 .xt.lit        0x0000000000000760       0x18 crypto/.output/eagle/release/lib/libusercrypto.a(aes.o)
                                         0x58 (size before relaxing)
 .xt.lit        0x0000000000000778       0x10 ../lib/libphy.a(phy.o)
                                         0x68 (size before relaxing)
 .xt.lit        0x0000000000000788       0x90 ../lib/libphy.a(phy_chip_v6_ana.o)
                                         0xc8 (size before relaxing)
 .xt.lit        0x0000000000000818      0x168 ../lib/libphy.a(phy_chip_v6.o)
                                        0x248 (size before relaxing)
 .xt.lit        0x0000000000000980       0x68 ../lib/libphy.a(phy_chip_v6_cal.o)
                                         0xe8 (size before relaxing)
 .xt.lit        0x00000000000009e8       0x70 ../lib/libphy.a(phy_sleep.o)
                                         0xd0 (size before relaxing)
 .xt.lit        0x0000000000000a58       0x30 ../lib/libpp.a(if_hwctrl.o)
                                         0xa0 (size before relaxing)
 .xt.lit        0x0000000000000a88       0x70 ../lib/libpp.a(lmac.o)
                                        0x130 (size before relaxing)
 .xt.lit        0x0000000000000af8       0xd8 ../lib/libpp.a(pm.o)
                                        0x198 (size before relaxing)
 .xt.lit        0x0000000000000bd0       0x58 ../lib/libpp.a(pm_for_bcn_only_mode.o)
                                         0xa8 (size before relaxing)
 .xt.lit        0x0000000000000c28       0xe0 ../lib/libpp.a(pp.o)
                                        0x1b0 (size before relaxing)
 .xt.lit        0x0000000000000d08       0x18 ../lib/libpp.a(rate_control.o)
                                         0x38 (size before relaxing)
 .xt.lit        0x0000000000000d20       0x68 ../lib/libpp.a(trc.o)
                                         0xa8 (size before relaxing)
 .xt.lit        0x0000000000000d88       0xd0 ../lib/libpp.a(wdev.o)
                                        0x198 (size before relaxing)
 .xt.lit        0x0000000000000e58       0x18 ../lib/libpp.a(esf_buf.o)
                                         0x20 (size before relaxing)
 .xt.lit        0x0000000000000e70       0x28 ../lib/libnet80211.a(ieee80211.o)
                                         0x50 (size before relaxing)
 .xt.lit        0x0000000000000e98        0x0 ../lib/libnet80211.a(ieee80211_crypto.o)
                                         0x10 (size before relaxing)
 .xt.lit        0x0000000000000e98        0x8 ../lib/libnet80211.a(ieee80211_ets.o)
 .xt.lit        0x0000000000000ea0       0x68 ../lib/libnet80211.a(ieee80211_hostap.o)
                                         0x78 (size before relaxing)
 .xt.lit        0x0000000000000f08       0x48 ../lib/libnet80211.a(ieee80211_ht.o)
                                         0x70 (size before relaxing)
 .xt.lit        0x0000000000000f50       0x38 ../lib/libnet80211.a(ieee80211_input.o)
                                         0x60 (size before relaxing)
 .xt.lit        0x0000000000000f88       0x18 ../lib/libnet80211.a(ieee80211_mesh_quick.o)
                                         0x28 (size before relaxing)
 .xt.lit        0x0000000000000fa0       0x38 ../lib/libnet80211.a(ieee80211_output.o)
                                         0xa8 (size before relaxing)
 .xt.lit        0x0000000000000fd8        0x8 ../lib/libnet80211.a(ieee80211_phy.o)
                                         0x18 (size before relaxing)
 .xt.lit        0x0000000000000fe0        0x8 ../lib/libnet80211.a(ieee80211_power.o)
                                         0x20 (size before relaxing)
 .xt.lit        0x0000000000000fe8       0x18 ../lib/libnet80211.a(ieee80211_proto.o)
 .xt.lit        0x0000000000001000        0x0 ../lib/libnet80211.a(ieee80211_rfid.o)
                                         0x30 (size before relaxing)
 .xt.lit        0x0000000000001000       0x50 ../lib/libnet80211.a(ieee80211_scan.o)
                                         0xd8 (size before relaxing)
 .xt.lit        0x0000000000001050       0x30 ../lib/libnet80211.a(ieee80211_sta.o)
                                         0x60 (size before relaxing)
 .xt.lit        0x0000000000001080       0x20 ../lib/libnet80211.a(wl_chm.o)
                                         0x60 (size before relaxing)
 .xt.lit        0x00000000000010a0       0x90 ../lib/libnet80211.a(wl_cnx.o)
                                        0x138 (size before relaxing)
 .xt.lit        0x0000000000001130       0x20 ../lib/libnet80211.a(ieee80211_action.o)
                                         0x30 (size before relaxing)
 .xt.lit        0x0000000000001150       0x20 ../lib/libnet80211.a(ieee80211_action_vendor.o)
                                         0x50 (size before relaxing)
 .xt.lit        0x0000000000001170        0x0 ../lib/libnet80211.a(ieee80211_crypto_ccmp.o)
                                         0x10 (size before relaxing)
 .xt.lit        0x0000000000001170        0x8 ../lib/libnet80211.a(ieee80211_ie_vendor.o)
                                         0x38 (size before relaxing)
 .xt.lit        0x0000000000001178       0x48 ../lib/liblwip.a(dhcp.o)
                                         0xc0 (size before relaxing)
 .xt.lit        0x00000000000011c0       0x30 ../lib/liblwip.a(dhcpserver.o)
                                         0xa8 (size before relaxing)
 .xt.lit        0x00000000000011f0       0x20 ../lib/liblwip.a(dns.o)
                                         0x48 (size before relaxing)
 .xt.lit        0x0000000000001210       0x28 ../lib/liblwip.a(espconn.o)
                                         0xe8 (size before relaxing)
 .xt.lit        0x0000000000001238       0x68 ../lib/liblwip.a(espconn_tcp.o)
                                         0xc8 (size before relaxing)
 .xt.lit        0x00000000000012a0       0x18 ../lib/liblwip.a(espconn_udp.o)
                                         0x38 (size before relaxing)
 .xt.lit        0x00000000000012b8       0x30 ../lib/liblwip.a(etharp.o)
                                         0x78 (size before relaxing)
 .xt.lit        0x00000000000012e8       0x18 ../lib/liblwip.a(igmp.o)
                                         0x70 (size before relaxing)
 .xt.lit        0x0000000000001300        0x8 ../lib/liblwip.a(init.o)
 .xt.lit        0x0000000000001308        0x8 ../lib/liblwip.a(ip_addr.o)
                                         0x20 (size before relaxing)
 .xt.lit        0x0000000000001310       0x10 ../lib/liblwip.a(ip.o)
                                         0x20 (size before relaxing)
 .xt.lit        0x0000000000001320       0x10 ../lib/liblwip.a(netif.o)
                                         0x40 (size before relaxing)
 .xt.lit        0x0000000000001330       0x10 ../lib/liblwip.a(pbuf.o)
                                         0x48 (size before relaxing)
 .xt.lit        0x0000000000001340       0x10 ../lib/liblwip.a(raw.o)
                                         0x20 (size before relaxing)
 .xt.lit        0x0000000000001350       0x18 ../lib/liblwip.a(tcp_in.o)
                                         0x38 (size before relaxing)
 .xt.lit        0x0000000000001368       0x50 ../lib/liblwip.a(tcp.o)
                                         0xb8 (size before relaxing)
 .xt.lit        0x00000000000013b8       0x28 ../lib/liblwip.a(tcp_out.o)
                                         0x68 (size before relaxing)
 .xt.lit        0x00000000000013e0       0x48 ../lib/liblwip.a(timers.o)
                                         0x68 (size before relaxing)
 .xt.lit        0x0000000000001428       0x18 ../lib/liblwip.a(udp.o)
                                         0x38 (size before relaxing)
 .xt.lit        0x0000000000001440        0x8 ../lib/liblwip.a(icmp.o)
                                         0x10 (size before relaxing)
 .xt.lit        0x0000000000001448       0x18 ../lib/libwpa.a(ap_config.o)
                                         0x40 (size before relaxing)
 .xt.lit        0x0000000000001460       0x10 ../lib/libwpa.a(common.o)
                                         0x18 (size before relaxing)
 .xt.lit        0x0000000000001470        0x8 ../lib/libwpa.a(os_xtensa.o)
                                         0x10 (size before relaxing)
 .xt.lit        0x0000000000001478       0x70 ../lib/libwpa.a(wpa_auth.o)
                                        0x100 (size before relaxing)
 .xt.lit        0x00000000000014e8       0x10 ../lib/libwpa.a(wpa_auth_ie.o)
                                         0x38 (size before relaxing)
 .xt.lit        0x00000000000014f8       0x38 ../lib/libwpa.a(wpa.o)
                                        0x110 (size before relaxing)
 .xt.lit        0x0000000000001530       0x28 ../lib/libwpa.a(wpa_common.o)
                                         0x58 (size before relaxing)
 .xt.lit        0x0000000000001558        0x8 ../lib/libwpa.a(wpa_debug.o)
 .xt.lit        0x0000000000001560        0x0 ../lib/libwpa.a(wpa_ie.o)
                                         0x18 (size before relaxing)
 .xt.lit        0x0000000000001560       0x18 ../lib/libwpa.a(wpa_main.o)
                                         0x48 (size before relaxing)
 .xt.lit        0x0000000000001578        0x0 ../lib/libwpa.a(wpas_glue.o)
                                         0x10 (size before relaxing)
 .xt.lit        0x0000000000001578        0x0 /opt/xtensa-lx106-elf/bin/../lib/gcc/xtensa-lx106-elf/4.8.2/../../../../xtensa-lx106-elf/lib/libc.a(lib_a-atoi.o)
                                          0x8 (size before relaxing)
 .xt.lit        0x0000000000001578        0x8 /opt/xtensa-lx106-elf/bin/../lib/gcc/xtensa-lx106-elf/4.8.2/../../../../xtensa-lx106-elf/lib/libc.a(lib_a-strtol.o)
 .xt.lit        0x0000000000001580        0x8 ../lib/libgcc.a(_mulsf3.o)
 .xt.lit        0x0000000000001588        0x0 ../lib/libgcc.a(_divsf3.o)
                                          0x8 (size before relaxing)
 .xt.lit        0x0000000000001588        0x0 ../lib/libgcc.a(_fixsfsi.o)
                                          0x8 (size before relaxing)
 .xt.lit        0x0000000000001588       0x10 hal/.output/eagle/release/lib/libuserhal.a(radio.o)
                                         0x18 (size before relaxing)
 .xt.lit        0x0000000000001598       0x30 hal/.output/eagle/release/lib/libuserhal.a(wifi_configuration.o)
                                         0x38 (size before relaxing)
 .xt.lit        0x00000000000015c8        0x8 clad/.output/eagle/release/lib/libclad.a(messageEngineToRobot.o)
                                         0x20 (size before relaxing)
 .xt.lit        0x00000000000015d0        0x8 clad/.output/eagle/release/lib/libclad.a(messageRobotToEngine.o)
                                         0x20 (size before relaxing)
 .xt.lit        0x00000000000015d8        0x8 ../lib/libnet80211.a(ieee80211_crypto_tkip.o)
                                         0x10 (size before relaxing)
 .xt.lit        0x00000000000015e0        0x0 ../lib/libnet80211.a(ieee80211_crypto_wep.o)
                                          0x8 (size before relaxing)
 .xt.lit        0x00000000000015e0        0x0 ../lib/libcrypto.a(aes-wrap.o)
                                          0x8 (size before relaxing)
 .xt.lit        0x00000000000015e0       0x10 ../lib/libcrypto.a(aes-internal-enc.o)
                                         0x18 (size before relaxing)
 .xt.lit        0x00000000000015f0        0x8 ../lib/libcrypto.a(aes-internal.o)

.xt.prop        0x0000000000000000    0x2ec74
 .xt.prop       0x0000000000000000       0x60 driver/.output/eagle/release/lib/libdriver.a(cache.o)
 .xt.prop       0x0000000000000060     0x35dc ../lib/libmain_w.a(user_interface.o)
                                       0x3768 (size before relaxing)
 .xt.prop       0x000000000000363c       0x18 ../lib/libmain_w.a(debug-vector.o)
 .xt.prop       0x0000000000003654       0x18 ../lib/libmain_w.a(double-vector.o)
 .xt.prop       0x000000000000366c       0x18 ../lib/libmain_w.a(kernel-vector.o)
 .xt.prop       0x0000000000003684       0x30 ../lib/libmain_w.a(nmi-vector.o)
                                         0x3c (size before relaxing)
 .xt.prop       0x00000000000036b4       0x30 ../lib/libmain_w.a(user-vector.o)
                                         0x3c (size before relaxing)
 .xt.prop       0x00000000000036e4       0x18 ../lib/libmain_w.a(vector.o)
 .xt.prop       0x00000000000036fc      0xd98 ../lib/libmain_w.a(app_main.o)
                                        0xe28 (size before relaxing)
 .xt.prop       0x0000000000004494      0x858 ../lib/libmain_w.a(eagle_lib.o)
 .xt.prop       0x0000000000004cec      0x270 ../lib/libmain_w.a(eagle_lwip_if.o)
                                        0x2a0 (size before relaxing)
 .xt.prop       0x0000000000004f5c      0x5e8 ../lib/libmain_w.a(ets_timer.o)
                                        0x630 (size before relaxing)
 .xt.prop       0x0000000000005544      0x3e4 ../lib/libmain_w.a(mem_manager.o)
                                        0x474 (size before relaxing)
 .xt.prop       0x0000000000005928      0x384 ../lib/libmain_w.a(spi_flash.o)
                                        0x39c (size before relaxing)
 .xt.prop       0x0000000000005cac       0x24 /opt/xtensa-lx106-elf/bin/../xtensa-lx106-elf/sysroot/usr/lib/libhal.a(int_asm--set_intclear.o)
 .xt.prop       0x0000000000005cd0       0xfc hal/.output/eagle/release/lib/libuserhal.a(user_main.o)
                                        0x120 (size before relaxing)
 .xt.prop       0x0000000000005dcc      0x330 hal/.output/eagle/release/lib/libuserhal.a(client.o)
                                        0x36c (size before relaxing)
 .xt.prop       0x00000000000060fc       0xb4 hal/.output/eagle/release/lib/libuserhal.a(foregroundTask.o)
                                         0xc0 (size before relaxing)
 .xt.prop       0x00000000000061b0      0x3a8 driver/.output/eagle/release/lib/libdriver.a(crash.o)
                                        0x3b4 (size before relaxing)
 .xt.prop       0x0000000000006558       0xf0 driver/.output/eagle/release/lib/libdriver.a(factoryData.o)
 .xt.prop       0x0000000000006648      0x918 driver/.output/eagle/release/lib/libdriver.a(i2spi.o)
                                        0x954 (size before relaxing)
 .xt.prop       0x0000000000006f60      0x468 driver/.output/eagle/release/lib/libdriver.a(uart.o)
 .xt.prop       0x00000000000073c8      0x72c transport/.output/eagle/release/lib/libtransport.a(reliableTransport.o)
                                        0x750 (size before relaxing)
 .xt.prop       0x0000000000007af4       0xcc transport/.output/eagle/release/lib/libtransport.a(reliableMessageTypes.o)
 .xt.prop       0x0000000000007bc0       0xd8 transport/.output/eagle/release/lib/libtransport.a(reliableSequenceId.o)
 .xt.prop       0x0000000000007c98      0x4ec application/.output/eagle/release/lib/libapplication.a(backgroundTask.o)
                                        0x51c (size before relaxing)
 .xt.prop       0x0000000000008184      0x294 application/.output/eagle/release/lib/libapplication.a(crashReporter.o)
 .xt.prop       0x0000000000008418      0x168 application/.output/eagle/release/lib/libapplication.a(dhTask.o)
                                        0x180 (size before relaxing)
 .xt.prop       0x0000000000008580      0x720 application/.output/eagle/release/lib/libapplication.a(face.o)
                                        0x72c (size before relaxing)
 .xt.prop       0x0000000000008ca0      0x5b8 application/.output/eagle/release/lib/libapplication.a(messages.o)
 .xt.prop       0x0000000000009258      0xe64 application/.output/eagle/release/lib/libapplication.a(nvStorage.o)
                                        0xec4 (size before relaxing)
 .xt.prop       0x000000000000a0bc      0x1c8 application/.output/eagle/release/lib/libapplication.a(rtip.o)
 .xt.prop       0x000000000000a284      0xbdc application/.output/eagle/release/lib/libapplication.a(upgradeController.o)
                                        0xc24 (size before relaxing)
 .xt.prop       0x000000000000ae60      0x138 application/.output/eagle/release/lib/libapplication.a(activeObjectManager.o)
 .xt.prop       0x000000000000af98      0x384 factory/.output/eagle/release/lib/libfactory.a(factoryTests.o)
                                        0x390 (size before relaxing)
 .xt.prop       0x000000000000b31c      0x7b0 supervisor/.output/eagle/release/lib/libsupervisor.a(animationController.o)
 .xt.prop       0x000000000000bacc      0x2b8 crypto/.output/eagle/release/lib/libusercrypto.a(sha512.o)
 .xt.prop       0x000000000000bd84      0xa8c crypto/.output/eagle/release/lib/libusercrypto.a(bignum.o)
 .xt.prop       0x000000000000c810      0x144 crypto/.output/eagle/release/lib/libusercrypto.a(rsa_pss.o)
 .xt.prop       0x000000000000c954       0x48 crypto/.output/eagle/release/lib/libusercrypto.a(crc32.o)
 .xt.prop       0x000000000000c99c      0x318 crypto/.output/eagle/release/lib/libusercrypto.a(aes.o)
 .xt.prop       0x000000000000ccb4      0x1d4 ../lib/libphy.a(phy.o)
                                        0x1e0 (size before relaxing)
 .xt.prop       0x000000000000ce88      0xdb0 ../lib/libphy.a(phy_chip_v6_ana.o)
                                        0xdc8 (size before relaxing)
 .xt.prop       0x000000000000dc38     0x20b8 ../lib/libphy.a(phy_chip_v6.o)
                                       0x228c (size before relaxing)
 .xt.prop       0x000000000000fcf0      0xfa8 ../lib/libphy.a(phy_chip_v6_cal.o)
                                       0x1014 (size before relaxing)
 .xt.prop       0x0000000000010c98       0x60 ../lib/libphy.a(phy_chip_v6_unused.o)
                                         0x6c (size before relaxing)
 .xt.prop       0x0000000000010cf8      0x858 ../lib/libphy.a(phy_sleep.o)
                                        0x8ac (size before relaxing)
 .xt.prop       0x0000000000011550      0x4ec ../lib/libpp.a(if_hwctrl.o)
                                        0x51c (size before relaxing)
 .xt.prop       0x0000000000011a3c     0x14f4 ../lib/libpp.a(lmac.o)
                                       0x1548 (size before relaxing)
 .xt.prop       0x0000000000012f30     0x15c0 ../lib/libpp.a(pm.o)
                                       0x1698 (size before relaxing)
 .xt.prop       0x00000000000144f0      0x954 ../lib/libpp.a(pm_for_bcn_only_mode.o)
                                        0x978 (size before relaxing)
 .xt.prop       0x0000000000014e44     0x195c ../lib/libpp.a(pp.o)
                                       0x1b0c (size before relaxing)
 .xt.prop       0x00000000000167a0      0x1bc ../lib/libpp.a(rate_control.o)
                                        0x1d4 (size before relaxing)
 .xt.prop       0x000000000001695c     0x1140 ../lib/libpp.a(trc.o)
                                       0x11a0 (size before relaxing)
 .xt.prop       0x0000000000017a9c     0x1284 ../lib/libpp.a(wdev.o)
                                       0x135c (size before relaxing)
 .xt.prop       0x0000000000018d20      0x264 ../lib/libpp.a(esf_buf.o)
                                        0x2e8 (size before relaxing)
 .xt.prop       0x0000000000018f84      0x4a4 ../lib/libnet80211.a(ieee80211.o)
                                        0x4c8 (size before relaxing)
 .xt.prop       0x0000000000019428      0x15c ../lib/libnet80211.a(ieee80211_crypto.o)
 .xt.prop       0x0000000000019584       0x48 ../lib/libnet80211.a(ieee80211_ets.o)
 .xt.prop       0x00000000000195cc      0xe7c ../lib/libnet80211.a(ieee80211_hostap.o)
                                        0xf84 (size before relaxing)
 .xt.prop       0x000000000001a448      0x684 ../lib/libnet80211.a(ieee80211_ht.o)
                                        0x690 (size before relaxing)
 .xt.prop       0x000000000001aacc      0x8d0 ../lib/libnet80211.a(ieee80211_input.o)
                                        0x8dc (size before relaxing)
 .xt.prop       0x000000000001b39c      0x468 ../lib/libnet80211.a(ieee80211_mesh_quick.o)
 .xt.prop       0x000000000001b804     0x11d0 ../lib/libnet80211.a(ieee80211_output.o)
                                       0x11e8 (size before relaxing)
 .xt.prop       0x000000000001c9d4      0x108 ../lib/libnet80211.a(ieee80211_phy.o)
 .xt.prop       0x000000000001cadc      0x1bc ../lib/libnet80211.a(ieee80211_power.o)
 .xt.prop       0x000000000001cc98      0x114 ../lib/libnet80211.a(ieee80211_proto.o)
                                        0x120 (size before relaxing)
 .xt.prop       0x000000000001cdac      0x12c ../lib/libnet80211.a(ieee80211_rfid.o)
 .xt.prop       0x000000000001ced8      0xc60 ../lib/libnet80211.a(ieee80211_scan.o)
                                        0xcfc (size before relaxing)
 .xt.prop       0x000000000001db38      0xa80 ../lib/libnet80211.a(ieee80211_sta.o)
                                        0xaa4 (size before relaxing)
 .xt.prop       0x000000000001e5b8      0x2d0 ../lib/libnet80211.a(wl_chm.o)
                                        0x2dc (size before relaxing)
 .xt.prop       0x000000000001e888     0x11ac ../lib/libnet80211.a(wl_cnx.o)
                                       0x1218 (size before relaxing)
 .xt.prop       0x000000000001fa34      0x33c ../lib/libnet80211.a(ieee80211_action.o)
 .xt.prop       0x000000000001fd70      0x354 ../lib/libnet80211.a(ieee80211_action_vendor.o)
                                        0x384 (size before relaxing)
 .xt.prop       0x00000000000200c4       0xcc ../lib/libnet80211.a(ieee80211_crypto_ccmp.o)
                                         0xd8 (size before relaxing)
 .xt.prop       0x0000000000020190      0x114 ../lib/libnet80211.a(ieee80211_ie_vendor.o)
 .xt.prop       0x00000000000202a4      0xd98 ../lib/liblwip.a(dhcp.o)
                                        0xdbc (size before relaxing)
 .xt.prop       0x000000000002103c      0xae0 ../lib/liblwip.a(dhcpserver.o)
                                        0xb40 (size before relaxing)
 .xt.prop       0x0000000000021b1c      0x45c ../lib/liblwip.a(dns.o)
                                        0x4c8 (size before relaxing)
 .xt.prop       0x0000000000021f78      0xf24 ../lib/liblwip.a(espconn.o)
                                        0xf84 (size before relaxing)
 .xt.prop       0x0000000000022e9c      0xdb0 ../lib/liblwip.a(espconn_tcp.o)
                                        0xdbc (size before relaxing)
 .xt.prop       0x0000000000023c4c      0x330 ../lib/liblwip.a(espconn_udp.o)
                                        0x33c (size before relaxing)
 .xt.prop       0x0000000000023f7c      0x708 ../lib/liblwip.a(etharp.o)
                                        0x750 (size before relaxing)
 .xt.prop       0x0000000000024684      0x63c ../lib/liblwip.a(igmp.o)
                                        0x66c (size before relaxing)
 .xt.prop       0x0000000000024cc0      0x168 ../lib/liblwip.a(inet_chksum.o)
 .xt.prop       0x0000000000024e28       0x24 ../lib/liblwip.a(init.o)
 .xt.prop       0x0000000000024e4c      0x324 ../lib/liblwip.a(ip_addr.o)
                                        0x330 (size before relaxing)
 .xt.prop       0x0000000000025170      0x438 ../lib/liblwip.a(ip.o)
                                        0x480 (size before relaxing)
 .xt.prop       0x00000000000255a8        0x0 ../lib/liblwip.a(memp.o)
                                         0x18 (size before relaxing)
 .xt.prop       0x00000000000255a8      0x330 ../lib/liblwip.a(netif.o)
                                        0x354 (size before relaxing)
 .xt.prop       0x00000000000258d8      0x7a4 ../lib/liblwip.a(pbuf.o)
                                        0x7b0 (size before relaxing)
 .xt.prop       0x000000000002607c      0x294 ../lib/liblwip.a(raw.o)
                                        0x2ac (size before relaxing)
 .xt.prop       0x0000000000026310      0xc6c ../lib/liblwip.a(tcp_in.o)
                                        0xcfc (size before relaxing)
 .xt.prop       0x0000000000026f7c      0xcfc ../lib/liblwip.a(tcp.o)
                                        0xd68 (size before relaxing)
 .xt.prop       0x0000000000027c78      0x8dc ../lib/liblwip.a(tcp_out.o)
                                        0x8e8 (size before relaxing)
 .xt.prop       0x0000000000028554      0x354 ../lib/liblwip.a(timers.o)
                                        0x384 (size before relaxing)
 .xt.prop       0x00000000000288a8      0x5a0 ../lib/liblwip.a(udp.o)
                                        0x5b8 (size before relaxing)
 .xt.prop       0x0000000000028e48      0x114 ../lib/liblwip.a(icmp.o)
 .xt.prop       0x0000000000028f5c      0x2e8 ../lib/libwpa.a(ap_config.o)
                                        0x2f4 (size before relaxing)
 .xt.prop       0x0000000000029244      0x21c ../lib/libwpa.a(common.o)
                                        0x228 (size before relaxing)
 .xt.prop       0x0000000000029460       0xf0 ../lib/libwpa.a(os_xtensa.o)
                                         0xfc (size before relaxing)
 .xt.prop       0x0000000000029550     0x1668 ../lib/libwpa.a(wpa_auth.o)
 .xt.prop       0x000000000002abb8      0x480 ../lib/libwpa.a(wpa_auth_ie.o)
                                        0x48c (size before relaxing)
 .xt.prop       0x000000000002b038      0xd8c ../lib/libwpa.a(wpa.o)
                                        0xdb0 (size before relaxing)
 .xt.prop       0x000000000002bdc4      0x7a4 ../lib/libwpa.a(wpa_common.o)
 .xt.prop       0x000000000002c568       0xc0 ../lib/libwpa.a(wpa_debug.o)
 .xt.prop       0x000000000002c628      0x378 ../lib/libwpa.a(wpa_ie.o)
 .xt.prop       0x000000000002c9a0      0x330 ../lib/libwpa.a(wpa_main.o)
                                        0x33c (size before relaxing)
 .xt.prop       0x000000000002ccd0      0x12c ../lib/libwpa.a(wpas_glue.o)
 .xt.prop       0x000000000002cdfc       0x3c /opt/xtensa-lx106-elf/bin/../lib/gcc/xtensa-lx106-elf/4.8.2/../../../../xtensa-lx106-elf/lib/libc.a(lib_a-atoi.o)
                                         0x48 (size before relaxing)
 .xt.prop       0x000000000002ce38      0x174 /opt/xtensa-lx106-elf/bin/../lib/gcc/xtensa-lx106-elf/4.8.2/../../../../xtensa-lx106-elf/lib/libc.a(lib_a-memcpy.o)
 .xt.prop       0x000000000002cfac       0xe4 /opt/xtensa-lx106-elf/bin/../lib/gcc/xtensa-lx106-elf/4.8.2/../../../../xtensa-lx106-elf/lib/libc.a(lib_a-memset.o)
 .xt.prop       0x000000000002d090      0x15c /opt/xtensa-lx106-elf/bin/../lib/gcc/xtensa-lx106-elf/4.8.2/../../../../xtensa-lx106-elf/lib/libc.a(lib_a-strtol.o)
 .xt.prop       0x000000000002d1ec        0xc /opt/xtensa-lx106-elf/bin/../lib/gcc/xtensa-lx106-elf/4.8.2/../../../../xtensa-lx106-elf/lib/libc.a(lib_a-ctype_.o)
 .xt.prop       0x000000000002d1f8       0x24 /opt/xtensa-lx106-elf/bin/../lib/gcc/xtensa-lx106-elf/4.8.2/../../../../xtensa-lx106-elf/lib/libc.a(lib_a-impure.o)
 .xt.prop       0x000000000002d21c       0x84 ../lib/libgcc.a(_modsi3.o)
 .xt.prop       0x000000000002d2a0       0x3c ../lib/libgcc.a(_ashldi3.o)
 .xt.prop       0x000000000002d2dc       0x3c ../lib/libgcc.a(_ashrdi3.o)
 .xt.prop       0x000000000002d318      0x168 ../lib/libgcc.a(_mulsf3.o)
 .xt.prop       0x000000000002d480      0x15c ../lib/libgcc.a(_divsf3.o)
                                        0x168 (size before relaxing)
 .xt.prop       0x000000000002d5dc       0x60 ../lib/libgcc.a(_fixsfsi.o)
                                         0x6c (size before relaxing)
 .xt.prop       0x000000000002d63c      0x108 hal/.output/eagle/release/lib/libuserhal.a(radio.o)
 .xt.prop       0x000000000002d744      0x444 hal/.output/eagle/release/lib/libuserhal.a(wifi_configuration.o)
                                        0x480 (size before relaxing)
 .xt.prop       0x000000000002db88      0x660 clad/.output/eagle/release/lib/libclad.a(messageEngineToRobot.o)
 .xt.prop       0x000000000002e1e8      0x45c clad/.output/eagle/release/lib/libclad.a(messageRobotToEngine.o)
 .xt.prop       0x000000000002e644       0x54 clad/.output/eagle/release/lib/libclad.a(otaMessages.o)
 .xt.prop       0x000000000002e698       0x54 clad/.output/eagle/release/lib/libclad.a(animationKeyFrames.o)
 .xt.prop       0x000000000002e6ec       0x54 clad/.output/eagle/release/lib/libclad.a(imageTypes.o)
 .xt.prop       0x000000000002e740       0xe4 clad/.output/eagle/release/lib/libclad.a(nvStorage.o)
 .xt.prop       0x000000000002e824      0x108 clad/.output/eagle/release/lib/libclad.a(robotLogging.o)
 .xt.prop       0x000000000002e92c       0xe4 ../lib/libnet80211.a(ieee80211_crypto_tkip.o)
                                         0xfc (size before relaxing)
 .xt.prop       0x000000000002ea10       0x6c ../lib/libnet80211.a(ieee80211_crypto_wep.o)
                                         0x78 (size before relaxing)
 .xt.prop       0x000000000002ea7c       0x6c ../lib/libcrypto.a(aes-wrap.o)
 .xt.prop       0x000000000002eae8       0xd8 ../lib/libcrypto.a(aes-internal-enc.o)
                                         0xe4 (size before relaxing)
 .xt.prop       0x000000000002ebc0       0xb4 ../lib/libcrypto.a(aes-internal.o)

.xt.lit._ZN4Anki5Cozmo14RobotInterface11SendMessageERKNS0_16WriteBodyStorageE
                0x0000000000000000        0x0
 .xt.lit._ZN4Anki5Cozmo14RobotInterface11SendMessageERKNS0_16WriteBodyStorageE
                0x0000000000000000        0x0 application/.output/eagle/release/lib/libapplication.a(crashReporter.o)
                                          0x8 (size before relaxing)

.xt.prop._ZN4Anki5Cozmo14RobotInterface11SendMessageERKNS0_16WriteBodyStorageE
                0x0000000000000000       0x24
 .xt.prop._ZN4Anki5Cozmo14RobotInterface11SendMessageERKNS0_16WriteBodyStorageE
                0x0000000000000000       0x24 application/.output/eagle/release/lib/libapplication.a(crashReporter.o)

.xt.lit._ZN4Anki5Cozmo14RobotInterface11SendMessageERKNS1_3OTA3AckE
                0x0000000000000000        0x0
 .xt.lit._ZN4Anki5Cozmo14RobotInterface11SendMessageERKNS1_3OTA3AckE
                0x0000000000000000        0x0 application/.output/eagle/release/lib/libapplication.a(upgradeController.o)
                                          0x8 (size before relaxing)

.xt.prop._ZN4Anki5Cozmo14RobotInterface11SendMessageERKNS1_3OTA3AckE
                0x0000000000000000       0x24
 .xt.prop._ZN4Anki5Cozmo14RobotInterface11SendMessageERKNS1_3OTA3AckE
                0x0000000000000000       0x24 application/.output/eagle/release/lib/libapplication.a(upgradeController.o)

.debug_loc      0x0000000000000000     0xb3c2
 .debug_loc     0x0000000000000000       0x95 hal/.output/eagle/release/lib/libuserhal.a(user_main.o)
 .debug_loc     0x0000000000000095      0x34e hal/.output/eagle/release/lib/libuserhal.a(client.o)
 .debug_loc     0x00000000000003e3       0xd3 hal/.output/eagle/release/lib/libuserhal.a(foregroundTask.o)
 .debug_loc     0x00000000000004b6      0x48f driver/.output/eagle/release/lib/libdriver.a(crash.o)
 .debug_loc     0x0000000000000945       0x7e driver/.output/eagle/release/lib/libdriver.a(factoryData.o)
 .debug_loc     0x00000000000009c3      0x9c7 driver/.output/eagle/release/lib/libdriver.a(i2spi.o)
 .debug_loc     0x000000000000138a      0x851 driver/.output/eagle/release/lib/libdriver.a(uart.o)
 .debug_loc     0x0000000000001bdb      0xdf1 transport/.output/eagle/release/lib/libtransport.a(reliableTransport.o)
 .debug_loc     0x00000000000029cc       0x83 transport/.output/eagle/release/lib/libtransport.a(reliableMessageTypes.o)
 .debug_loc     0x0000000000002a4f       0xac transport/.output/eagle/release/lib/libtransport.a(reliableSequenceId.o)
 .debug_loc     0x0000000000002afb      0x20a application/.output/eagle/release/lib/libapplication.a(backgroundTask.o)
 .debug_loc     0x0000000000002d05      0x147 application/.output/eagle/release/lib/libapplication.a(crashReporter.o)
 .debug_loc     0x0000000000002e4c      0x122 application/.output/eagle/release/lib/libapplication.a(dhTask.o)
 .debug_loc     0x0000000000002f6e      0xfb8 application/.output/eagle/release/lib/libapplication.a(face.o)
 .debug_loc     0x0000000000003f26      0x94b application/.output/eagle/release/lib/libapplication.a(messages.o)
 .debug_loc     0x0000000000004871      0xe1e application/.output/eagle/release/lib/libapplication.a(nvStorage.o)
 .debug_loc     0x000000000000568f      0x317 application/.output/eagle/release/lib/libapplication.a(rtip.o)
 .debug_loc     0x00000000000059a6      0x3cd application/.output/eagle/release/lib/libapplication.a(upgradeController.o)
 .debug_loc     0x0000000000005d73      0x10e application/.output/eagle/release/lib/libapplication.a(activeObjectManager.o)
 .debug_loc     0x0000000000005e81      0x48d factory/.output/eagle/release/lib/libfactory.a(factoryTests.o)
 .debug_loc     0x000000000000630e      0x577 supervisor/.output/eagle/release/lib/libsupervisor.a(animationController.o)
 .debug_loc     0x0000000000006885      0x53d crypto/.output/eagle/release/lib/libusercrypto.a(sha512.o)
 .debug_loc     0x0000000000006dc2     0x1880 crypto/.output/eagle/release/lib/libusercrypto.a(bignum.o)
 .debug_loc     0x0000000000008642      0x466 crypto/.output/eagle/release/lib/libusercrypto.a(rsa_pss.o)
 .debug_loc     0x0000000000008aa8       0xbf crypto/.output/eagle/release/lib/libusercrypto.a(crc32.o)
 .debug_loc     0x0000000000008b67      0xa15 crypto/.output/eagle/release/lib/libusercrypto.a(aes.o)
 .debug_loc     0x000000000000957c       0x63 /opt/xtensa-lx106-elf/bin/../lib/gcc/xtensa-lx106-elf/4.8.2/../../../../xtensa-lx106-elf/lib/libc.a(lib_a-atoi.o)
 .debug_loc     0x00000000000095df      0x38d /opt/xtensa-lx106-elf/bin/../lib/gcc/xtensa-lx106-elf/4.8.2/../../../../xtensa-lx106-elf/lib/libc.a(lib_a-strtol.o)
 .debug_loc     0x000000000000996c      0x1a2 hal/.output/eagle/release/lib/libuserhal.a(radio.o)
 .debug_loc     0x0000000000009b0e      0x257 hal/.output/eagle/release/lib/libuserhal.a(wifi_configuration.o)
 .debug_loc     0x0000000000009d65      0xa77 clad/.output/eagle/release/lib/libclad.a(messageEngineToRobot.o)
 .debug_loc     0x000000000000a7dc      0x718 clad/.output/eagle/release/lib/libclad.a(messageRobotToEngine.o)
 .debug_loc     0x000000000000aef4       0x7d clad/.output/eagle/release/lib/libclad.a(otaMessages.o)
 .debug_loc     0x000000000000af71       0x7d clad/.output/eagle/release/lib/libclad.a(animationKeyFrames.o)
 .debug_loc     0x000000000000afee       0x7d clad/.output/eagle/release/lib/libclad.a(imageTypes.o)
 .debug_loc     0x000000000000b06b      0x184 clad/.output/eagle/release/lib/libclad.a(nvStorage.o)
 .debug_loc     0x000000000000b1ef      0x1d3 clad/.output/eagle/release/lib/libclad.a(robotLogging.o)
