ARM Linker, 5.03 [Build 76] [MDK-ARM Basic]

==============================================================================

Section Cross References

    main.o(i.GetTimeStamp) refers to main.o(.data) for .data
    main.o(i.SetTimeStamp) refers to main.o(.data) for .data
    main.o(i._ZN4Anki5Cozmo3HAL14IsVideoEnabledEv) refers to main.o(.data) for .data
    main.o(i._ZN4Anki5Cozmo3HAL16SetImageSendModeEha) refers to main.o(.data) for .data
    main.o(i._ZN4Anki5Cozmo3HAL7HALExecEv) refers to i2c.o(i._ZN4Anki5Cozmo3HAL3I2C6EnableEv) for Anki::Cozmo::HAL::I2C::Enable()
    main.o(i._ZN4Anki5Cozmo3HAL7HALExecEv) refers to spi.o(i._ZN4Anki5Cozmo3HAL3SPI10ManageDropEv) for Anki::Cozmo::HAL::SPI::ManageDrop()
    main.o(i._ZN4Anki5Cozmo3HAL7HALExecEv) refers to uart.o(i._ZN4Anki5Cozmo3HAL4UART8TransmitEv) for Anki::Cozmo::HAL::UART::Transmit()
    main.o(i._ZN4Anki5Cozmo3HAL7HALExecEv) refers to imu.o(i._ZN4Anki5Cozmo3HAL3IMU6ManageEv) for Anki::Cozmo::HAL::IMU::Manage()
    main.o(i._ZN4Anki5Cozmo3HAL7HALExecEv) refers to watchdog.o(i._ZN4Anki5Cozmo3HAL8Watchdog4kickEh) for Anki::Cozmo::HAL::Watchdog::kick(unsigned char)
    main.o(i._ZN4Anki5Cozmo3HAL7HALExecEv) refers to watchdog.o(i._ZN4Anki5Cozmo3HAL8Watchdog3petEv) for Anki::Cozmo::HAL::Watchdog::pet()
    main.o(i._ZN4Anki5Cozmo3HAL7HALInitEv) refers to uart.o(i._ZN4Anki5Cozmo3HAL4UART4InitEv) for Anki::Cozmo::HAL::UART::Init()
    main.o(i._ZN4Anki5Cozmo3HAL7HALInitEv) refers to dac.o(i._ZN4Anki5Cozmo3HAL3DAC4SyncEv) for Anki::Cozmo::HAL::DAC::Sync()
    main.o(i.main) refers to power.o(i._ZN4Anki5Cozmo3HAL5Power15enableEspressifEv) for Anki::Cozmo::HAL::Power::enableEspressif()
    main.o(i.main) refers to debug.o(i._ZN4Anki5Cozmo3HAL4UART9DebugInitEv) for Anki::Cozmo::HAL::UART::DebugInit()
    main.o(i.main) refers to spi.o(i._ZN4Anki5Cozmo3HAL3SPI4InitEv) for Anki::Cozmo::HAL::SPI::Init()
    main.o(i.main) refers to dac.o(i._ZN4Anki5Cozmo3HAL3DAC4InitEv) for Anki::Cozmo::HAL::DAC::Init()
    main.o(i.main) refers to i2c.o(i._ZN4Anki5Cozmo3HAL3I2C4InitEv) for Anki::Cozmo::HAL::I2C::Init()
    main.o(i.main) refers to imu.o(i._ZN4Anki5Cozmo3HAL3IMU4InitEv) for Anki::Cozmo::HAL::IMU::Init()
    main.o(i.main) refers to oled.o(i._ZN4Anki5Cozmo3HAL4OLED4InitEv) for Anki::Cozmo::HAL::OLED::Init()
    main.o(i.main) refers to camera.o(i._ZN4Anki5Cozmo3HAL10CameraInitEv) for Anki::Cozmo::HAL::CameraInit()
    main.o(i.main) refers to cozmobot.o(i._ZN4Anki5Cozmo5Robot4InitEv) for Anki::Cozmo::Robot::Init()
    main.o(i.main) refers to watchdog.o(i._ZN4Anki5Cozmo3HAL8Watchdog4initEv) for Anki::Cozmo::HAL::Watchdog::init()
    main.o(i.main) refers to camera.o(i._ZN4Anki5Cozmo3HAL11CameraStartEv) for Anki::Cozmo::HAL::CameraStart()
    main.o(i.main) refers to wifi.o(i._ZN4Anki5Cozmo3HAL4WiFi6UpdateEv) for Anki::Cozmo::HAL::WiFi::Update()
    main.o(i.main) refers to uart.o(i._ZN4Anki5Cozmo3HAL4UART9FoundSyncEv) for Anki::Cozmo::HAL::UART::FoundSync()
    main.o(i.main) refers to uart.o(i._ZN4Anki5Cozmo3HAL4UART11WaitForSyncEv) for Anki::Cozmo::HAL::UART::WaitForSync()
    main.o(i.main) refers to spine.o(i._ZN4Anki5Cozmo3HAL5Spine6ManageEv) for Anki::Cozmo::HAL::Spine::Manage()
    main.o(i.main) refers to cozmobot.o(i._ZN4Anki5Cozmo5Robot18step_MainExecutionEv) for Anki::Cozmo::Robot::step_MainExecution()
    main.o(.ARM.exidx) refers to main.o(i.GetTimeStamp) for i.GetTimeStamp
    main.o(.ARM.exidx) refers to main.o(i.SetTimeStamp) for i.SetTimeStamp
    main.o(.ARM.exidx) refers to main.o(i.__aeabi_vec_ctor_nocookie_nodtor) for i.__aeabi_vec_ctor_nocookie_nodtor
    main.o(.ARM.exidx) refers to main.o(i.main) for i.main
    main.o(.ARM.exidx) refers to main.o(i._ZN4Anki5Cozmo3HAL5GetIDEv) for i._ZN4Anki5Cozmo3HAL5GetIDEv
    main.o(.ARM.exidx) refers to main.o(i._ZN4Anki5Cozmo3HAL16SetImageSendModeEha) for i._ZN4Anki5Cozmo3HAL16SetImageSendModeEha
    main.o(.ARM.exidx) refers to main.o(i._ZN4Anki5Cozmo3HAL14IsVideoEnabledEv) for i._ZN4Anki5Cozmo3HAL14IsVideoEnabledEv
    main.o(.ARM.exidx) refers to main.o(i._ZN4Anki5Cozmo3HAL7HALInitEv) for i._ZN4Anki5Cozmo3HAL7HALInitEv
    main.o(.ARM.exidx) refers to main.o(i._ZN4Anki5Cozmo3HAL7HALExecEv) for i._ZN4Anki5Cozmo3HAL7HALExecEv
    camera.o(i.DMA0_IRQHandler) refers to camera.o(i._Z14NVIC_EnableIRQ4IRQn) for NVIC_EnableIRQ(IRQn)
    camera.o(i.DMA0_IRQHandler) refers to main.o(i._ZN4Anki5Cozmo3HAL7HALInitEv) for Anki::Cozmo::HAL::HALInit()
    camera.o(i.DMA0_IRQHandler) refers to camera.o(.data) for .data
    camera.o(i.FTM2_IRQHandler) refers to spi.o(i._ZN4Anki5Cozmo3HAL3SPI8StartDMAEv) for Anki::Cozmo::HAL::SPI::StartDMA()
    camera.o(i.FTM2_IRQHandler) refers to main.o(i._ZN4Anki5Cozmo3HAL7HALExecEv) for Anki::Cozmo::HAL::HALExec()
    camera.o(i.FTM2_IRQHandler) refers to main.o(i._ZN4Anki5Cozmo3HAL14IsVideoEnabledEv) for Anki::Cozmo::HAL::IsVideoEnabled()
    camera.o(i.FTM2_IRQHandler) refers to enjpeg.o(i._ZN4Anki5Cozmo3HAL12JPEGCompressEii) for Anki::Cozmo::HAL::JPEGCompress(int, int)
    camera.o(i.FTM2_IRQHandler) refers to spi.o(i._ZN4Anki5Cozmo3HAL3SPI12FinalizeDropEibj) for Anki::Cozmo::HAL::SPI::FinalizeDrop(int, bool, unsigned)
    camera.o(i.FTM2_IRQHandler) refers to camera.o(.data) for .data
    camera.o(i._ZN4Anki5Cozmo3HAL10CameraInitEv) refers to camera.o(i._ZN4Anki5Cozmo3HAL6InitIOEv) for Anki::Cozmo::HAL::InitIO()
    camera.o(i._ZN4Anki5Cozmo3HAL10CameraInitEv) refers to camera.o(i._ZN4Anki5Cozmo3HAL7InitCamEv) for Anki::Cozmo::HAL::InitCam()
    camera.o(i._ZN4Anki5Cozmo3HAL10CameraInitEv) refers to camera.o(.data) for .data
    camera.o(i._ZN4Anki5Cozmo3HAL11CameraStartEv) refers to camera.o(i._ZN4Anki5Cozmo3HAL7InitDMAEv) for Anki::Cozmo::HAL::InitDMA()
    camera.o(i._ZN4Anki5Cozmo3HAL11CameraStartEv) refers to camera.o(.data) for .data
    camera.o(i._ZN4Anki5Cozmo3HAL14GetHeadCamInfoEv) refers to camera.o(.data) for .data
    camera.o(i._ZN4Anki5Cozmo3HAL17CameraGetScanLineEv) refers to camera.o(.data) for .data
    camera.o(i._ZN4Anki5Cozmo3HAL20CameraGetFrameNumberEv) refers to camera.o(.data) for .data
    camera.o(i._ZN4Anki5Cozmo3HAL7InitCamEv) refers to timer.o(i._ZN4Anki5Cozmo3HAL9MicroWaitEj) for Anki::Cozmo::HAL::MicroWait(unsigned)
    camera.o(i._ZN4Anki5Cozmo3HAL7InitCamEv) refers to i2c.o(i._ZN4Anki5Cozmo3HAL3I2C8FullStopEv) for Anki::Cozmo::HAL::I2C::FullStop()
    camera.o(i._ZN4Anki5Cozmo3HAL7InitCamEv) refers to i2c.o(i._ZN4Anki5Cozmo3HAL3I2C7ReadRegEhh) for Anki::Cozmo::HAL::I2C::ReadReg(unsigned char, unsigned char)
    camera.o(i._ZN4Anki5Cozmo3HAL7InitCamEv) refers to i2c.o(i._ZN4Anki5Cozmo3HAL3I2C8WriteRegEhhh) for Anki::Cozmo::HAL::I2C::WriteReg(unsigned char, unsigned char, unsigned char)
    camera.o(i._ZN4Anki5Cozmo3HAL7InitCamEv) refers to camera.o(.constdata) for .constdata
    camera.o(i._ZN4Anki5Cozmo3HAL7InitDMAEv) refers to camera.o(i._Z14NVIC_EnableIRQ4IRQn) for NVIC_EnableIRQ(IRQn)
    camera.o(.ARM.exidx) refers to camera.o(i.DMA0_IRQHandler) for i.DMA0_IRQHandler
    camera.o(.ARM.exidx) refers to camera.o(i.FTM2_IRQHandler) for i.FTM2_IRQHandler
    camera.o(.ARM.exidx) refers to camera.o(i._ZN4Anki5Cozmo3HAL10CameraInitEv) for i._ZN4Anki5Cozmo3HAL10CameraInitEv
    camera.o(.ARM.exidx) refers to camera.o(i._ZN4Anki5Cozmo3HAL11CameraStartEv) for i._ZN4Anki5Cozmo3HAL11CameraStartEv
    camera.o(.ARM.exidx) refers to camera.o(i._ZN4Anki5Cozmo3HAL19CameraSetParametersEfb) for i._ZN4Anki5Cozmo3HAL19CameraSetParametersEfb
    camera.o(.ARM.exidx) refers to camera.o(i._ZN4Anki5Cozmo3HAL14GetHeadCamInfoEv) for i._ZN4Anki5Cozmo3HAL14GetHeadCamInfoEv
    camera.o(.ARM.exidx) refers to camera.o(i._ZN4Anki5Cozmo3HAL17CameraGetScanLineEv) for i._ZN4Anki5Cozmo3HAL17CameraGetScanLineEv
    camera.o(.ARM.exidx) refers to camera.o(i._ZN4Anki5Cozmo3HAL20CameraGetFrameNumberEv) for i._ZN4Anki5Cozmo3HAL20CameraGetFrameNumberEv
    camera.o(.ARM.exidx) refers to camera.o(i._ZN4Anki5Cozmo3HAL22CameraGetExposureDelayEv) for i._ZN4Anki5Cozmo3HAL22CameraGetExposureDelayEv
    camera.o(.ARM.exidx) refers to camera.o(i._Z14NVIC_EnableIRQ4IRQn) for i._Z14NVIC_EnableIRQ4IRQn
    camera.o(.ARM.exidx) refers to camera.o(i._ZN4Anki5Cozmo3HAL6InitIOEv) for i._ZN4Anki5Cozmo3HAL6InitIOEv
    camera.o(.ARM.exidx) refers to camera.o(i._ZN4Anki5Cozmo3HAL7InitCamEv) for i._ZN4Anki5Cozmo3HAL7InitCamEv
    camera.o(.ARM.exidx) refers to camera.o(i._ZN4Anki5Cozmo3HAL7InitDMAEv) for i._ZN4Anki5Cozmo3HAL7InitDMAEv
    i2c.o(CODERAM) refers to i2c.o(i._Z11inc_pointerRVi) for inc_pointer(volatile int&)
    i2c.o(CODERAM) refers to i2c.o(.data) for .data
    i2c.o(CODERAM) refers to i2c.o(.bss) for .bss
    i2c.o(CODERAM) refers to i2c.o(i._Z12Read_Handlerv) for Read_Handler()
    i2c.o(CODERAM) refers to startup_mk02f12810.o(VECTORS) for I2C0_Proc
    i2c.o(i._Z11write_queuehh) refers to i2c.o(i._Z11inc_pointerRVi) for inc_pointer(volatile int&)
    i2c.o(i._Z11write_queuehh) refers to i2c.o(.data) for .data
    i2c.o(i._Z11write_queuehh) refers to i2c.o(.bss) for .bss
    i2c.o(i._Z12Read_Handlerv) refers to i2c.o(CODERAM) for Write_Handler()
    i2c.o(i._Z12Read_Handlerv) refers to i2c.o(.data) for .data
    i2c.o(i._Z12Read_Handlerv) refers to startup_mk02f12810.o(VECTORS) for I2C0_Proc
    i2c.o(i._Z7EnqueuehPKhih) refers to i2c.o(i._Z11write_queuehh) for write_queue(unsigned char, unsigned char)
    i2c.o(i._Z7EnqueuehPKhih) refers to i2c.o(.data) for .data
    i2c.o(i._ZN4Anki5Cozmo3HAL3I2C4InitEv) refers to timer.o(i._ZN4Anki5Cozmo3HAL9MicroWaitEj) for Anki::Cozmo::HAL::MicroWait(unsigned)
    i2c.o(i._ZN4Anki5Cozmo3HAL3I2C4InitEv) refers to i2c.o(i._ZN4Anki5Cozmo3HAL3I2C6EnableEv) for Anki::Cozmo::HAL::I2C::Enable()
    i2c.o(i._ZN4Anki5Cozmo3HAL3I2C4InitEv) refers to i2c.o(.data) for .data
    i2c.o(i._ZN4Anki5Cozmo3HAL3I2C4InitEv) refers to i2c.o(CODERAM) for Write_Handler()
    i2c.o(i._ZN4Anki5Cozmo3HAL3I2C4InitEv) refers to startup_mk02f12810.o(VECTORS) for I2C0_Proc
    i2c.o(i._ZN4Anki5Cozmo3HAL3I2C4ReadEhh) refers to i2c.o(i._Z7EnqueuehPKhih) for Enqueue(unsigned char, const unsigned char*, int, unsigned char)
    i2c.o(i._ZN4Anki5Cozmo3HAL3I2C4ReadEhh) refers to i2c.o(i._Z11write_queuehh) for write_queue(unsigned char, unsigned char)
    i2c.o(i._ZN4Anki5Cozmo3HAL3I2C4ReadEhh) refers to i2c.o(.data) for .data
    i2c.o(i._ZN4Anki5Cozmo3HAL3I2C5FlushEv) refers to i2c.o(i._ZN4Anki5Cozmo3HAL3I2C6EnableEv) for Anki::Cozmo::HAL::I2C::Enable()
    i2c.o(i._ZN4Anki5Cozmo3HAL3I2C5FlushEv) refers to i2c.o(.data) for .data
    i2c.o(i._ZN4Anki5Cozmo3HAL3I2C5WriteEhPKhih) refers to i2c.o(i._Z7EnqueuehPKhih) for Enqueue(unsigned char, const unsigned char*, int, unsigned char)
    i2c.o(i._ZN4Anki5Cozmo3HAL3I2C6EnableEv) refers to i2c.o(.data) for .data
    i2c.o(i._ZN4Anki5Cozmo3HAL3I2C6EnableEv) refers to startup_mk02f12810.o(VECTORS) for I2C0_Proc
    i2c.o(i._ZN4Anki5Cozmo3HAL3I2C7ReadRegEhh) refers to i2c.o(i._ZN4Anki5Cozmo3HAL3I2C9SetupReadEPviPFvPKvE) for Anki::Cozmo::HAL::I2C::SetupRead(void*, int, void(*)(const void*))
    i2c.o(i._ZN4Anki5Cozmo3HAL3I2C7ReadRegEhh) refers to i2c.o(i._ZN4Anki5Cozmo3HAL3I2C5WriteEhPKhih) for Anki::Cozmo::HAL::I2C::Write(unsigned char, const unsigned char*, int, unsigned char)
    i2c.o(i._ZN4Anki5Cozmo3HAL3I2C7ReadRegEhh) refers to i2c.o(i._ZN4Anki5Cozmo3HAL3I2C4ReadEhh) for Anki::Cozmo::HAL::I2C::Read(unsigned char, unsigned char)
    i2c.o(i._ZN4Anki5Cozmo3HAL3I2C7ReadRegEhh) refers to i2c.o(i._ZN4Anki5Cozmo3HAL3I2C5FlushEv) for Anki::Cozmo::HAL::I2C::Flush()
    i2c.o(i._ZN4Anki5Cozmo3HAL3I2C8FullStopEv) refers to i2c.o(i._ZN4Anki5Cozmo3HAL3I2C5FlushEv) for Anki::Cozmo::HAL::I2C::Flush()
    i2c.o(i._ZN4Anki5Cozmo3HAL3I2C8FullStopEv) refers to timer.o(i._ZN4Anki5Cozmo3HAL9MicroWaitEj) for Anki::Cozmo::HAL::MicroWait(unsigned)
    i2c.o(i._ZN4Anki5Cozmo3HAL3I2C8FullStopEv) refers to i2c.o(i._ZN4Anki5Cozmo3HAL3I2C6EnableEv) for Anki::Cozmo::HAL::I2C::Enable()
    i2c.o(i._ZN4Anki5Cozmo3HAL3I2C8FullStopEv) refers to i2c.o(.data) for .data
    i2c.o(i._ZN4Anki5Cozmo3HAL3I2C8WriteRegEhhh) refers to i2c.o(i._ZN4Anki5Cozmo3HAL3I2C5WriteEhPKhih) for Anki::Cozmo::HAL::I2C::Write(unsigned char, const unsigned char*, int, unsigned char)
    i2c.o(i._ZN4Anki5Cozmo3HAL3I2C8WriteRegEhhh) refers to i2c.o(i._ZN4Anki5Cozmo3HAL3I2C5FlushEv) for Anki::Cozmo::HAL::I2C::Flush()
    i2c.o(i._ZN4Anki5Cozmo3HAL3I2C9ForceStopEv) refers to i2c.o(i._Z11write_queuehh) for write_queue(unsigned char, unsigned char)
    i2c.o(i._ZN4Anki5Cozmo3HAL3I2C9ForceStopEv) refers to i2c.o(.data) for .data
    i2c.o(i._ZN4Anki5Cozmo3HAL3I2C9SetupReadEPviPFvPKvE) refers to i2c.o(.data) for .data
    i2c.o(.ARM.exidx) refers to i2c.o(i._ZN4Anki5Cozmo3HAL3I2C7DisableEv) for i._ZN4Anki5Cozmo3HAL3I2C7DisableEv
    i2c.o(.ARM.exidx) refers to i2c.o(i._Z7EnqueuehPKhih) for i._Z7EnqueuehPKhih
    i2c.o(.ARM.exidx) refers to i2c.o(CODERAM) for CODERAM
    i2c.o(.ARM.exidx) refers to i2c.o(i._Z12Read_Handlerv) for i._Z12Read_Handlerv
    i2c.o(.ARM.exidx) refers to i2c.o(i._ZN4Anki5Cozmo3HAL3I2C6EnableEv) for i._ZN4Anki5Cozmo3HAL3I2C6EnableEv
    i2c.o(.ARM.exidx) refers to i2c.o(i._ZN4Anki5Cozmo3HAL3I2C4InitEv) for i._ZN4Anki5Cozmo3HAL3I2C4InitEv
    i2c.o(.ARM.exidx) refers to i2c.o(i._ZN4Anki5Cozmo3HAL3I2C5FlushEv) for i._ZN4Anki5Cozmo3HAL3I2C5FlushEv
    i2c.o(.ARM.exidx) refers to i2c.o(i._ZN4Anki5Cozmo3HAL3I2C5WriteEhPKhih) for i._ZN4Anki5Cozmo3HAL3I2C5WriteEhPKhih
    i2c.o(.ARM.exidx) refers to i2c.o(i._ZN4Anki5Cozmo3HAL3I2C8WriteRegEhhh) for i._ZN4Anki5Cozmo3HAL3I2C8WriteRegEhhh
    i2c.o(.ARM.exidx) refers to i2c.o(i._ZN4Anki5Cozmo3HAL3I2C4ReadEhh) for i._ZN4Anki5Cozmo3HAL3I2C4ReadEhh
    i2c.o(.ARM.exidx) refers to i2c.o(i._ZN4Anki5Cozmo3HAL3I2C9SetupReadEPviPFvPKvE) for i._ZN4Anki5Cozmo3HAL3I2C9SetupReadEPviPFvPKvE
    i2c.o(.ARM.exidx) refers to i2c.o(i._ZN4Anki5Cozmo3HAL3I2C7ReadRegEhh) for i._ZN4Anki5Cozmo3HAL3I2C7ReadRegEhh
    i2c.o(.ARM.exidx) refers to i2c.o(i._ZN4Anki5Cozmo3HAL3I2C9ForceStopEv) for i._ZN4Anki5Cozmo3HAL3I2C9ForceStopEv
    i2c.o(.ARM.exidx) refers to i2c.o(i._ZN4Anki5Cozmo3HAL3I2C8FullStopEv) for i._ZN4Anki5Cozmo3HAL3I2C8FullStopEv
    i2c.o(.ARM.exidx) refers to i2c.o(i._Z11inc_pointerRVi) for i._Z11inc_pointerRVi
    i2c.o(.ARM.exidx) refers to i2c.o(i._Z11write_queuehh) for i._Z11write_queuehh
    timer.o(i._ZN4Anki5Cozmo3HAL15GetMicroCounterEv) refers to timer.o(.data) for .data
    timer.o(i._ZN4Anki5Cozmo3HAL4UART17DebugPrintProfileEi) refers to debug.o(i._ZN4Anki5Cozmo3HAL4UART11DebugPrintfEPKcz) for Anki::Cozmo::HAL::UART::DebugPrintf(const char*, ...)
    timer.o(i._ZN4Anki5Cozmo3HAL9MicroWaitEj) refers to timer.o(i._ZN4Anki5Cozmo3HAL15GetMicroCounterEv) for Anki::Cozmo::HAL::GetMicroCounter()
    timer.o(.ARM.exidx) refers to timer.o(i._ZN4Anki5Cozmo3HAL4UART17DebugPrintProfileEi) for i._ZN4Anki5Cozmo3HAL4UART17DebugPrintProfileEi
    timer.o(.ARM.exidx) refers to timer.o(i._ZN4Anki5Cozmo3HAL9TimerInitEv) for i._ZN4Anki5Cozmo3HAL9TimerInitEv
    timer.o(.ARM.exidx) refers to timer.o(i._ZN4Anki5Cozmo3HAL15GetMicroCounterEv) for i._ZN4Anki5Cozmo3HAL15GetMicroCounterEv
    timer.o(.ARM.exidx) refers to timer.o(i._ZN4Anki5Cozmo3HAL9MicroWaitEj) for i._ZN4Anki5Cozmo3HAL9MicroWaitEj
    enjpeg.o(i._ZN4Anki5Cozmo3HAL12JPEGCompressEii) refers to camera.o(i._ZN4Anki5Cozmo3HAL20CameraGetFrameNumberEv) for Anki::Cozmo::HAL::CameraGetFrameNumber()
    enjpeg.o(i._ZN4Anki5Cozmo3HAL12JPEGCompressEii) refers to enjpeg.o(i._ZN4Anki5Cozmo3HAL9simcolB2yEPh) for Anki::Cozmo::HAL::simcolB2y(unsigned char*)
    enjpeg.o(i._ZN4Anki5Cozmo3HAL12JPEGCompressEii) refers to spi.o(i._ZN4Anki5Cozmo3HAL3SPI12FinalizeDropEibj) for Anki::Cozmo::HAL::SPI::FinalizeDrop(int, bool, unsigned)
    enjpeg.o(i._ZN4Anki5Cozmo3HAL12JPEGCompressEii) refers to enjpeg.o(i._ZN4Anki5Cozmo3HAL9simcolB2xEPh) for Anki::Cozmo::HAL::simcolB2x(unsigned char*)
    enjpeg.o(i._ZN4Anki5Cozmo3HAL12JPEGCompressEii) refers to enjpeg.o(i._ZN4Anki5Cozmo3HAL7unrowB2Ev) for Anki::Cozmo::HAL::unrowB2()
    enjpeg.o(i._ZN4Anki5Cozmo3HAL12JPEGCompressEii) refers to enjpeg.o(.data) for .data
    enjpeg.o(i._ZN4Anki5Cozmo3HAL12JPEGCompressEii) refers to spi.o(.data) for spi_write_buff
    enjpeg.o(i._ZN4Anki5Cozmo3HAL12JPEGCompressEii) refers to enjpeg.o(CAMRAM) for CAMRAM
    enjpeg.o(i._ZN4Anki5Cozmo3HAL12JPEGCompressEii) refers to enjpeg.o(.constdata) for .constdata
    enjpeg.o(i._ZN4Anki5Cozmo3HAL7unrowB2Ev) refers to enjpeg.o(CAMRAM) for CAMRAM
    enjpeg.o(i._ZN4Anki5Cozmo3HAL9simcolB2xEPh) refers to enjpeg.o(CAMRAM) for CAMRAM
    enjpeg.o(i._ZN4Anki5Cozmo3HAL9simcolB2yEPh) refers to enjpeg.o(CAMRAM) for CAMRAM
    enjpeg.o(.ARM.exidx) refers to enjpeg.o(i._ZN4Anki5Cozmo3HAL9simcolB2xEPh) for i._ZN4Anki5Cozmo3HAL9simcolB2xEPh
    enjpeg.o(.ARM.exidx) refers to enjpeg.o(i._ZN4Anki5Cozmo3HAL9simcolB2yEPh) for i._ZN4Anki5Cozmo3HAL9simcolB2yEPh
    enjpeg.o(.ARM.exidx) refers to enjpeg.o(i._ZN4Anki5Cozmo3HAL12JPEGCompressEii) for i._ZN4Anki5Cozmo3HAL12JPEGCompressEii
    enjpeg.o(.ARM.exidx) refers to enjpeg.o(i._ZN4Anki5Cozmo3HAL7unrowB2Ev) for i._ZN4Anki5Cozmo3HAL7unrowB2Ev
    dac.o(i._ZN4Anki5Cozmo3HAL3DAC4FeedEbPh) refers to dac.o(i._ZN4Anki5Cozmo3HAL3DAC11EnableAudioEb) for Anki::Cozmo::HAL::DAC::EnableAudio(bool)
    dac.o(i._ZN4Anki5Cozmo3HAL3DAC4FeedEbPh) refers to dac.o(.data) for .data
    dac.o(i._ZN4Anki5Cozmo3HAL3DAC4InitEv) refers to dac.o(i._ZN4Anki5Cozmo3HAL3DAC4MuteEv) for Anki::Cozmo::HAL::DAC::Mute()
    dac.o(i._ZN4Anki5Cozmo3HAL3DAC4MuteEv) refers to dac.o(i._ZN4Anki5Cozmo3HAL3DAC11EnableAudioEb) for Anki::Cozmo::HAL::DAC::EnableAudio(bool)
    dac.o(i._ZN4Anki5Cozmo3HAL3DAC4MuteEv) refers to dac.o(.data) for .data
    dac.o(i._ZN4Anki5Cozmo3HAL3DAC4SyncEv) refers to dac.o(.data) for .data
    dac.o(i._ZN4Anki5Cozmo3HAL3DAC4ToneEf) refers to sinf.o(i.__hardfp_sinf) for __hardfp_sinf
    dac.o(i._ZN4Anki5Cozmo3HAL3DAC4ToneEf) refers to dac.o(i._ZN4Anki5Cozmo3HAL3DAC11EnableAudioEb) for Anki::Cozmo::HAL::DAC::EnableAudio(bool)
    dac.o(i._ZN4Anki5Cozmo3HAL3DAC4ToneEf) refers to dac.o(.data) for .data
    dac.o(.ARM.exidx) refers to dac.o(i._ZN4Anki5Cozmo3HAL3DAC11EnableAudioEb) for i._ZN4Anki5Cozmo3HAL3DAC11EnableAudioEb
    dac.o(.ARM.exidx) refers to dac.o(i._ZN4Anki5Cozmo3HAL3DAC4MuteEv) for i._ZN4Anki5Cozmo3HAL3DAC4MuteEv
    dac.o(.ARM.exidx) refers to dac.o(i._ZN4Anki5Cozmo3HAL3DAC4InitEv) for i._ZN4Anki5Cozmo3HAL3DAC4InitEv
    dac.o(.ARM.exidx) refers to dac.o(i._ZN4Anki5Cozmo3HAL3DAC4SyncEv) for i._ZN4Anki5Cozmo3HAL3DAC4SyncEv
    dac.o(.ARM.exidx) refers to dac.o(i._ZN4Anki5Cozmo3HAL3DAC4FeedEbPh) for i._ZN4Anki5Cozmo3HAL3DAC4FeedEbPh
    dac.o(.ARM.exidx) refers to dac.o(i._ZN4Anki5Cozmo3HAL3DAC4ToneEf) for i._ZN4Anki5Cozmo3HAL3DAC4ToneEf
    oled.o(i._ZN4Anki5Cozmo3HAL4OLED12DisplayDigitEiic) refers to i2c.o(i._ZN4Anki5Cozmo3HAL3I2C5WriteEhPKhih) for Anki::Cozmo::HAL::I2C::Write(unsigned char, const unsigned char*, int, unsigned char)
    oled.o(i._ZN4Anki5Cozmo3HAL4OLED12DisplayDigitEiic) refers to i2c.o(i._ZN4Anki5Cozmo3HAL3I2C5FlushEv) for Anki::Cozmo::HAL::I2C::Flush()
    oled.o(i._ZN4Anki5Cozmo3HAL4OLED12DisplayDigitEiic) refers to oled.o(.constdata) for .constdata
    oled.o(i._ZN4Anki5Cozmo3HAL4OLED4InitEv) refers to timer.o(i._ZN4Anki5Cozmo3HAL9MicroWaitEj) for Anki::Cozmo::HAL::MicroWait(unsigned)
    oled.o(i._ZN4Anki5Cozmo3HAL4OLED4InitEv) refers to i2c.o(i._ZN4Anki5Cozmo3HAL3I2C5WriteEhPKhih) for Anki::Cozmo::HAL::I2C::Write(unsigned char, const unsigned char*, int, unsigned char)
    oled.o(i._ZN4Anki5Cozmo3HAL4OLED4InitEv) refers to oled.o(i._ZN4Anki5Cozmo3HAL4OLED9ClearFaceEv) for Anki::Cozmo::HAL::OLED::ClearFace()
    oled.o(i._ZN4Anki5Cozmo3HAL4OLED4InitEv) refers to oled.o(.constdata) for .constdata
    oled.o(i._ZN4Anki5Cozmo3HAL4OLED8FeedFaceEbPKh) refers to i2c.o(i._ZN4Anki5Cozmo3HAL3I2C5WriteEhPKhih) for Anki::Cozmo::HAL::I2C::Write(unsigned char, const unsigned char*, int, unsigned char)
    oled.o(i._ZN4Anki5Cozmo3HAL4OLED8FeedFaceEbPKh) refers to oled.o(.data) for .data
    oled.o(i._ZN4Anki5Cozmo3HAL4OLED8FeedFaceEbPKh) refers to oled.o(.constdata) for .constdata
    oled.o(i._ZN4Anki5Cozmo3HAL4OLED9ClearFaceEv) refers to i2c.o(i._ZN4Anki5Cozmo3HAL3I2C5WriteEhPKhih) for Anki::Cozmo::HAL::I2C::Write(unsigned char, const unsigned char*, int, unsigned char)
    oled.o(i._ZN4Anki5Cozmo3HAL4OLED9ClearFaceEv) refers to i2c.o(i._ZN4Anki5Cozmo3HAL3I2C5FlushEv) for Anki::Cozmo::HAL::I2C::Flush()
    oled.o(i._ZN4Anki5Cozmo3HAL4OLED9ClearFaceEv) refers to oled.o(.constdata) for .constdata
    oled.o(.ARM.exidx) refers to oled.o(i._ZN4Anki5Cozmo3HAL4OLED9ClearFaceEv) for i._ZN4Anki5Cozmo3HAL4OLED9ClearFaceEv
    oled.o(.ARM.exidx) refers to oled.o(i._ZN4Anki5Cozmo3HAL4OLED4InitEv) for i._ZN4Anki5Cozmo3HAL4OLED4InitEv
    oled.o(.ARM.exidx) refers to oled.o(i._ZN4Anki5Cozmo3HAL4OLED8FeedFaceEbPKh) for i._ZN4Anki5Cozmo3HAL4OLED8FeedFaceEbPKh
    oled.o(.ARM.exidx) refers to oled.o(i._ZN4Anki5Cozmo3HAL4OLED12DisplayDigitEiic) for i._ZN4Anki5Cozmo3HAL4OLED12DisplayDigitEiic
    spi.o(i.DMA2_IRQHandler) refers to spi.o(i._Z11ProcessDropv) for ProcessDrop()
    spi.o(i.DMA2_IRQHandler) refers to dac.o(i._ZN4Anki5Cozmo3HAL3DAC4ToneEf) for Anki::Cozmo::HAL::DAC::Tone(float)
    spi.o(i.DMA2_IRQHandler) refers to spi.o(i._ZN4Anki5Cozmo3HAL3SPI17EnterRecoveryModeEv) for Anki::Cozmo::HAL::SPI::EnterRecoveryMode()
    spi.o(i.DMA2_IRQHandler) refers to spi.o(i._Z16NVIC_SystemResetv) for NVIC_SystemReset()
    spi.o(i.DMA2_IRQHandler) refers to spi.o(i._ZN4Anki5Cozmo3HAL3SPI12EnterOTAModeEv) for Anki::Cozmo::HAL::SPI::EnterOTAMode()
    spi.o(i.DMA2_IRQHandler) refers to spi.o(.bss) for .bss
    spi.o(i.DMA2_IRQHandler) refers to spi.o(.data) for .data
    spi.o(i._Z11ProcessDropv) refers to watchdog.o(i._ZN4Anki5Cozmo3HAL8Watchdog4kickEh) for Anki::Cozmo::HAL::Watchdog::kick(unsigned char)
    spi.o(i._Z11ProcessDropv) refers to oled.o(i._ZN4Anki5Cozmo3HAL4OLED8FeedFaceEbPKh) for Anki::Cozmo::HAL::OLED::FeedFace(bool, const unsigned char*)
    spi.o(i._Z11ProcessDropv) refers to spi.o(i._Z16NVIC_SystemResetv) for NVIC_SystemReset()
    spi.o(i._Z11ProcessDropv) refers to spi.o(i._ZN4Anki5Cozmo3HAL3SPI17EnterRecoveryModeEv) for Anki::Cozmo::HAL::SPI::EnterRecoveryMode()
    spi.o(i._Z11ProcessDropv) refers to spi.o(i._ZN4Anki5Cozmo3HAL3SPI12EnterOTAModeEv) for Anki::Cozmo::HAL::SPI::EnterOTAMode()
    spi.o(i._Z11ProcessDropv) refers to wifi.o(i._ZN4Anki5Cozmo3HAL4WiFi14ReceiveMessageEPhh) for Anki::Cozmo::HAL::WiFi::ReceiveMessage(unsigned char*, unsigned char)
    spi.o(i._Z11ProcessDropv) refers to spi.o(.bss) for .bss
    spi.o(i._Z11ProcessDropv) refers to spi.o(.data) for .data
    spi.o(i._Z7SyncSPIv) refers to spi.o(i._Z11WaitForBytev) for WaitForByte()
    spi.o(i._ZN4Anki5Cozmo3HAL3SPI10ManageDropEv) refers to dac.o(i._ZN4Anki5Cozmo3HAL3DAC4FeedEbPh) for Anki::Cozmo::HAL::DAC::Feed(bool, unsigned char*)
    spi.o(i._ZN4Anki5Cozmo3HAL3SPI10ManageDropEv) refers to spi.o(.data) for .data
    spi.o(i._ZN4Anki5Cozmo3HAL3SPI12EnterOTAModeEv) refers to uart.o(i._ZN4Anki5Cozmo3HAL4UART5pauseEv) for Anki::Cozmo::HAL::UART::pause()
    spi.o(i._ZN4Anki5Cozmo3HAL3SPI12EnterOTAModeEv) refers to watchdog.o(i._ZN4Anki5Cozmo3HAL8Watchdog7suspendEv) for Anki::Cozmo::HAL::Watchdog::suspend()
    spi.o(i._ZN4Anki5Cozmo3HAL3SPI12FinalizeDropEibj) refers to main.o(i.GetTimeStamp) for GetTimeStamp
    spi.o(i._ZN4Anki5Cozmo3HAL3SPI12FinalizeDropEibj) refers to wifi.o(i._ZN4Anki5Cozmo3HAL4WiFi9GetTxDataEPhh) for Anki::Cozmo::HAL::WiFi::GetTxData(unsigned char*, unsigned char)
    spi.o(i._ZN4Anki5Cozmo3HAL3SPI12FinalizeDropEibj) refers to spi.o(.data) for .data
    spi.o(i._ZN4Anki5Cozmo3HAL3SPI17EnterRecoveryModeEv) refers to spi.o(.data) for .data
    spi.o(i._ZN4Anki5Cozmo3HAL3SPI4InitEv) refers to spi.o(i._ZN4Anki5Cozmo3HAL3SPI7InitDMAEv) for Anki::Cozmo::HAL::SPI::InitDMA()
    spi.o(i._ZN4Anki5Cozmo3HAL3SPI4InitEv) refers to spi.o(i._Z7SyncSPIv) for SyncSPI()
    spi.o(i._ZN4Anki5Cozmo3HAL3SPI7InitDMAEv) refers to spi.o(.bss) for .bss
    spi.o(i._ZN4Anki5Cozmo3HAL3SPI8StartDMAEv) refers to spi.o(.data) for .data
    spi.o(.ARM.exidx) refers to spi.o(i._ZN4Anki5Cozmo3HAL3SPI12EnterOTAModeEv) for i._ZN4Anki5Cozmo3HAL3SPI12EnterOTAModeEv
    spi.o(.ARM.exidx) refers to spi.o(i._ZN4Anki5Cozmo3HAL3SPI17EnterRecoveryModeEv) for i._ZN4Anki5Cozmo3HAL3SPI17EnterRecoveryModeEv
    spi.o(.ARM.exidx) refers to spi.o(i.DMA2_IRQHandler) for i.DMA2_IRQHandler
    spi.o(.ARM.exidx) refers to spi.o(i._Z7SyncSPIv) for i._Z7SyncSPIv
    spi.o(.ARM.exidx) refers to spi.o(i._ZN4Anki5Cozmo3HAL3SPI10ManageDropEv) for i._ZN4Anki5Cozmo3HAL3SPI10ManageDropEv
    spi.o(.ARM.exidx) refers to spi.o(i._ZN4Anki5Cozmo3HAL3SPI8StartDMAEv) for i._ZN4Anki5Cozmo3HAL3SPI8StartDMAEv
    spi.o(.ARM.exidx) refers to spi.o(i._ZN4Anki5Cozmo3HAL3SPI12FinalizeDropEibj) for i._ZN4Anki5Cozmo3HAL3SPI12FinalizeDropEibj
    spi.o(.ARM.exidx) refers to spi.o(i._ZN4Anki5Cozmo3HAL3SPI7InitDMAEv) for i._ZN4Anki5Cozmo3HAL3SPI7InitDMAEv
    spi.o(.ARM.exidx) refers to spi.o(i._ZN4Anki5Cozmo3HAL3SPI4InitEv) for i._ZN4Anki5Cozmo3HAL3SPI4InitEv
    spi.o(.ARM.exidx) refers to spi.o(i._Z16NVIC_SystemResetv) for i._Z16NVIC_SystemResetv
    spi.o(.ARM.exidx) refers to spi.o(i._Z11ProcessDropv) for i._Z11ProcessDropv
    spi.o(.data) refers to spi.o(.bss) for spi_backbuff
    uart.o(i._ZN4Anki5Cozmo3HAL4UART11WaitForSyncEv) refers to uart.o(.data) for .data
    uart.o(i._ZN4Anki5Cozmo3HAL4UART12SendCrashLogEPKvi) refers to uart.o(.data) for .data
    uart.o(i._ZN4Anki5Cozmo3HAL4UART4InitEv) refers to uart.o(i._Z13transmit_mode13TRANSFER_MODE) for transmit_mode(TRANSFER_MODE)
    uart.o(i._ZN4Anki5Cozmo3HAL4UART4InitEv) refers to main.o(.bss) for g_dataToBody
    uart.o(i._ZN4Anki5Cozmo3HAL4UART4InitEv) refers to uart.o(.data) for .data
    uart.o(i._ZN4Anki5Cozmo3HAL4UART8TransmitEv) refers to memcpya.o(.text) for __aeabi_memcpy4
    uart.o(i._ZN4Anki5Cozmo3HAL4UART8TransmitEv) refers to watchdog.o(i._ZN4Anki5Cozmo3HAL8Watchdog4kickEh) for Anki::Cozmo::HAL::Watchdog::kick(unsigned char)
    uart.o(i._ZN4Anki5Cozmo3HAL4UART8TransmitEv) refers to uart.o(i._Z13transmit_mode13TRANSFER_MODE) for transmit_mode(TRANSFER_MODE)
    uart.o(i._ZN4Anki5Cozmo3HAL4UART8TransmitEv) refers to uart.o(.data) for .data
    uart.o(i._ZN4Anki5Cozmo3HAL4UART8TransmitEv) refers to uart.o(.bss) for .bss
    uart.o(i._ZN4Anki5Cozmo3HAL4UART8TransmitEv) refers to uart.o(.constdata) for .constdata
    uart.o(i._ZN4Anki5Cozmo3HAL4UART8TransmitEv) refers to main.o(.bss) for g_dataToHead
    uart.o(i._ZN4Anki5Cozmo3HAL4UART9FoundSyncEv) refers to uart.o(.data) for .data
    uart.o(.ARM.exidx) refers to uart.o(i._ZN4Anki5Cozmo3HAL4UART4InitEv) for i._ZN4Anki5Cozmo3HAL4UART4InitEv
    uart.o(.ARM.exidx) refers to uart.o(i._ZN4Anki5Cozmo3HAL4UART12SendCrashLogEPKvi) for i._ZN4Anki5Cozmo3HAL4UART12SendCrashLogEPKvi
    uart.o(.ARM.exidx) refers to uart.o(i._ZN4Anki5Cozmo3HAL4UART5pauseEv) for i._ZN4Anki5Cozmo3HAL4UART5pauseEv
    uart.o(.ARM.exidx) refers to uart.o(i._ZN4Anki5Cozmo3HAL4UART9FoundSyncEv) for i._ZN4Anki5Cozmo3HAL4UART9FoundSyncEv
    uart.o(.ARM.exidx) refers to uart.o(i._ZN4Anki5Cozmo3HAL4UART11WaitForSyncEv) for i._ZN4Anki5Cozmo3HAL4UART11WaitForSyncEv
    uart.o(.ARM.exidx) refers to uart.o(i._ZN4Anki5Cozmo3HAL4UART8TransmitEv) for i._ZN4Anki5Cozmo3HAL4UART8TransmitEv
    debug.o(i._ZN4Anki5Cozmo3HAL4UART11DebugPrintfEPKcz) refers to printfa.o(i.__0vsnprintf) for __c89vsnprintf
    debug.o(.ARM.exidx) refers to debug.o(i._ZN4Anki5Cozmo3HAL4UART9DebugInitEv) for i._ZN4Anki5Cozmo3HAL4UART9DebugInitEv
    debug.o(.ARM.exidx) refers to debug.o(i._ZN4Anki5Cozmo3HAL4UART9DebugPutcEc) for i._ZN4Anki5Cozmo3HAL4UART9DebugPutcEc
    debug.o(.ARM.exidx) refers to debug.o(i._ZN4Anki5Cozmo3HAL4UART11DebugPrintfEPKcz) for i._ZN4Anki5Cozmo3HAL4UART11DebugPrintfEPKcz
    imu.o(i._Z13state_updatedPKv) refers to imu.o(.bss) for .bss
    imu.o(i._Z13state_updatedPKv) refers to imu.o(.data) for .data
    imu.o(i._ZN4Anki5Cozmo3HAL11IMUReadDataERNS1_17IMU_DataStructureE) refers to imu.o(.data) for .data
    imu.o(i._ZN4Anki5Cozmo3HAL11IMUReadDataERNS1_17IMU_DataStructureE) refers to imu.o(.bss) for .bss
    imu.o(i._ZN4Anki5Cozmo3HAL14IMUReadRawDataEPsS2_Ph) refers to imu.o(.bss) for .bss
    imu.o(i._ZN4Anki5Cozmo3HAL16IMUGetCameraTimeEPjPh) refers to camera.o(i._ZN4Anki5Cozmo3HAL22CameraGetExposureDelayEv) for Anki::Cozmo::HAL::CameraGetExposureDelay()
    imu.o(i._ZN4Anki5Cozmo3HAL16IMUGetCameraTimeEPjPh) refers to imu.o(.bss) for .bss
    imu.o(i._ZN4Anki5Cozmo3HAL16IMUGetCameraTimeEPjPh) refers to imu.o(.data) for .data
    imu.o(i._ZN4Anki5Cozmo3HAL24IMUSetCalibrationOffsetsEPKsS3_) refers to imu.o(.bss) for .bss
    imu.o(i._ZN4Anki5Cozmo3HAL3IMU4InitEv) refers to i2c.o(i._ZN4Anki5Cozmo3HAL3I2C8WriteRegEhhh) for Anki::Cozmo::HAL::I2C::WriteReg(unsigned char, unsigned char, unsigned char)
    imu.o(i._ZN4Anki5Cozmo3HAL3IMU4InitEv) refers to timer.o(i._ZN4Anki5Cozmo3HAL9MicroWaitEj) for Anki::Cozmo::HAL::MicroWait(unsigned)
    imu.o(i._ZN4Anki5Cozmo3HAL3IMU4InitEv) refers to imu.o(i._ZN4Anki5Cozmo3HAL3IMU6ReadIDEv) for Anki::Cozmo::HAL::IMU::ReadID()
    imu.o(i._ZN4Anki5Cozmo3HAL3IMU4InitEv) refers to imu.o(i._ZN4Anki5Cozmo3HAL3IMU6ManageEv) for Anki::Cozmo::HAL::IMU::Manage()
    imu.o(i._ZN4Anki5Cozmo3HAL3IMU6ManageEv) refers to camera.o(i._ZN4Anki5Cozmo3HAL20CameraGetFrameNumberEv) for Anki::Cozmo::HAL::CameraGetFrameNumber()
    imu.o(i._ZN4Anki5Cozmo3HAL3IMU6ManageEv) refers to camera.o(i._ZN4Anki5Cozmo3HAL17CameraGetScanLineEv) for Anki::Cozmo::HAL::CameraGetScanLine()
    imu.o(i._ZN4Anki5Cozmo3HAL3IMU6ManageEv) refers to memcpya.o(.text) for __aeabi_memcpy
    imu.o(i._ZN4Anki5Cozmo3HAL3IMU6ManageEv) refers to i2c.o(i._ZN4Anki5Cozmo3HAL3I2C9SetupReadEPviPFvPKvE) for Anki::Cozmo::HAL::I2C::SetupRead(void*, int, void(*)(const void*))
    imu.o(i._ZN4Anki5Cozmo3HAL3IMU6ManageEv) refers to i2c.o(i._ZN4Anki5Cozmo3HAL3I2C5WriteEhPKhih) for Anki::Cozmo::HAL::I2C::Write(unsigned char, const unsigned char*, int, unsigned char)
    imu.o(i._ZN4Anki5Cozmo3HAL3IMU6ManageEv) refers to i2c.o(i._ZN4Anki5Cozmo3HAL3I2C4ReadEhh) for Anki::Cozmo::HAL::I2C::Read(unsigned char, unsigned char)
    imu.o(i._ZN4Anki5Cozmo3HAL3IMU6ManageEv) refers to imu.o(.data) for .data
    imu.o(i._ZN4Anki5Cozmo3HAL3IMU6ManageEv) refers to imu.o(.bss) for .bss
    imu.o(i._ZN4Anki5Cozmo3HAL3IMU6ManageEv) refers to imu.o(i._Z13state_updatedPKv) for state_updated(const void*)
    imu.o(i._ZN4Anki5Cozmo3HAL3IMU6ManageEv) refers to imu.o(.constdata) for .constdata
    imu.o(i._ZN4Anki5Cozmo3HAL3IMU6ReadIDEv) refers to i2c.o(i._ZN4Anki5Cozmo3HAL3I2C7ReadRegEhh) for Anki::Cozmo::HAL::I2C::ReadReg(unsigned char, unsigned char)
    imu.o(.ARM.exidx) refers to imu.o(i._Z13state_updatedPKv) for i._Z13state_updatedPKv
    imu.o(.ARM.exidx) refers to imu.o(i._ZN4Anki5Cozmo3HAL3IMU6ManageEv) for i._ZN4Anki5Cozmo3HAL3IMU6ManageEv
    imu.o(.ARM.exidx) refers to imu.o(i._ZN4Anki5Cozmo3HAL3IMU6ReadIDEv) for i._ZN4Anki5Cozmo3HAL3IMU6ReadIDEv
    imu.o(.ARM.exidx) refers to imu.o(i._ZN4Anki5Cozmo3HAL3IMU4InitEv) for i._ZN4Anki5Cozmo3HAL3IMU4InitEv
    imu.o(.ARM.exidx) refers to imu.o(i._ZN4Anki5Cozmo3HAL24IMUSetCalibrationOffsetsEPKsS3_) for i._ZN4Anki5Cozmo3HAL24IMUSetCalibrationOffsetsEPKsS3_
    imu.o(.ARM.exidx) refers to imu.o(i._ZN4Anki5Cozmo3HAL14IMUReadRawDataEPsS2_Ph) for i._ZN4Anki5Cozmo3HAL14IMUReadRawDataEPsS2_Ph
    imu.o(.ARM.exidx) refers to imu.o(i._ZN4Anki5Cozmo3HAL11IMUReadDataERNS1_17IMU_DataStructureE) for i._ZN4Anki5Cozmo3HAL11IMUReadDataERNS1_17IMU_DataStructureE
    imu.o(.ARM.exidx) refers to imu.o(i._ZN4Anki5Cozmo3HAL16IMUGetCameraTimeEPjPh) for i._ZN4Anki5Cozmo3HAL16IMUGetCameraTimeEPjPh
    wifi.o(i._ZN4Anki5Cozmo3HAL16RadioIsConnectedEv) refers to wifi.o(.data) for .data
    wifi.o(i._ZN4Anki5Cozmo3HAL16RadioSendMessageEPKvth) refers to spine.o(i._ZN4Anki5Cozmo3HAL5Spine7EnqueueEPKvhh) for Anki::Cozmo::HAL::Spine::Enqueue(const void*, unsigned char, unsigned char)
    wifi.o(i._ZN4Anki5Cozmo3HAL16RadioSendMessageEPKvth) refers to messages.o(i._ZN4Anki5Cozmo14RobotInterface7SendLogEatthz) for Anki::Cozmo::RobotInterface::SendLog(signed char, unsigned short, unsigned short, unsigned char, ...)
    wifi.o(i._ZN4Anki5Cozmo3HAL16RadioSendMessageEPKvth) refers to wifi.o(.data) for .data
    wifi.o(i._ZN4Anki5Cozmo3HAL16RadioSendMessageEPKvth) refers to wifi.o(.bss) for .bss
    wifi.o(i._ZN4Anki5Cozmo3HAL16RadioUpdateStateEhh) refers to wifi.o(.data) for .data
    wifi.o(i._ZN4Anki5Cozmo3HAL4WiFi14ReceiveMessageEPhh) refers to main.o(i.GetTimeStamp) for GetTimeStamp
    wifi.o(i._ZN4Anki5Cozmo3HAL4WiFi14ReceiveMessageEPhh) refers to messages.o(i._ZN4Anki5Cozmo14RobotInterface7SendLogEatthz) for Anki::Cozmo::RobotInterface::SendLog(signed char, unsigned short, unsigned short, unsigned char, ...)
    wifi.o(i._ZN4Anki5Cozmo3HAL4WiFi14ReceiveMessageEPhh) refers to wifi.o(.data) for .data
    wifi.o(i._ZN4Anki5Cozmo3HAL4WiFi14ReceiveMessageEPhh) refers to wifi.o(.bss) for .bss
    wifi.o(i._ZN4Anki5Cozmo3HAL4WiFi6UpdateEv) refers to messages.o(i._ZN4Anki5Cozmo14RobotInterface7SendLogEatthz) for Anki::Cozmo::RobotInterface::SendLog(signed char, unsigned short, unsigned short, unsigned char, ...)
    wifi.o(i._ZN4Anki5Cozmo3HAL4WiFi6UpdateEv) refers to clad.o(i._ZNK4Anki5Cozmo14RobotInterface13EngineToRobot4SizeEv) for Anki::Cozmo::RobotInterface::EngineToRobot::Size() const
    wifi.o(i._ZN4Anki5Cozmo3HAL4WiFi6UpdateEv) refers to spine.o(i._ZN4Anki5Cozmo3HAL5Spine7EnqueueEPKvhh) for Anki::Cozmo::HAL::Spine::Enqueue(const void*, unsigned char, unsigned char)
    wifi.o(i._ZN4Anki5Cozmo3HAL4WiFi6UpdateEv) refers to messages.o(i._ZN4Anki5Cozmo8Messages14ProcessMessageERNS0_14RobotInterface13EngineToRobotE) for Anki::Cozmo::Messages::ProcessMessage(Anki::Cozmo::RobotInterface::EngineToRobot&)
    wifi.o(i._ZN4Anki5Cozmo3HAL4WiFi6UpdateEv) refers to wifi.o(.data) for .data
    wifi.o(i._ZN4Anki5Cozmo3HAL4WiFi6UpdateEv) refers to wifi.o(.bss) for .bss
    wifi.o(i._ZN4Anki5Cozmo3HAL4WiFi9GetTxDataEPhh) refers to wifi.o(.data) for .data
    wifi.o(i._ZN4Anki5Cozmo3HAL4WiFi9GetTxDataEPhh) refers to wifi.o(.bss) for .bss
    wifi.o(.ARM.exidx) refers to wifi.o(i._ZN4Anki5Cozmo3HAL4WiFi9GetTxDataEPhh) for i._ZN4Anki5Cozmo3HAL4WiFi9GetTxDataEPhh
    wifi.o(.ARM.exidx) refers to wifi.o(i._ZN4Anki5Cozmo3HAL4WiFi14ReceiveMessageEPhh) for i._ZN4Anki5Cozmo3HAL4WiFi14ReceiveMessageEPhh
    wifi.o(.ARM.exidx) refers to wifi.o(i._ZN4Anki5Cozmo3HAL4WiFi6UpdateEv) for i._ZN4Anki5Cozmo3HAL4WiFi6UpdateEv
    wifi.o(.ARM.exidx) refers to wifi.o(i._ZN4Anki5Cozmo3HAL16RadioSendMessageEPKvth) for i._ZN4Anki5Cozmo3HAL16RadioSendMessageEPKvth
    wifi.o(.ARM.exidx) refers to wifi.o(i._ZN4Anki5Cozmo3HAL16RadioIsConnectedEv) for i._ZN4Anki5Cozmo3HAL16RadioIsConnectedEv
    wifi.o(.ARM.exidx) refers to wifi.o(i._ZN4Anki5Cozmo3HAL16RadioUpdateStateEhh) for i._ZN4Anki5Cozmo3HAL16RadioUpdateStateEhh
    motors.o(i._ZN4Anki5Cozmo3HAL13MotorGetSpeedEh) refers to main.o(.bss) for g_dataToHead
    motors.o(i._ZN4Anki5Cozmo3HAL13MotorSetPowerEhf) refers to main.o(.bss) for g_dataToBody
    motors.o(i._ZN4Anki5Cozmo3HAL16MotorGetPositionEh) refers to main.o(.bss) for g_dataToHead
    motors.o(i._ZN4Anki5Cozmo3HAL16MotorGetPositionEh) refers to motors.o(.bss) for .bss
    motors.o(i._ZN4Anki5Cozmo3HAL18MotorResetPositionEh) refers to main.o(.bss) for g_dataToHead
    motors.o(i._ZN4Anki5Cozmo3HAL18MotorResetPositionEh) refers to motors.o(.bss) for .bss
    motors.o(.ARM.exidx) refers to motors.o(i._ZN4Anki5Cozmo3HAL13MotorSetPowerEhf) for i._ZN4Anki5Cozmo3HAL13MotorSetPowerEhf
    motors.o(.ARM.exidx) refers to motors.o(i._ZN4Anki5Cozmo3HAL18MotorResetPositionEh) for i._ZN4Anki5Cozmo3HAL18MotorResetPositionEh
    motors.o(.ARM.exidx) refers to motors.o(i._ZN4Anki5Cozmo3HAL13MotorGetSpeedEh) for i._ZN4Anki5Cozmo3HAL13MotorGetSpeedEh
    motors.o(.ARM.exidx) refers to motors.o(i._ZN4Anki5Cozmo3HAL16MotorGetPositionEh) for i._ZN4Anki5Cozmo3HAL16MotorGetPositionEh
    motors.o(.ARM.exidx) refers to motors.o(i._ZN4Anki5Cozmo3HAL12MotorGetLoadEv) for i._ZN4Anki5Cozmo3HAL12MotorGetLoadEv
    lights.o(i._ZN4Anki5Cozmo3HAL11GetBackpackEPt) refers to lights.o(.data) for .data
    lights.o(i._ZN4Anki5Cozmo3HAL15IsCliffDetectedEv) refers to lights.o(.data) for .data
    lights.o(i._ZN4Anki5Cozmo3HAL15IsCliffDetectedEv) refers to main.o(.bss) for g_dataToHead
    lights.o(.ARM.exidx) refers to lights.o(i._ZN4Anki5Cozmo3HAL6SetLEDEht) for i._ZN4Anki5Cozmo3HAL6SetLEDEht
    lights.o(.ARM.exidx) refers to lights.o(i._ZN4Anki5Cozmo3HAL11GetBackpackEPt) for i._ZN4Anki5Cozmo3HAL11GetBackpackEPt
    lights.o(.ARM.exidx) refers to lights.o(i._ZN4Anki5Cozmo3HAL15IsCliffDetectedEv) for i._ZN4Anki5Cozmo3HAL15IsCliffDetectedEv
    cube.o(i._ZN4Anki5Cozmo3HAL12GetPropStateEiiiiihaa) refers to main.o(i.GetTimeStamp) for GetTimeStamp
    cube.o(i._ZN4Anki5Cozmo3HAL12GetPropStateEiiiiihaa) refers to wifi.o(i._ZN4Anki5Cozmo3HAL16RadioSendMessageEPKvth) for Anki::Cozmo::HAL::RadioSendMessage(const void*, unsigned short, unsigned char)
    cube.o(i._ZN4Anki5Cozmo3HAL12GetPropStateEiiiiihaa) refers to cube.o(i._ZN4Anki5Cozmo3HAL19ReportUpAxisChangedEih) for Anki::Cozmo::HAL::ReportUpAxisChanged(int, unsigned char)
    cube.o(i._ZN4Anki5Cozmo3HAL12GetPropStateEiiiiihaa) refers to cube.o(.data) for .data
    cube.o(i._ZN4Anki5Cozmo3HAL12GetPropStateEiiiiihaa) refers to cube.o(.bss) for .bss
    cube.o(i._ZN4Anki5Cozmo3HAL12GetPropStateEiiiiihaa) refers to cube.o(.constdata) for .constdata
    cube.o(i._ZN4Anki5Cozmo3HAL19ReportUpAxisChangedEih) refers to main.o(i.GetTimeStamp) for GetTimeStamp
    cube.o(i._ZN4Anki5Cozmo3HAL19ReportUpAxisChangedEih) refers to wifi.o(i._ZN4Anki5Cozmo3HAL16RadioSendMessageEPKvth) for Anki::Cozmo::HAL::RadioSendMessage(const void*, unsigned short, unsigned char)
    cube.o(.ARM.exidx) refers to cube.o(i._ZN4Anki5Cozmo3HAL19ReportUpAxisChangedEih) for i._ZN4Anki5Cozmo3HAL19ReportUpAxisChangedEih
    cube.o(.ARM.exidx) refers to cube.o(i._ZN4Anki5Cozmo3HAL12GetPropStateEiiiiihaa) for i._ZN4Anki5Cozmo3HAL12GetPropStateEiiiiihaa
    spine.o(i._ZN4Anki5Cozmo3HAL5Spine6ManageEv) refers to memcpya.o(.text) for __aeabi_memcpy
    spine.o(i._ZN4Anki5Cozmo3HAL5Spine6ManageEv) refers to messages.o(i._ZN4Anki5Cozmo14RobotInterface7SendLogEatthz) for Anki::Cozmo::RobotInterface::SendLog(signed char, unsigned short, unsigned short, unsigned char, ...)
    spine.o(i._ZN4Anki5Cozmo3HAL5Spine6ManageEv) refers to wifi.o(i._ZN4Anki5Cozmo3HAL16RadioSendMessageEPKvth) for Anki::Cozmo::HAL::RadioSendMessage(const void*, unsigned short, unsigned char)
    spine.o(i._ZN4Anki5Cozmo3HAL5Spine6ManageEv) refers to clad.o(i._ZNK4Anki5Cozmo14RobotInterface13EngineToRobot4SizeEv) for Anki::Cozmo::RobotInterface::EngineToRobot::Size() const
    spine.o(i._ZN4Anki5Cozmo3HAL5Spine6ManageEv) refers to messages.o(i._ZN4Anki5Cozmo8Messages14ProcessMessageERNS0_14RobotInterface13EngineToRobotE) for Anki::Cozmo::Messages::ProcessMessage(Anki::Cozmo::RobotInterface::EngineToRobot&)
    spine.o(i._ZN4Anki5Cozmo3HAL5Spine6ManageEv) refers to memseta.o(.text) for __aeabi_memclr4
    spine.o(i._ZN4Anki5Cozmo3HAL5Spine6ManageEv) refers to main.o(.bss) for g_dataToHead
    spine.o(i._ZN4Anki5Cozmo3HAL5Spine7DequeueEPh) refers to memcpya.o(.text) for __aeabi_memcpy
    spine.o(i._ZN4Anki5Cozmo3HAL5Spine7DequeueEPh) refers to memseta.o(.text) for __aeabi_memclr
    spine.o(i._ZN4Anki5Cozmo3HAL5Spine7DequeueEPh) refers to spine.o(.data) for .data
    spine.o(i._ZN4Anki5Cozmo3HAL5Spine7DequeueEPh) refers to spine.o(.bss) for .bss
    spine.o(i._ZN4Anki5Cozmo3HAL5Spine7EnqueueEPKvhh) refers to messages.o(i._ZN4Anki5Cozmo14RobotInterface7SendLogEatthz) for Anki::Cozmo::RobotInterface::SendLog(signed char, unsigned short, unsigned short, unsigned char, ...)
    spine.o(i._ZN4Anki5Cozmo3HAL5Spine7EnqueueEPKvhh) refers to memcpya.o(.text) for __aeabi_memcpy
    spine.o(i._ZN4Anki5Cozmo3HAL5Spine7EnqueueEPKvhh) refers to spine.o(.data) for .data
    spine.o(i._ZN4Anki5Cozmo3HAL5Spine7EnqueueEPKvhh) refers to spine.o(.bss) for .bss
    spine.o(.ARM.exidx) refers to spine.o(i._ZN4Anki5Cozmo3HAL5Spine7DequeueEPh) for i._ZN4Anki5Cozmo3HAL5Spine7DequeueEPh
    spine.o(.ARM.exidx) refers to spine.o(i._ZN4Anki5Cozmo3HAL5Spine7EnqueueEPKvhh) for i._ZN4Anki5Cozmo3HAL5Spine7EnqueueEPKvhh
    spine.o(.ARM.exidx) refers to spine.o(i._ZN4Anki5Cozmo3HAL5Spine6ManageEv) for i._ZN4Anki5Cozmo3HAL5Spine6ManageEv
    watchdog.o(i.WDOG_EWM_IRQHandler) refers to dac.o(i._ZN4Anki5Cozmo3HAL3DAC4ToneEf) for Anki::Cozmo::HAL::DAC::Tone(float)
    watchdog.o(i.WDOG_EWM_IRQHandler) refers to spi.o(i._ZN4Anki5Cozmo3HAL3SPI17EnterRecoveryModeEv) for Anki::Cozmo::HAL::SPI::EnterRecoveryMode()
    watchdog.o(i._ZN4Anki5Cozmo3HAL8Watchdog3petEv) refers to watchdog.o(.data) for .data
    watchdog.o(i._ZN4Anki5Cozmo3HAL8Watchdog4initEv) refers to watchdog.o(.data) for .data
    watchdog.o(i._ZN4Anki5Cozmo3HAL8Watchdog4kickEh) refers to watchdog.o(.data) for .data
    watchdog.o(i._ZN4Anki5Cozmo3HAL8Watchdog7suspendEv) refers to timer.o(i._ZN4Anki5Cozmo3HAL9MicroWaitEj) for Anki::Cozmo::HAL::MicroWait(unsigned)
    watchdog.o(.ARM.exidx) refers to watchdog.o(i.WDOG_EWM_IRQHandler) for i.WDOG_EWM_IRQHandler
    watchdog.o(.ARM.exidx) refers to watchdog.o(i._ZN4Anki5Cozmo3HAL8Watchdog4initEv) for i._ZN4Anki5Cozmo3HAL8Watchdog4initEv
    watchdog.o(.ARM.exidx) refers to watchdog.o(i._ZN4Anki5Cozmo3HAL8Watchdog7suspendEv) for i._ZN4Anki5Cozmo3HAL8Watchdog7suspendEv
    watchdog.o(.ARM.exidx) refers to watchdog.o(i._ZN4Anki5Cozmo3HAL8Watchdog4kickEh) for i._ZN4Anki5Cozmo3HAL8Watchdog4kickEh
    watchdog.o(.ARM.exidx) refers to watchdog.o(i._ZN4Anki5Cozmo3HAL8Watchdog3petEv) for i._ZN4Anki5Cozmo3HAL8Watchdog3petEv
    power.o(i._ZN4Anki5Cozmo3HAL5Power15enableEspressifEv) refers to timer.o(i._ZN4Anki5Cozmo3HAL9MicroWaitEj) for Anki::Cozmo::HAL::MicroWait(unsigned)
    power.o(.ARM.exidx) refers to power.o(i._ZN4Anki5Cozmo3HAL5Power15enableEspressifEv) for i._ZN4Anki5Cozmo3HAL5Power15enableEspressifEv
    power.o(.ARM.exidx) refers to power.o(i._ZN4Anki5Cozmo3HAL5Power14enterSleepModeEv) for i._ZN4Anki5Cozmo3HAL5Power14enterSleepModeEv
    power.o(.ARM.exidx) refers to power.o(i._ZN4Anki5Cozmo3HAL5Power16disableEspressifEv) for i._ZN4Anki5Cozmo3HAL5Power16disableEspressifEv
    crashlogger.o(i.HardFault_Handler) refers to memcpya.o(.text) for __aeabi_memcpy4
    crashlogger.o(i.HardFault_Handler) refers to uart.o(i._ZN4Anki5Cozmo3HAL4UART12SendCrashLogEPKvi) for Anki::Cozmo::HAL::UART::SendCrashLog(const void*, int)
    crashlogger.o(i.HardFault_Handler) refers to uart.o(i._ZN4Anki5Cozmo3HAL4UART8TransmitEv) for Anki::Cozmo::HAL::UART::Transmit()
    crashlogger.o(i.HardFault_Handler) refers to crashlogger.o(.data) for .data
    crashlogger.o(.ARM.exidx) refers to crashlogger.o(i.HardFault_Handler) for i.HardFault_Handler
    startup_mk02f12810.o(HEADER) refers to startup_mk02f12810.o(.text) for Reset_Handler
    startup_mk02f12810.o(HEADER) refers to startup_mk02f12810.o(VECTORS) for __Vectors
    startup_mk02f12810.o(VECTORS) refers to startup_mk02f12810.o(.text) for Reset_Handler
    startup_mk02f12810.o(VECTORS) refers to camera.o(i.DMA0_IRQHandler) for DMA0_IRQHandler
    startup_mk02f12810.o(VECTORS) refers to spi.o(i.DMA2_IRQHandler) for DMA2_IRQHandler
    startup_mk02f12810.o(VECTORS) refers to watchdog.o(i.WDOG_EWM_IRQHandler) for WDOG_EWM_IRQHandler
    startup_mk02f12810.o(VECTORS) refers to camera.o(i.FTM2_IRQHandler) for FTM2_IRQHandler
    startup_mk02f12810.o(.text) refers to crashlogger.o(i.HardFault_Handler) for HardFault_Handler
    startup_mk02f12810.o(.text) refers to entry.o(.ARM.Collect$$$$00000000) for __main
    startup_mk02f12810.o(.text) refers to crashlogger.o(.data) for CRASHLOG_POINTER
    clad.o(i._ZNK4Anki5Cozmo14RobotInterface13EngineToRobot4SizeEv) refers to clad.o(i._ZNK4Anki5Cozmo14RobotInterface18NVReadResultToBody4SizeEv) for Anki::Cozmo::RobotInterface::NVReadResultToBody::Size() const
    clad.o(i._ZNK4Anki5Cozmo14RobotInterface13EngineToRobot4SizeEv) refers to clad.o(i._ZNK4Anki5Cozmo16WriteBodyStorage4SizeEv) for Anki::Cozmo::WriteBodyStorage::Size() const
    clad.o(i._ZNK4Anki5Cozmo14RobotInterface13EngineToRobot4SizeEv) refers to clad.o(i._ZNK4Anki5Cozmo9NVStorage14NVStorageWrite4SizeEv) for Anki::Cozmo::NVStorage::NVStorageWrite::Size() const
    clad.o(i._ZNK4Anki5Cozmo14RobotInterface13EngineToRobot4SizeEv) refers to clad.o(i._ZNK4Anki5Cozmo9NVStorage9NVWipeAll4SizeEv) for Anki::Cozmo::NVStorage::NVWipeAll::Size() const
    clad.o(i._ZNK4Anki5Cozmo14RobotInterface13EngineToRobot4SizeEv) refers to clad.o(i._ZNK4Anki5Cozmo12AnimKeyFrame9FaceImage4SizeEv) for Anki::Cozmo::AnimKeyFrame::FaceImage::Size() const
    clad.o(i._ZNK4Anki5Cozmo14RobotInterface13EngineToRobot4SizeEv) refers to clad.o(i._ZNK4Anki5Cozmo9CubeSlots4SizeEv) for Anki::Cozmo::CubeSlots::Size() const
    clad.o(i._ZNK4Anki5Cozmo14RobotInterface13EngineToRobot4SizeEv) refers to clad.o(i._ZNK4Anki5Cozmo19BodyStorageContents4SizeEv) for Anki::Cozmo::BodyStorageContents::Size() const
    clad.o(i._ZNK4Anki5Cozmo14RobotInterface13EngineToRobot7IsValidEv) refers to clad.o(i._ZNK4Anki5Cozmo14RobotInterface18NVReadResultToBody7IsValidEv) for Anki::Cozmo::RobotInterface::NVReadResultToBody::IsValid() const
    clad.o(i._ZNK4Anki5Cozmo14RobotInterface13EngineToRobot7IsValidEv) refers to clad.o(i._ZNK4Anki5Cozmo16WriteBodyStorage7IsValidEv) for Anki::Cozmo::WriteBodyStorage::IsValid() const
    clad.o(i._ZNK4Anki5Cozmo14RobotInterface13EngineToRobot7IsValidEv) refers to clad.o(i._ZNK4Anki5Cozmo9NVStorage14NVStorageWrite7IsValidEv) for Anki::Cozmo::NVStorage::NVStorageWrite::IsValid() const
    clad.o(i._ZNK4Anki5Cozmo14RobotInterface13EngineToRobot7IsValidEv) refers to clad.o(i._ZNK4Anki5Cozmo12AnimKeyFrame9FaceImage7IsValidEv) for Anki::Cozmo::AnimKeyFrame::FaceImage::IsValid() const
    clad.o(i._ZNK4Anki5Cozmo14RobotInterface13EngineToRobot7IsValidEv) refers to clad.o(i._ZNK4Anki5Cozmo9CubeSlots7IsValidEv) for Anki::Cozmo::CubeSlots::IsValid() const
    clad.o(i._ZNK4Anki5Cozmo14RobotInterface13EngineToRobot7IsValidEv) refers to clad.o(i._ZNK4Anki5Cozmo19BodyStorageContents7IsValidEv) for Anki::Cozmo::BodyStorageContents::IsValid() const
    clad.o(i._ZNK4Anki5Cozmo14RobotInterface13RobotToEngine4SizeEv) refers to clad.o(i._ZNK4Anki5Cozmo14RobotInterface10PrintTrace4SizeEv) for Anki::Cozmo::RobotInterface::PrintTrace::Size() const
    clad.o(i._ZNK4Anki5Cozmo14RobotInterface13RobotToEngine4SizeEv) refers to clad.o(i._ZNK4Anki5Cozmo14RobotInterface9PrintText4SizeEv) for Anki::Cozmo::RobotInterface::PrintText::Size() const
    clad.o(i._ZNK4Anki5Cozmo14RobotInterface13RobotToEngine4SizeEv) refers to clad.o(i._ZNK4Anki5Cozmo14RobotInterface8DataDump4SizeEv) for Anki::Cozmo::RobotInterface::DataDump::Size() const
    clad.o(i._ZNK4Anki5Cozmo14RobotInterface13RobotToEngine4SizeEv) refers to clad.o(i._ZNK4Anki5Cozmo14RobotInterface15TimeProfileStat4SizeEv) for Anki::Cozmo::RobotInterface::TimeProfileStat::Size() const
    clad.o(i._ZNK4Anki5Cozmo14RobotInterface13RobotToEngine4SizeEv) refers to clad.o(i._ZNK4Anki5Cozmo14RobotInterface20NVReadResultToEngine4SizeEv) for Anki::Cozmo::RobotInterface::NVReadResultToEngine::Size() const
    clad.o(i._ZNK4Anki5Cozmo14RobotInterface13RobotToEngine4SizeEv) refers to clad.o(i._ZNK4Anki5Cozmo14RobotInterface11CrashReport4SizeEv) for Anki::Cozmo::RobotInterface::CrashReport::Size() const
    clad.o(i._ZNK4Anki5Cozmo14RobotInterface13RobotToEngine4SizeEv) refers to clad.o(i._ZNK4Anki5Cozmo14RobotInterface15FirmwareVersion4SizeEv) for Anki::Cozmo::RobotInterface::FirmwareVersion::Size() const
    clad.o(i._ZNK4Anki5Cozmo14RobotInterface13RobotToEngine4SizeEv) refers to clad.o(i._ZNK4Anki5Cozmo10ImageChunk4SizeEv) for Anki::Cozmo::ImageChunk::Size() const
    clad.o(i._ZNK4Anki5Cozmo14RobotInterface13RobotToEngine7IsValidEv) refers to clad.o(i._ZNK4Anki5Cozmo14RobotInterface10PrintTrace7IsValidEv) for Anki::Cozmo::RobotInterface::PrintTrace::IsValid() const
    clad.o(i._ZNK4Anki5Cozmo14RobotInterface13RobotToEngine7IsValidEv) refers to clad.o(i._ZNK4Anki5Cozmo14RobotInterface20NVReadResultToEngine7IsValidEv) for Anki::Cozmo::RobotInterface::NVReadResultToEngine::IsValid() const
    clad.o(i._ZNK4Anki5Cozmo14RobotInterface13RobotToEngine7IsValidEv) refers to clad.o(i._ZNK4Anki5Cozmo14RobotInterface15FirmwareVersion7IsValidEv) for Anki::Cozmo::RobotInterface::FirmwareVersion::IsValid() const
    clad.o(i._ZNK4Anki5Cozmo14RobotInterface13RobotToEngine7IsValidEv) refers to clad.o(i._ZNK4Anki5Cozmo10ImageChunk7IsValidEv) for Anki::Cozmo::ImageChunk::IsValid() const
    clad.o(i._ZNK4Anki5Cozmo14RobotInterface18NVReadResultToBody4SizeEv) refers to clad.o(i._ZNK4Anki5Cozmo9NVStorage13NVStorageBlob4SizeEv) for Anki::Cozmo::NVStorage::NVStorageBlob::Size() const
    clad.o(i._ZNK4Anki5Cozmo14RobotInterface18NVReadResultToBody7IsValidEv) refers to clad.o(i._ZNK4Anki5Cozmo9NVStorage13NVStorageBlob7IsValidEv) for Anki::Cozmo::NVStorage::NVStorageBlob::IsValid() const
    clad.o(i._ZNK4Anki5Cozmo14RobotInterface20NVReadResultToEngine4SizeEv) refers to clad.o(i._ZNK4Anki5Cozmo9NVStorage13NVStorageBlob4SizeEv) for Anki::Cozmo::NVStorage::NVStorageBlob::Size() const
    clad.o(i._ZNK4Anki5Cozmo14RobotInterface20NVReadResultToEngine7IsValidEv) refers to clad.o(i._ZNK4Anki5Cozmo9NVStorage13NVStorageBlob7IsValidEv) for Anki::Cozmo::NVStorage::NVStorageBlob::IsValid() const
    clad.o(i._ZNK4Anki5Cozmo9NVStorage14NVStorageWrite4SizeEv) refers to clad.o(i._ZNK4Anki5Cozmo9NVStorage13NVStorageBlob4SizeEv) for Anki::Cozmo::NVStorage::NVStorageBlob::Size() const
    clad.o(i._ZNK4Anki5Cozmo9NVStorage14NVStorageWrite7IsValidEv) refers to clad.o(i._ZNK4Anki5Cozmo9NVStorage13NVStorageBlob7IsValidEv) for Anki::Cozmo::NVStorage::NVStorageBlob::IsValid() const
    clad.o(.ARM.exidx) refers to clad.o(i._ZNK4Anki5Cozmo10ImageChunk7IsValidEv) for i._ZNK4Anki5Cozmo10ImageChunk7IsValidEv
    clad.o(.ARM.exidx) refers to clad.o(i._ZNK4Anki5Cozmo10ImageChunk4SizeEv) for i._ZNK4Anki5Cozmo10ImageChunk4SizeEv
    clad.o(.ARM.exidx) refers to clad.o(i._ZNK4Anki5Cozmo9CubeSlots7IsValidEv) for i._ZNK4Anki5Cozmo9CubeSlots7IsValidEv
    clad.o(.ARM.exidx) refers to clad.o(i._ZNK4Anki5Cozmo9CubeSlots4SizeEv) for i._ZNK4Anki5Cozmo9CubeSlots4SizeEv
    clad.o(.ARM.exidx) refers to clad.o(i._ZNK4Anki5Cozmo16WriteBodyStorage7IsValidEv) for i._ZNK4Anki5Cozmo16WriteBodyStorage7IsValidEv
    clad.o(.ARM.exidx) refers to clad.o(i._ZNK4Anki5Cozmo16WriteBodyStorage4SizeEv) for i._ZNK4Anki5Cozmo16WriteBodyStorage4SizeEv
    clad.o(.ARM.exidx) refers to clad.o(i._ZNK4Anki5Cozmo19BodyStorageContents7IsValidEv) for i._ZNK4Anki5Cozmo19BodyStorageContents7IsValidEv
    clad.o(.ARM.exidx) refers to clad.o(i._ZNK4Anki5Cozmo19BodyStorageContents4SizeEv) for i._ZNK4Anki5Cozmo19BodyStorageContents4SizeEv
    clad.o(.ARM.exidx) refers to clad.o(i._ZNK4Anki5Cozmo28AdvertisementRegistrationMsg7IsValidEv) for i._ZNK4Anki5Cozmo28AdvertisementRegistrationMsg7IsValidEv
    clad.o(.ARM.exidx) refers to clad.o(i._ZNK4Anki5Cozmo28AdvertisementRegistrationMsg4SizeEv) for i._ZNK4Anki5Cozmo28AdvertisementRegistrationMsg4SizeEv
    clad.o(.ARM.exidx) refers to clad.o(i._ZNK4Anki5Cozmo16AdvertisementMsg7IsValidEv) for i._ZNK4Anki5Cozmo16AdvertisementMsg7IsValidEv
    clad.o(.ARM.exidx) refers to clad.o(i._ZNK4Anki5Cozmo16AdvertisementMsg4SizeEv) for i._ZNK4Anki5Cozmo16AdvertisementMsg4SizeEv
    clad.o(.ARM.exidx) refers to clad.o(i._ZNK4Anki5Cozmo14RobotInterface15FirmwareVersion7IsValidEv) for i._ZNK4Anki5Cozmo14RobotInterface15FirmwareVersion7IsValidEv
    clad.o(.ARM.exidx) refers to clad.o(i._ZNK4Anki5Cozmo14RobotInterface15FirmwareVersion4SizeEv) for i._ZNK4Anki5Cozmo14RobotInterface15FirmwareVersion4SizeEv
    clad.o(.ARM.exidx) refers to clad.o(i._ZNK4Anki5Cozmo9NVStorage13NVStorageBlob7IsValidEv) for i._ZNK4Anki5Cozmo9NVStorage13NVStorageBlob7IsValidEv
    clad.o(.ARM.exidx) refers to clad.o(i._ZNK4Anki5Cozmo14RobotInterface18NVReadResultToBody7IsValidEv) for i._ZNK4Anki5Cozmo14RobotInterface18NVReadResultToBody7IsValidEv
    clad.o(.ARM.exidx) refers to clad.o(i._ZNK4Anki5Cozmo9NVStorage13NVStorageBlob4SizeEv) for i._ZNK4Anki5Cozmo9NVStorage13NVStorageBlob4SizeEv
    clad.o(.ARM.exidx) refers to clad.o(i._ZNK4Anki5Cozmo14RobotInterface18NVReadResultToBody4SizeEv) for i._ZNK4Anki5Cozmo14RobotInterface18NVReadResultToBody4SizeEv
    clad.o(.ARM.exidx) refers to clad.o(i._ZNK4Anki5Cozmo12AnimKeyFrame9FaceImage7IsValidEv) for i._ZNK4Anki5Cozmo12AnimKeyFrame9FaceImage7IsValidEv
    clad.o(.ARM.exidx) refers to clad.o(i._ZNK4Anki5Cozmo9NVStorage9NVWipeAll7IsValidEv) for i._ZNK4Anki5Cozmo9NVStorage9NVWipeAll7IsValidEv
    clad.o(.ARM.exidx) refers to clad.o(i._ZNK4Anki5Cozmo9NVStorage14NVStorageWrite7IsValidEv) for i._ZNK4Anki5Cozmo9NVStorage14NVStorageWrite7IsValidEv
    clad.o(.ARM.exidx) refers to clad.o(i._ZNK4Anki5Cozmo14RobotInterface13EngineToRobot7IsValidEv) for i._ZNK4Anki5Cozmo14RobotInterface13EngineToRobot7IsValidEv
    clad.o(.ARM.exidx) refers to clad.o(i._ZNK4Anki5Cozmo12AnimKeyFrame9FaceImage4SizeEv) for i._ZNK4Anki5Cozmo12AnimKeyFrame9FaceImage4SizeEv
    clad.o(.ARM.exidx) refers to clad.o(i._ZNK4Anki5Cozmo9NVStorage9NVWipeAll4SizeEv) for i._ZNK4Anki5Cozmo9NVStorage9NVWipeAll4SizeEv
    clad.o(.ARM.exidx) refers to clad.o(i._ZNK4Anki5Cozmo9NVStorage14NVStorageWrite4SizeEv) for i._ZNK4Anki5Cozmo9NVStorage14NVStorageWrite4SizeEv
    clad.o(.ARM.exidx) refers to clad.o(i._ZNK4Anki5Cozmo14RobotInterface13EngineToRobot4SizeEv) for i._ZNK4Anki5Cozmo14RobotInterface13EngineToRobot4SizeEv
    clad.o(.ARM.exidx) refers to clad.o(i._ZNK4Anki5Cozmo14RobotInterface10PrintTrace7IsValidEv) for i._ZNK4Anki5Cozmo14RobotInterface10PrintTrace7IsValidEv
    clad.o(.ARM.exidx) refers to clad.o(i._ZNK4Anki5Cozmo14RobotInterface10PrintTrace4SizeEv) for i._ZNK4Anki5Cozmo14RobotInterface10PrintTrace4SizeEv
    clad.o(.ARM.exidx) refers to clad.o(i._ZNK4Anki5Cozmo14RobotInterface15TimeProfileStat7IsValidEv) for i._ZNK4Anki5Cozmo14RobotInterface15TimeProfileStat7IsValidEv
    clad.o(.ARM.exidx) refers to clad.o(i._ZNK4Anki5Cozmo14RobotInterface15TimeProfileStat4SizeEv) for i._ZNK4Anki5Cozmo14RobotInterface15TimeProfileStat4SizeEv
    clad.o(.ARM.exidx) refers to clad.o(i._ZNK4Anki5Cozmo14RobotInterface8DataDump4SizeEv) for i._ZNK4Anki5Cozmo14RobotInterface8DataDump4SizeEv
    clad.o(.ARM.exidx) refers to clad.o(i._ZNK4Anki5Cozmo14RobotInterface9PrintText7IsValidEv) for i._ZNK4Anki5Cozmo14RobotInterface9PrintText7IsValidEv
    clad.o(.ARM.exidx) refers to clad.o(i._ZNK4Anki5Cozmo14RobotInterface9PrintText4SizeEv) for i._ZNK4Anki5Cozmo14RobotInterface9PrintText4SizeEv
    clad.o(.ARM.exidx) refers to clad.o(i._ZNK4Anki5Cozmo14RobotInterface20NVReadResultToEngine7IsValidEv) for i._ZNK4Anki5Cozmo14RobotInterface20NVReadResultToEngine7IsValidEv
    clad.o(.ARM.exidx) refers to clad.o(i._ZNK4Anki5Cozmo14RobotInterface20NVReadResultToEngine4SizeEv) for i._ZNK4Anki5Cozmo14RobotInterface20NVReadResultToEngine4SizeEv
    clad.o(.ARM.exidx) refers to clad.o(i._ZNK4Anki5Cozmo14RobotInterface11CrashReport4SizeEv) for i._ZNK4Anki5Cozmo14RobotInterface11CrashReport4SizeEv
    clad.o(.ARM.exidx) refers to clad.o(i._ZNK4Anki5Cozmo14RobotInterface13RobotToEngine7IsValidEv) for i._ZNK4Anki5Cozmo14RobotInterface13RobotToEngine7IsValidEv
    clad.o(.ARM.exidx) refers to clad.o(i._ZNK4Anki5Cozmo14RobotInterface13RobotToEngine4SizeEv) for i._ZNK4Anki5Cozmo14RobotInterface13RobotToEngine4SizeEv
    clad.o(.ARM.exidx) refers to clad.o(i._ZNK4Anki5Cozmo13BlockMessages16LightCubeMessage7IsValidEv) for i._ZNK4Anki5Cozmo13BlockMessages16LightCubeMessage7IsValidEv
    clad.o(.ARM.exidx) refers to clad.o(i._ZNK4Anki5Cozmo13BlockMessages16LightCubeMessage4SizeEv) for i._ZNK4Anki5Cozmo13BlockMessages16LightCubeMessage4SizeEv
    cozmobot.o(i._ZN4Anki5Cozmo5Robot16GetOperationModeEv) refers to cozmobot.o(.data) for .data
    cozmobot.o(i._ZN4Anki5Cozmo5Robot16SetOperationModeENS1_13OperationModeE) refers to cozmobot.o(.data) for .data
    cozmobot.o(i._ZN4Anki5Cozmo5Robot18step_MainExecutionEv) refers to main.o(i.GetTimeStamp) for GetTimeStamp
    cozmobot.o(i._ZN4Anki5Cozmo5Robot18step_MainExecutionEv) refers to main.o(i.SetTimeStamp) for SetTimeStamp
    cozmobot.o(i._ZN4Anki5Cozmo5Robot18step_MainExecutionEv) refers to timer.o(i._ZN4Anki5Cozmo3HAL15GetMicroCounterEv) for Anki::Cozmo::HAL::GetMicroCounter()
    cozmobot.o(i._ZN4Anki5Cozmo5Robot18step_MainExecutionEv) refers to testmodecontroller.o(i._ZN4Anki5Cozmo18TestModeController6UpdateEv) for Anki::Cozmo::TestModeController::Update()
    cozmobot.o(i._ZN4Anki5Cozmo5Robot18step_MainExecutionEv) refers to localization.o(i._ZN4Anki5Cozmo12Localization6UpdateEv) for Anki::Cozmo::Localization::Update()
    cozmobot.o(i._ZN4Anki5Cozmo5Robot18step_MainExecutionEv) refers to wifi.o(i._ZN4Anki5Cozmo3HAL16RadioIsConnectedEv) for Anki::Cozmo::HAL::RadioIsConnected()
    cozmobot.o(i._ZN4Anki5Cozmo5Robot18step_MainExecutionEv) refers to messages.o(i._ZN4Anki5Cozmo14RobotInterface7SendLogEatthz) for Anki::Cozmo::RobotInterface::SendLog(signed char, unsigned short, unsigned short, unsigned char, ...)
    cozmobot.o(i._ZN4Anki5Cozmo5Robot18step_MainExecutionEv) refers to backpacklightcontroller.o(i._ZN4Anki5Cozmo23BackpackLightController10TurnOffAllEv) for Anki::Cozmo::BackpackLightController::TurnOffAll()
    cozmobot.o(i._ZN4Anki5Cozmo5Robot18step_MainExecutionEv) refers to liftcontroller.o(i._ZN4Anki5Cozmo14LiftController6EnableEv) for Anki::Cozmo::LiftController::Enable()
    cozmobot.o(i._ZN4Anki5Cozmo5Robot18step_MainExecutionEv) refers to headcontroller.o(i._ZN4Anki5Cozmo14HeadController6EnableEv) for Anki::Cozmo::HeadController::Enable()
    cozmobot.o(i._ZN4Anki5Cozmo5Robot18step_MainExecutionEv) refers to messages.o(i._ZN4Anki5Cozmo8Messages9ResetInitEv) for Anki::Cozmo::Messages::ResetInit()
    cozmobot.o(i._ZN4Anki5Cozmo5Robot18step_MainExecutionEv) refers to steeringcontroller.o(i._ZN4Anki5Cozmo18SteeringController18ExecuteDirectDriveEffff) for Anki::Cozmo::SteeringController::ExecuteDirectDrive(float, float, float, float)
    cozmobot.o(i._ZN4Anki5Cozmo5Robot18step_MainExecutionEv) refers to liftcontroller.o(i._ZN4Anki5Cozmo14LiftController7DisableEb) for Anki::Cozmo::LiftController::Disable(bool)
    cozmobot.o(i._ZN4Anki5Cozmo5Robot18step_MainExecutionEv) refers to headcontroller.o(i._ZN4Anki5Cozmo14HeadController7DisableEv) for Anki::Cozmo::HeadController::Disable()
    cozmobot.o(i._ZN4Anki5Cozmo5Robot18step_MainExecutionEv) refers to pickandplacecontroller.o(i._ZN4Anki5Cozmo22PickAndPlaceController5ResetEv) for Anki::Cozmo::PickAndPlaceController::Reset()
    cozmobot.o(i._ZN4Anki5Cozmo5Robot18step_MainExecutionEv) refers to pickandplacecontroller.o(i._ZN4Anki5Cozmo22PickAndPlaceController13SetCarryStateEh) for Anki::Cozmo::PickAndPlaceController::SetCarryState(unsigned char)
    cozmobot.o(i._ZN4Anki5Cozmo5Robot18step_MainExecutionEv) refers to backpacklightcontroller.o(i._ZN4Anki5Cozmo23BackpackLightController4InitEv) for Anki::Cozmo::BackpackLightController::Init()
    cozmobot.o(i._ZN4Anki5Cozmo5Robot18step_MainExecutionEv) refers to proxsensors.o(i._ZN4Anki5Cozmo11ProxSensors17EnableStopOnCliffEb) for Anki::Cozmo::ProxSensors::EnableStopOnCliff(bool)
    cozmobot.o(i._ZN4Anki5Cozmo5Robot18step_MainExecutionEv) refers to messages.o(i._ZN4Anki5Cozmo8Messages19ProcessBTLEMessagesEv) for Anki::Cozmo::Messages::ProcessBTLEMessages()
    cozmobot.o(i._ZN4Anki5Cozmo5Robot18step_MainExecutionEv) refers to imufilter.o(i._ZN4Anki5Cozmo9IMUFilter6UpdateEv) for Anki::Cozmo::IMUFilter::Update()
    cozmobot.o(i._ZN4Anki5Cozmo5Robot18step_MainExecutionEv) refers to proxsensors.o(i._ZN4Anki5Cozmo11ProxSensors6UpdateEv) for Anki::Cozmo::ProxSensors::Update()
    cozmobot.o(i._ZN4Anki5Cozmo5Robot18step_MainExecutionEv) refers to headcontroller.o(i._ZN4Anki5Cozmo14HeadController6UpdateEv) for Anki::Cozmo::HeadController::Update()
    cozmobot.o(i._ZN4Anki5Cozmo5Robot18step_MainExecutionEv) refers to liftcontroller.o(i._ZN4Anki5Cozmo14LiftController6UpdateEv) for Anki::Cozmo::LiftController::Update()
    cozmobot.o(i._ZN4Anki5Cozmo5Robot18step_MainExecutionEv) refers to backpacklightcontroller.o(i._ZN4Anki5Cozmo23BackpackLightController6UpdateEv) for Anki::Cozmo::BackpackLightController::Update()
    cozmobot.o(i._ZN4Anki5Cozmo5Robot18step_MainExecutionEv) refers to pathfollower.o(i._ZN4Anki5Cozmo12PathFollower6UpdateEv) for Anki::Cozmo::PathFollower::Update()
    cozmobot.o(i._ZN4Anki5Cozmo5Robot18step_MainExecutionEv) refers to pickandplacecontroller.o(i._ZN4Anki5Cozmo22PickAndPlaceController6UpdateEv) for Anki::Cozmo::PickAndPlaceController::Update()
    cozmobot.o(i._ZN4Anki5Cozmo5Robot18step_MainExecutionEv) refers to dockingcontroller.o(i._ZN4Anki5Cozmo17DockingController6UpdateEv) for Anki::Cozmo::DockingController::Update()
    cozmobot.o(i._ZN4Anki5Cozmo5Robot18step_MainExecutionEv) refers to speedcontroller.o(i._ZN4Anki5Cozmo15SpeedController6ManageEv) for Anki::Cozmo::SpeedController::Manage()
    cozmobot.o(i._ZN4Anki5Cozmo5Robot18step_MainExecutionEv) refers to steeringcontroller.o(i._ZN4Anki5Cozmo18SteeringController6ManageEv) for Anki::Cozmo::SteeringController::Manage()
    cozmobot.o(i._ZN4Anki5Cozmo5Robot18step_MainExecutionEv) refers to wheelcontroller.o(i._ZN4Anki5Cozmo15WheelController6ManageEv) for Anki::Cozmo::WheelController::Manage()
    cozmobot.o(i._ZN4Anki5Cozmo5Robot18step_MainExecutionEv) refers to messages.o(i._ZN4Anki5Cozmo8Messages19UpdateRobotStateMsgEv) for Anki::Cozmo::Messages::UpdateRobotStateMsg()
    cozmobot.o(i._ZN4Anki5Cozmo5Robot18step_MainExecutionEv) refers to cozmobot.o(i._ZN4Anki5Cozmo5Robot22MotorCalibrationUpdateEv) for Anki::Cozmo::Robot::MotorCalibrationUpdate()
    cozmobot.o(i._ZN4Anki5Cozmo5Robot18step_MainExecutionEv) refers to messages.o(i._ZN4Anki5Cozmo8Messages17SendRobotStateMsgEPKNS0_10RobotStateE) for Anki::Cozmo::Messages::SendRobotStateMsg(const Anki::Cozmo::RobotState*)
    cozmobot.o(i._ZN4Anki5Cozmo5Robot18step_MainExecutionEv) refers to wifi.o(i._ZN4Anki5Cozmo3HAL16RadioSendMessageEPKvth) for Anki::Cozmo::HAL::RadioSendMessage(const void*, unsigned short, unsigned char)
    cozmobot.o(i._ZN4Anki5Cozmo5Robot18step_MainExecutionEv) refers to cozmobot.o(.data) for .data
    cozmobot.o(i._ZN4Anki5Cozmo5Robot22MotorCalibrationUpdateEv) refers to liftcontroller.o(i._ZN4Anki5Cozmo14LiftController12IsCalibratedEv) for Anki::Cozmo::LiftController::IsCalibrated()
    cozmobot.o(i._ZN4Anki5Cozmo5Robot22MotorCalibrationUpdateEv) refers to headcontroller.o(i._ZN4Anki5Cozmo14HeadController12IsCalibratedEv) for Anki::Cozmo::HeadController::IsCalibrated()
    cozmobot.o(i._ZN4Anki5Cozmo5Robot22MotorCalibrationUpdateEv) refers to messages.o(i._ZN4Anki5Cozmo14RobotInterface7SendLogEatthz) for Anki::Cozmo::RobotInterface::SendLog(signed char, unsigned short, unsigned short, unsigned char, ...)
    cozmobot.o(i._ZN4Anki5Cozmo5Robot22MotorCalibrationUpdateEv) refers to imufilter.o(i._ZN4Anki5Cozmo9IMUFilter5ResetEv) for Anki::Cozmo::IMUFilter::Reset()
    cozmobot.o(i._ZN4Anki5Cozmo5Robot4InitEv) refers to localization.o(i._ZN4Anki5Cozmo12Localization4InitEv) for Anki::Cozmo::Localization::Init()
    cozmobot.o(i._ZN4Anki5Cozmo5Robot4InitEv) refers to pathfollower.o(i._ZN4Anki5Cozmo12PathFollower4InitEv) for Anki::Cozmo::PathFollower::Init()
    cozmobot.o(i._ZN4Anki5Cozmo5Robot4InitEv) refers to backpacklightcontroller.o(i._ZN4Anki5Cozmo23BackpackLightController4InitEv) for Anki::Cozmo::BackpackLightController::Init()
    cozmobot.o(i._ZN4Anki5Cozmo5Robot4InitEv) refers to dockingcontroller.o(i._ZN4Anki5Cozmo17DockingController4InitEv) for Anki::Cozmo::DockingController::Init()
    cozmobot.o(i._ZN4Anki5Cozmo5Robot4InitEv) refers to pickandplacecontroller.o(i._ZN4Anki5Cozmo22PickAndPlaceController4InitEv) for Anki::Cozmo::PickAndPlaceController::Init()
    cozmobot.o(i._ZN4Anki5Cozmo5Robot4InitEv) refers to liftcontroller.o(i._ZN4Anki5Cozmo14LiftController4InitEv) for Anki::Cozmo::LiftController::Init()
    cozmobot.o(i._ZN4Anki5Cozmo5Robot4InitEv) refers to messages.o(i._ZN4Anki5Cozmo14RobotInterface7SendLogEatthz) for Anki::Cozmo::RobotInterface::SendLog(signed char, unsigned short, unsigned short, unsigned char, ...)
    cozmobot.o(i._ZN4Anki5Cozmo5Robot4InitEv) refers to cozmobot.o(.data) for .data
    cozmobot.o(.ARM.exidx) refers to cozmobot.o(i._ZN4Anki5Cozmo5Robot16GetOperationModeEv) for i._ZN4Anki5Cozmo5Robot16GetOperationModeEv
    cozmobot.o(.ARM.exidx) refers to cozmobot.o(i._ZN4Anki5Cozmo5Robot16SetOperationModeENS1_13OperationModeE) for i._ZN4Anki5Cozmo5Robot16SetOperationModeENS1_13OperationModeE
    cozmobot.o(.ARM.exidx) refers to cozmobot.o(i._ZN4Anki5Cozmo5Robot22MotorCalibrationUpdateEv) for i._ZN4Anki5Cozmo5Robot22MotorCalibrationUpdateEv
    cozmobot.o(.ARM.exidx) refers to cozmobot.o(i._ZN4Anki5Cozmo5Robot4InitEv) for i._ZN4Anki5Cozmo5Robot4InitEv
    cozmobot.o(.ARM.exidx) refers to cozmobot.o(i._ZN4Anki5Cozmo5Robot18step_MainExecutionEv) for i._ZN4Anki5Cozmo5Robot18step_MainExecutionEv
    cozmobot.o(.ARM.exidx) refers to cozmobot.o(i._ZN4Anki5Cozmo5Robot18step_LongExecutionEv) for i._ZN4Anki5Cozmo5Robot18step_LongExecutionEv
    messages.o(i._ZN4Anki5Cozmo14RobotInterface7SendLogEatthz) refers to clad.o(i._ZNK4Anki5Cozmo14RobotInterface10PrintTrace4SizeEv) for Anki::Cozmo::RobotInterface::PrintTrace::Size() const
    messages.o(i._ZN4Anki5Cozmo14RobotInterface7SendLogEatthz) refers to wifi.o(i._ZN4Anki5Cozmo3HAL16RadioSendMessageEPKvth) for Anki::Cozmo::HAL::RadioSendMessage(const void*, unsigned short, unsigned char)
    messages.o(i._ZN4Anki5Cozmo14RobotInterface7SendLogEatthz) refers to messages.o(.data) for .data
    messages.o(i._ZN4Anki5Cozmo3HAL17BatteryIsChargingEv) refers to messages.o(.data) for .data
    messages.o(i._ZN4Anki5Cozmo3HAL18BatteryIsOnChargerEv) refers to messages.o(.data) for .data
    messages.o(i._ZN4Anki5Cozmo8Messages12Process_stopERKNS0_14RobotInterface13StopAllMotorsE) refers to liftcontroller.o(i._ZN4Anki5Cozmo14LiftController18SetAngularVelocityEf) for Anki::Cozmo::LiftController::SetAngularVelocity(float)
    messages.o(i._ZN4Anki5Cozmo8Messages12Process_stopERKNS0_14RobotInterface13StopAllMotorsE) refers to headcontroller.o(i._ZN4Anki5Cozmo14HeadController18SetAngularVelocityEf) for Anki::Cozmo::HeadController::SetAngularVelocity(float)
    messages.o(i._ZN4Anki5Cozmo8Messages12Process_stopERKNS0_14RobotInterface13StopAllMotorsE) refers to steeringcontroller.o(i._ZN4Anki5Cozmo18SteeringController18ExecuteDirectDriveEffff) for Anki::Cozmo::SteeringController::ExecuteDirectDrive(float, float, float, float)
    messages.o(i._ZN4Anki5Cozmo8Messages12ReceivedInitEv) refers to messages.o(.data) for .data
    messages.o(i._ZN4Anki5Cozmo8Messages13Process_driveERKNS0_14RobotInterface11DriveWheelsE) refers to pathfollower.o(i._ZN4Anki5Cozmo12PathFollower16IsTraversingPathEv) for Anki::Cozmo::PathFollower::IsTraversingPath()
    messages.o(i._ZN4Anki5Cozmo8Messages13Process_driveERKNS0_14RobotInterface11DriveWheelsE) refers to pathfollower.o(i._ZN4Anki5Cozmo12PathFollower19IsInManualSpeedModeEv) for Anki::Cozmo::PathFollower::IsInManualSpeedMode()
    messages.o(i._ZN4Anki5Cozmo8Messages13Process_driveERKNS0_14RobotInterface11DriveWheelsE) refers to pathfollower.o(i._ZN4Anki5Cozmo12PathFollower18SetManualPathSpeedEfff) for Anki::Cozmo::PathFollower::SetManualPathSpeed(float, float, float)
    messages.o(i._ZN4Anki5Cozmo8Messages13Process_driveERKNS0_14RobotInterface11DriveWheelsE) refers to messages.o(i._ZN4Anki5Cozmo14RobotInterface7SendLogEatthz) for Anki::Cozmo::RobotInterface::SendLog(signed char, unsigned short, unsigned short, unsigned char, ...)
    messages.o(i._ZN4Anki5Cozmo8Messages13Process_driveERKNS0_14RobotInterface11DriveWheelsE) refers to steeringcontroller.o(i._ZN4Anki5Cozmo18SteeringController18ExecuteDirectDriveEffff) for Anki::Cozmo::SteeringController::ExecuteDirectDrive(float, float, float, float)
    messages.o(i._ZN4Anki5Cozmo8Messages14ProcessMessageERNS0_14RobotInterface13EngineToRobotE) refers to messages.o(i._ZN4Anki5Cozmo8Messages17Process_wifiStateERKNS0_9WiFiStateE) for Anki::Cozmo::Messages::Process_wifiState(const Anki::Cozmo::WiFiState&)
    messages.o(i._ZN4Anki5Cozmo8Messages14ProcessMessageERNS0_14RobotInterface13EngineToRobotE) refers to messages.o(i._ZN4Anki5Cozmo8Messages13Process_driveERKNS0_14RobotInterface11DriveWheelsE) for Anki::Cozmo::Messages::Process_drive(const Anki::Cozmo::RobotInterface::DriveWheels&)
    messages.o(i._ZN4Anki5Cozmo8Messages14ProcessMessageERNS0_14RobotInterface13EngineToRobotE) refers to messages.o(i._ZN4Anki5Cozmo8Messages22Process_driveCurvatureERKNS0_14RobotInterface20DriveWheelsCurvatureE) for Anki::Cozmo::Messages::Process_driveCurvature(const Anki::Cozmo::RobotInterface::DriveWheelsCurvature&)
    messages.o(i._ZN4Anki5Cozmo8Messages14ProcessMessageERNS0_14RobotInterface13EngineToRobotE) refers to messages.o(i._ZN4Anki5Cozmo8Messages16Process_moveLiftERKNS0_14RobotInterface8MoveLiftE) for Anki::Cozmo::Messages::Process_moveLift(const Anki::Cozmo::RobotInterface::MoveLift&)
    messages.o(i._ZN4Anki5Cozmo8Messages14ProcessMessageERNS0_14RobotInterface13EngineToRobotE) refers to messages.o(i._ZN4Anki5Cozmo8Messages16Process_moveHeadERKNS0_14RobotInterface8MoveHeadE) for Anki::Cozmo::Messages::Process_moveHead(const Anki::Cozmo::RobotInterface::MoveHead&)
    messages.o(i._ZN4Anki5Cozmo8Messages14ProcessMessageERNS0_14RobotInterface13EngineToRobotE) refers to messages.o(i._ZN4Anki5Cozmo8Messages18Process_liftHeightERKNS0_14RobotInterface13SetLiftHeightE) for Anki::Cozmo::Messages::Process_liftHeight(const Anki::Cozmo::RobotInterface::SetLiftHeight&)
    messages.o(i._ZN4Anki5Cozmo8Messages14ProcessMessageERNS0_14RobotInterface13EngineToRobotE) refers to messages.o(i._ZN4Anki5Cozmo8Messages17Process_headAngleERKNS0_14RobotInterface12SetHeadAngleE) for Anki::Cozmo::Messages::Process_headAngle(const Anki::Cozmo::RobotInterface::SetHeadAngle&)
    messages.o(i._ZN4Anki5Cozmo8Messages14ProcessMessageERNS0_14RobotInterface13EngineToRobotE) refers to messages.o(i._ZN4Anki5Cozmo8Messages23Process_headAngleUpdateERKNS0_14RobotInterface15HeadAngleUpdateE) for Anki::Cozmo::Messages::Process_headAngleUpdate(const Anki::Cozmo::RobotInterface::HeadAngleUpdate&)
    messages.o(i._ZN4Anki5Cozmo8Messages14ProcessMessageERNS0_14RobotInterface13EngineToRobotE) refers to messages.o(i._ZN4Anki5Cozmo8Messages20Process_setBodyAngleERKNS0_14RobotInterface12SetBodyAngleE) for Anki::Cozmo::Messages::Process_setBodyAngle(const Anki::Cozmo::RobotInterface::SetBodyAngle&)
    messages.o(i._ZN4Anki5Cozmo8Messages14ProcessMessageERNS0_14RobotInterface13EngineToRobotE) refers to messages.o(i._ZN4Anki5Cozmo8Messages26Process_turnInPlaceAtSpeedERKNS0_14RobotInterface18TurnInPlaceAtSpeedE) for Anki::Cozmo::Messages::Process_turnInPlaceAtSpeed(const Anki::Cozmo::RobotInterface::TurnInPlaceAtSpeed&)
    messages.o(i._ZN4Anki5Cozmo8Messages14ProcessMessageERNS0_14RobotInterface13EngineToRobotE) refers to messages.o(i._ZN4Anki5Cozmo8Messages12Process_stopERKNS0_14RobotInterface13StopAllMotorsE) for Anki::Cozmo::Messages::Process_stop(const Anki::Cozmo::RobotInterface::StopAllMotors&)
    messages.o(i._ZN4Anki5Cozmo8Messages14ProcessMessageERNS0_14RobotInterface13EngineToRobotE) refers to messages.o(i._ZN4Anki5Cozmo8Messages17Process_clearPathERKNS0_14RobotInterface9ClearPathE) for Anki::Cozmo::Messages::Process_clearPath(const Anki::Cozmo::RobotInterface::ClearPath&)
    messages.o(i._ZN4Anki5Cozmo8Messages14ProcessMessageERNS0_14RobotInterface13EngineToRobotE) refers to messages.o(i._ZN4Anki5Cozmo8Messages25Process_appendPathSegLineERKNS0_14RobotInterface21AppendPathSegmentLineE) for Anki::Cozmo::Messages::Process_appendPathSegLine(const Anki::Cozmo::RobotInterface::AppendPathSegmentLine&)
    messages.o(i._ZN4Anki5Cozmo8Messages14ProcessMessageERNS0_14RobotInterface13EngineToRobotE) refers to messages.o(i._ZN4Anki5Cozmo8Messages24Process_appendPathSegArcERKNS0_14RobotInterface20AppendPathSegmentArcE) for Anki::Cozmo::Messages::Process_appendPathSegArc(const Anki::Cozmo::RobotInterface::AppendPathSegmentArc&)
    messages.o(i._ZN4Anki5Cozmo8Messages14ProcessMessageERNS0_14RobotInterface13EngineToRobotE) refers to messages.o(i._ZN4Anki5Cozmo8Messages30Process_appendPathSegPointTurnERKNS0_14RobotInterface26AppendPathSegmentPointTurnE) for Anki::Cozmo::Messages::Process_appendPathSegPointTurn(const Anki::Cozmo::RobotInterface::AppendPathSegmentPointTurn&)
    messages.o(i._ZN4Anki5Cozmo8Messages14ProcessMessageERNS0_14RobotInterface13EngineToRobotE) refers to messages.o(i._ZN4Anki5Cozmo8Messages16Process_trimPathERKNS0_14RobotInterface8TrimPathE) for Anki::Cozmo::Messages::Process_trimPath(const Anki::Cozmo::RobotInterface::TrimPath&)
    messages.o(i._ZN4Anki5Cozmo8Messages14ProcessMessageERNS0_14RobotInterface13EngineToRobotE) refers to messages.o(i._ZN4Anki5Cozmo8Messages19Process_executePathERKNS0_14RobotInterface11ExecutePathE) for Anki::Cozmo::Messages::Process_executePath(const Anki::Cozmo::RobotInterface::ExecutePath&)
    messages.o(i._ZN4Anki5Cozmo8Messages14ProcessMessageERNS0_14RobotInterface13EngineToRobotE) refers to messages.o(i._ZN4Anki5Cozmo8Messages22Process_dockWithObjectERKNS0_14DockWithObjectE) for Anki::Cozmo::Messages::Process_dockWithObject(const Anki::Cozmo::DockWithObject&)
    messages.o(i._ZN4Anki5Cozmo8Messages14ProcessMessageERNS0_14RobotInterface13EngineToRobotE) refers to dockingcontroller.o(i._ZN4Anki5Cozmo17DockingController11StopDockingEa) for Anki::Cozmo::DockingController::StopDocking(signed char)
    messages.o(i._ZN4Anki5Cozmo8Messages14ProcessMessageERNS0_14RobotInterface13EngineToRobotE) refers to messages.o(i._ZN4Anki5Cozmo8Messages27Process_placeObjectOnGroundERKNS0_19PlaceObjectOnGroundE) for Anki::Cozmo::Messages::Process_placeObjectOnGround(const Anki::Cozmo::PlaceObjectOnGround&)
    messages.o(i._ZN4Anki5Cozmo8Messages14ProcessMessageERNS0_14RobotInterface13EngineToRobotE) refers to messages.o(i._ZN4Anki5Cozmo8Messages29Process_absLocalizationUpdateERKNS0_14RobotInterface26AbsoluteLocalizationUpdateE) for Anki::Cozmo::Messages::Process_absLocalizationUpdate(const Anki::Cozmo::RobotInterface::AbsoluteLocalizationUpdate&)
    messages.o(i._ZN4Anki5Cozmo8Messages14ProcessMessageERNS0_14RobotInterface13EngineToRobotE) refers to messages.o(i._ZN4Anki5Cozmo8Messages31Process_startControllerTestModeERKNS0_23StartControllerTestModeE) for Anki::Cozmo::Messages::Process_startControllerTestMode(const Anki::Cozmo::StartControllerTestMode&)
    messages.o(i._ZN4Anki5Cozmo8Messages14ProcessMessageERNS0_14RobotInterface13EngineToRobotE) refers to messages.o(i._ZN4Anki5Cozmo8Messages26Process_setControllerGainsERKNS0_14RobotInterface15ControllerGainsE) for Anki::Cozmo::Messages::Process_setControllerGains(const Anki::Cozmo::RobotInterface::ControllerGains&)
    messages.o(i._ZN4Anki5Cozmo8Messages14ProcessMessageERNS0_14RobotInterface13EngineToRobotE) refers to dockingcontroller.o(i._ZN4Anki5Cozmo17DockingController28SetDockingErrorSignalMessageERKNS0_18DockingErrorSignalE) for Anki::Cozmo::DockingController::SetDockingErrorSignalMessage(const Anki::Cozmo::DockingErrorSignal&)
    messages.o(i._ZN4Anki5Cozmo8Messages14ProcessMessageERNS0_14RobotInterface13EngineToRobotE) refers to pickandplacecontroller.o(i._ZN4Anki5Cozmo22PickAndPlaceController13SetCarryStateEh) for Anki::Cozmo::PickAndPlaceController::SetCarryState(unsigned char)
    messages.o(i._ZN4Anki5Cozmo8Messages14ProcessMessageERNS0_14RobotInterface13EngineToRobotE) refers to imufilter.o(i._ZN4Anki5Cozmo9IMUFilter13RecordAndSendEj) for Anki::Cozmo::IMUFilter::RecordAndSend(unsigned)
    messages.o(i._ZN4Anki5Cozmo8Messages14ProcessMessageERNS0_14RobotInterface13EngineToRobotE) refers to messages.o(i._ZN4Anki5Cozmo8Messages16Process_syncTimeERKNS0_14RobotInterface8SyncTimeE) for Anki::Cozmo::Messages::Process_syncTime(const Anki::Cozmo::RobotInterface::SyncTime&)
    messages.o(i._ZN4Anki5Cozmo8Messages14ProcessMessageERNS0_14RobotInterface13EngineToRobotE) refers to messages.o(i._ZN4Anki5Cozmo8Messages20Process_imageRequestERKNS0_14RobotInterface12ImageRequestE) for Anki::Cozmo::Messages::Process_imageRequest(const Anki::Cozmo::RobotInterface::ImageRequest&)
    messages.o(i._ZN4Anki5Cozmo8Messages14ProcessMessageERNS0_14RobotInterface13EngineToRobotE) refers to imufilter.o(i._ZN4Anki5Cozmo9IMUFilter21EnablePickupParalysisEb) for Anki::Cozmo::IMUFilter::EnablePickupParalysis(bool)
    messages.o(i._ZN4Anki5Cozmo8Messages14ProcessMessageERNS0_14RobotInterface13EngineToRobotE) refers to messages.o(i._ZN4Anki5Cozmo8Messages23Process_enableLiftPowerERKNS0_14RobotInterface15EnableLiftPowerE) for Anki::Cozmo::Messages::Process_enableLiftPower(const Anki::Cozmo::RobotInterface::EnableLiftPower&)
    messages.o(i._ZN4Anki5Cozmo8Messages14ProcessMessageERNS0_14RobotInterface13EngineToRobotE) refers to messages.o(i._ZN4Anki5Cozmo8Messages28Process_setMotionModelParamsERKNS0_14RobotInterface20SetMotionModelParamsE) for Anki::Cozmo::Messages::Process_setMotionModelParams(const Anki::Cozmo::RobotInterface::SetMotionModelParams&)
    messages.o(i._ZN4Anki5Cozmo8Messages14ProcessMessageERNS0_14RobotInterface13EngineToRobotE) refers to power.o(i._ZN4Anki5Cozmo3HAL5Power14enterSleepModeEv) for Anki::Cozmo::HAL::Power::enterSleepMode()
    messages.o(i._ZN4Anki5Cozmo8Messages14ProcessMessageERNS0_14RobotInterface13EngineToRobotE) refers to messages.o(i._ZN4Anki5Cozmo8Messages18Process_powerStateERKNS0_10PowerStateE) for Anki::Cozmo::Messages::Process_powerState(const Anki::Cozmo::PowerState&)
    messages.o(i._ZN4Anki5Cozmo8Messages14ProcessMessageERNS0_14RobotInterface13EngineToRobotE) refers to messages.o(i._ZN4Anki5Cozmo8Messages20Process_getPropStateERKNS0_9PropStateE) for Anki::Cozmo::Messages::Process_getPropState(const Anki::Cozmo::PropState&)
    messages.o(i._ZN4Anki5Cozmo8Messages14ProcessMessageERNS0_14RobotInterface13EngineToRobotE) refers to messages.o(i._ZN4Anki5Cozmo8Messages30Process_enableReadToolCodeModeERKNS0_14RobotInterface22EnableReadToolCodeModeE) for Anki::Cozmo::Messages::Process_enableReadToolCodeMode(const Anki::Cozmo::RobotInterface::EnableReadToolCodeMode&)
    messages.o(i._ZN4Anki5Cozmo8Messages14ProcessMessageERNS0_14RobotInterface13EngineToRobotE) refers to messages.o(i._ZN4Anki5Cozmo8Messages25Process_setIMUCalibrationERKNS0_14RobotInterface18IMUCalibrationDataE) for Anki::Cozmo::Messages::Process_setIMUCalibration(const Anki::Cozmo::RobotInterface::IMUCalibrationData&)
    messages.o(i._ZN4Anki5Cozmo8Messages14ProcessMessageERNS0_14RobotInterface13EngineToRobotE) refers to messages.o(i._ZN4Anki5Cozmo8Messages29Process_startMotorCalibrationERKNS0_14RobotInterface21StartMotorCalibrationE) for Anki::Cozmo::Messages::Process_startMotorCalibration(const Anki::Cozmo::RobotInterface::StartMotorCalibration&)
    messages.o(i._ZN4Anki5Cozmo8Messages14ProcessMessageERNS0_14RobotInterface13EngineToRobotE) refers to messages.o(i._ZN4Anki5Cozmo8Messages24Process_rollActionParamsERKNS0_14RobotInterface16RollActionParamsE) for Anki::Cozmo::Messages::Process_rollActionParams(const Anki::Cozmo::RobotInterface::RollActionParams&)
    messages.o(i._ZN4Anki5Cozmo8Messages14ProcessMessageERNS0_14RobotInterface13EngineToRobotE) refers to messages.o(i._ZN4Anki5Cozmo8Messages25Process_enableStopOnCliffERKNS0_14RobotInterface17EnableStopOnCliffE) for Anki::Cozmo::Messages::Process_enableStopOnCliff(const Anki::Cozmo::RobotInterface::EnableStopOnCliff&)
    messages.o(i._ZN4Anki5Cozmo8Messages14ProcessMessageERNS0_14RobotInterface13EngineToRobotE) refers to messages.o(i._ZN4Anki5Cozmo8Messages31Process_setBackpackLightsMiddleERKNS0_14RobotInterface20BackpackLightsMiddleE) for Anki::Cozmo::Messages::Process_setBackpackLightsMiddle(const Anki::Cozmo::RobotInterface::BackpackLightsMiddle&)
    messages.o(i._ZN4Anki5Cozmo8Messages14ProcessMessageERNS0_14RobotInterface13EngineToRobotE) refers to messages.o(i._ZN4Anki5Cozmo8Messages36Process_setBackpackLightsTurnSignalsERKNS0_14RobotInterface25BackpackLightsTurnSignalsE) for Anki::Cozmo::Messages::Process_setBackpackLightsTurnSignals(const Anki::Cozmo::RobotInterface::BackpackLightsTurnSignals&)
    messages.o(i._ZN4Anki5Cozmo8Messages14ProcessMessageERNS0_14RobotInterface13EngineToRobotE) refers to messages.o(i._ZN4Anki5Cozmo8Messages21Process_animHeadAngleERKNS0_12AnimKeyFrame9HeadAngleE) for Anki::Cozmo::Messages::Process_animHeadAngle(const Anki::Cozmo::AnimKeyFrame::HeadAngle&)
    messages.o(i._ZN4Anki5Cozmo8Messages14ProcessMessageERNS0_14RobotInterface13EngineToRobotE) refers to messages.o(i._ZN4Anki5Cozmo8Messages22Process_animBodyMotionERKNS0_12AnimKeyFrame10BodyMotionE) for Anki::Cozmo::Messages::Process_animBodyMotion(const Anki::Cozmo::AnimKeyFrame::BodyMotion&)
    messages.o(i._ZN4Anki5Cozmo8Messages14ProcessMessageERNS0_14RobotInterface13EngineToRobotE) refers to messages.o(i._ZN4Anki5Cozmo8Messages22Process_animLiftHeightERKNS0_12AnimKeyFrame10LiftHeightE) for Anki::Cozmo::Messages::Process_animLiftHeight(const Anki::Cozmo::AnimKeyFrame::LiftHeight&)
    messages.o(i._ZN4Anki5Cozmo8Messages14ProcessMessageERNS0_14RobotInterface13EngineToRobotE) refers to messages.o(i._ZN4Anki5Cozmo8Messages23Process_animEventToRTIPERKNS0_14RobotInterface15AnimEventToRTIPE) for Anki::Cozmo::Messages::Process_animEventToRTIP(const Anki::Cozmo::RobotInterface::AnimEventToRTIP&)
    messages.o(i._ZN4Anki5Cozmo8Messages14ProcessMessageERNS0_14RobotInterface13EngineToRobotE) refers to messages.o(i._ZN4Anki5Cozmo8Messages26Process_animBackpackLightsERKNS0_12AnimKeyFrame14BackpackLightsE) for Anki::Cozmo::Messages::Process_animBackpackLights(const Anki::Cozmo::AnimKeyFrame::BackpackLights&)
    messages.o(i._ZN4Anki5Cozmo8Messages14ProcessMessageERNS0_14RobotInterface13EngineToRobotE) refers to backpacklightcontroller.o(i._ZN4Anki5Cozmo23BackpackLightController11EnableLayerENS1_18BackpackLightLayerEb) for Anki::Cozmo::BackpackLightController::EnableLayer(Anki::Cozmo::BackpackLightController::BackpackLightLayer, bool)
    messages.o(i._ZN4Anki5Cozmo8Messages14ProcessMessageERNS0_14RobotInterface13EngineToRobotE) refers to messages.o(i._ZN4Anki5Cozmo14RobotInterface7SendLogEatthz) for Anki::Cozmo::RobotInterface::SendLog(signed char, unsigned short, unsigned short, unsigned char, ...)
    messages.o(i._ZN4Anki5Cozmo8Messages14ProcessMessageERNS0_14RobotInterface13EngineToRobotE) refers to messages.o(.data) for .data
    messages.o(i._ZN4Anki5Cozmo8Messages16GetRobotStateMsgEv) refers to messages.o(.bss) for .bss
    messages.o(i._ZN4Anki5Cozmo8Messages16Process_moveHeadERKNS0_14RobotInterface8MoveHeadE) refers to headcontroller.o(i._ZN4Anki5Cozmo14HeadController18SetAngularVelocityEf) for Anki::Cozmo::HeadController::SetAngularVelocity(float)
    messages.o(i._ZN4Anki5Cozmo8Messages16Process_moveLiftERKNS0_14RobotInterface8MoveLiftE) refers to liftcontroller.o(i._ZN4Anki5Cozmo14LiftController18SetAngularVelocityEf) for Anki::Cozmo::LiftController::SetAngularVelocity(float)
    messages.o(i._ZN4Anki5Cozmo8Messages16Process_syncTimeERKNS0_14RobotInterface8SyncTimeE) refers to messages.o(i._ZN4Anki5Cozmo14RobotInterface7SendLogEatthz) for Anki::Cozmo::RobotInterface::SendLog(signed char, unsigned short, unsigned short, unsigned char, ...)
    messages.o(i._ZN4Anki5Cozmo8Messages16Process_syncTimeERKNS0_14RobotInterface8SyncTimeE) refers to wifi.o(i._ZN4Anki5Cozmo3HAL16RadioSendMessageEPKvth) for Anki::Cozmo::HAL::RadioSendMessage(const void*, unsigned short, unsigned char)
    messages.o(i._ZN4Anki5Cozmo8Messages16Process_syncTimeERKNS0_14RobotInterface8SyncTimeE) refers to main.o(i.SetTimeStamp) for SetTimeStamp
    messages.o(i._ZN4Anki5Cozmo8Messages16Process_syncTimeERKNS0_14RobotInterface8SyncTimeE) refers to localization.o(i._ZN4Anki5Cozmo12Localization20SetDriveCenterOffsetEf) for Anki::Cozmo::Localization::SetDriveCenterOffset(float)
    messages.o(i._ZN4Anki5Cozmo8Messages16Process_syncTimeERKNS0_14RobotInterface8SyncTimeE) refers to localization.o(i._ZN4Anki5Cozmo12Localization14ResetPoseFrameEv) for Anki::Cozmo::Localization::ResetPoseFrame()
    messages.o(i._ZN4Anki5Cozmo8Messages16Process_syncTimeERKNS0_14RobotInterface8SyncTimeE) refers to messages.o(.data) for .data
    messages.o(i._ZN4Anki5Cozmo8Messages16Process_trimPathERKNS0_14RobotInterface8TrimPathE) refers to pathfollower.o(i._ZN4Anki5Cozmo12PathFollower8TrimPathEhh) for Anki::Cozmo::PathFollower::TrimPath(unsigned char, unsigned char)
    messages.o(i._ZN4Anki5Cozmo8Messages17Process_clearPathERKNS0_14RobotInterface9ClearPathE) refers to speedcontroller.o(i._ZN4Anki5Cozmo15SpeedController35SetUserCommandedDesiredVehicleSpeedEs) for Anki::Cozmo::SpeedController::SetUserCommandedDesiredVehicleSpeed(short)
    messages.o(i._ZN4Anki5Cozmo8Messages17Process_clearPathERKNS0_14RobotInterface9ClearPathE) refers to pathfollower.o(i._ZN4Anki5Cozmo12PathFollower9ClearPathEv) for Anki::Cozmo::PathFollower::ClearPath()
    messages.o(i._ZN4Anki5Cozmo8Messages17Process_headAngleERKNS0_14RobotInterface12SetHeadAngleE) refers to headcontroller.o(i._ZN4Anki5Cozmo14HeadController19SetMaxSpeedAndAccelEff) for Anki::Cozmo::HeadController::SetMaxSpeedAndAccel(float, float)
    messages.o(i._ZN4Anki5Cozmo8Messages17Process_headAngleERKNS0_14RobotInterface12SetHeadAngleE) refers to headcontroller.o(i._ZN4Anki5Cozmo14HeadController15SetDesiredAngleEffff) for Anki::Cozmo::HeadController::SetDesiredAngle(float, float, float, float)
    messages.o(i._ZN4Anki5Cozmo8Messages17Process_wifiStateERKNS0_9WiFiStateE) refers to main.o(i._ZN4Anki5Cozmo3HAL16SetImageSendModeEha) for Anki::Cozmo::HAL::SetImageSendMode(unsigned char, signed char)
    messages.o(i._ZN4Anki5Cozmo8Messages17Process_wifiStateERKNS0_9WiFiStateE) refers to wifi.o(i._ZN4Anki5Cozmo3HAL16RadioUpdateStateEhh) for Anki::Cozmo::HAL::RadioUpdateState(unsigned char, unsigned char)
    messages.o(i._ZN4Anki5Cozmo8Messages17SendRobotStateMsgEPKNS0_10RobotStateE) refers to wifi.o(i._ZN4Anki5Cozmo3HAL16RadioSendMessageEPKvth) for Anki::Cozmo::HAL::RadioSendMessage(const void*, unsigned short, unsigned char)
    messages.o(i._ZN4Anki5Cozmo8Messages17SendRobotStateMsgEPKNS0_10RobotStateE) refers to messages.o(.data) for .data
    messages.o(i._ZN4Anki5Cozmo8Messages17SendRobotStateMsgEPKNS0_10RobotStateE) refers to main.o(.bss) for g_dataToHead
    messages.o(i._ZN4Anki5Cozmo8Messages17SendRobotStateMsgEPKNS0_10RobotStateE) refers to imu.o(.bss) for Anki::Cozmo::HAL::IMU::IMUState
    messages.o(i._ZN4Anki5Cozmo8Messages17SendRobotStateMsgEPKNS0_10RobotStateE) refers to messages.o(.bss) for .bss
    messages.o(i._ZN4Anki5Cozmo8Messages17StillLookingForIDEv) refers to timer.o(i._ZN4Anki5Cozmo3HAL15GetMicroCounterEv) for Anki::Cozmo::HAL::GetMicroCounter()
    messages.o(i._ZN4Anki5Cozmo8Messages17StillLookingForIDEv) refers to messages.o(i._ZN4Anki5Cozmo14RobotInterface7SendLogEatthz) for Anki::Cozmo::RobotInterface::SendLog(signed char, unsigned short, unsigned short, unsigned char, ...)
    messages.o(i._ZN4Anki5Cozmo8Messages17StillLookingForIDEv) refers to messages.o(.data) for .data
    messages.o(i._ZN4Anki5Cozmo8Messages18Process_imuRequestERKNS0_14RobotInterface10ImuRequestE) refers to imufilter.o(i._ZN4Anki5Cozmo9IMUFilter13RecordAndSendEj) for Anki::Cozmo::IMUFilter::RecordAndSend(unsigned)
    messages.o(i._ZN4Anki5Cozmo8Messages18Process_liftHeightERKNS0_14RobotInterface13SetLiftHeightE) refers to liftcontroller.o(i._ZN4Anki5Cozmo14LiftController19SetMaxSpeedAndAccelEff) for Anki::Cozmo::LiftController::SetMaxSpeedAndAccel(float, float)
    messages.o(i._ZN4Anki5Cozmo8Messages18Process_liftHeightERKNS0_14RobotInterface13SetLiftHeightE) refers to liftcontroller.o(i._ZN4Anki5Cozmo14LiftController16SetDesiredHeightEffff) for Anki::Cozmo::LiftController::SetDesiredHeight(float, float, float, float)
    messages.o(i._ZN4Anki5Cozmo8Messages18Process_powerStateERKNS0_10PowerStateE) refers to messages.o(.bss) for .bss
    messages.o(i._ZN4Anki5Cozmo8Messages18Process_powerStateERKNS0_10PowerStateE) refers to messages.o(.data) for .data
    messages.o(i._ZN4Anki5Cozmo8Messages19Process_executePathERKNS0_14RobotInterface11ExecutePathE) refers to messages.o(i._ZN4Anki5Cozmo14RobotInterface7SendLogEatthz) for Anki::Cozmo::RobotInterface::SendLog(signed char, unsigned short, unsigned short, unsigned char, ...)
    messages.o(i._ZN4Anki5Cozmo8Messages19Process_executePathERKNS0_14RobotInterface11ExecutePathE) refers to pathfollower.o(i._ZN4Anki5Cozmo12PathFollower18StartPathTraversalEtb) for Anki::Cozmo::PathFollower::StartPathTraversal(unsigned short, bool)
    messages.o(i._ZN4Anki5Cozmo8Messages19UpdateRobotStateMsgEv) refers to main.o(i.GetTimeStamp) for GetTimeStamp
    messages.o(i._ZN4Anki5Cozmo8Messages19UpdateRobotStateMsgEv) refers to radians.o(i._ZN4Anki7RadiansC1Ev) for Anki::Radians::Radians()
    messages.o(i._ZN4Anki5Cozmo8Messages19UpdateRobotStateMsgEv) refers to localization.o(i._ZN4Anki5Cozmo12Localization14GetPoseFrameIdEv) for Anki::Cozmo::Localization::GetPoseFrameId()
    messages.o(i._ZN4Anki5Cozmo8Messages19UpdateRobotStateMsgEv) refers to localization.o(i._ZN4Anki5Cozmo12Localization15GetPoseOriginIdEv) for Anki::Cozmo::Localization::GetPoseOriginId()
    messages.o(i._ZN4Anki5Cozmo8Messages19UpdateRobotStateMsgEv) refers to localization.o(i._ZN4Anki5Cozmo12Localization17GetCurrentMatPoseERfS2_RNS_7RadiansE) for Anki::Cozmo::Localization::GetCurrentMatPose(float&, float&, Anki::Radians&)
    messages.o(i._ZN4Anki5Cozmo8Messages19UpdateRobotStateMsgEv) refers to imufilter.o(i._ZN4Anki5Cozmo9IMUFilter8GetPitchEv) for Anki::Cozmo::IMUFilter::GetPitch()
    messages.o(i._ZN4Anki5Cozmo8Messages19UpdateRobotStateMsgEv) refers to wheelcontroller.o(i._ZN4Anki5Cozmo15WheelController22GetFilteredWheelSpeedsERfS2_) for Anki::Cozmo::WheelController::GetFilteredWheelSpeeds(float&, float&)
    messages.o(i._ZN4Anki5Cozmo8Messages19UpdateRobotStateMsgEv) refers to headcontroller.o(i._ZN4Anki5Cozmo14HeadController11GetAngleRadEv) for Anki::Cozmo::HeadController::GetAngleRad()
    messages.o(i._ZN4Anki5Cozmo8Messages19UpdateRobotStateMsgEv) refers to liftcontroller.o(i._ZN4Anki5Cozmo14LiftController11GetAngleRadEv) for Anki::Cozmo::LiftController::GetAngleRad()
    messages.o(i._ZN4Anki5Cozmo8Messages19UpdateRobotStateMsgEv) refers to liftcontroller.o(i._ZN4Anki5Cozmo14LiftController11GetHeightMMEv) for Anki::Cozmo::LiftController::GetHeightMM()
    messages.o(i._ZN4Anki5Cozmo8Messages19UpdateRobotStateMsgEv) refers to imufilter.o(i._ZN4Anki5Cozmo9IMUFilter16GetLatestRawDataEv) for Anki::Cozmo::IMUFilter::GetLatestRawData()
    messages.o(i._ZN4Anki5Cozmo8Messages19UpdateRobotStateMsgEv) refers to pathfollower.o(i._ZN4Anki5Cozmo12PathFollower13GetLastPathIDEv) for Anki::Cozmo::PathFollower::GetLastPathID()
    messages.o(i._ZN4Anki5Cozmo8Messages19UpdateRobotStateMsgEv) refers to pathfollower.o(i._ZN4Anki5Cozmo12PathFollower18GetCurrPathSegmentEv) for Anki::Cozmo::PathFollower::GetCurrPathSegment()
    messages.o(i._ZN4Anki5Cozmo8Messages19UpdateRobotStateMsgEv) refers to pathfollower.o(i._ZN4Anki5Cozmo12PathFollower22GetNumFreeSegmentSlotsEv) for Anki::Cozmo::PathFollower::GetNumFreeSegmentSlots()
    messages.o(i._ZN4Anki5Cozmo8Messages19UpdateRobotStateMsgEv) refers to wheelcontroller.o(i._ZN4Anki5Cozmo15WheelController15AreWheelsMovingEv) for Anki::Cozmo::WheelController::AreWheelsMoving()
    messages.o(i._ZN4Anki5Cozmo8Messages19UpdateRobotStateMsgEv) refers to steeringcontroller.o(i._ZN4Anki5Cozmo18SteeringController7GetModeEv) for Anki::Cozmo::SteeringController::GetMode()
    messages.o(i._ZN4Anki5Cozmo8Messages19UpdateRobotStateMsgEv) refers to headcontroller.o(i._ZN4Anki5Cozmo14HeadController8IsMovingEv) for Anki::Cozmo::HeadController::IsMoving()
    messages.o(i._ZN4Anki5Cozmo8Messages19UpdateRobotStateMsgEv) refers to liftcontroller.o(i._ZN4Anki5Cozmo14LiftController8IsMovingEv) for Anki::Cozmo::LiftController::IsMoving()
    messages.o(i._ZN4Anki5Cozmo8Messages19UpdateRobotStateMsgEv) refers to pickandplacecontroller.o(i._ZN4Anki5Cozmo22PickAndPlaceController15IsCarryingBlockEv) for Anki::Cozmo::PickAndPlaceController::IsCarryingBlock()
    messages.o(i._ZN4Anki5Cozmo8Messages19UpdateRobotStateMsgEv) refers to pickandplacecontroller.o(i._ZN4Anki5Cozmo22PickAndPlaceController6IsBusyEv) for Anki::Cozmo::PickAndPlaceController::IsBusy()
    messages.o(i._ZN4Anki5Cozmo8Messages19UpdateRobotStateMsgEv) refers to imufilter.o(i._ZN4Anki5Cozmo9IMUFilter10IsPickedUpEv) for Anki::Cozmo::IMUFilter::IsPickedUp()
    messages.o(i._ZN4Anki5Cozmo8Messages19UpdateRobotStateMsgEv) refers to pathfollower.o(i._ZN4Anki5Cozmo12PathFollower16IsTraversingPathEv) for Anki::Cozmo::PathFollower::IsTraversingPath()
    messages.o(i._ZN4Anki5Cozmo8Messages19UpdateRobotStateMsgEv) refers to liftcontroller.o(i._ZN4Anki5Cozmo14LiftController12IsInPositionEv) for Anki::Cozmo::LiftController::IsInPosition()
    messages.o(i._ZN4Anki5Cozmo8Messages19UpdateRobotStateMsgEv) refers to headcontroller.o(i._ZN4Anki5Cozmo14HeadController12IsInPositionEv) for Anki::Cozmo::HeadController::IsInPosition()
    messages.o(i._ZN4Anki5Cozmo8Messages19UpdateRobotStateMsgEv) refers to lights.o(i._ZN4Anki5Cozmo3HAL15IsCliffDetectedEv) for Anki::Cozmo::HAL::IsCliffDetected()
    messages.o(i._ZN4Anki5Cozmo8Messages19UpdateRobotStateMsgEv) refers to messages.o(.bss) for .bss
    messages.o(i._ZN4Anki5Cozmo8Messages19UpdateRobotStateMsgEv) refers to messages.o(.data) for .data
    messages.o(i._ZN4Anki5Cozmo8Messages20Process_abortDockingERKNS0_12AbortDockingE) refers to dockingcontroller.o(i._ZN4Anki5Cozmo17DockingController11StopDockingEa) for Anki::Cozmo::DockingController::StopDocking(signed char)
    messages.o(i._ZN4Anki5Cozmo8Messages20Process_getPropStateERKNS0_9PropStateE) refers to cube.o(i._ZN4Anki5Cozmo3HAL12GetPropStateEiiiiihaa) for Anki::Cozmo::HAL::GetPropState(int, int, int, int, int, unsigned char, signed char, signed char)
    messages.o(i._ZN4Anki5Cozmo8Messages20Process_imageRequestERKNS0_14RobotInterface12ImageRequestE) refers to messages.o(i._ZN4Anki5Cozmo14RobotInterface7SendLogEatthz) for Anki::Cozmo::RobotInterface::SendLog(signed char, unsigned short, unsigned short, unsigned char, ...)
    messages.o(i._ZN4Anki5Cozmo8Messages20Process_setBodyAngleERKNS0_14RobotInterface12SetBodyAngleE) refers to steeringcontroller.o(i._ZN4Anki5Cozmo18SteeringController16ExecutePointTurnEfffffb) for Anki::Cozmo::SteeringController::ExecutePointTurn(float, float, float, float, float, bool)
    messages.o(i._ZN4Anki5Cozmo8Messages21Process_animHeadAngleERKNS0_12AnimKeyFrame9HeadAngleE) refers to headcontroller.o(i._ZN4Anki5Cozmo14HeadController15SetDesiredAngleEffff) for Anki::Cozmo::HeadController::SetDesiredAngle(float, float, float, float)
    messages.o(i._ZN4Anki5Cozmo8Messages21Process_setCarryStateERKNS0_16CarryStateUpdateE) refers to pickandplacecontroller.o(i._ZN4Anki5Cozmo22PickAndPlaceController13SetCarryStateEh) for Anki::Cozmo::PickAndPlaceController::SetCarryState(unsigned char)
    messages.o(i._ZN4Anki5Cozmo8Messages22Process_animBodyMotionERKNS0_12AnimKeyFrame10BodyMotionE) refers to steeringcontroller.o(i._ZN4Anki5Cozmo18SteeringController21ExecuteDriveCurvatureEff) for Anki::Cozmo::SteeringController::ExecuteDriveCurvature(float, float)
    messages.o(i._ZN4Anki5Cozmo8Messages22Process_animLiftHeightERKNS0_12AnimKeyFrame10LiftHeightE) refers to liftcontroller.o(i._ZN4Anki5Cozmo14LiftController16SetDesiredHeightEffff) for Anki::Cozmo::LiftController::SetDesiredHeight(float, float, float, float)
    messages.o(i._ZN4Anki5Cozmo8Messages22Process_dockWithObjectERKNS0_14DockWithObjectE) refers to messages.o(i._Z10trace_castIfEiT_) for trace_cast<float>(T1)
    messages.o(i._ZN4Anki5Cozmo8Messages22Process_dockWithObjectERKNS0_14DockWithObjectE) refers to messages.o(i._ZN4Anki5Cozmo14RobotInterface7SendLogEatthz) for Anki::Cozmo::RobotInterface::SendLog(signed char, unsigned short, unsigned short, unsigned char, ...)
    messages.o(i._ZN4Anki5Cozmo8Messages22Process_dockWithObjectERKNS0_14DockWithObjectE) refers to dockingcontroller.o(i._ZN4Anki5Cozmo17DockingController16SetDockingMethodEh) for Anki::Cozmo::DockingController::SetDockingMethod(unsigned char)
    messages.o(i._ZN4Anki5Cozmo8Messages22Process_dockWithObjectERKNS0_14DockWithObjectE) refers to pickandplacecontroller.o(i._ZN4Anki5Cozmo22PickAndPlaceController11DockToBlockEhffffffbh) for Anki::Cozmo::PickAndPlaceController::DockToBlock(unsigned char, float, float, float, float, float, float, bool, unsigned char)
    messages.o(i._ZN4Anki5Cozmo8Messages22Process_driveCurvatureERKNS0_14RobotInterface20DriveWheelsCurvatureE) refers to steeringcontroller.o(i._ZN4Anki5Cozmo18SteeringController21ExecuteDriveCurvatureEff) for Anki::Cozmo::SteeringController::ExecuteDriveCurvature(float, float)
    messages.o(i._ZN4Anki5Cozmo8Messages22Process_enterSleepModeERKNS0_14EnterSleepModeE) refers to power.o(i._ZN4Anki5Cozmo3HAL5Power14enterSleepModeEv) for Anki::Cozmo::HAL::Power::enterSleepMode()
    messages.o(i._ZN4Anki5Cozmo8Messages23Process_animEventToRTIPERKNS0_14RobotInterface15AnimEventToRTIPE) refers to main.o(i.GetTimeStamp) for GetTimeStamp
    messages.o(i._ZN4Anki5Cozmo8Messages23Process_animEventToRTIPERKNS0_14RobotInterface15AnimEventToRTIPE) refers to wifi.o(i._ZN4Anki5Cozmo3HAL16RadioSendMessageEPKvth) for Anki::Cozmo::HAL::RadioSendMessage(const void*, unsigned short, unsigned char)
    messages.o(i._ZN4Anki5Cozmo8Messages23Process_enableLiftPowerERKNS0_14RobotInterface15EnableLiftPowerE) refers to liftcontroller.o(i._ZN4Anki5Cozmo14LiftController6EnableEv) for Anki::Cozmo::LiftController::Enable()
    messages.o(i._ZN4Anki5Cozmo8Messages23Process_enableLiftPowerERKNS0_14RobotInterface15EnableLiftPowerE) refers to liftcontroller.o(i._ZN4Anki5Cozmo14LiftController7DisableEb) for Anki::Cozmo::LiftController::Disable(bool)
    messages.o(i._ZN4Anki5Cozmo8Messages23Process_headAngleUpdateERKNS0_14RobotInterface15HeadAngleUpdateE) refers to headcontroller.o(i._ZN4Anki5Cozmo14HeadController11SetAngleRadEf) for Anki::Cozmo::HeadController::SetAngleRad(float)
    messages.o(i._ZN4Anki5Cozmo8Messages23SendMotorCalibrationMsgEhb) refers to wifi.o(i._ZN4Anki5Cozmo3HAL16RadioSendMessageEPKvth) for Anki::Cozmo::HAL::RadioSendMessage(const void*, unsigned short, unsigned char)
    messages.o(i._ZN4Anki5Cozmo8Messages24Process_appendPathSegArcERKNS0_14RobotInterface20AppendPathSegmentArcE) refers to pathfollower.o(i._ZN4Anki5Cozmo12PathFollower21AppendPathSegment_ArcEjffffffff) for Anki::Cozmo::PathFollower::AppendPathSegment_Arc(unsigned, float, float, float, float, float, float, float, float)
    messages.o(i._ZN4Anki5Cozmo8Messages24Process_rollActionParamsERKNS0_14RobotInterface16RollActionParamsE) refers to pickandplacecontroller.o(i._ZN4Anki5Cozmo22PickAndPlaceController19SetRollActionParamsEfffjf) for Anki::Cozmo::PickAndPlaceController::SetRollActionParams(float, float, float, unsigned, float)
    messages.o(i._ZN4Anki5Cozmo8Messages25Process_appendPathSegLineERKNS0_14RobotInterface21AppendPathSegmentLineE) refers to pathfollower.o(i._ZN4Anki5Cozmo12PathFollower22AppendPathSegment_LineEjfffffff) for Anki::Cozmo::PathFollower::AppendPathSegment_Line(unsigned, float, float, float, float, float, float, float)
    messages.o(i._ZN4Anki5Cozmo8Messages25Process_enableStopOnCliffERKNS0_14RobotInterface17EnableStopOnCliffE) refers to messages.o(i._ZN4Anki5Cozmo14RobotInterface7SendLogEatthz) for Anki::Cozmo::RobotInterface::SendLog(signed char, unsigned short, unsigned short, unsigned char, ...)
    messages.o(i._ZN4Anki5Cozmo8Messages25Process_enableStopOnCliffERKNS0_14RobotInterface17EnableStopOnCliffE) refers to proxsensors.o(i._ZN4Anki5Cozmo11ProxSensors17EnableStopOnCliffEb) for Anki::Cozmo::ProxSensors::EnableStopOnCliff(bool)
    messages.o(i._ZN4Anki5Cozmo8Messages25Process_setIMUCalibrationERKNS0_14RobotInterface18IMUCalibrationDataE) refers to imu.o(i._ZN4Anki5Cozmo3HAL24IMUSetCalibrationOffsetsEPKsS3_) for Anki::Cozmo::HAL::IMUSetCalibrationOffsets(const short*, const short*)
    messages.o(i._ZN4Anki5Cozmo8Messages26Process_animBackpackLightsERKNS0_12AnimKeyFrame14BackpackLightsE) refers to backpacklightcontroller.o(i._ZN4Anki5Cozmo23BackpackLightController9SetParamsENS1_18BackpackLightLayerEhtthhhh) for Anki::Cozmo::BackpackLightController::SetParams(Anki::Cozmo::BackpackLightController::BackpackLightLayer, unsigned char, unsigned short, unsigned short, unsigned char, unsigned char, unsigned char, unsigned char)
    messages.o(i._ZN4Anki5Cozmo8Messages26Process_animBackpackLightsERKNS0_12AnimKeyFrame14BackpackLightsE) refers to backpacklightcontroller.o(i._ZN4Anki5Cozmo23BackpackLightController11EnableLayerENS1_18BackpackLightLayerEb) for Anki::Cozmo::BackpackLightController::EnableLayer(Anki::Cozmo::BackpackLightController::BackpackLightLayer, bool)
    messages.o(i._ZN4Anki5Cozmo8Messages26Process_animEndOfAnimationERKNS0_12AnimKeyFrame14EndOfAnimationE) refers to backpacklightcontroller.o(i._ZN4Anki5Cozmo23BackpackLightController11EnableLayerENS1_18BackpackLightLayerEb) for Anki::Cozmo::BackpackLightController::EnableLayer(Anki::Cozmo::BackpackLightController::BackpackLightLayer, bool)
    messages.o(i._ZN4Anki5Cozmo8Messages26Process_dockingErrorSignalERKNS0_18DockingErrorSignalE) refers to dockingcontroller.o(i._ZN4Anki5Cozmo17DockingController28SetDockingErrorSignalMessageERKNS0_18DockingErrorSignalE) for Anki::Cozmo::DockingController::SetDockingErrorSignalMessage(const Anki::Cozmo::DockingErrorSignal&)
    messages.o(i._ZN4Anki5Cozmo8Messages26Process_setControllerGainsERKNS0_14RobotInterface15ControllerGainsE) refers to wheelcontroller.o(i._ZN4Anki5Cozmo15WheelController8SetGainsEfff) for Anki::Cozmo::WheelController::SetGains(float, float, float)
    messages.o(i._ZN4Anki5Cozmo8Messages26Process_setControllerGainsERKNS0_14RobotInterface15ControllerGainsE) refers to headcontroller.o(i._ZN4Anki5Cozmo14HeadController8SetGainsEffff) for Anki::Cozmo::HeadController::SetGains(float, float, float, float)
    messages.o(i._ZN4Anki5Cozmo8Messages26Process_setControllerGainsERKNS0_14RobotInterface15ControllerGainsE) refers to liftcontroller.o(i._ZN4Anki5Cozmo14LiftController8SetGainsEffff) for Anki::Cozmo::LiftController::SetGains(float, float, float, float)
    messages.o(i._ZN4Anki5Cozmo8Messages26Process_setControllerGainsERKNS0_14RobotInterface15ControllerGainsE) refers to steeringcontroller.o(i._ZN4Anki5Cozmo18SteeringController8SetGainsEffff) for Anki::Cozmo::SteeringController::SetGains(float, float, float, float)
    messages.o(i._ZN4Anki5Cozmo8Messages26Process_setControllerGainsERKNS0_14RobotInterface15ControllerGainsE) refers to steeringcontroller.o(i._ZN4Anki5Cozmo18SteeringController17SetPointTurnGainsEffff) for Anki::Cozmo::SteeringController::SetPointTurnGains(float, float, float, float)
    messages.o(i._ZN4Anki5Cozmo8Messages26Process_setControllerGainsERKNS0_14RobotInterface15ControllerGainsE) refers to messages.o(i._ZN4Anki5Cozmo14RobotInterface7SendLogEatthz) for Anki::Cozmo::RobotInterface::SendLog(signed char, unsigned short, unsigned short, unsigned char, ...)
    messages.o(i._ZN4Anki5Cozmo8Messages26Process_turnInPlaceAtSpeedERKNS0_14RobotInterface18TurnInPlaceAtSpeedE) refers to steeringcontroller.o(i._ZN4Anki5Cozmo18SteeringController16ExecutePointTurnEff) for Anki::Cozmo::SteeringController::ExecutePointTurn(float, float)
    messages.o(i._ZN4Anki5Cozmo8Messages27Process_placeObjectOnGroundERKNS0_19PlaceObjectOnGroundE) refers to pickandplacecontroller.o(i._ZN4Anki5Cozmo22PickAndPlaceController13PlaceOnGroundEffffffb) for Anki::Cozmo::PickAndPlaceController::PlaceOnGround(float, float, float, float, float, float, bool)
    messages.o(i._ZN4Anki5Cozmo8Messages28Process_setMotionModelParamsERKNS0_14RobotInterface20SetMotionModelParamsE) refers to localization.o(i._ZN4Anki5Cozmo12Localization20SetMotionModelParamsEf) for Anki::Cozmo::Localization::SetMotionModelParams(float)
    messages.o(i._ZN4Anki5Cozmo8Messages29Process_absLocalizationUpdateERKNS0_14RobotInterface26AbsoluteLocalizationUpdateE) refers to testmodecontroller.o(i._ZN4Anki5Cozmo18TestModeController7GetModeEv) for Anki::Cozmo::TestModeController::GetMode()
    messages.o(i._ZN4Anki5Cozmo8Messages29Process_absLocalizationUpdateERKNS0_14RobotInterface26AbsoluteLocalizationUpdateE) refers to radians.o(i._ZN4Anki7RadiansC1Ef) for Anki::Radians::Radians(float)
    messages.o(i._ZN4Anki5Cozmo8Messages29Process_absLocalizationUpdateERKNS0_14RobotInterface26AbsoluteLocalizationUpdateE) refers to localization.o(i._ZN4Anki5Cozmo12Localization22UpdatePoseWithKeyframeEjjjfff) for Anki::Cozmo::Localization::UpdatePoseWithKeyframe(unsigned, unsigned, unsigned, float, float, float)
    messages.o(i._ZN4Anki5Cozmo8Messages29Process_enablePickupParalysisERKNS0_14RobotInterface21EnablePickupParalysisE) refers to imufilter.o(i._ZN4Anki5Cozmo9IMUFilter21EnablePickupParalysisEb) for Anki::Cozmo::IMUFilter::EnablePickupParalysis(bool)
    messages.o(i._ZN4Anki5Cozmo8Messages29Process_startMotorCalibrationERKNS0_14RobotInterface21StartMotorCalibrationE) refers to headcontroller.o(i._ZN4Anki5Cozmo14HeadController23StartCalibrationRoutineEv) for Anki::Cozmo::HeadController::StartCalibrationRoutine()
    messages.o(i._ZN4Anki5Cozmo8Messages29Process_startMotorCalibrationERKNS0_14RobotInterface21StartMotorCalibrationE) refers to liftcontroller.o(i._ZN4Anki5Cozmo14LiftController23StartCalibrationRoutineEv) for Anki::Cozmo::LiftController::StartCalibrationRoutine()
    messages.o(i._ZN4Anki5Cozmo8Messages30Process_appendPathSegPointTurnERKNS0_14RobotInterface26AppendPathSegmentPointTurnE) refers to pathfollower.o(i._ZN4Anki5Cozmo12PathFollower27AppendPathSegment_PointTurnEjfffffffb) for Anki::Cozmo::PathFollower::AppendPathSegment_PointTurn(unsigned, float, float, float, float, float, float, float, bool)
    messages.o(i._ZN4Anki5Cozmo8Messages30Process_enableReadToolCodeModeERKNS0_14RobotInterface22EnableReadToolCodeModeE) refers to messages.o(i._Z10trace_castIfEiT_) for trace_cast<float>(T1)
    messages.o(i._ZN4Anki5Cozmo8Messages30Process_enableReadToolCodeModeERKNS0_14RobotInterface22EnableReadToolCodeModeE) refers to messages.o(i._ZN4Anki5Cozmo14RobotInterface7SendLogEatthz) for Anki::Cozmo::RobotInterface::SendLog(signed char, unsigned short, unsigned short, unsigned char, ...)
    messages.o(i._ZN4Anki5Cozmo8Messages30Process_enableReadToolCodeModeERKNS0_14RobotInterface22EnableReadToolCodeModeE) refers to headcontroller.o(i._ZN4Anki5Cozmo14HeadController7DisableEv) for Anki::Cozmo::HeadController::Disable()
    messages.o(i._ZN4Anki5Cozmo8Messages30Process_enableReadToolCodeModeERKNS0_14RobotInterface22EnableReadToolCodeModeE) refers to motors.o(i._ZN4Anki5Cozmo3HAL13MotorSetPowerEhf) for Anki::Cozmo::HAL::MotorSetPower(unsigned char, float)
    messages.o(i._ZN4Anki5Cozmo8Messages30Process_enableReadToolCodeModeERKNS0_14RobotInterface22EnableReadToolCodeModeE) refers to liftcontroller.o(i._ZN4Anki5Cozmo14LiftController7DisableEb) for Anki::Cozmo::LiftController::Disable(bool)
    messages.o(i._ZN4Anki5Cozmo8Messages30Process_enableReadToolCodeModeERKNS0_14RobotInterface22EnableReadToolCodeModeE) refers to headcontroller.o(i._ZN4Anki5Cozmo14HeadController6EnableEv) for Anki::Cozmo::HeadController::Enable()
    messages.o(i._ZN4Anki5Cozmo8Messages30Process_enableReadToolCodeModeERKNS0_14RobotInterface22EnableReadToolCodeModeE) refers to liftcontroller.o(i._ZN4Anki5Cozmo14LiftController6EnableEv) for Anki::Cozmo::LiftController::Enable()
    messages.o(i._ZN4Anki5Cozmo8Messages30Process_enableTestStateMessageERKNS0_14RobotInterface22EnableTestStateMessageE) refers to messages.o(.data) for .data
    messages.o(i._ZN4Anki5Cozmo8Messages31Process_setBackpackLightsMiddleERKNS0_14RobotInterface20BackpackLightsMiddleE) refers to backpacklightcontroller.o(i._ZN4Anki5Cozmo23BackpackLightController9SetParamsENS1_18BackpackLightLayerEhtthhhh) for Anki::Cozmo::BackpackLightController::SetParams(Anki::Cozmo::BackpackLightController::BackpackLightLayer, unsigned char, unsigned short, unsigned short, unsigned char, unsigned char, unsigned char, unsigned char)
    messages.o(i._ZN4Anki5Cozmo8Messages31Process_setBackpackLightsMiddleERKNS0_14RobotInterface20BackpackLightsMiddleE) refers to backpacklightcontroller.o(i._ZN4Anki5Cozmo23BackpackLightController11EnableLayerENS1_18BackpackLightLayerEb) for Anki::Cozmo::BackpackLightController::EnableLayer(Anki::Cozmo::BackpackLightController::BackpackLightLayer, bool)
    messages.o(i._ZN4Anki5Cozmo8Messages31Process_startControllerTestModeERKNS0_23StartControllerTestModeE) refers to testmodecontroller.o(i._ZN4Anki5Cozmo18TestModeController5StartEhiii) for Anki::Cozmo::TestModeController::Start(unsigned char, int, int, int)
    messages.o(i._ZN4Anki5Cozmo8Messages36Process_setBackpackLightsTurnSignalsERKNS0_14RobotInterface25BackpackLightsTurnSignalsE) refers to backpacklightcontroller.o(i._ZN4Anki5Cozmo23BackpackLightController9SetParamsENS1_18BackpackLightLayerEhtthhhh) for Anki::Cozmo::BackpackLightController::SetParams(Anki::Cozmo::BackpackLightController::BackpackLightLayer, unsigned char, unsigned short, unsigned short, unsigned char, unsigned char, unsigned char, unsigned char)
    messages.o(i._ZN4Anki5Cozmo8Messages36Process_setBackpackLightsTurnSignalsERKNS0_14RobotInterface25BackpackLightsTurnSignalsE) refers to backpacklightcontroller.o(i._ZN4Anki5Cozmo23BackpackLightController11EnableLayerENS1_18BackpackLightLayerEb) for Anki::Cozmo::BackpackLightController::EnableLayer(Anki::Cozmo::BackpackLightController::BackpackLightLayer, bool)
    messages.o(i._ZN4Anki5Cozmo8Messages9LookForIDEh) refers to timer.o(i._ZN4Anki5Cozmo3HAL15GetMicroCounterEv) for Anki::Cozmo::HAL::GetMicroCounter()
    messages.o(i._ZN4Anki5Cozmo8Messages9LookForIDEh) refers to messages.o(.data) for .data
    messages.o(i._ZN4Anki5Cozmo8Messages9ResetInitEv) refers to messages.o(.data) for .data
    messages.o(.ARM.exidx) refers to messages.o(i._ZN4Anki5Cozmo14RobotInterface7SendLogEatthz) for i._ZN4Anki5Cozmo14RobotInterface7SendLogEatthz
    messages.o(.ARM.exidx) refers to messages.o(i._ZN4Anki5Cozmo8Messages4InitEv) for i._ZN4Anki5Cozmo8Messages4InitEv
    messages.o(.ARM.exidx) refers to messages.o(i._ZN4Anki5Cozmo8Messages26Process_animEndOfAnimationERKNS0_12AnimKeyFrame14EndOfAnimationE) for i._ZN4Anki5Cozmo8Messages26Process_animEndOfAnimationERKNS0_12AnimKeyFrame14EndOfAnimationE
    messages.o(.ARM.exidx) refers to messages.o(i._ZN4Anki5Cozmo8Messages26Process_animBackpackLightsERKNS0_12AnimKeyFrame14BackpackLightsE) for i._ZN4Anki5Cozmo8Messages26Process_animBackpackLightsERKNS0_12AnimKeyFrame14BackpackLightsE
    messages.o(.ARM.exidx) refers to messages.o(i._ZN4Anki5Cozmo8Messages23Process_animEventToRTIPERKNS0_14RobotInterface15AnimEventToRTIPE) for i._ZN4Anki5Cozmo8Messages23Process_animEventToRTIPERKNS0_14RobotInterface15AnimEventToRTIPE
    messages.o(.ARM.exidx) refers to messages.o(i._ZN4Anki5Cozmo8Messages22Process_animLiftHeightERKNS0_12AnimKeyFrame10LiftHeightE) for i._ZN4Anki5Cozmo8Messages22Process_animLiftHeightERKNS0_12AnimKeyFrame10LiftHeightE
    messages.o(.ARM.exidx) refers to messages.o(i._ZN4Anki5Cozmo8Messages22Process_animBodyMotionERKNS0_12AnimKeyFrame10BodyMotionE) for i._ZN4Anki5Cozmo8Messages22Process_animBodyMotionERKNS0_12AnimKeyFrame10BodyMotionE
    messages.o(.ARM.exidx) refers to messages.o(i._ZN4Anki5Cozmo8Messages21Process_animHeadAngleERKNS0_12AnimKeyFrame9HeadAngleE) for i._ZN4Anki5Cozmo8Messages21Process_animHeadAngleERKNS0_12AnimKeyFrame9HeadAngleE
    messages.o(.ARM.exidx) refers to messages.o(i._ZN4Anki5Cozmo8Messages36Process_setBackpackLightsTurnSignalsERKNS0_14RobotInterface25BackpackLightsTurnSignalsE) for i._ZN4Anki5Cozmo8Messages36Process_setBackpackLightsTurnSignalsERKNS0_14RobotInterface25BackpackLightsTurnSignalsE
    messages.o(.ARM.exidx) refers to messages.o(i._ZN4Anki5Cozmo8Messages31Process_setBackpackLightsMiddleERKNS0_14RobotInterface20BackpackLightsMiddleE) for i._ZN4Anki5Cozmo8Messages31Process_setBackpackLightsMiddleERKNS0_14RobotInterface20BackpackLightsMiddleE
    messages.o(.ARM.exidx) refers to messages.o(i._ZN4Anki5Cozmo8Messages37Process_forceDelocalizeSimulatedRobotERKNS0_14RobotInterface29ForceDelocalizeSimulatedRobotE) for i._ZN4Anki5Cozmo8Messages37Process_forceDelocalizeSimulatedRobotERKNS0_14RobotInterface29ForceDelocalizeSimulatedRobotE
    messages.o(.ARM.exidx) refers to messages.o(i._ZN4Anki5Cozmo8Messages25Process_enableStopOnCliffERKNS0_14RobotInterface17EnableStopOnCliffE) for i._ZN4Anki5Cozmo8Messages25Process_enableStopOnCliffERKNS0_14RobotInterface17EnableStopOnCliffE
    messages.o(.ARM.exidx) refers to messages.o(i._ZN4Anki5Cozmo8Messages24Process_rollActionParamsERKNS0_14RobotInterface16RollActionParamsE) for i._ZN4Anki5Cozmo8Messages24Process_rollActionParamsERKNS0_14RobotInterface16RollActionParamsE
    messages.o(.ARM.exidx) refers to messages.o(i._ZN4Anki5Cozmo8Messages29Process_startMotorCalibrationERKNS0_14RobotInterface21StartMotorCalibrationE) for i._ZN4Anki5Cozmo8Messages29Process_startMotorCalibrationERKNS0_14RobotInterface21StartMotorCalibrationE
    messages.o(.ARM.exidx) refers to messages.o(i._ZN4Anki5Cozmo8Messages25Process_setIMUCalibrationERKNS0_14RobotInterface18IMUCalibrationDataE) for i._ZN4Anki5Cozmo8Messages25Process_setIMUCalibrationERKNS0_14RobotInterface18IMUCalibrationDataE
    messages.o(.ARM.exidx) refers to messages.o(i._ZN4Anki5Cozmo8Messages30Process_enableTestStateMessageERKNS0_14RobotInterface22EnableTestStateMessageE) for i._ZN4Anki5Cozmo8Messages30Process_enableTestStateMessageERKNS0_14RobotInterface22EnableTestStateMessageE
    messages.o(.ARM.exidx) refers to messages.o(i._ZN4Anki5Cozmo8Messages30Process_enableReadToolCodeModeERKNS0_14RobotInterface22EnableReadToolCodeModeE) for i._ZN4Anki5Cozmo8Messages30Process_enableReadToolCodeModeERKNS0_14RobotInterface22EnableReadToolCodeModeE
    messages.o(.ARM.exidx) refers to messages.o(i._ZN4Anki5Cozmo8Messages20Process_getPropStateERKNS0_9PropStateE) for i._ZN4Anki5Cozmo8Messages20Process_getPropStateERKNS0_9PropStateE
    messages.o(.ARM.exidx) refers to messages.o(i._ZN4Anki5Cozmo8Messages18Process_powerStateERKNS0_10PowerStateE) for i._ZN4Anki5Cozmo8Messages18Process_powerStateERKNS0_10PowerStateE
    messages.o(.ARM.exidx) refers to messages.o(i._ZN4Anki5Cozmo8Messages22Process_enterSleepModeERKNS0_14EnterSleepModeE) for i._ZN4Anki5Cozmo8Messages22Process_enterSleepModeERKNS0_14EnterSleepModeE
    messages.o(.ARM.exidx) refers to messages.o(i._ZN4Anki5Cozmo8Messages28Process_setMotionModelParamsERKNS0_14RobotInterface20SetMotionModelParamsE) for i._ZN4Anki5Cozmo8Messages28Process_setMotionModelParamsERKNS0_14RobotInterface20SetMotionModelParamsE
    messages.o(.ARM.exidx) refers to messages.o(i._ZN4Anki5Cozmo8Messages23Process_enableLiftPowerERKNS0_14RobotInterface15EnableLiftPowerE) for i._ZN4Anki5Cozmo8Messages23Process_enableLiftPowerERKNS0_14RobotInterface15EnableLiftPowerE
    messages.o(.ARM.exidx) refers to messages.o(i._ZN4Anki5Cozmo8Messages29Process_enablePickupParalysisERKNS0_14RobotInterface21EnablePickupParalysisE) for i._ZN4Anki5Cozmo8Messages29Process_enablePickupParalysisERKNS0_14RobotInterface21EnablePickupParalysisE
    messages.o(.ARM.exidx) refers to messages.o(i._ZN4Anki5Cozmo8Messages29Process_setObjectBeingCarriedERKNS0_18ObjectBeingCarriedE) for i._ZN4Anki5Cozmo8Messages29Process_setObjectBeingCarriedERKNS0_18ObjectBeingCarriedE
    messages.o(.ARM.exidx) refers to messages.o(i._ZN4Anki5Cozmo3HAL13FlashBlockIDsEv) for i._ZN4Anki5Cozmo3HAL13FlashBlockIDsEv
    messages.o(.ARM.exidx) refers to messages.o(i._ZN4Anki5Cozmo8Messages22Process_flashObjectIDsERKNS0_14FlashObjectIDsE) for i._ZN4Anki5Cozmo8Messages22Process_flashObjectIDsERKNS0_14FlashObjectIDsE
    messages.o(.ARM.exidx) refers to messages.o(i._ZN4Anki5Cozmo8Messages20Process_imageRequestERKNS0_14RobotInterface12ImageRequestE) for i._ZN4Anki5Cozmo8Messages20Process_imageRequestERKNS0_14RobotInterface12ImageRequestE
    messages.o(.ARM.exidx) refers to messages.o(i._ZN4Anki5Cozmo8Messages16Process_syncTimeERKNS0_14RobotInterface8SyncTimeE) for i._ZN4Anki5Cozmo8Messages16Process_syncTimeERKNS0_14RobotInterface8SyncTimeE
    messages.o(.ARM.exidx) refers to messages.o(i._ZN4Anki5Cozmo8Messages18Process_imuRequestERKNS0_14RobotInterface10ImuRequestE) for i._ZN4Anki5Cozmo8Messages18Process_imuRequestERKNS0_14RobotInterface10ImuRequestE
    messages.o(.ARM.exidx) refers to messages.o(i._ZN4Anki5Cozmo8Messages21Process_setCarryStateERKNS0_16CarryStateUpdateE) for i._ZN4Anki5Cozmo8Messages21Process_setCarryStateERKNS0_16CarryStateUpdateE
    messages.o(.ARM.exidx) refers to messages.o(i._ZN4Anki5Cozmo8Messages26Process_dockingErrorSignalERKNS0_18DockingErrorSignalE) for i._ZN4Anki5Cozmo8Messages26Process_dockingErrorSignalERKNS0_18DockingErrorSignalE
    messages.o(.ARM.exidx) refers to messages.o(i._ZN4Anki5Cozmo8Messages26Process_setControllerGainsERKNS0_14RobotInterface15ControllerGainsE) for i._ZN4Anki5Cozmo8Messages26Process_setControllerGainsERKNS0_14RobotInterface15ControllerGainsE
    messages.o(.ARM.exidx) refers to messages.o(i._ZN4Anki5Cozmo8Messages31Process_startControllerTestModeERKNS0_23StartControllerTestModeE) for i._ZN4Anki5Cozmo8Messages31Process_startControllerTestModeERKNS0_23StartControllerTestModeE
    messages.o(.ARM.exidx) refers to messages.o(i._ZN4Anki5Cozmo8Messages29Process_absLocalizationUpdateERKNS0_14RobotInterface26AbsoluteLocalizationUpdateE) for i._ZN4Anki5Cozmo8Messages29Process_absLocalizationUpdateERKNS0_14RobotInterface26AbsoluteLocalizationUpdateE
    messages.o(.ARM.exidx) refers to messages.o(i._ZN4Anki5Cozmo8Messages27Process_placeObjectOnGroundERKNS0_19PlaceObjectOnGroundE) for i._ZN4Anki5Cozmo8Messages27Process_placeObjectOnGroundERKNS0_19PlaceObjectOnGroundE
    messages.o(.ARM.exidx) refers to messages.o(i._ZN4Anki5Cozmo8Messages20Process_abortDockingERKNS0_12AbortDockingE) for i._ZN4Anki5Cozmo8Messages20Process_abortDockingERKNS0_12AbortDockingE
    messages.o(.ARM.exidx) refers to messages.o(i._ZN4Anki5Cozmo8Messages22Process_dockWithObjectERKNS0_14DockWithObjectE) for i._ZN4Anki5Cozmo8Messages22Process_dockWithObjectERKNS0_14DockWithObjectE
    messages.o(.ARM.exidx) refers to messages.o(i._ZN4Anki5Cozmo8Messages19Process_executePathERKNS0_14RobotInterface11ExecutePathE) for i._ZN4Anki5Cozmo8Messages19Process_executePathERKNS0_14RobotInterface11ExecutePathE
    messages.o(.ARM.exidx) refers to messages.o(i._ZN4Anki5Cozmo8Messages16Process_trimPathERKNS0_14RobotInterface8TrimPathE) for i._ZN4Anki5Cozmo8Messages16Process_trimPathERKNS0_14RobotInterface8TrimPathE
    messages.o(.ARM.exidx) refers to messages.o(i._ZN4Anki5Cozmo8Messages30Process_appendPathSegPointTurnERKNS0_14RobotInterface26AppendPathSegmentPointTurnE) for i._ZN4Anki5Cozmo8Messages30Process_appendPathSegPointTurnERKNS0_14RobotInterface26AppendPathSegmentPointTurnE
    messages.o(.ARM.exidx) refers to messages.o(i._ZN4Anki5Cozmo8Messages24Process_appendPathSegArcERKNS0_14RobotInterface20AppendPathSegmentArcE) for i._ZN4Anki5Cozmo8Messages24Process_appendPathSegArcERKNS0_14RobotInterface20AppendPathSegmentArcE
    messages.o(.ARM.exidx) refers to messages.o(i._ZN4Anki5Cozmo8Messages25Process_appendPathSegLineERKNS0_14RobotInterface21AppendPathSegmentLineE) for i._ZN4Anki5Cozmo8Messages25Process_appendPathSegLineERKNS0_14RobotInterface21AppendPathSegmentLineE
    messages.o(.ARM.exidx) refers to messages.o(i._ZN4Anki5Cozmo8Messages17Process_clearPathERKNS0_14RobotInterface9ClearPathE) for i._ZN4Anki5Cozmo8Messages17Process_clearPathERKNS0_14RobotInterface9ClearPathE
    messages.o(.ARM.exidx) refers to messages.o(i._ZN4Anki5Cozmo8Messages12Process_stopERKNS0_14RobotInterface13StopAllMotorsE) for i._ZN4Anki5Cozmo8Messages12Process_stopERKNS0_14RobotInterface13StopAllMotorsE
    messages.o(.ARM.exidx) refers to messages.o(i._ZN4Anki5Cozmo8Messages26Process_turnInPlaceAtSpeedERKNS0_14RobotInterface18TurnInPlaceAtSpeedE) for i._ZN4Anki5Cozmo8Messages26Process_turnInPlaceAtSpeedERKNS0_14RobotInterface18TurnInPlaceAtSpeedE
    messages.o(.ARM.exidx) refers to messages.o(i._ZN4Anki5Cozmo8Messages20Process_setBodyAngleERKNS0_14RobotInterface12SetBodyAngleE) for i._ZN4Anki5Cozmo8Messages20Process_setBodyAngleERKNS0_14RobotInterface12SetBodyAngleE
    messages.o(.ARM.exidx) refers to messages.o(i._ZN4Anki5Cozmo8Messages23Process_headAngleUpdateERKNS0_14RobotInterface15HeadAngleUpdateE) for i._ZN4Anki5Cozmo8Messages23Process_headAngleUpdateERKNS0_14RobotInterface15HeadAngleUpdateE
    messages.o(.ARM.exidx) refers to messages.o(i._ZN4Anki5Cozmo8Messages17Process_headAngleERKNS0_14RobotInterface12SetHeadAngleE) for i._ZN4Anki5Cozmo8Messages17Process_headAngleERKNS0_14RobotInterface12SetHeadAngleE
    messages.o(.ARM.exidx) refers to messages.o(i._ZN4Anki5Cozmo8Messages18Process_liftHeightERKNS0_14RobotInterface13SetLiftHeightE) for i._ZN4Anki5Cozmo8Messages18Process_liftHeightERKNS0_14RobotInterface13SetLiftHeightE
    messages.o(.ARM.exidx) refers to messages.o(i._ZN4Anki5Cozmo8Messages16Process_moveHeadERKNS0_14RobotInterface8MoveHeadE) for i._ZN4Anki5Cozmo8Messages16Process_moveHeadERKNS0_14RobotInterface8MoveHeadE
    messages.o(.ARM.exidx) refers to messages.o(i._ZN4Anki5Cozmo8Messages16Process_moveLiftERKNS0_14RobotInterface8MoveLiftE) for i._ZN4Anki5Cozmo8Messages16Process_moveLiftERKNS0_14RobotInterface8MoveLiftE
    messages.o(.ARM.exidx) refers to messages.o(i._ZN4Anki5Cozmo8Messages22Process_driveCurvatureERKNS0_14RobotInterface20DriveWheelsCurvatureE) for i._ZN4Anki5Cozmo8Messages22Process_driveCurvatureERKNS0_14RobotInterface20DriveWheelsCurvatureE
    messages.o(.ARM.exidx) refers to messages.o(i._ZN4Anki5Cozmo8Messages13Process_driveERKNS0_14RobotInterface11DriveWheelsE) for i._ZN4Anki5Cozmo8Messages13Process_driveERKNS0_14RobotInterface11DriveWheelsE
    messages.o(.ARM.exidx) refers to messages.o(i._ZN4Anki5Cozmo8Messages17Process_wifiStateERKNS0_9WiFiStateE) for i._ZN4Anki5Cozmo8Messages17Process_wifiStateERKNS0_9WiFiStateE
    messages.o(.ARM.exidx) refers to messages.o(i._ZN4Anki5Cozmo8Messages25Process_enterRecoveryModeERKNS0_14RobotInterface3OTA17EnterRecoveryModeE) for i._ZN4Anki5Cozmo8Messages25Process_enterRecoveryModeERKNS0_14RobotInterface3OTA17EnterRecoveryModeE
    messages.o(.ARM.exidx) refers to messages.o(i._ZN4Anki5Cozmo8Messages14ProcessMessageERNS0_14RobotInterface13EngineToRobotE) for i._ZN4Anki5Cozmo8Messages14ProcessMessageERNS0_14RobotInterface13EngineToRobotE
    messages.o(.ARM.exidx) refers to messages.o(i._ZN4Anki5Cozmo8Messages9LookForIDEh) for i._ZN4Anki5Cozmo8Messages9LookForIDEh
    messages.o(.ARM.exidx) refers to messages.o(i._ZN4Anki5Cozmo8Messages17StillLookingForIDEv) for i._ZN4Anki5Cozmo8Messages17StillLookingForIDEv
    messages.o(.ARM.exidx) refers to messages.o(i._ZN4Anki5Cozmo3HAL17BatteryIsChargingEv) for i._ZN4Anki5Cozmo3HAL17BatteryIsChargingEv
    messages.o(.ARM.exidx) refers to messages.o(i._ZN4Anki5Cozmo3HAL18BatteryIsOnChargerEv) for i._ZN4Anki5Cozmo3HAL18BatteryIsOnChargerEv
    messages.o(.ARM.exidx) refers to messages.o(i._ZN4Anki5Cozmo8Messages19UpdateRobotStateMsgEv) for i._ZN4Anki5Cozmo8Messages19UpdateRobotStateMsgEv
    messages.o(.ARM.exidx) refers to messages.o(i._ZN4Anki5Cozmo8Messages16GetRobotStateMsgEv) for i._ZN4Anki5Cozmo8Messages16GetRobotStateMsgEv
    messages.o(.ARM.exidx) refers to messages.o(i._ZN4Anki5Cozmo8Messages19ProcessBTLEMessagesEv) for i._ZN4Anki5Cozmo8Messages19ProcessBTLEMessagesEv
    messages.o(.ARM.exidx) refers to messages.o(i._ZN4Anki5Cozmo8Messages22Process_abortAnimationERKNS0_14RobotInterface14AbortAnimationE) for i._ZN4Anki5Cozmo8Messages22Process_abortAnimationERKNS0_14RobotInterface14AbortAnimationE
    messages.o(.ARM.exidx) refers to messages.o(i._ZN4Anki5Cozmo8Messages25Process_disableAnimTracksERKNS0_12AnimKeyFrame17DisableAnimTracksE) for i._ZN4Anki5Cozmo8Messages25Process_disableAnimTracksERKNS0_12AnimKeyFrame17DisableAnimTracksE
    messages.o(.ARM.exidx) refers to messages.o(i._ZN4Anki5Cozmo8Messages24Process_enableAnimTracksERKNS0_12AnimKeyFrame16EnableAnimTracksE) for i._ZN4Anki5Cozmo8Messages24Process_enableAnimTracksERKNS0_12AnimKeyFrame16EnableAnimTracksE
    messages.o(.ARM.exidx) refers to messages.o(i._ZN4Anki5Cozmo8Messages21Process_animFaceImageERKNS0_12AnimKeyFrame9FaceImageE) for i._ZN4Anki5Cozmo8Messages21Process_animFaceImageERKNS0_12AnimKeyFrame9FaceImageE
    messages.o(.ARM.exidx) refers to messages.o(i._ZN4Anki5Cozmo8Messages23Process_animAudioSampleERKNS0_12AnimKeyFrame11AudioSampleE) for i._ZN4Anki5Cozmo8Messages23Process_animAudioSampleERKNS0_12AnimKeyFrame11AudioSampleE
    messages.o(.ARM.exidx) refers to messages.o(i._ZN4Anki5Cozmo8Messages24Process_animAudioSilenceERKNS0_12AnimKeyFrame12AudioSilenceE) for i._ZN4Anki5Cozmo8Messages24Process_animAudioSilenceERKNS0_12AnimKeyFrame12AudioSilenceE
    messages.o(.ARM.exidx) refers to messages.o(i._ZN4Anki5Cozmo8Messages17Process_animEventERKNS0_12AnimKeyFrame5EventE) for i._ZN4Anki5Cozmo8Messages17Process_animEventERKNS0_12AnimKeyFrame5EventE
    messages.o(.ARM.exidx) refers to messages.o(i._ZN4Anki5Cozmo8Messages28Process_diffieHellmanResultsERKNS0_20DiffieHellmanResultsE) for i._ZN4Anki5Cozmo8Messages28Process_diffieHellmanResultsERKNS0_20DiffieHellmanResultsE
    messages.o(.ARM.exidx) refers to messages.o(i._ZN4Anki5Cozmo8Messages30Process_calculateDiffieHellmanERKNS0_22CalculateDiffieHellmanE) for i._ZN4Anki5Cozmo8Messages30Process_calculateDiffieHellmanERKNS0_22CalculateDiffieHellmanE
    messages.o(.ARM.exidx) refers to messages.o(i._ZN4Anki5Cozmo8Messages23Process_readBodyStorageERKNS0_15ReadBodyStorageE) for i._ZN4Anki5Cozmo8Messages23Process_readBodyStorageERKNS0_15ReadBodyStorageE
    messages.o(.ARM.exidx) refers to messages.o(i._ZN4Anki5Cozmo8Messages24Process_writeBodyStorageERKNS0_16WriteBodyStorageE) for i._ZN4Anki5Cozmo8Messages24Process_writeBodyStorageERKNS0_16WriteBodyStorageE
    messages.o(.ARM.exidx) refers to messages.o(i._ZN4Anki5Cozmo8Messages27Process_bodyStorageContentsERKNS0_19BodyStorageContentsE) for i._ZN4Anki5Cozmo8Messages27Process_bodyStorageContentsERKNS0_19BodyStorageContentsE
    messages.o(.ARM.exidx) refers to messages.o(i._ZN4Anki5Cozmo8Messages17SendRobotStateMsgEPKNS0_10RobotStateE) for i._ZN4Anki5Cozmo8Messages17SendRobotStateMsgEPKNS0_10RobotStateE
    messages.o(.ARM.exidx) refers to messages.o(i._ZN4Anki5Cozmo8Messages23SendMotorCalibrationMsgEhb) for i._ZN4Anki5Cozmo8Messages23SendMotorCalibrationMsgEhb
    messages.o(.ARM.exidx) refers to messages.o(i._ZN4Anki5Cozmo8Messages12ReceivedInitEv) for i._ZN4Anki5Cozmo8Messages12ReceivedInitEv
    messages.o(.ARM.exidx) refers to messages.o(i._ZN4Anki5Cozmo8Messages9ResetInitEv) for i._ZN4Anki5Cozmo8Messages9ResetInitEv
    liftcontroller.o(i._ZN4Anki5Cozmo14LiftController10Height2RadEf) refers to asinf.o(i.__hardfp_asinf) for __hardfp_asinf
    liftcontroller.o(i._ZN4Anki5Cozmo14LiftController10Rad2HeightEf) refers to sinf.o(i.__hardfp_sinf) for __hardfp_sinf
    liftcontroller.o(i._ZN4Anki5Cozmo14LiftController11GetAngleRadEv) refers to liftcontroller.o(.data) for .data
    liftcontroller.o(i._ZN4Anki5Cozmo14LiftController11GetHeightMMEv) refers to liftcontroller.o(i._ZN4Anki5Cozmo14LiftController10Rad2HeightEf) for Anki::Cozmo::LiftController::Rad2Height(float)
    liftcontroller.o(i._ZN4Anki5Cozmo14LiftController11GetHeightMMEv) refers to liftcontroller.o(.data) for .data
    liftcontroller.o(i._ZN4Anki5Cozmo14LiftController12IsCalibratedEv) refers to liftcontroller.o(.data) for .data
    liftcontroller.o(i._ZN4Anki5Cozmo14LiftController12IsInPositionEv) refers to liftcontroller.o(.data) for .data
    liftcontroller.o(i._ZN4Anki5Cozmo14LiftController16GetDesiredHeightEv) refers to liftcontroller.o(.data) for .data
    liftcontroller.o(i._ZN4Anki5Cozmo14LiftController16SetDesiredHeightEf) refers to liftcontroller.o(i._ZN4Anki5Cozmo14LiftController16SetDesiredHeightEffff) for Anki::Cozmo::LiftController::SetDesiredHeight(float, float, float, float)
    liftcontroller.o(i._ZN4Anki5Cozmo14LiftController16SetDesiredHeightEffff) refers to liftcontroller.o(i._ZN4Anki5Cozmo14LiftController25SetDesiredHeight_internalEffff) for Anki::Cozmo::LiftController::SetDesiredHeight_internal(float, float, float, float)
    liftcontroller.o(i._ZN4Anki5Cozmo14LiftController17CalibrationUpdateEv) refers to main.o(i.GetTimeStamp) for GetTimeStamp
    liftcontroller.o(i._ZN4Anki5Cozmo14LiftController17CalibrationUpdateEv) refers to messages.o(i._ZN4Anki5Cozmo14RobotInterface7SendLogEatthz) for Anki::Cozmo::RobotInterface::SendLog(signed char, unsigned short, unsigned short, unsigned char, ...)
    liftcontroller.o(i._ZN4Anki5Cozmo14LiftController17CalibrationUpdateEv) refers to liftcontroller.o(i._ZN4Anki5Cozmo14LiftController18ResetAnglePositionEf) for Anki::Cozmo::LiftController::ResetAnglePosition(float)
    liftcontroller.o(i._ZN4Anki5Cozmo14LiftController17CalibrationUpdateEv) refers to messages.o(i._ZN4Anki5Cozmo8Messages23SendMotorCalibrationMsgEhb) for Anki::Cozmo::Messages::SendMotorCalibrationMsg(unsigned char, bool)
    liftcontroller.o(i._ZN4Anki5Cozmo14LiftController17CalibrationUpdateEv) refers to motors.o(i._ZN4Anki5Cozmo3HAL13MotorSetPowerEhf) for Anki::Cozmo::HAL::MotorSetPower(unsigned char, float)
    liftcontroller.o(i._ZN4Anki5Cozmo14LiftController17CalibrationUpdateEv) refers to liftcontroller.o(i._ZN4Anki5Cozmo14LiftController8IsMovingEv) for Anki::Cozmo::LiftController::IsMoving()
    liftcontroller.o(i._ZN4Anki5Cozmo14LiftController17CalibrationUpdateEv) refers to liftcontroller.o(.data) for .data
    liftcontroller.o(i._ZN4Anki5Cozmo14LiftController17SetLinearVelocityEf) refers to liftcontroller.o(i._ZN4Anki5Cozmo14LiftController10Height2RadEf) for Anki::Cozmo::LiftController::Height2Rad(float)
    liftcontroller.o(i._ZN4Anki5Cozmo14LiftController17SetLinearVelocityEf) refers to liftcontroller.o(i._ZN4Anki5Cozmo14LiftController18SetAngularVelocityEf) for Anki::Cozmo::LiftController::SetAngularVelocity(float)
    liftcontroller.o(i._ZN4Anki5Cozmo14LiftController18GetAngularVelocityEv) refers to liftcontroller.o(.data) for .data
    liftcontroller.o(i._ZN4Anki5Cozmo14LiftController18ResetAnglePositionEf) refers to radians.o(i._ZN4Anki7RadiansaSEf) for Anki::Radians::operator =(float)
    liftcontroller.o(i._ZN4Anki5Cozmo14LiftController18ResetAnglePositionEf) refers to radians.o(i._ZN4Anki7RadiansaSERKS0_) for Anki::Radians::operator =(const Anki::Radians&)
    liftcontroller.o(i._ZN4Anki5Cozmo14LiftController18ResetAnglePositionEf) refers to liftcontroller.o(i._ZN4Anki5Cozmo14LiftController10Rad2HeightEf) for Anki::Cozmo::LiftController::Rad2Height(float)
    liftcontroller.o(i._ZN4Anki5Cozmo14LiftController18ResetAnglePositionEf) refers to motors.o(i._ZN4Anki5Cozmo3HAL18MotorResetPositionEh) for Anki::Cozmo::HAL::MotorResetPosition(unsigned char)
    liftcontroller.o(i._ZN4Anki5Cozmo14LiftController18ResetAnglePositionEf) refers to motors.o(i._ZN4Anki5Cozmo3HAL16MotorGetPositionEh) for Anki::Cozmo::HAL::MotorGetPosition(unsigned char)
    liftcontroller.o(i._ZN4Anki5Cozmo14LiftController18ResetAnglePositionEf) refers to liftcontroller.o(.data) for .data
    liftcontroller.o(i._ZN4Anki5Cozmo14LiftController18SetAngularVelocityEf) refers to liftcontroller.o(i._ZN4Anki5Cozmo14LiftController10Rad2HeightEf) for Anki::Cozmo::LiftController::Rad2Height(float)
    liftcontroller.o(i._ZN4Anki5Cozmo14LiftController18SetAngularVelocityEf) refers to liftcontroller.o(i._ZN4Anki5Cozmo14LiftController16SetDesiredHeightEf) for Anki::Cozmo::LiftController::SetDesiredHeight(float)
    liftcontroller.o(i._ZN4Anki5Cozmo14LiftController18SetAngularVelocityEf) refers to liftcontroller.o(.data) for .data
    liftcontroller.o(i._ZN4Anki5Cozmo14LiftController19GetMaxSpeedAndAccelERfS2_) refers to liftcontroller.o(.data) for .data
    liftcontroller.o(i._ZN4Anki5Cozmo14LiftController19SetMaxSpeedAndAccelEff) refers to liftcontroller.o(.data) for .data
    liftcontroller.o(i._ZN4Anki5Cozmo14LiftController22MotorBurnoutProtectionEv) refers to main.o(i.GetTimeStamp) for GetTimeStamp
    liftcontroller.o(i._ZN4Anki5Cozmo14LiftController22MotorBurnoutProtectionEv) refers to messages.o(i._ZN4Anki5Cozmo14RobotInterface7SendLogEatthz) for Anki::Cozmo::RobotInterface::SendLog(signed char, unsigned short, unsigned short, unsigned char, ...)
    liftcontroller.o(i._ZN4Anki5Cozmo14LiftController22MotorBurnoutProtectionEv) refers to liftcontroller.o(i._ZN4Anki5Cozmo14LiftController7DisableEb) for Anki::Cozmo::LiftController::Disable(bool)
    liftcontroller.o(i._ZN4Anki5Cozmo14LiftController22MotorBurnoutProtectionEv) refers to liftcontroller.o(i._ZN4Anki5Cozmo14LiftController23StartCalibrationRoutineEv) for Anki::Cozmo::LiftController::StartCalibrationRoutine()
    liftcontroller.o(i._ZN4Anki5Cozmo14LiftController22MotorBurnoutProtectionEv) refers to liftcontroller.o(.data) for .data
    liftcontroller.o(i._ZN4Anki5Cozmo14LiftController23StartCalibrationRoutineEv) refers to messages.o(i._ZN4Anki5Cozmo14RobotInterface7SendLogEatthz) for Anki::Cozmo::RobotInterface::SendLog(signed char, unsigned short, unsigned short, unsigned char, ...)
    liftcontroller.o(i._ZN4Anki5Cozmo14LiftController23StartCalibrationRoutineEv) refers to liftcontroller.o(i._ZN4Anki5Cozmo14LiftController6EnableEv) for Anki::Cozmo::LiftController::Enable()
    liftcontroller.o(i._ZN4Anki5Cozmo14LiftController23StartCalibrationRoutineEv) refers to messages.o(i._ZN4Anki5Cozmo8Messages23SendMotorCalibrationMsgEhb) for Anki::Cozmo::Messages::SendMotorCalibrationMsg(unsigned char, bool)
    liftcontroller.o(i._ZN4Anki5Cozmo14LiftController23StartCalibrationRoutineEv) refers to liftcontroller.o(.data) for .data
    liftcontroller.o(i._ZN4Anki5Cozmo14LiftController24GetLastCommandedHeightMMEv) refers to liftcontroller.o(.data) for .data
    liftcontroller.o(i._ZN4Anki5Cozmo14LiftController24PoseAndSpeedFilterUpdateEv) refers to motors.o(i._ZN4Anki5Cozmo3HAL13MotorGetSpeedEh) for Anki::Cozmo::HAL::MotorGetSpeed(unsigned char)
    liftcontroller.o(i._ZN4Anki5Cozmo14LiftController24PoseAndSpeedFilterUpdateEv) refers to motors.o(i._ZN4Anki5Cozmo3HAL16MotorGetPositionEh) for Anki::Cozmo::HAL::MotorGetPosition(unsigned char)
    liftcontroller.o(i._ZN4Anki5Cozmo14LiftController24PoseAndSpeedFilterUpdateEv) refers to radians.o(i._ZN4Anki7RadianspLEf) for Anki::Radians::operator +=(float)
    liftcontroller.o(i._ZN4Anki5Cozmo14LiftController24PoseAndSpeedFilterUpdateEv) refers to liftcontroller.o(.data) for .data
    liftcontroller.o(i._ZN4Anki5Cozmo14LiftController25SetDesiredHeight_internalEffff) refers to liftcontroller.o(i._ZN4Anki5Cozmo14LiftController10Height2RadEf) for Anki::Cozmo::LiftController::Height2Rad(float)
    liftcontroller.o(i._ZN4Anki5Cozmo14LiftController25SetDesiredHeight_internalEffff) refers to radians.o(i._ZN4Anki7RadiansC1Ef) for Anki::Radians::Radians(float)
    liftcontroller.o(i._ZN4Anki5Cozmo14LiftController25SetDesiredHeight_internalEffff) refers to radians.o(i._ZN4AnkieqERKNS_7RadiansES2_) for Anki::operator ==(const Anki::Radians&, const Anki::Radians&)
    liftcontroller.o(i._ZN4Anki5Cozmo14LiftController25SetDesiredHeight_internalEffff) refers to radians.o(i._ZN4AnkimiERKNS_7RadiansES2_) for Anki::operator -(const Anki::Radians&, const Anki::Radians&)
    liftcontroller.o(i._ZN4Anki5Cozmo14LiftController25SetDesiredHeight_internalEffff) refers to radians.o(i._ZN4Anki7RadiansaSEf) for Anki::Radians::operator =(float)
    liftcontroller.o(i._ZN4Anki5Cozmo14LiftController25SetDesiredHeight_internalEffff) refers to velocityprofilegenerator.o(i._ZN4Anki24VelocityProfileGenerator4StepERfS1_) for Anki::VelocityProfileGenerator::Step(float&, float&)
    liftcontroller.o(i._ZN4Anki5Cozmo14LiftController25SetDesiredHeight_internalEffff) refers to velocityprofilegenerator.o(i._ZN4Anki24VelocityProfileGenerator26StartProfile_fixedDurationEfffffffff) for Anki::VelocityProfileGenerator::StartProfile_fixedDuration(float, float, float, float, float, float, float, float, float)
    liftcontroller.o(i._ZN4Anki5Cozmo14LiftController25SetDesiredHeight_internalEffff) refers to messages.o(i._Z10trace_castIfEiT_) for trace_cast<float>(T1)
    liftcontroller.o(i._ZN4Anki5Cozmo14LiftController25SetDesiredHeight_internalEffff) refers to messages.o(i._ZN4Anki5Cozmo14RobotInterface7SendLogEatthz) for Anki::Cozmo::RobotInterface::SendLog(signed char, unsigned short, unsigned short, unsigned char, ...)
    liftcontroller.o(i._ZN4Anki5Cozmo14LiftController25SetDesiredHeight_internalEffff) refers to velocityprofilegenerator.o(i._ZN4Anki24VelocityProfileGenerator12StartProfileEfffffff) for Anki::VelocityProfileGenerator::StartProfile(float, float, float, float, float, float, float)
    liftcontroller.o(i._ZN4Anki5Cozmo14LiftController25SetDesiredHeight_internalEffff) refers to liftcontroller.o(.data) for .data
    liftcontroller.o(i._ZN4Anki5Cozmo14LiftController25SetDesiredHeight_internalEffff) refers to liftcontroller.o(.bss) for .bss
    liftcontroller.o(i._ZN4Anki5Cozmo14LiftController25SetMaxLinearSpeedAndAccelEff) refers to liftcontroller.o(.data) for .data
    liftcontroller.o(i._ZN4Anki5Cozmo14LiftController4InitEv) refers to liftcontroller.o(i._ZN4Anki5Cozmo14LiftController10Height2RadEf) for Anki::Cozmo::LiftController::Height2Rad(float)
    liftcontroller.o(i._ZN4Anki5Cozmo14LiftController4InitEv) refers to liftcontroller.o(.data) for .data
    liftcontroller.o(i._ZN4Anki5Cozmo14LiftController4StopEv) refers to liftcontroller.o(i._ZN4Anki5Cozmo14LiftController18SetAngularVelocityEf) for Anki::Cozmo::LiftController::SetAngularVelocity(float)
    liftcontroller.o(i._ZN4Anki5Cozmo14LiftController6EnableEv) refers to liftcontroller.o(i._ZN4Anki5Cozmo14LiftController10Rad2HeightEf) for Anki::Cozmo::LiftController::Rad2Height(float)
    liftcontroller.o(i._ZN4Anki5Cozmo14LiftController6EnableEv) refers to liftcontroller.o(i._ZN4Anki5Cozmo14LiftController16SetDesiredHeightEf) for Anki::Cozmo::LiftController::SetDesiredHeight(float)
    liftcontroller.o(i._ZN4Anki5Cozmo14LiftController6EnableEv) refers to liftcontroller.o(.data) for .data
    liftcontroller.o(i._ZN4Anki5Cozmo14LiftController6UpdateEv) refers to liftcontroller.o(i._ZN4Anki5Cozmo14LiftController17CalibrationUpdateEv) for Anki::Cozmo::LiftController::CalibrationUpdate()
    liftcontroller.o(i._ZN4Anki5Cozmo14LiftController6UpdateEv) refers to liftcontroller.o(i._ZN4Anki5Cozmo14LiftController24PoseAndSpeedFilterUpdateEv) for Anki::Cozmo::LiftController::PoseAndSpeedFilterUpdate()
    liftcontroller.o(i._ZN4Anki5Cozmo14LiftController6UpdateEv) refers to liftcontroller.o(i._ZN4Anki5Cozmo14LiftController8IsMovingEv) for Anki::Cozmo::LiftController::IsMoving()
    liftcontroller.o(i._ZN4Anki5Cozmo14LiftController6UpdateEv) refers to main.o(i.GetTimeStamp) for GetTimeStamp
    liftcontroller.o(i._ZN4Anki5Cozmo14LiftController6UpdateEv) refers to messages.o(i._ZN4Anki5Cozmo14RobotInterface7SendLogEatthz) for Anki::Cozmo::RobotInterface::SendLog(signed char, unsigned short, unsigned short, unsigned char, ...)
    liftcontroller.o(i._ZN4Anki5Cozmo14LiftController6UpdateEv) refers to liftcontroller.o(i._ZN4Anki5Cozmo14LiftController6EnableEv) for Anki::Cozmo::LiftController::Enable()
    liftcontroller.o(i._ZN4Anki5Cozmo14LiftController6UpdateEv) refers to liftcontroller.o(i._ZN4Anki5Cozmo14LiftController22MotorBurnoutProtectionEv) for Anki::Cozmo::LiftController::MotorBurnoutProtection()
    liftcontroller.o(i._ZN4Anki5Cozmo14LiftController6UpdateEv) refers to radians.o(i._ZN4Anki7RadiansC1Ef) for Anki::Radians::Radians(float)
    liftcontroller.o(i._ZN4Anki5Cozmo14LiftController6UpdateEv) refers to radians.o(i._ZN4AnkineERKNS_7RadiansES2_) for Anki::operator !=(const Anki::Radians&, const Anki::Radians&)
    liftcontroller.o(i._ZN4Anki5Cozmo14LiftController6UpdateEv) refers to velocityprofilegenerator.o(i._ZN4Anki24VelocityProfileGenerator4StepERfS1_) for Anki::VelocityProfileGenerator::Step(float&, float&)
    liftcontroller.o(i._ZN4Anki5Cozmo14LiftController6UpdateEv) refers to radians.o(i._ZN4AnkieqERKNS_7RadiansES2_) for Anki::operator ==(const Anki::Radians&, const Anki::Radians&)
    liftcontroller.o(i._ZN4Anki5Cozmo14LiftController6UpdateEv) refers to f2d.o(.text) for __aeabi_f2d
    liftcontroller.o(i._ZN4Anki5Cozmo14LiftController6UpdateEv) refers to d2f.o(.text) for __aeabi_d2f
    liftcontroller.o(i._ZN4Anki5Cozmo14LiftController6UpdateEv) refers to motors.o(i._ZN4Anki5Cozmo3HAL13MotorSetPowerEhf) for Anki::Cozmo::HAL::MotorSetPower(unsigned char, float)
    liftcontroller.o(i._ZN4Anki5Cozmo14LiftController6UpdateEv) refers to liftcontroller.o(.data) for .data
    liftcontroller.o(i._ZN4Anki5Cozmo14LiftController6UpdateEv) refers to liftcontroller.o(.bss) for .bss
    liftcontroller.o(i._ZN4Anki5Cozmo14LiftController7DisableEb) refers to motors.o(i._ZN4Anki5Cozmo3HAL13MotorSetPowerEhf) for Anki::Cozmo::HAL::MotorSetPower(unsigned char, float)
    liftcontroller.o(i._ZN4Anki5Cozmo14LiftController7DisableEb) refers to main.o(i.GetTimeStamp) for GetTimeStamp
    liftcontroller.o(i._ZN4Anki5Cozmo14LiftController7DisableEb) refers to liftcontroller.o(.data) for .data
    liftcontroller.o(i._ZN4Anki5Cozmo14LiftController8IsMovingEv) refers to liftcontroller.o(.data) for .data
    liftcontroller.o(i._ZN4Anki5Cozmo14LiftController8SetGainsEffff) refers to messages.o(i._Z10trace_castIfEiT_) for trace_cast<float>(T1)
    liftcontroller.o(i._ZN4Anki5Cozmo14LiftController8SetGainsEffff) refers to messages.o(i._ZN4Anki5Cozmo14RobotInterface7SendLogEatthz) for Anki::Cozmo::RobotInterface::SendLog(signed char, unsigned short, unsigned short, unsigned char, ...)
    liftcontroller.o(i._ZN4Anki5Cozmo14LiftController8SetGainsEffff) refers to liftcontroller.o(.data) for .data
    liftcontroller.o(i.__sti___18_liftController_cpp) refers to radians.o(i._ZN4Anki7RadiansC1Ef) for Anki::Radians::Radians(float)
    liftcontroller.o(i.__sti___18_liftController_cpp) refers to velocityprofilegenerator.o(i._ZN4Anki24VelocityProfileGeneratorC1Ev) for Anki::VelocityProfileGenerator::VelocityProfileGenerator()
    liftcontroller.o(i.__sti___18_liftController_cpp) refers to liftcontroller.o(.data) for .data
    liftcontroller.o(i.__sti___18_liftController_cpp) refers to liftcontroller.o(.bss) for .bss
    liftcontroller.o(.ARM.exidx) refers to liftcontroller.o(i._ZN4Anki5Cozmo14LiftController10Height2RadEf) for i._ZN4Anki5Cozmo14LiftController10Height2RadEf
    liftcontroller.o(.ARM.exidx) refers to liftcontroller.o(i._ZN4Anki5Cozmo14LiftController10Rad2HeightEf) for i._ZN4Anki5Cozmo14LiftController10Rad2HeightEf
    liftcontroller.o(.ARM.exidx) refers to liftcontroller.o(i._ZN4Anki5Cozmo14LiftController4InitEv) for i._ZN4Anki5Cozmo14LiftController4InitEv
    liftcontroller.o(.ARM.exidx) refers to liftcontroller.o(i._ZN4Anki5Cozmo14LiftController25SetDesiredHeight_internalEffff) for i._ZN4Anki5Cozmo14LiftController25SetDesiredHeight_internalEffff
    liftcontroller.o(.ARM.exidx) refers to liftcontroller.o(i._ZN4Anki5Cozmo14LiftController16SetDesiredHeightEffff) for i._ZN4Anki5Cozmo14LiftController16SetDesiredHeightEffff
    liftcontroller.o(.ARM.exidx) refers to liftcontroller.o(i._ZN4Anki5Cozmo14LiftController16SetDesiredHeightEf) for i._ZN4Anki5Cozmo14LiftController16SetDesiredHeightEf
    liftcontroller.o(.ARM.exidx) refers to liftcontroller.o(i._ZN4Anki5Cozmo14LiftController6EnableEv) for i._ZN4Anki5Cozmo14LiftController6EnableEv
    liftcontroller.o(.ARM.exidx) refers to liftcontroller.o(i._ZN4Anki5Cozmo14LiftController7DisableEb) for i._ZN4Anki5Cozmo14LiftController7DisableEb
    liftcontroller.o(.ARM.exidx) refers to liftcontroller.o(i._ZN4Anki5Cozmo14LiftController18ResetAnglePositionEf) for i._ZN4Anki5Cozmo14LiftController18ResetAnglePositionEf
    liftcontroller.o(.ARM.exidx) refers to liftcontroller.o(i._ZN4Anki5Cozmo14LiftController23StartCalibrationRoutineEv) for i._ZN4Anki5Cozmo14LiftController23StartCalibrationRoutineEv
    liftcontroller.o(.ARM.exidx) refers to liftcontroller.o(i._ZN4Anki5Cozmo14LiftController12IsCalibratedEv) for i._ZN4Anki5Cozmo14LiftController12IsCalibratedEv
    liftcontroller.o(.ARM.exidx) refers to liftcontroller.o(i._ZN4Anki5Cozmo14LiftController8IsMovingEv) for i._ZN4Anki5Cozmo14LiftController8IsMovingEv
    liftcontroller.o(.ARM.exidx) refers to liftcontroller.o(i._ZN4Anki5Cozmo14LiftController17CalibrationUpdateEv) for i._ZN4Anki5Cozmo14LiftController17CalibrationUpdateEv
    liftcontroller.o(.ARM.exidx) refers to liftcontroller.o(i._ZN4Anki5Cozmo14LiftController24GetLastCommandedHeightMMEv) for i._ZN4Anki5Cozmo14LiftController24GetLastCommandedHeightMMEv
    liftcontroller.o(.ARM.exidx) refers to liftcontroller.o(i._ZN4Anki5Cozmo14LiftController11GetHeightMMEv) for i._ZN4Anki5Cozmo14LiftController11GetHeightMMEv
    liftcontroller.o(.ARM.exidx) refers to liftcontroller.o(i._ZN4Anki5Cozmo14LiftController11GetAngleRadEv) for i._ZN4Anki5Cozmo14LiftController11GetAngleRadEv
    liftcontroller.o(.ARM.exidx) refers to liftcontroller.o(i._ZN4Anki5Cozmo14LiftController19SetMaxSpeedAndAccelEff) for i._ZN4Anki5Cozmo14LiftController19SetMaxSpeedAndAccelEff
    liftcontroller.o(.ARM.exidx) refers to liftcontroller.o(i._ZN4Anki5Cozmo14LiftController25SetMaxLinearSpeedAndAccelEff) for i._ZN4Anki5Cozmo14LiftController25SetMaxLinearSpeedAndAccelEff
    liftcontroller.o(.ARM.exidx) refers to liftcontroller.o(i._ZN4Anki5Cozmo14LiftController19GetMaxSpeedAndAccelERfS2_) for i._ZN4Anki5Cozmo14LiftController19GetMaxSpeedAndAccelERfS2_
    liftcontroller.o(.ARM.exidx) refers to liftcontroller.o(i._ZN4Anki5Cozmo14LiftController18SetAngularVelocityEf) for i._ZN4Anki5Cozmo14LiftController18SetAngularVelocityEf
    liftcontroller.o(.ARM.exidx) refers to liftcontroller.o(i._ZN4Anki5Cozmo14LiftController17SetLinearVelocityEf) for i._ZN4Anki5Cozmo14LiftController17SetLinearVelocityEf
    liftcontroller.o(.ARM.exidx) refers to liftcontroller.o(i._ZN4Anki5Cozmo14LiftController18GetAngularVelocityEv) for i._ZN4Anki5Cozmo14LiftController18GetAngularVelocityEv
    liftcontroller.o(.ARM.exidx) refers to liftcontroller.o(i._ZN4Anki5Cozmo14LiftController24PoseAndSpeedFilterUpdateEv) for i._ZN4Anki5Cozmo14LiftController24PoseAndSpeedFilterUpdateEv
    liftcontroller.o(.ARM.exidx) refers to liftcontroller.o(i._ZN4Anki5Cozmo14LiftController16GetDesiredHeightEv) for i._ZN4Anki5Cozmo14LiftController16GetDesiredHeightEv
    liftcontroller.o(.ARM.exidx) refers to liftcontroller.o(i._ZN4Anki5Cozmo14LiftController12IsInPositionEv) for i._ZN4Anki5Cozmo14LiftController12IsInPositionEv
    liftcontroller.o(.ARM.exidx) refers to liftcontroller.o(i._ZN4Anki5Cozmo14LiftController22MotorBurnoutProtectionEv) for i._ZN4Anki5Cozmo14LiftController22MotorBurnoutProtectionEv
    liftcontroller.o(.ARM.exidx) refers to liftcontroller.o(i._ZN4Anki5Cozmo14LiftController6UpdateEv) for i._ZN4Anki5Cozmo14LiftController6UpdateEv
    liftcontroller.o(.ARM.exidx) refers to liftcontroller.o(i._ZN4Anki5Cozmo14LiftController8SetGainsEffff) for i._ZN4Anki5Cozmo14LiftController8SetGainsEffff
    liftcontroller.o(.ARM.exidx) refers to liftcontroller.o(i._ZN4Anki5Cozmo14LiftController4StopEv) for i._ZN4Anki5Cozmo14LiftController4StopEv
    liftcontroller.o(.ARM.exidx) refers to liftcontroller.o(i.__sti___18_liftController_cpp) for i.__sti___18_liftController_cpp
    liftcontroller.o(.init_array) refers to liftcontroller.o(i.__sti___18_liftController_cpp) for __sti___18_liftController_cpp
    liftcontroller.o(.init_array) refers to cpp_init.o(.text) for __cpp_initialize__aeabi_
    velocityprofilegenerator.o(i._ZN4Anki24VelocityProfileGenerator12StartProfileEfffff) refers to f2d.o(.text) for __aeabi_f2d
    velocityprofilegenerator.o(i._ZN4Anki24VelocityProfileGenerator12StartProfileEfffff) refers to velocityprofilegenerator.o(i._ZSt4fabsf) for std::fabs(float)
    velocityprofilegenerator.o(i._ZN4Anki24VelocityProfileGenerator12StartProfileEfffffff) refers to velocityprofilegenerator.o(i._ZSt4fabsf) for std::fabs(float)
    velocityprofilegenerator.o(i._ZN4Anki24VelocityProfileGenerator12StartProfileEfffffff) refers to sqrtf.o(i.__hardfp_sqrtf) for __hardfp_sqrtf
    velocityprofilegenerator.o(i._ZN4Anki24VelocityProfileGenerator12StartProfileEfffffff) refers to f2d.o(.text) for __aeabi_f2d
    velocityprofilegenerator.o(i._ZN4Anki24VelocityProfileGenerator26StartProfile_fixedDurationEfffffffff) refers to velocityprofilegenerator.o(i._ZSt4fabsf) for std::fabs(float)
    velocityprofilegenerator.o(i._ZN4Anki24VelocityProfileGenerator26StartProfile_fixedDurationEfffffffff) refers to messages.o(i._Z10trace_castIfEiT_) for trace_cast<float>(T1)
    velocityprofilegenerator.o(i._ZN4Anki24VelocityProfileGenerator26StartProfile_fixedDurationEfffffffff) refers to messages.o(i._ZN4Anki5Cozmo14RobotInterface7SendLogEatthz) for Anki::Cozmo::RobotInterface::SendLog(signed char, unsigned short, unsigned short, unsigned char, ...)
    velocityprofilegenerator.o(i._ZN4Anki24VelocityProfileGenerator26StartProfile_fixedDurationEfffffffff) refers to sqrtf.o(i.__hardfp_sqrtf) for __hardfp_sqrtf
    velocityprofilegenerator.o(i._ZN4Anki24VelocityProfileGenerator26StartProfile_fixedDurationEfffffffff) refers to f2d.o(.text) for __aeabi_f2d
    velocityprofilegenerator.o(i._ZN4Anki24VelocityProfileGenerator4StepERfS1_) refers to f2d.o(.text) for __aeabi_f2d
    velocityprofilegenerator.o(i._ZN4Anki24VelocityProfileGenerator4StepERfS1_) refers to dmul.o(.text) for __aeabi_dmul
    velocityprofilegenerator.o(i._ZN4Anki24VelocityProfileGenerator4StepERfS1_) refers to dadd.o(.text) for __aeabi_dadd
    velocityprofilegenerator.o(i._ZN4Anki24VelocityProfileGenerator4StepERfS1_) refers to cdcmple.o(.text) for __aeabi_cdcmpeq
    velocityprofilegenerator.o(i._ZN4Anki24VelocityProfileGenerator4StepERfS1_) refers to d2f.o(.text) for __aeabi_d2f
    velocityprofilegenerator.o(i._ZN4Anki24VelocityProfileGenerator4StepERfS1_) refers to velocityprofilegenerator.o(i._ZSt4fabsf) for std::fabs(float)
    velocityprofilegenerator.o(.ARM.exidx) refers to velocityprofilegenerator.o(i._ZN4Anki24VelocityProfileGeneratorC1Ev) for i._ZN4Anki24VelocityProfileGeneratorC1Ev
    velocityprofilegenerator.o(.ARM.exidx) refers to velocityprofilegenerator.o(i._ZN4Anki24VelocityProfileGenerator12StartProfileEfffffff) for i._ZN4Anki24VelocityProfileGenerator12StartProfileEfffffff
    velocityprofilegenerator.o(.ARM.exidx) refers to velocityprofilegenerator.o(i._ZN4Anki24VelocityProfileGenerator12StartProfileEfffff) for i._ZN4Anki24VelocityProfileGenerator12StartProfileEfffff
    velocityprofilegenerator.o(.ARM.exidx) refers to velocityprofilegenerator.o(i._ZN4Anki24VelocityProfileGenerator26StartProfile_fixedDurationEfffffffff) for i._ZN4Anki24VelocityProfileGenerator26StartProfile_fixedDurationEfffffffff
    velocityprofilegenerator.o(.ARM.exidx) refers to velocityprofilegenerator.o(i._ZN4Anki24VelocityProfileGenerator4StepERfS1_) for i._ZN4Anki24VelocityProfileGenerator4StepERfS1_
    velocityprofilegenerator.o(.ARM.exidx) refers to velocityprofilegenerator.o(i._ZN4Anki24VelocityProfileGenerator17DumpProfileToFileEPKc) for i._ZN4Anki24VelocityProfileGenerator17DumpProfileToFileEPKc
    velocityprofilegenerator.o(.ARM.exidx) refers to velocityprofilegenerator.o(i._ZN4Anki24VelocityProfileGenerator13TargetReachedEv) for i._ZN4Anki24VelocityProfileGenerator13TargetReachedEv
    radians.o(i._ZN4Anki7Radians10setDegreesEf) refers to radians.o(i._ZN4Anki7Radians7rescaleEv) for Anki::Radians::rescale()
    radians.o(i._ZN4Anki7Radians7rescaleEv) refers to ceilf.o(i.__hardfp_ceilf) for __hardfp_ceilf
    radians.o(i._ZN4Anki7RadiansC1Ef) refers to radians.o(i._ZN4Anki7RadiansaSEf) for Anki::Radians::operator =(float)
    radians.o(i._ZN4Anki7RadiansaSEf) refers to radians.o(i._ZN4Anki7Radians7rescaleEv) for Anki::Radians::rescale()
    radians.o(i._ZN4Anki7RadiansdVEf) refers to radians.o(i._ZN4AnkidvERKNS_7RadiansEf) for Anki::operator /(const Anki::Radians&, float)
    radians.o(i._ZN4Anki7RadiansmIERKS0_) refers to radians.o(i._ZN4AnkimiERKNS_7RadiansES2_) for Anki::operator -(const Anki::Radians&, const Anki::Radians&)
    radians.o(i._ZN4Anki7RadiansmIEf) refers to radians.o(i._ZN4AnkimiERKNS_7RadiansEf) for Anki::operator -(const Anki::Radians&, float)
    radians.o(i._ZN4Anki7RadiansmLEf) refers to radians.o(i._ZN4AnkimlERKNS_7RadiansEf) for Anki::operator *(const Anki::Radians&, float)
    radians.o(i._ZN4Anki7RadianspLERKS0_) refers to radians.o(i._ZN4AnkiplERKNS_7RadiansES2_) for Anki::operator +(const Anki::Radians&, const Anki::Radians&)
    radians.o(i._ZN4Anki7RadianspLEf) refers to radians.o(i._ZN4AnkiplERKNS_7RadiansEf) for Anki::operator +(const Anki::Radians&, float)
    radians.o(i._ZN4AnkidvERKNS_7RadiansEf) refers to messages.o(i._ZN4Anki5Cozmo14RobotInterface7SendLogEatthz) for Anki::Cozmo::RobotInterface::SendLog(signed char, unsigned short, unsigned short, unsigned char, ...)
    radians.o(i._ZN4AnkidvERKNS_7RadiansEf) refers to lights.o(i._ZN4Anki5Cozmo3HAL6SetLEDEht) for Anki::Cozmo::HAL::SetLED(unsigned char, unsigned short)
    radians.o(i._ZN4AnkidvERKNS_7RadiansEf) refers to radians.o(i._ZN4Anki7RadiansC1Ev) for Anki::Radians::Radians()
    radians.o(i._ZN4AnkidvERKNS_7RadiansEf) refers to radians.o(i._ZN4Anki7Radians7rescaleEv) for Anki::Radians::rescale()
    radians.o(i._ZN4AnkigeERKNS_7RadiansES2_) refers to radians.o(i._ZN4AnkigtERKNS_7RadiansES2_) for Anki::operator >(const Anki::Radians&, const Anki::Radians&)
    radians.o(i._ZN4AnkigeERKNS_7RadiansES2_) refers to radians.o(i._ZN4AnkieqERKNS_7RadiansES2_) for Anki::operator ==(const Anki::Radians&, const Anki::Radians&)
    radians.o(i._ZN4AnkigtERKNS_7RadiansES2_) refers to radians.o(i._ZN4AnkineERKNS_7RadiansES2_) for Anki::operator !=(const Anki::Radians&, const Anki::Radians&)
    radians.o(i._ZN4AnkileERKNS_7RadiansES2_) refers to radians.o(i._ZN4AnkigeERKNS_7RadiansES2_) for Anki::operator >=(const Anki::Radians&, const Anki::Radians&)
    radians.o(i._ZN4AnkiltERKNS_7RadiansES2_) refers to radians.o(i._ZN4AnkigtERKNS_7RadiansES2_) for Anki::operator >(const Anki::Radians&, const Anki::Radians&)
    radians.o(i._ZN4AnkimiERKNS_7RadiansES2_) refers to radians.o(i._ZN4Anki7RadiansC1Ev) for Anki::Radians::Radians()
    radians.o(i._ZN4AnkimiERKNS_7RadiansES2_) refers to radians.o(i._ZN4Anki7Radians7rescaleEv) for Anki::Radians::rescale()
    radians.o(i._ZN4AnkimiERKNS_7RadiansEf) refers to radians.o(i._ZN4Anki7RadiansC1Ef) for Anki::Radians::Radians(float)
    radians.o(i._ZN4AnkimiERKNS_7RadiansEf) refers to radians.o(i._ZN4AnkimiERKNS_7RadiansES2_) for Anki::operator -(const Anki::Radians&, const Anki::Radians&)
    radians.o(i._ZN4AnkimiEfRKNS_7RadiansE) refers to radians.o(i._ZN4Anki7RadiansC1Ef) for Anki::Radians::Radians(float)
    radians.o(i._ZN4AnkimiEfRKNS_7RadiansE) refers to radians.o(i._ZN4AnkimiERKNS_7RadiansES2_) for Anki::operator -(const Anki::Radians&, const Anki::Radians&)
    radians.o(i._ZN4AnkimlERKNS_7RadiansEf) refers to radians.o(i._ZN4Anki7RadiansC1Ev) for Anki::Radians::Radians()
    radians.o(i._ZN4AnkimlERKNS_7RadiansEf) refers to radians.o(i._ZN4Anki7Radians7rescaleEv) for Anki::Radians::rescale()
    radians.o(i._ZN4AnkimlEfRKNS_7RadiansE) refers to radians.o(i._ZN4AnkimlERKNS_7RadiansEf) for Anki::operator *(const Anki::Radians&, float)
    radians.o(i._ZN4AnkineERKNS_7RadiansES2_) refers to radians.o(i._ZN4AnkieqERKNS_7RadiansES2_) for Anki::operator ==(const Anki::Radians&, const Anki::Radians&)
    radians.o(i._ZN4AnkiplERKNS_7RadiansES2_) refers to radians.o(i._ZN4Anki7RadiansC1Ev) for Anki::Radians::Radians()
    radians.o(i._ZN4AnkiplERKNS_7RadiansES2_) refers to radians.o(i._ZN4Anki7Radians7rescaleEv) for Anki::Radians::rescale()
    radians.o(i._ZN4AnkiplERKNS_7RadiansEf) refers to radians.o(i._ZN4Anki7RadiansC1Ef) for Anki::Radians::Radians(float)
    radians.o(i._ZN4AnkiplERKNS_7RadiansEf) refers to radians.o(i._ZN4AnkiplERKNS_7RadiansES2_) for Anki::operator +(const Anki::Radians&, const Anki::Radians&)
    radians.o(i._ZN4AnkiplEfRKNS_7RadiansE) refers to radians.o(i._ZN4Anki7RadiansC1Ef) for Anki::Radians::Radians(float)
    radians.o(i._ZN4AnkiplEfRKNS_7RadiansE) refers to radians.o(i._ZN4AnkiplERKNS_7RadiansES2_) for Anki::operator +(const Anki::Radians&, const Anki::Radians&)
    radians.o(i._ZNK4Anki7Radians14getAbsoluteValEv) refers to radians.o(i._ZN4Anki7RadiansC1Ef) for Anki::Radians::Radians(float)
    radians.o(i._ZNK4Anki7RadiansngEv) refers to radians.o(i._ZN4Anki7RadiansC1Ev) for Anki::Radians::Radians()
    radians.o(i._ZNK4Anki7RadiansngEv) refers to radians.o(i._ZN4Anki7Radians7rescaleEv) for Anki::Radians::rescale()
    radians.o(.ARM.exidx) refers to radians.o(i._ZN4Anki7RadiansC1Ev) for i._ZN4Anki7RadiansC1Ev
    radians.o(.ARM.exidx) refers to radians.o(i._ZN4Anki7Radians7rescaleEv) for i._ZN4Anki7Radians7rescaleEv
    radians.o(.ARM.exidx) refers to radians.o(i._ZN4Anki7RadiansaSEf) for i._ZN4Anki7RadiansaSEf
    radians.o(.ARM.exidx) refers to radians.o(i._ZN4Anki7RadiansC1Ef) for i._ZN4Anki7RadiansC1Ef
    radians.o(.ARM.exidx) refers to radians.o(i._ZN4Anki7RadiansaSERKS0_) for i._ZN4Anki7RadiansaSERKS0_
    radians.o(.ARM.exidx) refers to radians.o(i._ZN4Anki7RadiansC1ERKS0_) for i._ZN4Anki7RadiansC1ERKS0_
    radians.o(.ARM.exidx) refers to radians.o(i._ZN4AnkiplERKNS_7RadiansES2_) for i._ZN4AnkiplERKNS_7RadiansES2_
    radians.o(.ARM.exidx) refers to radians.o(i._ZN4AnkiplERKNS_7RadiansEf) for i._ZN4AnkiplERKNS_7RadiansEf
    radians.o(.ARM.exidx) refers to radians.o(i._ZN4Anki7RadianspLEf) for i._ZN4Anki7RadianspLEf
    radians.o(.ARM.exidx) refers to radians.o(i._ZN4Anki7RadianspLERKS0_) for i._ZN4Anki7RadianspLERKS0_
    radians.o(.ARM.exidx) refers to radians.o(i._ZN4AnkimiERKNS_7RadiansES2_) for i._ZN4AnkimiERKNS_7RadiansES2_
    radians.o(.ARM.exidx) refers to radians.o(i._ZN4AnkimiERKNS_7RadiansEf) for i._ZN4AnkimiERKNS_7RadiansEf
    radians.o(.ARM.exidx) refers to radians.o(i._ZN4Anki7RadiansmIEf) for i._ZN4Anki7RadiansmIEf
    radians.o(.ARM.exidx) refers to radians.o(i._ZN4Anki7RadiansmIERKS0_) for i._ZN4Anki7RadiansmIERKS0_
    radians.o(.ARM.exidx) refers to radians.o(i._ZN4AnkimlERKNS_7RadiansEf) for i._ZN4AnkimlERKNS_7RadiansEf
    radians.o(.ARM.exidx) refers to radians.o(i._ZN4Anki7RadiansmLEf) for i._ZN4Anki7RadiansmLEf
    radians.o(.ARM.exidx) refers to radians.o(i._ZN4AnkidvERKNS_7RadiansEf) for i._ZN4AnkidvERKNS_7RadiansEf
    radians.o(.ARM.exidx) refers to radians.o(i._ZN4Anki7RadiansdVEf) for i._ZN4Anki7RadiansdVEf
    radians.o(.ARM.exidx) refers to radians.o(i._ZNK4Anki7RadiansngEv) for i._ZNK4Anki7RadiansngEv
    radians.o(.ARM.exidx) refers to radians.o(i._ZNK4Anki7Radians14getAbsoluteValEv) for i._ZNK4Anki7Radians14getAbsoluteValEv
    radians.o(.ARM.exidx) refers to radians.o(i._ZNK4Anki7Radians10getDegreesEv) for i._ZNK4Anki7Radians10getDegreesEv
    radians.o(.ARM.exidx) refers to radians.o(i._ZN4Anki7Radians10setDegreesEf) for i._ZN4Anki7Radians10setDegreesEf
    radians.o(.ARM.exidx) refers to radians.o(i._ZN4Anki7Radians16performRescalingEb) for i._ZN4Anki7Radians16performRescalingEb
    radians.o(.ARM.exidx) refers to radians.o(i._ZN4Anki7Radians15angularDistanceERKS0_b) for i._ZN4Anki7Radians15angularDistanceERKS0_b
    radians.o(.ARM.exidx) refers to radians.o(i._ZN4Anki17Radians_noRescale12makePositiveEv) for i._ZN4Anki17Radians_noRescale12makePositiveEv
    radians.o(.ARM.exidx) refers to radians.o(i._ZN4Anki17Radians_noRescale12makeNegativeEv) for i._ZN4Anki17Radians_noRescale12makeNegativeEv
    radians.o(.ARM.exidx) refers to radians.o(i._ZN4AnkiplEfRKNS_7RadiansE) for i._ZN4AnkiplEfRKNS_7RadiansE
    radians.o(.ARM.exidx) refers to radians.o(i._ZN4AnkimiEfRKNS_7RadiansE) for i._ZN4AnkimiEfRKNS_7RadiansE
    radians.o(.ARM.exidx) refers to radians.o(i._ZN4AnkimlEfRKNS_7RadiansE) for i._ZN4AnkimlEfRKNS_7RadiansE
    radians.o(.ARM.exidx) refers to radians.o(i._ZN4AnkieqERKNS_7RadiansES2_) for i._ZN4AnkieqERKNS_7RadiansES2_
    radians.o(.ARM.exidx) refers to radians.o(i._ZN4AnkineERKNS_7RadiansES2_) for i._ZN4AnkineERKNS_7RadiansES2_
    radians.o(.ARM.exidx) refers to radians.o(i._ZN4AnkigtERKNS_7RadiansES2_) for i._ZN4AnkigtERKNS_7RadiansES2_
    radians.o(.ARM.exidx) refers to radians.o(i._ZN4AnkigeERKNS_7RadiansES2_) for i._ZN4AnkigeERKNS_7RadiansES2_
    radians.o(.ARM.exidx) refers to radians.o(i._ZN4AnkiltERKNS_7RadiansES2_) for i._ZN4AnkiltERKNS_7RadiansES2_
    radians.o(.ARM.exidx) refers to radians.o(i._ZN4AnkileERKNS_7RadiansES2_) for i._ZN4AnkileERKNS_7RadiansES2_
    headcontroller.o(i._ZN4Anki5Cozmo14HeadController10GetCamPoseERfS2_S2_) refers to cosf.o(i.__hardfp_cosf) for __hardfp_cosf
    headcontroller.o(i._ZN4Anki5Cozmo14HeadController10GetCamPoseERfS2_S2_) refers to sinf.o(i.__hardfp_sinf) for __hardfp_sinf
    headcontroller.o(i._ZN4Anki5Cozmo14HeadController10GetCamPoseERfS2_S2_) refers to headcontroller.o(.data) for .data
    headcontroller.o(i._ZN4Anki5Cozmo14HeadController11GetAngleRadEv) refers to headcontroller.o(.data) for .data
    headcontroller.o(i._ZN4Anki5Cozmo14HeadController11SetAngleRadEf) refers to radians.o(i._ZN4Anki7RadiansaSEf) for Anki::Radians::operator =(float)
    headcontroller.o(i._ZN4Anki5Cozmo14HeadController11SetAngleRadEf) refers to headcontroller.o(.data) for .data
    headcontroller.o(i._ZN4Anki5Cozmo14HeadController12IsCalibratedEv) refers to headcontroller.o(.data) for .data
    headcontroller.o(i._ZN4Anki5Cozmo14HeadController12IsInPositionEv) refers to headcontroller.o(.data) for .data
    headcontroller.o(i._ZN4Anki5Cozmo14HeadController15SetDesiredAngleEf) refers to headcontroller.o(i._ZN4Anki5Cozmo14HeadController15SetDesiredAngleEffff) for Anki::Cozmo::HeadController::SetDesiredAngle(float, float, float, float)
    headcontroller.o(i._ZN4Anki5Cozmo14HeadController15SetDesiredAngleEffff) refers to headcontroller.o(i._ZN4Anki5Cozmo14HeadController24SetDesiredAngle_internalEffff) for Anki::Cozmo::HeadController::SetDesiredAngle_internal(float, float, float, float)
    headcontroller.o(i._ZN4Anki5Cozmo14HeadController17CalibrationUpdateEv) refers to main.o(i.GetTimeStamp) for GetTimeStamp
    headcontroller.o(i._ZN4Anki5Cozmo14HeadController17CalibrationUpdateEv) refers to messages.o(i._ZN4Anki5Cozmo14RobotInterface7SendLogEatthz) for Anki::Cozmo::RobotInterface::SendLog(signed char, unsigned short, unsigned short, unsigned char, ...)
    headcontroller.o(i._ZN4Anki5Cozmo14HeadController17CalibrationUpdateEv) refers to headcontroller.o(i._ZN4Anki5Cozmo14HeadController21ResetLowAnglePositionEv) for Anki::Cozmo::HeadController::ResetLowAnglePosition()
    headcontroller.o(i._ZN4Anki5Cozmo14HeadController17CalibrationUpdateEv) refers to messages.o(i._ZN4Anki5Cozmo8Messages23SendMotorCalibrationMsgEhb) for Anki::Cozmo::Messages::SendMotorCalibrationMsg(unsigned char, bool)
    headcontroller.o(i._ZN4Anki5Cozmo14HeadController17CalibrationUpdateEv) refers to motors.o(i._ZN4Anki5Cozmo3HAL13MotorSetPowerEhf) for Anki::Cozmo::HAL::MotorSetPower(unsigned char, float)
    headcontroller.o(i._ZN4Anki5Cozmo14HeadController17CalibrationUpdateEv) refers to headcontroller.o(i._ZN4Anki5Cozmo14HeadController8IsMovingEv) for Anki::Cozmo::HeadController::IsMoving()
    headcontroller.o(i._ZN4Anki5Cozmo14HeadController17CalibrationUpdateEv) refers to headcontroller.o(.data) for .data
    headcontroller.o(i._ZN4Anki5Cozmo14HeadController18GetAngularVelocityEv) refers to headcontroller.o(.data) for .data
    headcontroller.o(i._ZN4Anki5Cozmo14HeadController18SetAngularVelocityEf) refers to headcontroller.o(i._ZN4Anki5Cozmo14HeadController15SetDesiredAngleEf) for Anki::Cozmo::HeadController::SetDesiredAngle(float)
    headcontroller.o(i._ZN4Anki5Cozmo14HeadController18SetAngularVelocityEf) refers to headcontroller.o(.data) for .data
    headcontroller.o(i._ZN4Anki5Cozmo14HeadController19GetMaxSpeedAndAccelERfS2_) refers to headcontroller.o(.data) for .data
    headcontroller.o(i._ZN4Anki5Cozmo14HeadController19SetMaxSpeedAndAccelEff) refers to headcontroller.o(.data) for .data
    headcontroller.o(i._ZN4Anki5Cozmo14HeadController21GetLastCommandedAngleEv) refers to headcontroller.o(.data) for .data
    headcontroller.o(i._ZN4Anki5Cozmo14HeadController21ResetLowAnglePositionEv) refers to radians.o(i._ZN4Anki7RadiansaSEf) for Anki::Radians::operator =(float)
    headcontroller.o(i._ZN4Anki5Cozmo14HeadController21ResetLowAnglePositionEv) refers to motors.o(i._ZN4Anki5Cozmo3HAL18MotorResetPositionEh) for Anki::Cozmo::HAL::MotorResetPosition(unsigned char)
    headcontroller.o(i._ZN4Anki5Cozmo14HeadController21ResetLowAnglePositionEv) refers to motors.o(i._ZN4Anki5Cozmo3HAL16MotorGetPositionEh) for Anki::Cozmo::HAL::MotorGetPosition(unsigned char)
    headcontroller.o(i._ZN4Anki5Cozmo14HeadController21ResetLowAnglePositionEv) refers to headcontroller.o(.data) for .data
    headcontroller.o(i._ZN4Anki5Cozmo14HeadController22MotorBurnoutProtectionEv) refers to main.o(i.GetTimeStamp) for GetTimeStamp
    headcontroller.o(i._ZN4Anki5Cozmo14HeadController22MotorBurnoutProtectionEv) refers to messages.o(i._Z10trace_castIfEiT_) for trace_cast<float>(T1)
    headcontroller.o(i._ZN4Anki5Cozmo14HeadController22MotorBurnoutProtectionEv) refers to messages.o(i._ZN4Anki5Cozmo14RobotInterface7SendLogEatthz) for Anki::Cozmo::RobotInterface::SendLog(signed char, unsigned short, unsigned short, unsigned char, ...)
    headcontroller.o(i._ZN4Anki5Cozmo14HeadController22MotorBurnoutProtectionEv) refers to headcontroller.o(i._ZN4Anki5Cozmo14HeadController23StartCalibrationRoutineEv) for Anki::Cozmo::HeadController::StartCalibrationRoutine()
    headcontroller.o(i._ZN4Anki5Cozmo14HeadController22MotorBurnoutProtectionEv) refers to headcontroller.o(.data) for .data
    headcontroller.o(i._ZN4Anki5Cozmo14HeadController23StartCalibrationRoutineEv) refers to messages.o(i._ZN4Anki5Cozmo14RobotInterface7SendLogEatthz) for Anki::Cozmo::RobotInterface::SendLog(signed char, unsigned short, unsigned short, unsigned char, ...)
    headcontroller.o(i._ZN4Anki5Cozmo14HeadController23StartCalibrationRoutineEv) refers to messages.o(i._ZN4Anki5Cozmo8Messages23SendMotorCalibrationMsgEhb) for Anki::Cozmo::Messages::SendMotorCalibrationMsg(unsigned char, bool)
    headcontroller.o(i._ZN4Anki5Cozmo14HeadController23StartCalibrationRoutineEv) refers to headcontroller.o(.data) for .data
    headcontroller.o(i._ZN4Anki5Cozmo14HeadController24PoseAndSpeedFilterUpdateEv) refers to motors.o(i._ZN4Anki5Cozmo3HAL13MotorGetSpeedEh) for Anki::Cozmo::HAL::MotorGetSpeed(unsigned char)
    headcontroller.o(i._ZN4Anki5Cozmo14HeadController24PoseAndSpeedFilterUpdateEv) refers to motors.o(i._ZN4Anki5Cozmo3HAL16MotorGetPositionEh) for Anki::Cozmo::HAL::MotorGetPosition(unsigned char)
    headcontroller.o(i._ZN4Anki5Cozmo14HeadController24PoseAndSpeedFilterUpdateEv) refers to radians.o(i._ZN4Anki7RadianspLEf) for Anki::Radians::operator +=(float)
    headcontroller.o(i._ZN4Anki5Cozmo14HeadController24PoseAndSpeedFilterUpdateEv) refers to headcontroller.o(.data) for .data
    headcontroller.o(i._ZN4Anki5Cozmo14HeadController24SetDesiredAngle_internalEffff) refers to radians.o(i._ZN4Anki7RadiansC1Ef) for Anki::Radians::Radians(float)
    headcontroller.o(i._ZN4Anki5Cozmo14HeadController24SetDesiredAngle_internalEffff) refers to radians.o(i._ZN4AnkieqERKNS_7RadiansES2_) for Anki::operator ==(const Anki::Radians&, const Anki::Radians&)
    headcontroller.o(i._ZN4Anki5Cozmo14HeadController24SetDesiredAngle_internalEffff) refers to radians.o(i._ZN4AnkimiERKNS_7RadiansES2_) for Anki::operator -(const Anki::Radians&, const Anki::Radians&)
    headcontroller.o(i._ZN4Anki5Cozmo14HeadController24SetDesiredAngle_internalEffff) refers to radians.o(i._ZN4Anki7RadiansaSEf) for Anki::Radians::operator =(float)
    headcontroller.o(i._ZN4Anki5Cozmo14HeadController24SetDesiredAngle_internalEffff) refers to motors.o(i._ZN4Anki5Cozmo3HAL13MotorSetPowerEhf) for Anki::Cozmo::HAL::MotorSetPower(unsigned char, float)
    headcontroller.o(i._ZN4Anki5Cozmo14HeadController24SetDesiredAngle_internalEffff) refers to velocityprofilegenerator.o(i._ZN4Anki24VelocityProfileGenerator4StepERfS1_) for Anki::VelocityProfileGenerator::Step(float&, float&)
    headcontroller.o(i._ZN4Anki5Cozmo14HeadController24SetDesiredAngle_internalEffff) refers to velocityprofilegenerator.o(i._ZN4Anki24VelocityProfileGenerator26StartProfile_fixedDurationEfffffffff) for Anki::VelocityProfileGenerator::StartProfile_fixedDuration(float, float, float, float, float, float, float, float, float)
    headcontroller.o(i._ZN4Anki5Cozmo14HeadController24SetDesiredAngle_internalEffff) refers to messages.o(i._Z10trace_castIfEiT_) for trace_cast<float>(T1)
    headcontroller.o(i._ZN4Anki5Cozmo14HeadController24SetDesiredAngle_internalEffff) refers to messages.o(i._ZN4Anki5Cozmo14RobotInterface7SendLogEatthz) for Anki::Cozmo::RobotInterface::SendLog(signed char, unsigned short, unsigned short, unsigned char, ...)
    headcontroller.o(i._ZN4Anki5Cozmo14HeadController24SetDesiredAngle_internalEffff) refers to velocityprofilegenerator.o(i._ZN4Anki24VelocityProfileGenerator12StartProfileEfffffff) for Anki::VelocityProfileGenerator::StartProfile(float, float, float, float, float, float, float)
    headcontroller.o(i._ZN4Anki5Cozmo14HeadController24SetDesiredAngle_internalEffff) refers to headcontroller.o(.data) for .data
    headcontroller.o(i._ZN4Anki5Cozmo14HeadController24SetDesiredAngle_internalEffff) refers to headcontroller.o(.bss) for .bss
    headcontroller.o(i._ZN4Anki5Cozmo14HeadController4StopEv) refers to headcontroller.o(i._ZN4Anki5Cozmo14HeadController18SetAngularVelocityEf) for Anki::Cozmo::HeadController::SetAngularVelocity(float)
    headcontroller.o(i._ZN4Anki5Cozmo14HeadController6EnableEv) refers to headcontroller.o(.data) for .data
    headcontroller.o(i._ZN4Anki5Cozmo14HeadController6UpdateEv) refers to headcontroller.o(i._ZN4Anki5Cozmo14HeadController17CalibrationUpdateEv) for Anki::Cozmo::HeadController::CalibrationUpdate()
    headcontroller.o(i._ZN4Anki5Cozmo14HeadController6UpdateEv) refers to headcontroller.o(i._ZN4Anki5Cozmo14HeadController24PoseAndSpeedFilterUpdateEv) for Anki::Cozmo::HeadController::PoseAndSpeedFilterUpdate()
    headcontroller.o(i._ZN4Anki5Cozmo14HeadController6UpdateEv) refers to headcontroller.o(i._ZN4Anki5Cozmo14HeadController22MotorBurnoutProtectionEv) for Anki::Cozmo::HeadController::MotorBurnoutProtection()
    headcontroller.o(i._ZN4Anki5Cozmo14HeadController6UpdateEv) refers to velocityprofilegenerator.o(i._ZN4Anki24VelocityProfileGenerator4StepERfS1_) for Anki::VelocityProfileGenerator::Step(float&, float&)
    headcontroller.o(i._ZN4Anki5Cozmo14HeadController6UpdateEv) refers to radians.o(i._ZN4Anki7RadiansC1Ef) for Anki::Radians::Radians(float)
    headcontroller.o(i._ZN4Anki5Cozmo14HeadController6UpdateEv) refers to radians.o(i._ZN4AnkieqERKNS_7RadiansES2_) for Anki::operator ==(const Anki::Radians&, const Anki::Radians&)
    headcontroller.o(i._ZN4Anki5Cozmo14HeadController6UpdateEv) refers to main.o(i.GetTimeStamp) for GetTimeStamp
    headcontroller.o(i._ZN4Anki5Cozmo14HeadController6UpdateEv) refers to f2d.o(.text) for __aeabi_f2d
    headcontroller.o(i._ZN4Anki5Cozmo14HeadController6UpdateEv) refers to d2f.o(.text) for __aeabi_d2f
    headcontroller.o(i._ZN4Anki5Cozmo14HeadController6UpdateEv) refers to motors.o(i._ZN4Anki5Cozmo3HAL13MotorSetPowerEhf) for Anki::Cozmo::HAL::MotorSetPower(unsigned char, float)
    headcontroller.o(i._ZN4Anki5Cozmo14HeadController6UpdateEv) refers to headcontroller.o(.data) for .data
    headcontroller.o(i._ZN4Anki5Cozmo14HeadController6UpdateEv) refers to headcontroller.o(.bss) for .bss
    headcontroller.o(i._ZN4Anki5Cozmo14HeadController7DisableEv) refers to motors.o(i._ZN4Anki5Cozmo3HAL13MotorSetPowerEhf) for Anki::Cozmo::HAL::MotorSetPower(unsigned char, float)
    headcontroller.o(i._ZN4Anki5Cozmo14HeadController7DisableEv) refers to headcontroller.o(.data) for .data
    headcontroller.o(i._ZN4Anki5Cozmo14HeadController8IsMovingEv) refers to headcontroller.o(.data) for .data
    headcontroller.o(i._ZN4Anki5Cozmo14HeadController8SetGainsEffff) refers to messages.o(i._Z10trace_castIfEiT_) for trace_cast<float>(T1)
    headcontroller.o(i._ZN4Anki5Cozmo14HeadController8SetGainsEffff) refers to messages.o(i._ZN4Anki5Cozmo14RobotInterface7SendLogEatthz) for Anki::Cozmo::RobotInterface::SendLog(signed char, unsigned short, unsigned short, unsigned char, ...)
    headcontroller.o(i._ZN4Anki5Cozmo14HeadController8SetGainsEffff) refers to headcontroller.o(.data) for .data
    headcontroller.o(i.__sti___18_headController_cpp) refers to radians.o(i._ZN4Anki7RadiansC1Ef) for Anki::Radians::Radians(float)
    headcontroller.o(i.__sti___18_headController_cpp) refers to velocityprofilegenerator.o(i._ZN4Anki24VelocityProfileGeneratorC1Ev) for Anki::VelocityProfileGenerator::VelocityProfileGenerator()
    headcontroller.o(i.__sti___18_headController_cpp) refers to f2d.o(.text) for __aeabi_f2d
    headcontroller.o(i.__sti___18_headController_cpp) refers to dadd.o(.text) for __aeabi_dsub
    headcontroller.o(i.__sti___18_headController_cpp) refers to d2f.o(.text) for __aeabi_d2f
    headcontroller.o(i.__sti___18_headController_cpp) refers to headcontroller.o(.data) for .data
    headcontroller.o(i.__sti___18_headController_cpp) refers to headcontroller.o(.bss) for .bss
    headcontroller.o(.ARM.exidx) refers to headcontroller.o(i._ZN4Anki5Cozmo14HeadController6EnableEv) for i._ZN4Anki5Cozmo14HeadController6EnableEv
    headcontroller.o(.ARM.exidx) refers to headcontroller.o(i._ZN4Anki5Cozmo14HeadController7DisableEv) for i._ZN4Anki5Cozmo14HeadController7DisableEv
    headcontroller.o(.ARM.exidx) refers to headcontroller.o(i._ZN4Anki5Cozmo14HeadController23StartCalibrationRoutineEv) for i._ZN4Anki5Cozmo14HeadController23StartCalibrationRoutineEv
    headcontroller.o(.ARM.exidx) refers to headcontroller.o(i._ZN4Anki5Cozmo14HeadController12IsCalibratedEv) for i._ZN4Anki5Cozmo14HeadController12IsCalibratedEv
    headcontroller.o(.ARM.exidx) refers to headcontroller.o(i._ZN4Anki5Cozmo14HeadController21ResetLowAnglePositionEv) for i._ZN4Anki5Cozmo14HeadController21ResetLowAnglePositionEv
    headcontroller.o(.ARM.exidx) refers to headcontroller.o(i._ZN4Anki5Cozmo14HeadController8IsMovingEv) for i._ZN4Anki5Cozmo14HeadController8IsMovingEv
    headcontroller.o(.ARM.exidx) refers to headcontroller.o(i._ZN4Anki5Cozmo14HeadController24SetDesiredAngle_internalEffff) for i._ZN4Anki5Cozmo14HeadController24SetDesiredAngle_internalEffff
    headcontroller.o(.ARM.exidx) refers to headcontroller.o(i._ZN4Anki5Cozmo14HeadController15SetDesiredAngleEffff) for i._ZN4Anki5Cozmo14HeadController15SetDesiredAngleEffff
    headcontroller.o(.ARM.exidx) refers to headcontroller.o(i._ZN4Anki5Cozmo14HeadController15SetDesiredAngleEf) for i._ZN4Anki5Cozmo14HeadController15SetDesiredAngleEf
    headcontroller.o(.ARM.exidx) refers to headcontroller.o(i._ZN4Anki5Cozmo14HeadController18SetAngularVelocityEf) for i._ZN4Anki5Cozmo14HeadController18SetAngularVelocityEf
    headcontroller.o(.ARM.exidx) refers to headcontroller.o(i._ZN4Anki5Cozmo14HeadController4StopEv) for i._ZN4Anki5Cozmo14HeadController4StopEv
    headcontroller.o(.ARM.exidx) refers to headcontroller.o(i._ZN4Anki5Cozmo14HeadController17CalibrationUpdateEv) for i._ZN4Anki5Cozmo14HeadController17CalibrationUpdateEv
    headcontroller.o(.ARM.exidx) refers to headcontroller.o(i._ZN4Anki5Cozmo14HeadController11GetAngleRadEv) for i._ZN4Anki5Cozmo14HeadController11GetAngleRadEv
    headcontroller.o(.ARM.exidx) refers to headcontroller.o(i._ZN4Anki5Cozmo14HeadController11SetAngleRadEf) for i._ZN4Anki5Cozmo14HeadController11SetAngleRadEf
    headcontroller.o(.ARM.exidx) refers to headcontroller.o(i._ZN4Anki5Cozmo14HeadController21GetLastCommandedAngleEv) for i._ZN4Anki5Cozmo14HeadController21GetLastCommandedAngleEv
    headcontroller.o(.ARM.exidx) refers to headcontroller.o(i._ZN4Anki5Cozmo14HeadController10GetCamPoseERfS2_S2_) for i._ZN4Anki5Cozmo14HeadController10GetCamPoseERfS2_S2_
    headcontroller.o(.ARM.exidx) refers to headcontroller.o(i._ZN4Anki5Cozmo14HeadController24PoseAndSpeedFilterUpdateEv) for i._ZN4Anki5Cozmo14HeadController24PoseAndSpeedFilterUpdateEv
    headcontroller.o(.ARM.exidx) refers to headcontroller.o(i._ZN4Anki5Cozmo14HeadController18GetAngularVelocityEv) for i._ZN4Anki5Cozmo14HeadController18GetAngularVelocityEv
    headcontroller.o(.ARM.exidx) refers to headcontroller.o(i._ZN4Anki5Cozmo14HeadController19SetMaxSpeedAndAccelEff) for i._ZN4Anki5Cozmo14HeadController19SetMaxSpeedAndAccelEff
    headcontroller.o(.ARM.exidx) refers to headcontroller.o(i._ZN4Anki5Cozmo14HeadController19GetMaxSpeedAndAccelERfS2_) for i._ZN4Anki5Cozmo14HeadController19GetMaxSpeedAndAccelERfS2_
    headcontroller.o(.ARM.exidx) refers to headcontroller.o(i._ZN4Anki5Cozmo14HeadController12IsInPositionEv) for i._ZN4Anki5Cozmo14HeadController12IsInPositionEv
    headcontroller.o(.ARM.exidx) refers to headcontroller.o(i._ZN4Anki5Cozmo14HeadController22MotorBurnoutProtectionEv) for i._ZN4Anki5Cozmo14HeadController22MotorBurnoutProtectionEv
    headcontroller.o(.ARM.exidx) refers to headcontroller.o(i._ZN4Anki5Cozmo14HeadController6UpdateEv) for i._ZN4Anki5Cozmo14HeadController6UpdateEv
    headcontroller.o(.ARM.exidx) refers to headcontroller.o(i._ZN4Anki5Cozmo14HeadController8SetGainsEffff) for i._ZN4Anki5Cozmo14HeadController8SetGainsEffff
    headcontroller.o(.ARM.exidx) refers to headcontroller.o(i.__sti___18_headController_cpp) for i.__sti___18_headController_cpp
    headcontroller.o(.init_array) refers to headcontroller.o(i.__sti___18_headController_cpp) for __sti___18_headController_cpp
    headcontroller.o(.init_array) refers to cpp_init.o(.text) for __cpp_initialize__aeabi_
    imufilter.o(i._ZN4Anki5Cozmo9IMUFilter10DetectPokeEv) refers to main.o(i.GetTimeStamp) for GetTimeStamp
    imufilter.o(i._ZN4Anki5Cozmo9IMUFilter10DetectPokeEv) refers to wheelcontroller.o(i._ZN4Anki5Cozmo15WheelController15AreWheelsMovingEv) for Anki::Cozmo::WheelController::AreWheelsMoving()
    imufilter.o(i._ZN4Anki5Cozmo9IMUFilter10DetectPokeEv) refers to messages.o(i._ZN4Anki5Cozmo14RobotInterface7SendLogEatthz) for Anki::Cozmo::RobotInterface::SendLog(signed char, unsigned short, unsigned short, unsigned char, ...)
    imufilter.o(i._ZN4Anki5Cozmo9IMUFilter10DetectPokeEv) refers to imufilter.o(i._ZN4Anki5Cozmo14RobotInterface11SendMessageERKNS1_10RobotPokedE) for Anki::Cozmo::RobotInterface::SendMessage(const Anki::Cozmo::RobotInterface::RobotPoked&)
    imufilter.o(i._ZN4Anki5Cozmo9IMUFilter10DetectPokeEv) refers to headcontroller.o(i._ZN4Anki5Cozmo14HeadController8IsMovingEv) for Anki::Cozmo::HeadController::IsMoving()
    imufilter.o(i._ZN4Anki5Cozmo9IMUFilter10DetectPokeEv) refers to liftcontroller.o(i._ZN4Anki5Cozmo14LiftController8IsMovingEv) for Anki::Cozmo::LiftController::IsMoving()
    imufilter.o(i._ZN4Anki5Cozmo9IMUFilter10DetectPokeEv) refers to imufilter.o(.data) for .data
    imufilter.o(i._ZN4Anki5Cozmo9IMUFilter10DetectPokeEv) refers to imufilter.o(.bss) for .bss
    imufilter.o(i._ZN4Anki5Cozmo9IMUFilter10IsPickedUpEv) refers to imufilter.o(.data) for .data
    imufilter.o(i._ZN4Anki5Cozmo9IMUFilter11GetRotationEv) refers to imufilter.o(.data) for .data
    imufilter.o(i._ZN4Anki5Cozmo9IMUFilter11UpdatePitchEv) refers to headcontroller.o(i._ZN4Anki5Cozmo14HeadController11GetAngleRadEv) for Anki::Cozmo::HeadController::GetAngleRad()
    imufilter.o(i._ZN4Anki5Cozmo9IMUFilter11UpdatePitchEv) refers to imufilter.o(i._ZN4Anki5Cozmo9IMUFilter14MotionDetectedEv) for Anki::Cozmo::IMUFilter::MotionDetected()
    imufilter.o(i._ZN4Anki5Cozmo9IMUFilter11UpdatePitchEv) refers to atan2f.o(i.__hardfp_atan2f) for __hardfp_atan2f
    imufilter.o(i._ZN4Anki5Cozmo9IMUFilter11UpdatePitchEv) refers to imufilter.o(.data) for .data
    imufilter.o(i._ZN4Anki5Cozmo9IMUFilter11UpdatePitchEv) refers to imufilter.o(.bss) for .bss
    imufilter.o(i._ZN4Anki5Cozmo9IMUFilter12DetectMotionEv) refers to main.o(i.GetTimeStamp) for GetTimeStamp
    imufilter.o(i._ZN4Anki5Cozmo9IMUFilter12DetectMotionEv) refers to wheelcontroller.o(i._ZN4Anki5Cozmo15WheelController16AreWheelsPoweredEv) for Anki::Cozmo::WheelController::AreWheelsPowered()
    imufilter.o(i._ZN4Anki5Cozmo9IMUFilter12DetectMotionEv) refers to headcontroller.o(i._ZN4Anki5Cozmo14HeadController12IsInPositionEv) for Anki::Cozmo::HeadController::IsInPosition()
    imufilter.o(i._ZN4Anki5Cozmo9IMUFilter12DetectMotionEv) refers to imufilter.o(.data) for .data
    imufilter.o(i._ZN4Anki5Cozmo9IMUFilter12DetectMotionEv) refers to imufilter.o(.bss) for .bss
    imufilter.o(i._ZN4Anki5Cozmo9IMUFilter12DetectPickupEv) refers to sqrtf.o(i.__hardfp_sqrtf) for __hardfp_sqrtf
    imufilter.o(i._ZN4Anki5Cozmo9IMUFilter12DetectPickupEv) refers to trig_fast.o(i._Z10atan2_fastff) for atan2_fast(float, float)
    imufilter.o(i._ZN4Anki5Cozmo9IMUFilter12DetectPickupEv) refers to headcontroller.o(i._ZN4Anki5Cozmo14HeadController11GetAngleRadEv) for Anki::Cozmo::HeadController::GetAngleRad()
    imufilter.o(i._ZN4Anki5Cozmo9IMUFilter12DetectPickupEv) refers to cosf.o(i.__hardfp_cosf) for __hardfp_cosf
    imufilter.o(i._ZN4Anki5Cozmo9IMUFilter12DetectPickupEv) refers to sinf.o(i.__hardfp_sinf) for __hardfp_sinf
    imufilter.o(i._ZN4Anki5Cozmo9IMUFilter12DetectPickupEv) refers to imufilter.o(i._ZN4Anki5Cozmo9IMUFilter14MotionDetectedEv) for Anki::Cozmo::IMUFilter::MotionDetected()
    imufilter.o(i._ZN4Anki5Cozmo9IMUFilter12DetectPickupEv) refers to imufilter.o(i._ZN4Anki5Cozmo9IMUFilter27CheckUnintendedAccelerationEv) for Anki::Cozmo::IMUFilter::CheckUnintendedAcceleration()
    imufilter.o(i._ZN4Anki5Cozmo9IMUFilter12DetectPickupEv) refers to imufilter.o(i._ZN4Anki5Cozmo9IMUFilter15SetPickupDetectEb) for Anki::Cozmo::IMUFilter::SetPickupDetect(bool)
    imufilter.o(i._ZN4Anki5Cozmo9IMUFilter12DetectPickupEv) refers to wheelcontroller.o(i._ZN4Anki5Cozmo15WheelController16AreWheelsPoweredEv) for Anki::Cozmo::WheelController::AreWheelsPowered()
    imufilter.o(i._ZN4Anki5Cozmo9IMUFilter12DetectPickupEv) refers to headcontroller.o(i._ZN4Anki5Cozmo14HeadController8IsMovingEv) for Anki::Cozmo::HeadController::IsMoving()
    imufilter.o(i._ZN4Anki5Cozmo9IMUFilter12DetectPickupEv) refers to headcontroller.o(i._ZN4Anki5Cozmo14HeadController12IsInPositionEv) for Anki::Cozmo::HeadController::IsInPosition()
    imufilter.o(i._ZN4Anki5Cozmo9IMUFilter12DetectPickupEv) refers to liftcontroller.o(i._ZN4Anki5Cozmo14LiftController8IsMovingEv) for Anki::Cozmo::LiftController::IsMoving()
    imufilter.o(i._ZN4Anki5Cozmo9IMUFilter12DetectPickupEv) refers to liftcontroller.o(i._ZN4Anki5Cozmo14LiftController12IsInPositionEv) for Anki::Cozmo::LiftController::IsInPosition()
    imufilter.o(i._ZN4Anki5Cozmo9IMUFilter12DetectPickupEv) refers to messages.o(i._Z10trace_castIfEiT_) for trace_cast<float>(T1)
    imufilter.o(i._ZN4Anki5Cozmo9IMUFilter12DetectPickupEv) refers to messages.o(i._ZN4Anki5Cozmo14RobotInterface7SendLogEatthz) for Anki::Cozmo::RobotInterface::SendLog(signed char, unsigned short, unsigned short, unsigned char, ...)
    imufilter.o(i._ZN4Anki5Cozmo9IMUFilter12DetectPickupEv) refers to imufilter.o(.data) for .data
    imufilter.o(i._ZN4Anki5Cozmo9IMUFilter12DetectPickupEv) refers to imufilter.o(.bss) for .bss
    imufilter.o(i._ZN4Anki5Cozmo9IMUFilter13DetectFallingEv) refers to imufilter.o(.bss) for .bss
    imufilter.o(i._ZN4Anki5Cozmo9IMUFilter13DetectFallingEv) refers to imufilter.o(.data) for .data
    imufilter.o(i._ZN4Anki5Cozmo9IMUFilter13RecordAndSendEj) refers to main.o(i.GetTimeStamp) for GetTimeStamp
    imufilter.o(i._ZN4Anki5Cozmo9IMUFilter13RecordAndSendEj) refers to messages.o(i._ZN4Anki5Cozmo14RobotInterface7SendLogEatthz) for Anki::Cozmo::RobotInterface::SendLog(signed char, unsigned short, unsigned short, unsigned char, ...)
    imufilter.o(i._ZN4Anki5Cozmo9IMUFilter13RecordAndSendEj) refers to imufilter.o(.data) for .data
    imufilter.o(i._ZN4Anki5Cozmo9IMUFilter13RecordAndSendEj) refers to imufilter.o(.bss) for .bss
    imufilter.o(i._ZN4Anki5Cozmo9IMUFilter13StartLiftTestEv) refers to imufilter.o(i._ZN4Anki5Cozmo9IMUFilter21TurnOffIndicatorLightEv) for Anki::Cozmo::IMUFilter::TurnOffIndicatorLight()
    imufilter.o(i._ZN4Anki5Cozmo9IMUFilter14MotionDetectedEv) refers to main.o(i.GetTimeStamp) for GetTimeStamp
    imufilter.o(i._ZN4Anki5Cozmo9IMUFilter14MotionDetectedEv) refers to imufilter.o(.data) for .data
    imufilter.o(i._ZN4Anki5Cozmo9IMUFilter15DetectNsideDownEv) refers to imufilter.o(.bss) for .bss
    imufilter.o(i._ZN4Anki5Cozmo9IMUFilter15DetectNsideDownEv) refers to imufilter.o(.data) for .data
    imufilter.o(i._ZN4Anki5Cozmo9IMUFilter15SetPickupDetectEb) refers to lights.o(i._ZN4Anki5Cozmo3HAL6SetLEDEht) for Anki::Cozmo::HAL::SetLED(unsigned char, unsigned short)
    imufilter.o(i._ZN4Anki5Cozmo9IMUFilter15SetPickupDetectEb) refers to imufilter.o(.data) for .data
    imufilter.o(i._ZN4Anki5Cozmo9IMUFilter16GetLatestRawDataEv) refers to memcpya.o(.text) for __aeabi_memcpy4
    imufilter.o(i._ZN4Anki5Cozmo9IMUFilter16GetLatestRawDataEv) refers to imufilter.o(.bss) for .bss
    imufilter.o(i._ZN4Anki5Cozmo9IMUFilter16GetRotationSpeedEv) refers to imufilter.o(.data) for .data
    imufilter.o(i._ZN4Anki5Cozmo9IMUFilter18EnablePickupDetectEb) refers to imufilter.o(i._ZN4Anki5Cozmo9IMUFilter15SetPickupDetectEb) for Anki::Cozmo::IMUFilter::SetPickupDetect(bool)
    imufilter.o(i._ZN4Anki5Cozmo9IMUFilter18EnablePickupDetectEb) refers to imufilter.o(.data) for .data
    imufilter.o(i._ZN4Anki5Cozmo9IMUFilter18UpdateCameraMotionEv) refers to imu.o(i._ZN4Anki5Cozmo3HAL16IMUGetCameraTimeEPjPh) for Anki::Cozmo::HAL::IMUGetCameraTime(unsigned*, unsigned char*)
    imufilter.o(i._ZN4Anki5Cozmo9IMUFilter18UpdateCameraMotionEv) refers to wifi.o(i._ZN4Anki5Cozmo3HAL16RadioSendMessageEPKvth) for Anki::Cozmo::HAL::RadioSendMessage(const void*, unsigned short, unsigned char)
    imufilter.o(i._ZN4Anki5Cozmo9IMUFilter18UpdateCameraMotionEv) refers to imufilter.o(.data) for .data
    imufilter.o(i._ZN4Anki5Cozmo9IMUFilter18UpdateCameraMotionEv) refers to imufilter.o(.bss) for .bss
    imufilter.o(i._ZN4Anki5Cozmo9IMUFilter19StartPathFollowTestEv) refers to imufilter.o(i._ZN4Anki5Cozmo9IMUFilter21TurnOffIndicatorLightEv) for Anki::Cozmo::IMUFilter::TurnOffIndicatorLight()
    imufilter.o(i._ZN4Anki5Cozmo9IMUFilter20TurnOnIndicatorLightEv) refers to lights.o(i._ZN4Anki5Cozmo3HAL6SetLEDEht) for Anki::Cozmo::HAL::SetLED(unsigned char, unsigned short)
    imufilter.o(i._ZN4Anki5Cozmo9IMUFilter20UpdateEventDetectionEv) refers to imufilter.o(i._ZN4Anki5Cozmo9IMUFilter10DetectPokeEv) for Anki::Cozmo::IMUFilter::DetectPoke()
    imufilter.o(i._ZN4Anki5Cozmo9IMUFilter20UpdateEventDetectionEv) refers to imufilter.o(i._ZN4Anki5Cozmo9IMUFilter13DetectFallingEv) for Anki::Cozmo::IMUFilter::DetectFalling()
    imufilter.o(i._ZN4Anki5Cozmo9IMUFilter20UpdateEventDetectionEv) refers to imufilter.o(i._ZN4Anki5Cozmo9IMUFilter15DetectNsideDownEv) for Anki::Cozmo::IMUFilter::DetectNsideDown()
    imufilter.o(i._ZN4Anki5Cozmo9IMUFilter20UpdateEventDetectionEv) refers to main.o(i.GetTimeStamp) for GetTimeStamp
    imufilter.o(i._ZN4Anki5Cozmo9IMUFilter20UpdateEventDetectionEv) refers to imufilter.o(.bss) for .bss
    imufilter.o(i._ZN4Anki5Cozmo9IMUFilter20UpdateEventDetectionEv) refers to imufilter.o(.data) for .data
    imufilter.o(i._ZN4Anki5Cozmo9IMUFilter20UpdateEventDetectionEv) refers to imufilter.o(.constdata) for .constdata
    imufilter.o(i._ZN4Anki5Cozmo9IMUFilter21EnablePickupParalysisEb) refers to messages.o(i._ZN4Anki5Cozmo14RobotInterface7SendLogEatthz) for Anki::Cozmo::RobotInterface::SendLog(signed char, unsigned short, unsigned short, unsigned char, ...)
    imufilter.o(i._ZN4Anki5Cozmo9IMUFilter21EnablePickupParalysisEb) refers to imufilter.o(.data) for .data
    imufilter.o(i._ZN4Anki5Cozmo9IMUFilter21HandlePickupParalysisEv) refers to pickandplacecontroller.o(i._ZN4Anki5Cozmo22PickAndPlaceController5ResetEv) for Anki::Cozmo::PickAndPlaceController::Reset()
    imufilter.o(i._ZN4Anki5Cozmo9IMUFilter21HandlePickupParalysisEv) refers to pathfollower.o(i._ZN4Anki5Cozmo12PathFollower9ClearPathEv) for Anki::Cozmo::PathFollower::ClearPath()
    imufilter.o(i._ZN4Anki5Cozmo9IMUFilter21HandlePickupParalysisEv) refers to liftcontroller.o(i._ZN4Anki5Cozmo14LiftController7DisableEb) for Anki::Cozmo::LiftController::Disable(bool)
    imufilter.o(i._ZN4Anki5Cozmo9IMUFilter21HandlePickupParalysisEv) refers to headcontroller.o(i._ZN4Anki5Cozmo14HeadController7DisableEv) for Anki::Cozmo::HeadController::Disable()
    imufilter.o(i._ZN4Anki5Cozmo9IMUFilter21HandlePickupParalysisEv) refers to wheelcontroller.o(i._ZN4Anki5Cozmo15WheelController7DisableEv) for Anki::Cozmo::WheelController::Disable()
    imufilter.o(i._ZN4Anki5Cozmo9IMUFilter21HandlePickupParalysisEv) refers to liftcontroller.o(i._ZN4Anki5Cozmo14LiftController6EnableEv) for Anki::Cozmo::LiftController::Enable()
    imufilter.o(i._ZN4Anki5Cozmo9IMUFilter21HandlePickupParalysisEv) refers to headcontroller.o(i._ZN4Anki5Cozmo14HeadController6EnableEv) for Anki::Cozmo::HeadController::Enable()
    imufilter.o(i._ZN4Anki5Cozmo9IMUFilter21HandlePickupParalysisEv) refers to wheelcontroller.o(i._ZN4Anki5Cozmo15WheelController6EnableEv) for Anki::Cozmo::WheelController::Enable()
    imufilter.o(i._ZN4Anki5Cozmo9IMUFilter21HandlePickupParalysisEv) refers to imufilter.o(.data) for .data
    imufilter.o(i._ZN4Anki5Cozmo9IMUFilter21MadgwickAHRSupdateIMUEffffff) refers to imufilter.o(i._ZN4Anki5Cozmo9IMUFilter7invSqrtEf) for Anki::Cozmo::IMUFilter::invSqrt(float)
    imufilter.o(i._ZN4Anki5Cozmo9IMUFilter21MadgwickAHRSupdateIMUEffffff) refers to trig_fast.o(i._Z10atan2_fastff) for atan2_fast(float, float)
    imufilter.o(i._ZN4Anki5Cozmo9IMUFilter21MadgwickAHRSupdateIMUEffffff) refers to imufilter.o(.data) for .data
    imufilter.o(i._ZN4Anki5Cozmo9IMUFilter21TurnOffIndicatorLightEv) refers to lights.o(i._ZN4Anki5Cozmo3HAL6SetLEDEht) for Anki::Cozmo::HAL::SetLED(unsigned char, unsigned short)
    imufilter.o(i._ZN4Anki5Cozmo9IMUFilter27CheckUnintendedAccelerationEv) refers to imufilter.o(.data) for .data
    imufilter.o(i._ZN4Anki5Cozmo9IMUFilter5ResetEv) refers to imufilter.o(.data) for .data
    imufilter.o(i._ZN4Anki5Cozmo9IMUFilter6UpdateEv) refers to headcontroller.o(i._ZN4Anki5Cozmo14HeadController12IsCalibratedEv) for Anki::Cozmo::HeadController::IsCalibrated()
    imufilter.o(i._ZN4Anki5Cozmo9IMUFilter6UpdateEv) refers to imu.o(i._ZN4Anki5Cozmo3HAL11IMUReadDataERNS1_17IMU_DataStructureE) for Anki::Cozmo::HAL::IMUReadData(Anki::Cozmo::HAL::IMU_DataStructure&)
    imufilter.o(i._ZN4Anki5Cozmo9IMUFilter6UpdateEv) refers to headcontroller.o(i._ZN4Anki5Cozmo14HeadController11GetAngleRadEv) for Anki::Cozmo::HeadController::GetAngleRad()
    imufilter.o(i._ZN4Anki5Cozmo9IMUFilter6UpdateEv) refers to tanf.o(i.__hardfp_tanf) for __hardfp_tanf
    imufilter.o(i._ZN4Anki5Cozmo9IMUFilter6UpdateEv) refers to cosf.o(i.__hardfp_cosf) for __hardfp_cosf
    imufilter.o(i._ZN4Anki5Cozmo9IMUFilter6UpdateEv) refers to sqrtf.o(i.__hardfp_sqrtf) for __hardfp_sqrtf
    imufilter.o(i._ZN4Anki5Cozmo9IMUFilter6UpdateEv) refers to trig_fast.o(i._Z10atan2_fastff) for atan2_fast(float, float)
    imufilter.o(i._ZN4Anki5Cozmo9IMUFilter6UpdateEv) refers to sinf.o(i.__hardfp_sinf) for __hardfp_sinf
    imufilter.o(i._ZN4Anki5Cozmo9IMUFilter6UpdateEv) refers to imufilter.o(i._ZN4Anki5Cozmo9IMUFilter12DetectMotionEv) for Anki::Cozmo::IMUFilter::DetectMotion()
    imufilter.o(i._ZN4Anki5Cozmo9IMUFilter6UpdateEv) refers to imufilter.o(i._ZN4Anki5Cozmo9IMUFilter11UpdatePitchEv) for Anki::Cozmo::IMUFilter::UpdatePitch()
    imufilter.o(i._ZN4Anki5Cozmo9IMUFilter6UpdateEv) refers to imufilter.o(i._ZN4Anki5Cozmo9IMUFilter21MadgwickAHRSupdateIMUEffffff) for Anki::Cozmo::IMUFilter::MadgwickAHRSupdateIMU(float, float, float, float, float, float)
    imufilter.o(i._ZN4Anki5Cozmo9IMUFilter6UpdateEv) refers to imufilter.o(i._ZN4Anki5Cozmo9IMUFilter14MotionDetectedEv) for Anki::Cozmo::IMUFilter::MotionDetected()
    imufilter.o(i._ZN4Anki5Cozmo9IMUFilter6UpdateEv) refers to imufilter.o(i._ZN4Anki5Cozmo9IMUFilter12DetectPickupEv) for Anki::Cozmo::IMUFilter::DetectPickup()
    imufilter.o(i._ZN4Anki5Cozmo9IMUFilter6UpdateEv) refers to imufilter.o(i._ZN4Anki5Cozmo9IMUFilter20UpdateEventDetectionEv) for Anki::Cozmo::IMUFilter::UpdateEventDetection()
    imufilter.o(i._ZN4Anki5Cozmo9IMUFilter6UpdateEv) refers to imufilter.o(i._ZN4Anki5Cozmo9IMUFilter21HandlePickupParalysisEv) for Anki::Cozmo::IMUFilter::HandlePickupParalysis()
    imufilter.o(i._ZN4Anki5Cozmo9IMUFilter6UpdateEv) refers to imufilter.o(i._ZN4Anki5Cozmo9IMUFilter18UpdateCameraMotionEv) for Anki::Cozmo::IMUFilter::UpdateCameraMotion()
    imufilter.o(i._ZN4Anki5Cozmo9IMUFilter6UpdateEv) refers to imu.o(i._ZN4Anki5Cozmo3HAL14IMUReadRawDataEPsS2_Ph) for Anki::Cozmo::HAL::IMUReadRawData(short*, short*, unsigned char*)
    imufilter.o(i._ZN4Anki5Cozmo9IMUFilter6UpdateEv) refers to main.o(i.GetTimeStamp) for GetTimeStamp
    imufilter.o(i._ZN4Anki5Cozmo9IMUFilter6UpdateEv) refers to messages.o(i._ZN4Anki5Cozmo14RobotInterface7SendLogEatthz) for Anki::Cozmo::RobotInterface::SendLog(signed char, unsigned short, unsigned short, unsigned char, ...)
    imufilter.o(i._ZN4Anki5Cozmo9IMUFilter6UpdateEv) refers to wifi.o(i._ZN4Anki5Cozmo3HAL16RadioSendMessageEPKvth) for Anki::Cozmo::HAL::RadioSendMessage(const void*, unsigned short, unsigned char)
    imufilter.o(i._ZN4Anki5Cozmo9IMUFilter6UpdateEv) refers to imufilter.o(.bss) for .bss
    imufilter.o(i._ZN4Anki5Cozmo9IMUFilter6UpdateEv) refers to imufilter.o(.data) for .data
    imufilter.o(i._ZN4Anki5Cozmo9IMUFilter8GetPitchEv) refers to imufilter.o(.data) for .data
    imufilter.o(.ARM.exidx) refers to imufilter.o(i._ZN4Anki5Cozmo9IMUFilter7invSqrtEf) for i._ZN4Anki5Cozmo9IMUFilter7invSqrtEf
    imufilter.o(.ARM.exidx) refers to imufilter.o(i._ZN4Anki5Cozmo9IMUFilter21MadgwickAHRSupdateIMUEffffff) for i._ZN4Anki5Cozmo9IMUFilter21MadgwickAHRSupdateIMUEffffff
    imufilter.o(.ARM.exidx) refers to imufilter.o(i._ZN4Anki5Cozmo9IMUFilter20TurnOnIndicatorLightEv) for i._ZN4Anki5Cozmo9IMUFilter20TurnOnIndicatorLightEv
    imufilter.o(.ARM.exidx) refers to imufilter.o(i._ZN4Anki5Cozmo9IMUFilter21TurnOffIndicatorLightEv) for i._ZN4Anki5Cozmo9IMUFilter21TurnOffIndicatorLightEv
    imufilter.o(.ARM.exidx) refers to imufilter.o(i._ZN4Anki5Cozmo9IMUFilter19StartPathFollowTestEv) for i._ZN4Anki5Cozmo9IMUFilter19StartPathFollowTestEv
    imufilter.o(.ARM.exidx) refers to imufilter.o(i._ZN4Anki5Cozmo9IMUFilter13StartLiftTestEv) for i._ZN4Anki5Cozmo9IMUFilter13StartLiftTestEv
    imufilter.o(.ARM.exidx) refers to imufilter.o(i._ZN4Anki5Cozmo9IMUFilter15SetPickupDetectEb) for i._ZN4Anki5Cozmo9IMUFilter15SetPickupDetectEb
    imufilter.o(.ARM.exidx) refers to imufilter.o(i._ZN4Anki5Cozmo9IMUFilter18EnablePickupDetectEb) for i._ZN4Anki5Cozmo9IMUFilter18EnablePickupDetectEb
    imufilter.o(.ARM.exidx) refers to imufilter.o(i._ZN4Anki5Cozmo9IMUFilter21EnablePickupParalysisEb) for i._ZN4Anki5Cozmo9IMUFilter21EnablePickupParalysisEb
    imufilter.o(.ARM.exidx) refers to imufilter.o(i._ZN4Anki5Cozmo9IMUFilter10IsPickedUpEv) for i._ZN4Anki5Cozmo9IMUFilter10IsPickedUpEv
    imufilter.o(.ARM.exidx) refers to imufilter.o(i._ZN4Anki5Cozmo9IMUFilter21HandlePickupParalysisEv) for i._ZN4Anki5Cozmo9IMUFilter21HandlePickupParalysisEv
    imufilter.o(.ARM.exidx) refers to imufilter.o(i._ZN4Anki5Cozmo9IMUFilter5ResetEv) for i._ZN4Anki5Cozmo9IMUFilter5ResetEv
    imufilter.o(.ARM.exidx) refers to imufilter.o(i._ZN4Anki5Cozmo9IMUFilter10DetectPokeEv) for i._ZN4Anki5Cozmo9IMUFilter10DetectPokeEv
    imufilter.o(.ARM.exidx) refers to imufilter.o(i._ZN4Anki5Cozmo9IMUFilter13DetectFallingEv) for i._ZN4Anki5Cozmo9IMUFilter13DetectFallingEv
    imufilter.o(.ARM.exidx) refers to imufilter.o(i._ZN4Anki5Cozmo9IMUFilter15DetectNsideDownEv) for i._ZN4Anki5Cozmo9IMUFilter15DetectNsideDownEv
    imufilter.o(.ARM.exidx) refers to imufilter.o(i._ZN4Anki5Cozmo9IMUFilter27CheckUnintendedAccelerationEv) for i._ZN4Anki5Cozmo9IMUFilter27CheckUnintendedAccelerationEv
    imufilter.o(.ARM.exidx) refers to imufilter.o(i._ZN4Anki5Cozmo9IMUFilter14MotionDetectedEv) for i._ZN4Anki5Cozmo9IMUFilter14MotionDetectedEv
    imufilter.o(.ARM.exidx) refers to imufilter.o(i._ZN4Anki5Cozmo9IMUFilter12DetectPickupEv) for i._ZN4Anki5Cozmo9IMUFilter12DetectPickupEv
    imufilter.o(.ARM.exidx) refers to imufilter.o(i._ZN4Anki5Cozmo9IMUFilter20UpdateEventDetectionEv) for i._ZN4Anki5Cozmo9IMUFilter20UpdateEventDetectionEv
    imufilter.o(.ARM.exidx) refers to imufilter.o(i._ZN4Anki5Cozmo9IMUFilter12DetectMotionEv) for i._ZN4Anki5Cozmo9IMUFilter12DetectMotionEv
    imufilter.o(.ARM.exidx) refers to imufilter.o(i._ZN4Anki5Cozmo9IMUFilter11UpdatePitchEv) for i._ZN4Anki5Cozmo9IMUFilter11UpdatePitchEv
    imufilter.o(.ARM.exidx) refers to imufilter.o(i._ZN4Anki5Cozmo9IMUFilter18UpdateCameraMotionEv) for i._ZN4Anki5Cozmo9IMUFilter18UpdateCameraMotionEv
    imufilter.o(.ARM.exidx) refers to imufilter.o(i._ZN4Anki5Cozmo9IMUFilter6UpdateEv) for i._ZN4Anki5Cozmo9IMUFilter6UpdateEv
    imufilter.o(.ARM.exidx) refers to imufilter.o(i._ZN4Anki5Cozmo9IMUFilter16GetLatestRawDataEv) for i._ZN4Anki5Cozmo9IMUFilter16GetLatestRawDataEv
    imufilter.o(.ARM.exidx) refers to imufilter.o(i._ZN4Anki5Cozmo9IMUFilter11GetRotationEv) for i._ZN4Anki5Cozmo9IMUFilter11GetRotationEv
    imufilter.o(.ARM.exidx) refers to imufilter.o(i._ZN4Anki5Cozmo9IMUFilter16GetRotationSpeedEv) for i._ZN4Anki5Cozmo9IMUFilter16GetRotationSpeedEv
    imufilter.o(.ARM.exidx) refers to imufilter.o(i._ZN4Anki5Cozmo9IMUFilter8GetPitchEv) for i._ZN4Anki5Cozmo9IMUFilter8GetPitchEv
    imufilter.o(.ARM.exidx) refers to imufilter.o(i._ZN4Anki5Cozmo9IMUFilter13RecordAndSendEj) for i._ZN4Anki5Cozmo9IMUFilter13RecordAndSendEj
    trig_fast.o(i._Z10atan2_fastff) refers to messages.o(i._ZN4Anki5Cozmo14RobotInterface7SendLogEatthz) for Anki::Cozmo::RobotInterface::SendLog(signed char, unsigned short, unsigned short, unsigned char, ...)
    trig_fast.o(i._Z10atan2_fastff) refers to lights.o(i._ZN4Anki5Cozmo3HAL6SetLEDEht) for Anki::Cozmo::HAL::SetLED(unsigned char, unsigned short)
    trig_fast.o(i._Z10atan2_fastff) refers to trig_fast.o(i._Z9atan_fastf) for atan_fast(float)
    trig_fast.o(i._Z9asin_fastf) refers to trig_fast.o(.constdata) for .constdata
    trig_fast.o(i._Z9atan2_accff) refers to messages.o(i._ZN4Anki5Cozmo14RobotInterface7SendLogEatthz) for Anki::Cozmo::RobotInterface::SendLog(signed char, unsigned short, unsigned short, unsigned char, ...)
    trig_fast.o(i._Z9atan2_accff) refers to lights.o(i._ZN4Anki5Cozmo3HAL6SetLEDEht) for Anki::Cozmo::HAL::SetLED(unsigned char, unsigned short)
    trig_fast.o(i._Z9atan2_accff) refers to sqrtf.o(i.__hardfp_sqrtf) for __hardfp_sqrtf
    trig_fast.o(i._Z9atan2_accff) refers to asinf.o(i.__hardfp_asinf) for __hardfp_asinf
    trig_fast.o(i._Z9atan_fastf) refers to trig_fast.o(.data) for .data
    trig_fast.o(i._Z9atan_fastf) refers to trig_fast.o(.constdata) for .constdata
    trig_fast.o(i.__sti___13_trig_fast_cpp) refers to trig_fast.o(.data) for .data
    trig_fast.o(.ARM.exidx) refers to trig_fast.o(i._Z9atan_fastf) for i._Z9atan_fastf
    trig_fast.o(.ARM.exidx) refers to trig_fast.o(i._Z9asin_fastf) for i._Z9asin_fastf
    trig_fast.o(.ARM.exidx) refers to trig_fast.o(i._Z10atan2_fastff) for i._Z10atan2_fastff
    trig_fast.o(.ARM.exidx) refers to trig_fast.o(i._Z9atan2_accff) for i._Z9atan2_accff
    trig_fast.o(.ARM.exidx) refers to trig_fast.o(i.__sti___13_trig_fast_cpp) for i.__sti___13_trig_fast_cpp
    trig_fast.o(.init_array) refers to trig_fast.o(i.__sti___13_trig_fast_cpp) for __sti___13_trig_fast_cpp
    trig_fast.o(.init_array) refers to cpp_init.o(.text) for __cpp_initialize__aeabi_
    dockingcontroller.o(i._ZN4Anki5Cozmo17DockingController11StopDockingEa) refers to speedcontroller.o(i._ZN4Anki5Cozmo15SpeedController35SetUserCommandedDesiredVehicleSpeedEs) for Anki::Cozmo::SpeedController::SetUserCommandedDesiredVehicleSpeed(short)
    dockingcontroller.o(i._ZN4Anki5Cozmo17DockingController11StopDockingEa) refers to pathfollower.o(i._ZN4Anki5Cozmo12PathFollower9ClearPathEv) for Anki::Cozmo::PathFollower::ClearPath()
    dockingcontroller.o(i._ZN4Anki5Cozmo17DockingController11StopDockingEa) refers to steeringcontroller.o(i._ZN4Anki5Cozmo18SteeringController18ExecuteDirectDriveEffff) for Anki::Cozmo::SteeringController::ExecuteDirectDrive(float, float, float, float)
    dockingcontroller.o(i._ZN4Anki5Cozmo17DockingController11StopDockingEa) refers to dockingcontroller.o(i._ZN4Anki5Cozmo17DockingController20RestoreSteeringGainsEv) for Anki::Cozmo::DockingController::RestoreSteeringGains()
    dockingcontroller.o(i._ZN4Anki5Cozmo17DockingController11StopDockingEa) refers to dockingcontroller.o(.data) for .data
    dockingcontroller.o(i._ZN4Anki5Cozmo17DockingController12StartDockingEffffffbjb) refers to dockingcontroller.o(i._ZN4Anki5Cozmo17DockingController21StartDocking_internalEfffb) for Anki::Cozmo::DockingController::StartDocking_internal(float, float, float, bool)
    dockingcontroller.o(i._ZN4Anki5Cozmo17DockingController12StartDockingEffffffbjb) refers to dockingcontroller.o(.data) for .data
    dockingcontroller.o(i._ZN4Anki5Cozmo17DockingController13IsMarkerInFOVERKNS_8Embedded6Pose2dEf) refers to radians.o(i._ZN4Anki7RadiansC1Ev) for Anki::Radians::Radians()
    dockingcontroller.o(i._ZN4Anki5Cozmo17DockingController13IsMarkerInFOVERKNS_8Embedded6Pose2dEf) refers to localization.o(i._ZN4Anki5Cozmo12Localization17GetCurrentMatPoseERfS2_RNS_7RadiansE) for Anki::Cozmo::Localization::GetCurrentMatPose(float&, float&, Anki::Radians&)
    dockingcontroller.o(i._ZN4Anki5Cozmo17DockingController13IsMarkerInFOVERKNS_8Embedded6Pose2dEf) refers to radians.o(i._ZN4AnkiplERKNS_7RadiansEf) for Anki::operator +(const Anki::Radians&, float)
    dockingcontroller.o(i._ZN4Anki5Cozmo17DockingController13IsMarkerInFOVERKNS_8Embedded6Pose2dEf) refers to radians.o(i._ZN4AnkimiERKNS_7RadiansEf) for Anki::operator -(const Anki::Radians&, float)
    dockingcontroller.o(i._ZN4Anki5Cozmo17DockingController13IsMarkerInFOVERKNS_8Embedded6Pose2dEf) refers to trig_fast.o(i._Z10atan2_fastff) for atan2_fast(float, float)
    dockingcontroller.o(i._ZN4Anki5Cozmo17DockingController13IsMarkerInFOVERKNS_8Embedded6Pose2dEf) refers to radians.o(i._ZN4Anki7RadiansC1Ef) for Anki::Radians::Radians(float)
    dockingcontroller.o(i._ZN4Anki5Cozmo17DockingController13IsMarkerInFOVERKNS_8Embedded6Pose2dEf) refers to sqrtf.o(i.__hardfp_sqrtf) for __hardfp_sqrtf
    dockingcontroller.o(i._ZN4Anki5Cozmo17DockingController13IsMarkerInFOVERKNS_8Embedded6Pose2dEf) refers to radians.o(i._ZN4AnkimiERKNS_7RadiansES2_) for Anki::operator -(const Anki::Radians&, const Anki::Radians&)
    dockingcontroller.o(i._ZN4Anki5Cozmo17DockingController13IsMarkerInFOVERKNS_8Embedded6Pose2dEf) refers to dockingcontroller.o(.data) for .data
    dockingcontroller.o(i._ZN4Anki5Cozmo17DockingController13SetMaxRetriesEh) refers to dockingcontroller.o(.data) for .data
    dockingcontroller.o(i._ZN4Anki5Cozmo17DockingController14GetVerticalFOVEv) refers to dockingcontroller.o(.data) for .data
    dockingcontroller.o(i._ZN4Anki5Cozmo17DockingController14SetRelDockPoseEfffj) refers to messages.o(i._Z10trace_castIfEiT_) for trace_cast<float>(T1)
    dockingcontroller.o(i._ZN4Anki5Cozmo17DockingController14SetRelDockPoseEfffj) refers to messages.o(i._ZN4Anki5Cozmo14RobotInterface7SendLogEatthz) for Anki::Cozmo::RobotInterface::SendLog(signed char, unsigned short, unsigned short, unsigned char, ...)
    dockingcontroller.o(i._ZN4Anki5Cozmo17DockingController14SetRelDockPoseEfffj) refers to dockingcontroller.o(i._ZN4Anki5Cozmo17DockingController18DidLastDockSucceedEv) for Anki::Cozmo::DockingController::DidLastDockSucceed()
    dockingcontroller.o(i._ZN4Anki5Cozmo17DockingController14SetRelDockPoseEfffj) refers to imufilter.o(i._ZN4Anki5Cozmo9IMUFilter16GetRotationSpeedEv) for Anki::Cozmo::IMUFilter::GetRotationSpeed()
    dockingcontroller.o(i._ZN4Anki5Cozmo17DockingController14SetRelDockPoseEfffj) refers to localization.o(i._ZN4Anki5Cozmo12Localization18GetDriveCenterPoseERfS2_RNS_7RadiansE) for Anki::Cozmo::Localization::GetDriveCenterPose(float&, float&, Anki::Radians&)
    dockingcontroller.o(i._ZN4Anki5Cozmo17DockingController14SetRelDockPoseEfffj) refers to dockingcontroller.o(i._ZN4Anki8Embedded6Pose2dC1Ev) for Anki::Embedded::Pose2d::Pose2d()
    dockingcontroller.o(i._ZN4Anki5Cozmo17DockingController14SetRelDockPoseEfffj) refers to main.o(i.GetTimeStamp) for GetTimeStamp
    dockingcontroller.o(i._ZN4Anki5Cozmo17DockingController14SetRelDockPoseEfffj) refers to localization.o(i._ZN4Anki5Cozmo12Localization17GetCurrentMatPoseERfS2_RNS_7RadiansE) for Anki::Cozmo::Localization::GetCurrentMatPose(float&, float&, Anki::Radians&)
    dockingcontroller.o(i._ZN4Anki5Cozmo17DockingController14SetRelDockPoseEfffj) refers to localization.o(i._ZN4Anki5Cozmo12Localization17GetHistPoseAtTimeEjRNS_8Embedded6Pose2dE) for Anki::Cozmo::Localization::GetHistPoseAtTime(unsigned, Anki::Embedded::Pose2d&)
    dockingcontroller.o(i._ZN4Anki5Cozmo17DockingController14SetRelDockPoseEfffj) refers to sqrtf.o(i.__hardfp_sqrtf) for __hardfp_sqrtf
    dockingcontroller.o(i._ZN4Anki5Cozmo17DockingController14SetRelDockPoseEfffj) refers to trig_fast.o(i._Z9atan2_accff) for atan2_acc(float, float)
    dockingcontroller.o(i._ZN4Anki5Cozmo17DockingController14SetRelDockPoseEfffj) refers to dockingcontroller.o(i._ZNK4Anki8Embedded6Pose2d8GetAngleEv) for Anki::Embedded::Pose2d::GetAngle() const
    dockingcontroller.o(i._ZN4Anki5Cozmo17DockingController14SetRelDockPoseEfffj) refers to cosf.o(i.__hardfp_cosf) for __hardfp_cosf
    dockingcontroller.o(i._ZN4Anki5Cozmo17DockingController14SetRelDockPoseEfffj) refers to sinf.o(i.__hardfp_sinf) for __hardfp_sinf
    dockingcontroller.o(i._ZN4Anki5Cozmo17DockingController14SetRelDockPoseEfffj) refers to radians.o(i._ZN4AnkiplERKNS_7RadiansEf) for Anki::operator +(const Anki::Radians&, float)
    dockingcontroller.o(i._ZN4Anki5Cozmo17DockingController14SetRelDockPoseEfffj) refers to pathfollower.o(i._ZN4Anki5Cozmo12PathFollower16IsTraversingPathEv) for Anki::Cozmo::PathFollower::IsTraversingPath()
    dockingcontroller.o(i._ZN4Anki5Cozmo17DockingController14SetRelDockPoseEfffj) refers to radians.o(i._ZN4Anki7RadiansaSEf) for Anki::Radians::operator =(float)
    dockingcontroller.o(i._ZN4Anki5Cozmo17DockingController14SetRelDockPoseEfffj) refers to dockingcontroller.o(i._ZN4Anki5Cozmo17DockingController13IsMarkerInFOVERKNS_8Embedded6Pose2dEf) for Anki::Cozmo::DockingController::IsMarkerInFOV(const Anki::Embedded::Pose2d&, float)
    dockingcontroller.o(i._ZN4Anki5Cozmo17DockingController14SetRelDockPoseEfffj) refers to dockingcontroller.o(i._ZN4Anki8Embedded6Pose2daSERKS1_) for Anki::Embedded::Pose2d::operator =(const Anki::Embedded::Pose2d&)
    dockingcontroller.o(i._ZN4Anki5Cozmo17DockingController14SetRelDockPoseEfffj) refers to radians.o(i._ZN4Anki7RadiansaSERKS0_) for Anki::Radians::operator =(const Anki::Radians&)
    dockingcontroller.o(i._ZN4Anki5Cozmo17DockingController14SetRelDockPoseEfffj) refers to dockingcontroller.o(i._ZN4Anki5Cozmo17DockingController19SendGoalPoseMessageERKNS_8Embedded6Pose2dE) for Anki::Cozmo::DockingController::SendGoalPoseMessage(const Anki::Embedded::Pose2d&)
    dockingcontroller.o(i._ZN4Anki5Cozmo17DockingController14SetRelDockPoseEfffj) refers to localization.o(i._ZN4Anki5Cozmo12Localization24ConvertToDriveCenterPoseERKNS_8Embedded6Pose2dERS3_) for Anki::Cozmo::Localization::ConvertToDriveCenterPose(const Anki::Embedded::Pose2d&, Anki::Embedded::Pose2d&)
    dockingcontroller.o(i._ZN4Anki5Cozmo17DockingController14SetRelDockPoseEfffj) refers to radians.o(i._ZN4Anki7RadiansC1Ev) for Anki::Radians::Radians()
    dockingcontroller.o(i._ZN4Anki5Cozmo17DockingController14SetRelDockPoseEfffj) refers to pickandplacecontroller.o(i._ZN4Anki5Cozmo22PickAndPlaceController12GetCurActionEv) for Anki::Cozmo::PickAndPlaceController::GetCurAction()
    dockingcontroller.o(i._ZN4Anki5Cozmo17DockingController14SetRelDockPoseEfffj) refers to pathfollower.o(i._ZN4Anki5Cozmo12PathFollower9ClearPathEv) for Anki::Cozmo::PathFollower::ClearPath()
    dockingcontroller.o(i._ZN4Anki5Cozmo17DockingController14SetRelDockPoseEfffj) refers to dockingcontroller.o(.data) for .data
    dockingcontroller.o(i._ZN4Anki5Cozmo17DockingController14SetRelDockPoseEfffj) refers to dockingcontroller.o(.bss) for .bss
    dockingcontroller.o(i._ZN4Anki5Cozmo17DockingController14SetRelDockPoseEfffj) refers to pathfollower.o(i._ZN4Anki5Cozmo12PathFollower22AppendPathSegment_LineEjfffffff) for Anki::Cozmo::PathFollower::AppendPathSegment_Line(unsigned, float, float, float, float, float, float, float)
    dockingcontroller.o(i._ZN4Anki5Cozmo17DockingController14SetRelDockPoseEfffj) refers to pathfollower.o(i._ZN4Anki5Cozmo12PathFollower27AppendPathSegment_PointTurnEjfffffffb) for Anki::Cozmo::PathFollower::AppendPathSegment_PointTurn(unsigned, float, float, float, float, float, float, float, bool)
    dockingcontroller.o(i._ZN4Anki5Cozmo17DockingController14SetRelDockPoseEfffj) refers to pickandplacecontroller.o(i._ZN4Anki5Cozmo22PickAndPlaceController15IsCarryingBlockEv) for Anki::Cozmo::PickAndPlaceController::IsCarryingBlock()
    dockingcontroller.o(i._ZN4Anki5Cozmo17DockingController14SetRelDockPoseEfffj) refers to pathfollower.o(i._ZN4Anki5Cozmo12PathFollower18StartPathTraversalEtb) for Anki::Cozmo::PathFollower::StartPathTraversal(unsigned short, bool)
    dockingcontroller.o(i._ZN4Anki5Cozmo17DockingController14SetRelDockPoseEfffj) refers to pathfollower.o(i._ZN4Anki5Cozmo12PathFollower9PrintPathEv) for Anki::Cozmo::PathFollower::PrintPath()
    dockingcontroller.o(i._ZN4Anki5Cozmo17DockingController16GetDockingResultEv) refers to dockingcontroller.o(.data) for .data
    dockingcontroller.o(i._ZN4Anki5Cozmo17DockingController16GetHorizontalFOVEv) refers to dockingcontroller.o(.data) for .data
    dockingcontroller.o(i._ZN4Anki5Cozmo17DockingController16SetDockingMethodEh) refers to dockingcontroller.o(i._ZN4Anki5Cozmo17DockingController6IsBusyEv) for Anki::Cozmo::DockingController::IsBusy()
    dockingcontroller.o(i._ZN4Anki5Cozmo17DockingController16SetDockingMethodEh) refers to messages.o(i._ZN4Anki5Cozmo14RobotInterface7SendLogEatthz) for Anki::Cozmo::RobotInterface::SendLog(signed char, unsigned short, unsigned short, unsigned char, ...)
    dockingcontroller.o(i._ZN4Anki5Cozmo17DockingController16SetDockingMethodEh) refers to dockingcontroller.o(.data) for .data
    dockingcontroller.o(i._ZN4Anki5Cozmo17DockingController18DidLastDockSucceedEv) refers to dockingcontroller.o(.data) for .data
    dockingcontroller.o(i._ZN4Anki5Cozmo17DockingController18HighDockLiftUpdateEv) refers to pickandplacecontroller.o(i._ZN4Anki5Cozmo22PickAndPlaceController15IsCarryingBlockEv) for Anki::Cozmo::PickAndPlaceController::IsCarryingBlock()
    dockingcontroller.o(i._ZN4Anki5Cozmo17DockingController18HighDockLiftUpdateEv) refers to pickandplacecontroller.o(i._ZN4Anki5Cozmo22PickAndPlaceController12GetCurActionEv) for Anki::Cozmo::PickAndPlaceController::GetCurAction()
    dockingcontroller.o(i._ZN4Anki5Cozmo17DockingController18HighDockLiftUpdateEv) refers to liftcontroller.o(i._ZN4Anki5Cozmo14LiftController16GetDesiredHeightEv) for Anki::Cozmo::LiftController::GetDesiredHeight()
    dockingcontroller.o(i._ZN4Anki5Cozmo17DockingController18HighDockLiftUpdateEv) refers to radians.o(i._ZN4Anki7RadiansC1Ev) for Anki::Radians::Radians()
    dockingcontroller.o(i._ZN4Anki5Cozmo17DockingController18HighDockLiftUpdateEv) refers to localization.o(i._ZN4Anki5Cozmo12Localization17GetCurrentMatPoseERfS2_RNS_7RadiansE) for Anki::Cozmo::Localization::GetCurrentMatPose(float&, float&, Anki::Radians&)
    dockingcontroller.o(i._ZN4Anki5Cozmo17DockingController18HighDockLiftUpdateEv) refers to sqrtf.o(i.__hardfp_sqrtf) for __hardfp_sqrtf
    dockingcontroller.o(i._ZN4Anki5Cozmo17DockingController18HighDockLiftUpdateEv) refers to liftcontroller.o(i._ZN4Anki5Cozmo14LiftController16SetDesiredHeightEf) for Anki::Cozmo::LiftController::SetDesiredHeight(float)
    dockingcontroller.o(i._ZN4Anki5Cozmo17DockingController18HighDockLiftUpdateEv) refers to dockingcontroller.o(.data) for .data
    dockingcontroller.o(i._ZN4Anki5Cozmo17DockingController18HighDockLiftUpdateEv) refers to dockingcontroller.o(.bss) for .bss
    dockingcontroller.o(i._ZN4Anki5Cozmo17DockingController19SendGoalPoseMessageERKNS_8Embedded6Pose2dE) refers to dockingcontroller.o(i._ZNK4Anki8Embedded6Pose2d8GetAngleEv) for Anki::Embedded::Pose2d::GetAngle() const
    dockingcontroller.o(i._ZN4Anki5Cozmo17DockingController19SendGoalPoseMessageERKNS_8Embedded6Pose2dE) refers to wifi.o(i._ZN4Anki5Cozmo3HAL16RadioSendMessageEPKvth) for Anki::Cozmo::HAL::RadioSendMessage(const void*, unsigned short, unsigned char)
    dockingcontroller.o(i._ZN4Anki5Cozmo17DockingController19SendGoalPoseMessageERKNS_8Embedded6Pose2dE) refers to dockingcontroller.o(.data) for .data
    dockingcontroller.o(i._ZN4Anki5Cozmo17DockingController20GetCamFOVLowerHeightEv) refers to headcontroller.o(i._ZN4Anki5Cozmo14HeadController10GetCamPoseERfS2_S2_) for Anki::Cozmo::HeadController::GetCamPose(float&, float&, float&)
    dockingcontroller.o(i._ZN4Anki5Cozmo17DockingController20GetCamFOVLowerHeightEv) refers to sinf.o(i.__hardfp_sinf) for __hardfp_sinf
    dockingcontroller.o(i._ZN4Anki5Cozmo17DockingController20GetCamFOVLowerHeightEv) refers to dockingcontroller.o(.data) for .data
    dockingcontroller.o(i._ZN4Anki5Cozmo17DockingController20GetLastMarkerAbsPoseEv) refers to dockingcontroller.o(.bss) for .bss
    dockingcontroller.o(i._ZN4Anki5Cozmo17DockingController20RestoreSteeringGainsEv) refers to steeringcontroller.o(i._ZN4Anki5Cozmo18SteeringController8SetGainsEffff) for Anki::Cozmo::SteeringController::SetGains(float, float, float, float)
    dockingcontroller.o(i._ZN4Anki5Cozmo17DockingController20RestoreSteeringGainsEv) refers to dockingcontroller.o(.data) for .data
    dockingcontroller.o(i._ZN4Anki5Cozmo17DockingController21StartDockingToRelPoseEffffffb) refers to dockingcontroller.o(i._ZN4Anki5Cozmo17DockingController21StartDocking_internalEfffb) for Anki::Cozmo::DockingController::StartDocking_internal(float, float, float, bool)
    dockingcontroller.o(i._ZN4Anki5Cozmo17DockingController21StartDockingToRelPoseEffffffb) refers to dockingcontroller.o(i._ZN4Anki5Cozmo17DockingController14SetRelDockPoseEfffj) for Anki::Cozmo::DockingController::SetRelDockPose(float, float, float, unsigned)
    dockingcontroller.o(i._ZN4Anki5Cozmo17DockingController21StartDockingToRelPoseEffffffb) refers to dockingcontroller.o(.data) for .data
    dockingcontroller.o(i._ZN4Anki5Cozmo17DockingController21StartDocking_internalEfffb) refers to main.o(i.GetTimeStamp) for GetTimeStamp
    dockingcontroller.o(i._ZN4Anki5Cozmo17DockingController21StartDocking_internalEfffb) refers to dockingcontroller.o(i._ZN4Anki5Cozmo17DockingController25ApplyDockingSteeringGainsEv) for Anki::Cozmo::DockingController::ApplyDockingSteeringGains()
    dockingcontroller.o(i._ZN4Anki5Cozmo17DockingController21StartDocking_internalEfffb) refers to dockingcontroller.o(.data) for .data
    dockingcontroller.o(i._ZN4Anki5Cozmo17DockingController23GetDistToLastDockMarkerEv) refers to radians.o(i._ZN4Anki7RadiansC1Ev) for Anki::Radians::Radians()
    dockingcontroller.o(i._ZN4Anki5Cozmo17DockingController23GetDistToLastDockMarkerEv) refers to localization.o(i._ZN4Anki5Cozmo12Localization17GetCurrentMatPoseERfS2_RNS_7RadiansE) for Anki::Cozmo::Localization::GetCurrentMatPose(float&, float&, Anki::Radians&)
    dockingcontroller.o(i._ZN4Anki5Cozmo17DockingController23GetDistToLastDockMarkerEv) refers to sqrtf.o(i.__hardfp_sqrtf) for __hardfp_sqrtf
    dockingcontroller.o(i._ZN4Anki5Cozmo17DockingController23GetDistToLastDockMarkerEv) refers to dockingcontroller.o(.bss) for .bss
    dockingcontroller.o(i._ZN4Anki5Cozmo17DockingController24SendDockingStatusMessageEa) refers to main.o(i.GetTimeStamp) for GetTimeStamp
    dockingcontroller.o(i._ZN4Anki5Cozmo17DockingController24SendDockingStatusMessageEa) refers to wifi.o(i._ZN4Anki5Cozmo3HAL16RadioSendMessageEPKvth) for Anki::Cozmo::HAL::RadioSendMessage(const void*, unsigned short, unsigned char)
    dockingcontroller.o(i._ZN4Anki5Cozmo17DockingController25ApplyDockingSteeringGainsEv) refers to steeringcontroller.o(i._ZN4Anki5Cozmo18SteeringController9GetK1GainEv) for Anki::Cozmo::SteeringController::GetK1Gain()
    dockingcontroller.o(i._ZN4Anki5Cozmo17DockingController25ApplyDockingSteeringGainsEv) refers to steeringcontroller.o(i._ZN4Anki5Cozmo18SteeringController9GetK2GainEv) for Anki::Cozmo::SteeringController::GetK2Gain()
    dockingcontroller.o(i._ZN4Anki5Cozmo17DockingController25ApplyDockingSteeringGainsEv) refers to steeringcontroller.o(i._ZN4Anki5Cozmo18SteeringController20GetPathDistOffsetCapEv) for Anki::Cozmo::SteeringController::GetPathDistOffsetCap()
    dockingcontroller.o(i._ZN4Anki5Cozmo17DockingController25ApplyDockingSteeringGainsEv) refers to steeringcontroller.o(i._ZN4Anki5Cozmo18SteeringController19GetPathAngOffsetCapEv) for Anki::Cozmo::SteeringController::GetPathAngOffsetCap()
    dockingcontroller.o(i._ZN4Anki5Cozmo17DockingController25ApplyDockingSteeringGainsEv) refers to steeringcontroller.o(i._ZN4Anki5Cozmo18SteeringController8SetGainsEffff) for Anki::Cozmo::SteeringController::SetGains(float, float, float, float)
    dockingcontroller.o(i._ZN4Anki5Cozmo17DockingController25ApplyDockingSteeringGainsEv) refers to dockingcontroller.o(.data) for .data
    dockingcontroller.o(i._ZN4Anki5Cozmo17DockingController28SetDockingErrorSignalMessageERKNS0_18DockingErrorSignalE) refers to pathfollower.o(i._ZN4Anki5Cozmo12PathFollower16IsTraversingPathEv) for Anki::Cozmo::PathFollower::IsTraversingPath()
    dockingcontroller.o(i._ZN4Anki5Cozmo17DockingController28SetDockingErrorSignalMessageERKNS0_18DockingErrorSignalE) refers to memcpya.o(.text) for __aeabi_memcpy4
    dockingcontroller.o(i._ZN4Anki5Cozmo17DockingController28SetDockingErrorSignalMessageERKNS0_18DockingErrorSignalE) refers to dockingcontroller.o(.data) for .data
    dockingcontroller.o(i._ZN4Anki5Cozmo17DockingController28SetDockingErrorSignalMessageERKNS0_18DockingErrorSignalE) refers to dockingcontroller.o(.bss) for .bss
    dockingcontroller.o(i._ZN4Anki5Cozmo17DockingController4InitEv) refers to camera.o(i._ZN4Anki5Cozmo3HAL14GetHeadCamInfoEv) for Anki::Cozmo::HAL::GetHeadCamInfo()
    dockingcontroller.o(i._ZN4Anki5Cozmo17DockingController4InitEv) refers to atanf.o(i.__hardfp_atanf) for __hardfp_atanf
    dockingcontroller.o(i._ZN4Anki5Cozmo17DockingController4InitEv) refers to messages.o(i._ZN4Anki5Cozmo14RobotInterface7SendLogEatthz) for Anki::Cozmo::RobotInterface::SendLog(signed char, unsigned short, unsigned short, unsigned char, ...)
    dockingcontroller.o(i._ZN4Anki5Cozmo17DockingController4InitEv) refers to dockingcontroller.o(.data) for .data
    dockingcontroller.o(i._ZN4Anki5Cozmo17DockingController6IsBusyEv) refers to dockingcontroller.o(.data) for .data
    dockingcontroller.o(i._ZN4Anki5Cozmo17DockingController6UpdateEv) refers to trig_fast.o(i._Z9atan_fastf) for atan_fast(float)
    dockingcontroller.o(i._ZN4Anki5Cozmo17DockingController6UpdateEv) refers to headcontroller.o(i._ZN4Anki5Cozmo14HeadController15SetDesiredAngleEf) for Anki::Cozmo::HeadController::SetDesiredAngle(float)
    dockingcontroller.o(i._ZN4Anki5Cozmo17DockingController6UpdateEv) refers to localization.o(i._ZN4Anki5Cozmo12Localization9GetDistToEff) for Anki::Cozmo::Localization::GetDistTo(float, float)
    dockingcontroller.o(i._ZN4Anki5Cozmo17DockingController6UpdateEv) refers to messages.o(i._ZN4Anki5Cozmo14RobotInterface7SendLogEatthz) for Anki::Cozmo::RobotInterface::SendLog(signed char, unsigned short, unsigned short, unsigned char, ...)
    dockingcontroller.o(i._ZN4Anki5Cozmo17DockingController6UpdateEv) refers to dockingcontroller.o(i._ZN4Anki5Cozmo17DockingController11StopDockingEa) for Anki::Cozmo::DockingController::StopDocking(signed char)
    dockingcontroller.o(i._ZN4Anki5Cozmo17DockingController6UpdateEv) refers to main.o(i.GetTimeStamp) for GetTimeStamp
    dockingcontroller.o(i._ZN4Anki5Cozmo17DockingController6UpdateEv) refers to dockingcontroller.o(i._ZN4Anki5Cozmo17DockingController14SetRelDockPoseEfffj) for Anki::Cozmo::DockingController::SetRelDockPose(float, float, float, unsigned)
    dockingcontroller.o(i._ZN4Anki5Cozmo17DockingController6UpdateEv) refers to speedcontroller.o(i._ZN4Anki5Cozmo15SpeedController35SetUserCommandedDesiredVehicleSpeedEs) for Anki::Cozmo::SpeedController::SetUserCommandedDesiredVehicleSpeed(short)
    dockingcontroller.o(i._ZN4Anki5Cozmo17DockingController6UpdateEv) refers to steeringcontroller.o(i._ZN4Anki5Cozmo18SteeringController18ExecuteDirectDriveEffff) for Anki::Cozmo::SteeringController::ExecuteDirectDrive(float, float, float, float)
    dockingcontroller.o(i._ZN4Anki5Cozmo17DockingController6UpdateEv) refers to dockingcontroller.o(i._ZN4Anki5Cozmo17DockingController13IsMarkerInFOVERKNS_8Embedded6Pose2dEf) for Anki::Cozmo::DockingController::IsMarkerInFOV(const Anki::Embedded::Pose2d&, float)
    dockingcontroller.o(i._ZN4Anki5Cozmo17DockingController6UpdateEv) refers to localization.o(i._ZN4Anki5Cozmo12Localization11GetCurrPoseEv) for Anki::Cozmo::Localization::GetCurrPose()
    dockingcontroller.o(i._ZN4Anki5Cozmo17DockingController6UpdateEv) refers to localization_geometry.o(i._ZNK4Anki8Embedded7Point2f4DistERKS1_) for Anki::Embedded::Point2f::Dist(const Anki::Embedded::Point2f&) const
    dockingcontroller.o(i._ZN4Anki5Cozmo17DockingController6UpdateEv) refers to pathfollower.o(i._ZN4Anki5Cozmo12PathFollower16IsTraversingPathEv) for Anki::Cozmo::PathFollower::IsTraversingPath()
    dockingcontroller.o(i._ZN4Anki5Cozmo17DockingController6UpdateEv) refers to pickandplacecontroller.o(i._ZN4Anki5Cozmo22PickAndPlaceController12GetCurActionEv) for Anki::Cozmo::PickAndPlaceController::GetCurAction()
    dockingcontroller.o(i._ZN4Anki5Cozmo17DockingController6UpdateEv) refers to dockingcontroller.o(i._ZN4Anki5Cozmo17DockingController18HighDockLiftUpdateEv) for Anki::Cozmo::DockingController::HighDockLiftUpdate()
    dockingcontroller.o(i._ZN4Anki5Cozmo17DockingController6UpdateEv) refers to pathfollower.o(i._ZN4Anki5Cozmo12PathFollower9ClearPathEv) for Anki::Cozmo::PathFollower::ClearPath()
    dockingcontroller.o(i._ZN4Anki5Cozmo17DockingController6UpdateEv) refers to localization.o(i._ZN4Anki5Cozmo12Localization24ConvertToDriveCenterPoseERKNS_8Embedded6Pose2dERS3_) for Anki::Cozmo::Localization::ConvertToDriveCenterPose(const Anki::Embedded::Pose2d&, Anki::Embedded::Pose2d&)
    dockingcontroller.o(i._ZN4Anki5Cozmo17DockingController6UpdateEv) refers to localization_geometry.o(i._ZNK4Anki8Embedded6Pose2d16GetWithRespectToERKS1_) for Anki::Embedded::Pose2d::GetWithRespectTo(const Anki::Embedded::Pose2d&) const
    dockingcontroller.o(i._ZN4Anki5Cozmo17DockingController6UpdateEv) refers to dockingcontroller.o(i._ZNK4Anki8Embedded6Pose2d8GetAngleEv) for Anki::Embedded::Pose2d::GetAngle() const
    dockingcontroller.o(i._ZN4Anki5Cozmo17DockingController6UpdateEv) refers to dockingcontroller.o(.data) for .data
    dockingcontroller.o(i._ZN4Anki5Cozmo17DockingController6UpdateEv) refers to dockingcontroller.o(.bss) for .bss
    dockingcontroller.o(i._ZN4Anki5Cozmo17DockingController6UpdateEv) refers to pickandplacecontroller.o(i._ZN4Anki5Cozmo22PickAndPlaceController15IsCarryingBlockEv) for Anki::Cozmo::PickAndPlaceController::IsCarryingBlock()
    dockingcontroller.o(i._ZN4Anki5Cozmo17DockingController6UpdateEv) refers to dockingcontroller.o(i._ZN4Anki5Cozmo17DockingController24SendDockingStatusMessageEa) for Anki::Cozmo::DockingController::SendDockingStatusMessage(signed char)
    dockingcontroller.o(i._ZN4Anki5Cozmo17DockingController6UpdateEv) refers to dockingcontroller.o(i._ZN4Anki5Cozmo17DockingController25ApplyDockingSteeringGainsEv) for Anki::Cozmo::DockingController::ApplyDockingSteeringGains()
    dockingcontroller.o(i._ZN4Anki5Cozmo17DockingController6UpdateEv) refers to radians.o(i._ZN4Anki7RadiansC1Ev) for Anki::Radians::Radians()
    dockingcontroller.o(i._ZN4Anki5Cozmo17DockingController6UpdateEv) refers to localization.o(i._ZN4Anki5Cozmo12Localization18GetDriveCenterPoseERfS2_RNS_7RadiansE) for Anki::Cozmo::Localization::GetDriveCenterPose(float&, float&, Anki::Radians&)
    dockingcontroller.o(i._ZN4Anki5Cozmo17DockingController6UpdateEv) refers to pathfollower.o(i._ZN4Anki5Cozmo12PathFollower27AppendPathSegment_PointTurnEjfffffffb) for Anki::Cozmo::PathFollower::AppendPathSegment_PointTurn(unsigned, float, float, float, float, float, float, float, bool)
    dockingcontroller.o(i._ZN4Anki5Cozmo17DockingController6UpdateEv) refers to sinf.o(i.__hardfp_sinf) for __hardfp_sinf
    dockingcontroller.o(i._ZN4Anki5Cozmo17DockingController6UpdateEv) refers to cosf.o(i.__hardfp_cosf) for __hardfp_cosf
    dockingcontroller.o(i._ZN4Anki5Cozmo17DockingController6UpdateEv) refers to pathfollower.o(i._ZN4Anki5Cozmo12PathFollower22AppendPathSegment_LineEjfffffff) for Anki::Cozmo::PathFollower::AppendPathSegment_Line(unsigned, float, float, float, float, float, float, float)
    dockingcontroller.o(i._ZN4Anki5Cozmo17DockingController6UpdateEv) refers to pathfollower.o(i._ZN4Anki5Cozmo12PathFollower18StartPathTraversalEtb) for Anki::Cozmo::PathFollower::StartPathTraversal(unsigned short, bool)
    dockingcontroller.o(i._ZN4Anki5Cozmo17DockingController6UpdateEv) refers to dockingcontroller.o(i._ZN4Anki8Embedded6Pose2daSERKS1_) for Anki::Embedded::Pose2d::operator =(const Anki::Embedded::Pose2d&)
    dockingcontroller.o(i._ZN4Anki5Cozmo17DockingController6UpdateEv) refers to liftcontroller.o(i._ZN4Anki5Cozmo14LiftController16SetDesiredHeightEf) for Anki::Cozmo::LiftController::SetDesiredHeight(float)
    dockingcontroller.o(i._ZN4Anki5Cozmo17DockingController6UpdateEv) refers to liftcontroller.o(i._ZN4Anki5Cozmo14LiftController16SetDesiredHeightEffff) for Anki::Cozmo::LiftController::SetDesiredHeight(float, float, float, float)
    dockingcontroller.o(i._ZN4Anki5Cozmo17DockingController6UpdateEv) refers to messages.o(i._Z10trace_castIfEiT_) for trace_cast<float>(T1)
    dockingcontroller.o(i._ZN4Anki5Cozmo17DockingController6UpdateEv) refers to dockingcontroller.o(i._ZN4Anki5Cozmo17DockingController18DidLastDockSucceedEv) for Anki::Cozmo::DockingController::DidLastDockSucceed()
    dockingcontroller.o(i.__sti___21_dockingController_cpp) refers to dockingcontroller.o(i._ZN4Anki8Embedded6Pose2dC1Ev) for Anki::Embedded::Pose2d::Pose2d()
    dockingcontroller.o(i.__sti___21_dockingController_cpp) refers to dockingcontroller.o(.bss) for .bss
    dockingcontroller.o(.ARM.exidx) refers to dockingcontroller.o(i._ZN4Anki5Cozmo17DockingController6IsBusyEv) for i._ZN4Anki5Cozmo17DockingController6IsBusyEv
    dockingcontroller.o(.ARM.exidx) refers to dockingcontroller.o(i._ZN4Anki5Cozmo17DockingController16SetDockingMethodEh) for i._ZN4Anki5Cozmo17DockingController16SetDockingMethodEh
    dockingcontroller.o(.ARM.exidx) refers to dockingcontroller.o(i._ZN4Anki5Cozmo17DockingController18DidLastDockSucceedEv) for i._ZN4Anki5Cozmo17DockingController18DidLastDockSucceedEv
    dockingcontroller.o(.ARM.exidx) refers to dockingcontroller.o(i._ZN4Anki5Cozmo17DockingController14GetVerticalFOVEv) for i._ZN4Anki5Cozmo17DockingController14GetVerticalFOVEv
    dockingcontroller.o(.ARM.exidx) refers to dockingcontroller.o(i._ZN4Anki5Cozmo17DockingController16GetHorizontalFOVEv) for i._ZN4Anki5Cozmo17DockingController16GetHorizontalFOVEv
    dockingcontroller.o(.ARM.exidx) refers to dockingcontroller.o(i._ZN4Anki5Cozmo17DockingController16GetDockingResultEv) for i._ZN4Anki5Cozmo17DockingController16GetDockingResultEv
    dockingcontroller.o(.ARM.exidx) refers to dockingcontroller.o(i._ZN4Anki5Cozmo17DockingController24SendDockingStatusMessageEa) for i._ZN4Anki5Cozmo17DockingController24SendDockingStatusMessageEa
    dockingcontroller.o(.ARM.exidx) refers to dockingcontroller.o(i._ZN4Anki5Cozmo17DockingController13SetMaxRetriesEh) for i._ZN4Anki5Cozmo17DockingController13SetMaxRetriesEh
    dockingcontroller.o(.ARM.exidx) refers to dockingcontroller.o(i._ZN4Anki5Cozmo17DockingController25ApplyDockingSteeringGainsEv) for i._ZN4Anki5Cozmo17DockingController25ApplyDockingSteeringGainsEv
    dockingcontroller.o(.ARM.exidx) refers to dockingcontroller.o(i._ZN4Anki5Cozmo17DockingController20RestoreSteeringGainsEv) for i._ZN4Anki5Cozmo17DockingController20RestoreSteeringGainsEv
    dockingcontroller.o(.ARM.exidx) refers to dockingcontroller.o(i._ZN4Anki5Cozmo17DockingController13IsMarkerInFOVERKNS_8Embedded6Pose2dEf) for i._ZN4Anki5Cozmo17DockingController13IsMarkerInFOVERKNS_8Embedded6Pose2dEf
    dockingcontroller.o(.ARM.exidx) refers to dockingcontroller.o(i._ZN4Anki5Cozmo17DockingController19SendGoalPoseMessageERKNS_8Embedded6Pose2dE) for i._ZN4Anki5Cozmo17DockingController19SendGoalPoseMessageERKNS_8Embedded6Pose2dE
    dockingcontroller.o(.ARM.exidx) refers to dockingcontroller.o(i._ZN4Anki5Cozmo17DockingController20GetCamFOVLowerHeightEv) for i._ZN4Anki5Cozmo17DockingController20GetCamFOVLowerHeightEv
    dockingcontroller.o(.ARM.exidx) refers to dockingcontroller.o(i._ZN4Anki5Cozmo17DockingController18HighDockLiftUpdateEv) for i._ZN4Anki5Cozmo17DockingController18HighDockLiftUpdateEv
    dockingcontroller.o(.ARM.exidx) refers to dockingcontroller.o(i._ZN4Anki5Cozmo17DockingController4InitEv) for i._ZN4Anki5Cozmo17DockingController4InitEv
    dockingcontroller.o(.ARM.exidx) refers to dockingcontroller.o(i._ZN4Anki5Cozmo17DockingController11StopDockingEa) for i._ZN4Anki5Cozmo17DockingController11StopDockingEa
    dockingcontroller.o(.ARM.exidx) refers to dockingcontroller.o(i._ZN4Anki5Cozmo17DockingController14SetRelDockPoseEfffj) for i._ZN4Anki5Cozmo17DockingController14SetRelDockPoseEfffj
    dockingcontroller.o(.ARM.exidx) refers to dockingcontroller.o(i._ZN4Anki5Cozmo17DockingController6UpdateEv) for i._ZN4Anki5Cozmo17DockingController6UpdateEv
    dockingcontroller.o(.ARM.exidx) refers to dockingcontroller.o(i._ZN4Anki5Cozmo17DockingController21StartDocking_internalEfffb) for i._ZN4Anki5Cozmo17DockingController21StartDocking_internalEfffb
    dockingcontroller.o(.ARM.exidx) refers to dockingcontroller.o(i._ZN4Anki5Cozmo17DockingController12StartDockingEffffffbjb) for i._ZN4Anki5Cozmo17DockingController12StartDockingEffffffbjb
    dockingcontroller.o(.ARM.exidx) refers to dockingcontroller.o(i._ZN4Anki5Cozmo17DockingController21StartDockingToRelPoseEffffffb) for i._ZN4Anki5Cozmo17DockingController21StartDockingToRelPoseEffffffb
    dockingcontroller.o(.ARM.exidx) refers to dockingcontroller.o(i._ZN4Anki5Cozmo17DockingController20GetLastMarkerAbsPoseEv) for i._ZN4Anki5Cozmo17DockingController20GetLastMarkerAbsPoseEv
    dockingcontroller.o(.ARM.exidx) refers to dockingcontroller.o(i._ZN4Anki5Cozmo17DockingController23GetDistToLastDockMarkerEv) for i._ZN4Anki5Cozmo17DockingController23GetDistToLastDockMarkerEv
    dockingcontroller.o(.ARM.exidx) refers to dockingcontroller.o(i._ZN4Anki5Cozmo17DockingController28SetDockingErrorSignalMessageERKNS0_18DockingErrorSignalE) for i._ZN4Anki5Cozmo17DockingController28SetDockingErrorSignalMessageERKNS0_18DockingErrorSignalE
    dockingcontroller.o(.ARM.exidx) refers to dockingcontroller.o(i.__sti___21_dockingController_cpp) for i.__sti___21_dockingController_cpp
    dockingcontroller.o(.init_array) refers to dockingcontroller.o(i.__sti___21_dockingController_cpp) for __sti___21_dockingController_cpp
    dockingcontroller.o(.init_array) refers to cpp_init.o(.text) for __cpp_initialize__aeabi_
    localization.o(i._ZN4Anki5Cozmo12Localization10GetHistIdxEjRt) refers to localization.o(i._ZN4Anki5Cozmo12Localization15InterpolatePoseEiifi) for Anki::Cozmo::Localization::InterpolatePose(int, int, float, int)
    localization.o(i._ZN4Anki5Cozmo12Localization10GetHistIdxEjRt) refers to localization.o(.data) for .data
    localization.o(i._ZN4Anki5Cozmo12Localization10GetHistIdxEjRt) refers to localization.o(.bss) for .bss
    localization.o(i._ZN4Anki5Cozmo12Localization10IsOnBridgeEv) refers to localization.o(.data) for .data
    localization.o(i._ZN4Anki5Cozmo12Localization11GetCurrPoseEv) refers to radians.o(i._ZN4Anki7RadiansC1ERKS0_) for Anki::Radians::Radians(const Anki::Radians&)
    localization.o(i._ZN4Anki5Cozmo12Localization11GetCurrPoseEv) refers to localization.o(i._ZN4Anki8Embedded6Pose2dC1EffNS_7RadiansE) for Anki::Embedded::Pose2d::Pose2d(float, float, Anki::Radians)
    localization.o(i._ZN4Anki5Cozmo12Localization11GetCurrPoseEv) refers to localization.o(.data) for .data
    localization.o(i._ZN4Anki5Cozmo12Localization11SetOnBridgeEb) refers to main.o(i.GetTimeStamp) for GetTimeStamp
    localization.o(i._ZN4Anki5Cozmo12Localization11SetOnBridgeEb) refers to wifi.o(i._ZN4Anki5Cozmo3HAL16RadioSendMessageEPKvth) for Anki::Cozmo::HAL::RadioSendMessage(const void*, unsigned short, unsigned char)
    localization.o(i._ZN4Anki5Cozmo12Localization11SetOnBridgeEb) refers to localization.o(.data) for .data
    localization.o(i._ZN4Anki5Cozmo12Localization12ClearHistoryEv) refers to localization.o(.data) for .data
    localization.o(i._ZN4Anki5Cozmo12Localization13AddPoseToHistEv) refers to main.o(i.GetTimeStamp) for GetTimeStamp
    localization.o(i._ZN4Anki5Cozmo12Localization13AddPoseToHistEv) refers to localization.o(.data) for .data
    localization.o(i._ZN4Anki5Cozmo12Localization13AddPoseToHistEv) refers to localization.o(.bss) for .bss
    localization.o(i._ZN4Anki5Cozmo12Localization13GetCurrPose_xEv) refers to localization.o(.data) for .data
    localization.o(i._ZN4Anki5Cozmo12Localization13GetCurrPose_yEv) refers to localization.o(.data) for .data
    localization.o(i._ZN4Anki5Cozmo12Localization14GetPoseFrameIdEv) refers to localization.o(.data) for .data
    localization.o(i._ZN4Anki5Cozmo12Localization14ResetPoseFrameEv) refers to localization.o(i._ZN4Anki5Cozmo12Localization12ClearHistoryEv) for Anki::Cozmo::Localization::ClearHistory()
    localization.o(i._ZN4Anki5Cozmo12Localization14ResetPoseFrameEv) refers to localization.o(.data) for .data
    localization.o(i._ZN4Anki5Cozmo12Localization15GetPoseOriginIdEv) refers to localization.o(.data) for .data
    localization.o(i._ZN4Anki5Cozmo12Localization15InterpolatePoseEiifi) refers to messages.o(i._ZN4Anki5Cozmo14RobotInterface7SendLogEatthz) for Anki::Cozmo::RobotInterface::SendLog(signed char, unsigned short, unsigned short, unsigned char, ...)
    localization.o(i._ZN4Anki5Cozmo12Localization15InterpolatePoseEiifi) refers to radians.o(i._ZN4Anki7RadiansC1Ef) for Anki::Radians::Radians(float)
    localization.o(i._ZN4Anki5Cozmo12Localization15InterpolatePoseEiifi) refers to radians.o(i._ZN4AnkimiERKNS_7RadiansES2_) for Anki::operator -(const Anki::Radians&, const Anki::Radians&)
    localization.o(i._ZN4Anki5Cozmo12Localization15InterpolatePoseEiifi) refers to radians.o(i._ZN4AnkimlEfRKNS_7RadiansE) for Anki::operator *(float, const Anki::Radians&)
    localization.o(i._ZN4Anki5Cozmo12Localization15InterpolatePoseEiifi) refers to radians.o(i._ZN4AnkiplERKNS_7RadiansES2_) for Anki::operator +(const Anki::Radians&, const Anki::Radians&)
    localization.o(i._ZN4Anki5Cozmo12Localization15InterpolatePoseEiifi) refers to localization.o(.bss) for .bss
    localization.o(i._ZN4Anki5Cozmo12Localization17GetCurrPose_angleEv) refers to radians.o(i._ZN4Anki7RadiansC1ERKS0_) for Anki::Radians::Radians(const Anki::Radians&)
    localization.o(i._ZN4Anki5Cozmo12Localization17GetCurrPose_angleEv) refers to localization.o(.data) for .data
    localization.o(i._ZN4Anki5Cozmo12Localization17GetCurrentMatPoseERfS2_RNS_7RadiansE) refers to radians.o(i._ZN4Anki7RadiansaSERKS0_) for Anki::Radians::operator =(const Anki::Radians&)
    localization.o(i._ZN4Anki5Cozmo12Localization17GetCurrentMatPoseERfS2_RNS_7RadiansE) refers to localization.o(.data) for .data
    localization.o(i._ZN4Anki5Cozmo12Localization17GetHistPoseAtTimeEjRNS_8Embedded6Pose2dE) refers to messages.o(i._ZN4Anki5Cozmo14RobotInterface7SendLogEatthz) for Anki::Cozmo::RobotInterface::SendLog(signed char, unsigned short, unsigned short, unsigned char, ...)
    localization.o(i._ZN4Anki5Cozmo12Localization17GetHistPoseAtTimeEjRNS_8Embedded6Pose2dE) refers to localization.o(i._ZN4Anki5Cozmo12Localization18GetHistPoseAtIndexEtRNS_8Embedded6Pose2dE) for Anki::Cozmo::Localization::GetHistPoseAtIndex(unsigned short, Anki::Embedded::Pose2d&)
    localization.o(i._ZN4Anki5Cozmo12Localization17GetHistPoseAtTimeEjRNS_8Embedded6Pose2dE) refers to localization.o(.data) for .data
    localization.o(i._ZN4Anki5Cozmo12Localization17GetHistPoseAtTimeEjRNS_8Embedded6Pose2dE) refers to localization.o(.bss) for .bss
    localization.o(i._ZN4Anki5Cozmo12Localization17SetCurrentMatPoseERKfS3_RKNS_7RadiansE) refers to radians.o(i._ZN4Anki7RadiansaSERKS0_) for Anki::Radians::operator =(const Anki::Radians&)
    localization.o(i._ZN4Anki5Cozmo12Localization17SetCurrentMatPoseERKfS3_RKNS_7RadiansE) refers to imufilter.o(i._ZN4Anki5Cozmo9IMUFilter11GetRotationEv) for Anki::Cozmo::IMUFilter::GetRotation()
    localization.o(i._ZN4Anki5Cozmo12Localization17SetCurrentMatPoseERKfS3_RKNS_7RadiansE) refers to localization.o(i._ZN4Anki5Cozmo12Localization20GetDriveCenterOffsetEv) for Anki::Cozmo::Localization::GetDriveCenterOffset()
    localization.o(i._ZN4Anki5Cozmo12Localization17SetCurrentMatPoseERKfS3_RKNS_7RadiansE) refers to cosf.o(i.__hardfp_cosf) for __hardfp_cosf
    localization.o(i._ZN4Anki5Cozmo12Localization17SetCurrentMatPoseERKfS3_RKNS_7RadiansE) refers to sinf.o(i.__hardfp_sinf) for __hardfp_sinf
    localization.o(i._ZN4Anki5Cozmo12Localization17SetCurrentMatPoseERKfS3_RKNS_7RadiansE) refers to localization.o(.data) for .data
    localization.o(i._ZN4Anki5Cozmo12Localization18GetDriveCenterPoseERfS2_RNS_7RadiansE) refers to radians.o(i._ZN4Anki7RadiansaSERKS0_) for Anki::Radians::operator =(const Anki::Radians&)
    localization.o(i._ZN4Anki5Cozmo12Localization18GetDriveCenterPoseERfS2_RNS_7RadiansE) refers to localization.o(.data) for .data
    localization.o(i._ZN4Anki5Cozmo12Localization18GetHistPoseAtIndexEtRNS_8Embedded6Pose2dE) refers to radians.o(i._ZN4Anki7RadiansaSEf) for Anki::Radians::operator =(float)
    localization.o(i._ZN4Anki5Cozmo12Localization18GetHistPoseAtIndexEtRNS_8Embedded6Pose2dE) refers to localization.o(.bss) for .bss
    localization.o(i._ZN4Anki5Cozmo12Localization18SetDriveCenterPoseERKfS3_RKNS_7RadiansE) refers to radians.o(i._ZN4Anki7RadiansaSERKS0_) for Anki::Radians::operator =(const Anki::Radians&)
    localization.o(i._ZN4Anki5Cozmo12Localization18SetDriveCenterPoseERKfS3_RKNS_7RadiansE) refers to imufilter.o(i._ZN4Anki5Cozmo9IMUFilter11GetRotationEv) for Anki::Cozmo::IMUFilter::GetRotation()
    localization.o(i._ZN4Anki5Cozmo12Localization18SetDriveCenterPoseERKfS3_RKNS_7RadiansE) refers to localization.o(i._ZN4Anki5Cozmo12Localization20GetDriveCenterOffsetEv) for Anki::Cozmo::Localization::GetDriveCenterOffset()
    localization.o(i._ZN4Anki5Cozmo12Localization18SetDriveCenterPoseERKfS3_RKNS_7RadiansE) refers to cosf.o(i.__hardfp_cosf) for __hardfp_cosf
    localization.o(i._ZN4Anki5Cozmo12Localization18SetDriveCenterPoseERKfS3_RKNS_7RadiansE) refers to sinf.o(i.__hardfp_sinf) for __hardfp_sinf
    localization.o(i._ZN4Anki5Cozmo12Localization18SetDriveCenterPoseERKfS3_RKNS_7RadiansE) refers to localization.o(.data) for .data
    localization.o(i._ZN4Anki5Cozmo12Localization19ConvertToOriginPoseERKNS_8Embedded6Pose2dERS3_) refers to dockingcontroller.o(i._ZNK4Anki8Embedded6Pose2d8GetAngleEv) for Anki::Embedded::Pose2d::GetAngle() const
    localization.o(i._ZN4Anki5Cozmo12Localization19ConvertToOriginPoseERKNS_8Embedded6Pose2dERS3_) refers to localization.o(i._ZN4Anki5Cozmo12Localization20GetDriveCenterOffsetEv) for Anki::Cozmo::Localization::GetDriveCenterOffset()
    localization.o(i._ZN4Anki5Cozmo12Localization19ConvertToOriginPoseERKNS_8Embedded6Pose2dERS3_) refers to cosf.o(i.__hardfp_cosf) for __hardfp_cosf
    localization.o(i._ZN4Anki5Cozmo12Localization19ConvertToOriginPoseERKNS_8Embedded6Pose2dERS3_) refers to sinf.o(i.__hardfp_sinf) for __hardfp_sinf
    localization.o(i._ZN4Anki5Cozmo12Localization19ConvertToOriginPoseERKNS_8Embedded6Pose2dERS3_) refers to radians.o(i._ZN4Anki7RadiansaSERKS0_) for Anki::Radians::operator =(const Anki::Radians&)
    localization.o(i._ZN4Anki5Cozmo12Localization20GetDriveCenterOffsetEv) refers to pickandplacecontroller.o(i._ZN4Anki5Cozmo22PickAndPlaceController15IsCarryingBlockEv) for Anki::Cozmo::PickAndPlaceController::IsCarryingBlock()
    localization.o(i._ZN4Anki5Cozmo12Localization20GetDriveCenterOffsetEv) refers to localization.o(.data) for .data
    localization.o(i._ZN4Anki5Cozmo12Localization20SetDriveCenterOffsetEf) refers to localization.o(.data) for .data
    localization.o(i._ZN4Anki5Cozmo12Localization20SetMotionModelParamsEf) refers to localization.o(.data) for .data
    localization.o(i._ZN4Anki5Cozmo12Localization22UpdatePoseWithKeyframeEjjjfff) refers to localization.o(i._ZN4Anki5Cozmo12Localization10GetHistIdxEjRt) for Anki::Cozmo::Localization::GetHistIdx(unsigned, unsigned short&)
    localization.o(i._ZN4Anki5Cozmo12Localization22UpdatePoseWithKeyframeEjjjfff) refers to messages.o(i._ZN4Anki5Cozmo14RobotInterface7SendLogEatthz) for Anki::Cozmo::RobotInterface::SendLog(signed char, unsigned short, unsigned short, unsigned char, ...)
    localization.o(i._ZN4Anki5Cozmo12Localization22UpdatePoseWithKeyframeEjjjfff) refers to radians.o(i._ZN4Anki7RadiansC1Ef) for Anki::Radians::Radians(float)
    localization.o(i._ZN4Anki5Cozmo12Localization22UpdatePoseWithKeyframeEjjjfff) refers to localization.o(i._ZN4Anki5Cozmo12Localization17SetCurrentMatPoseERKfS3_RKNS_7RadiansE) for Anki::Cozmo::Localization::SetCurrentMatPose(const float&, const float&, const Anki::Radians&)
    localization.o(i._ZN4Anki5Cozmo12Localization22UpdatePoseWithKeyframeEjjjfff) refers to localization.o(i._ZN4Anki8Embedded6Pose2dC1EffNS_7RadiansE) for Anki::Embedded::Pose2d::Pose2d(float, float, Anki::Radians)
    localization.o(i._ZN4Anki5Cozmo12Localization22UpdatePoseWithKeyframeEjjjfff) refers to localization_geometry.o(i._ZNK4Anki8Embedded6Pose2d16GetWithRespectToERKS1_) for Anki::Embedded::Pose2d::GetWithRespectTo(const Anki::Embedded::Pose2d&) const
    localization.o(i._ZN4Anki5Cozmo12Localization22UpdatePoseWithKeyframeEjjjfff) refers to localization_geometry.o(i._ZN4Anki8Embedded6Pose2dmlERKS1_) for Anki::Embedded::Pose2d::operator *(const Anki::Embedded::Pose2d&)
    localization.o(i._ZN4Anki5Cozmo12Localization22UpdatePoseWithKeyframeEjjjfff) refers to dockingcontroller.o(i._ZNK4Anki8Embedded6Pose2d8GetAngleEv) for Anki::Embedded::Pose2d::GetAngle() const
    localization.o(i._ZN4Anki5Cozmo12Localization22UpdatePoseWithKeyframeEjjjfff) refers to localization.o(i._ZN4Anki5Cozmo12Localization13AddPoseToHistEv) for Anki::Cozmo::Localization::AddPoseToHist()
    localization.o(i._ZN4Anki5Cozmo12Localization22UpdatePoseWithKeyframeEjjjfff) refers to localization.o(.data) for .data
    localization.o(i._ZN4Anki5Cozmo12Localization22UpdatePoseWithKeyframeEjjjfff) refers to localization.o(.bss) for .bss
    localization.o(i._ZN4Anki5Cozmo12Localization24ConvertToDriveCenterPoseERKNS_8Embedded6Pose2dERS3_) refers to dockingcontroller.o(i._ZNK4Anki8Embedded6Pose2d8GetAngleEv) for Anki::Embedded::Pose2d::GetAngle() const
    localization.o(i._ZN4Anki5Cozmo12Localization24ConvertToDriveCenterPoseERKNS_8Embedded6Pose2dERS3_) refers to localization.o(i._ZN4Anki5Cozmo12Localization20GetDriveCenterOffsetEv) for Anki::Cozmo::Localization::GetDriveCenterOffset()
    localization.o(i._ZN4Anki5Cozmo12Localization24ConvertToDriveCenterPoseERKNS_8Embedded6Pose2dERS3_) refers to cosf.o(i.__hardfp_cosf) for __hardfp_cosf
    localization.o(i._ZN4Anki5Cozmo12Localization24ConvertToDriveCenterPoseERKNS_8Embedded6Pose2dERS3_) refers to sinf.o(i.__hardfp_sinf) for __hardfp_sinf
    localization.o(i._ZN4Anki5Cozmo12Localization24ConvertToDriveCenterPoseERKNS_8Embedded6Pose2dERS3_) refers to radians.o(i._ZN4Anki7RadiansaSERKS0_) for Anki::Radians::operator =(const Anki::Radians&)
    localization.o(i._ZN4Anki5Cozmo12Localization24SendRampTraverseCompleteEb) refers to main.o(i.GetTimeStamp) for GetTimeStamp
    localization.o(i._ZN4Anki5Cozmo12Localization24SendRampTraverseCompleteEb) refers to localization.o(i._ZN4Anki5Cozmo14RobotInterface11SendMessageERKNS0_20RampTraverseCompleteE) for Anki::Cozmo::RobotInterface::SendMessage(const Anki::Cozmo::RampTraverseComplete&)
    localization.o(i._ZN4Anki5Cozmo12Localization28SendRampTraverseStartMessageEv) refers to main.o(i.GetTimeStamp) for GetTimeStamp
    localization.o(i._ZN4Anki5Cozmo12Localization28SendRampTraverseStartMessageEv) refers to localization.o(i._ZN4Anki5Cozmo14RobotInterface11SendMessageERKNS0_17RampTraverseStartE) for Anki::Cozmo::RobotInterface::SendMessage(const Anki::Cozmo::RampTraverseStart&)
    localization.o(i._ZN4Anki5Cozmo12Localization4InitEv) refers to radians.o(i._ZN4Anki7RadiansC1Ef) for Anki::Radians::Radians(float)
    localization.o(i._ZN4Anki5Cozmo12Localization4InitEv) refers to localization.o(i._ZN4Anki5Cozmo12Localization17SetCurrentMatPoseERKfS3_RKNS_7RadiansE) for Anki::Cozmo::Localization::SetCurrentMatPose(const float&, const float&, const Anki::Radians&)
    localization.o(i._ZN4Anki5Cozmo12Localization4InitEv) refers to motors.o(i._ZN4Anki5Cozmo3HAL16MotorGetPositionEh) for Anki::Cozmo::HAL::MotorGetPosition(unsigned char)
    localization.o(i._ZN4Anki5Cozmo12Localization4InitEv) refers to imufilter.o(i._ZN4Anki5Cozmo9IMUFilter11GetRotationEv) for Anki::Cozmo::IMUFilter::GetRotation()
    localization.o(i._ZN4Anki5Cozmo12Localization4InitEv) refers to localization.o(i._ZN4Anki5Cozmo12Localization12ClearHistoryEv) for Anki::Cozmo::Localization::ClearHistory()
    localization.o(i._ZN4Anki5Cozmo12Localization4InitEv) refers to localization.o(.data) for .data
    localization.o(i._ZN4Anki5Cozmo12Localization6UpdateEv) refers to motors.o(i._ZN4Anki5Cozmo3HAL16MotorGetPositionEh) for Anki::Cozmo::HAL::MotorGetPosition(unsigned char)
    localization.o(i._ZN4Anki5Cozmo12Localization6UpdateEv) refers to localization.o(i._ZN4Anki5Cozmo12Localization20GetDriveCenterOffsetEv) for Anki::Cozmo::Localization::GetDriveCenterOffset()
    localization.o(i._ZN4Anki5Cozmo12Localization6UpdateEv) refers to cosf.o(i.__hardfp_cosf) for __hardfp_cosf
    localization.o(i._ZN4Anki5Cozmo12Localization6UpdateEv) refers to sinf.o(i.__hardfp_sinf) for __hardfp_sinf
    localization.o(i._ZN4Anki5Cozmo12Localization6UpdateEv) refers to imufilter.o(i._ZN4Anki5Cozmo9IMUFilter11GetRotationEv) for Anki::Cozmo::IMUFilter::GetRotation()
    localization.o(i._ZN4Anki5Cozmo12Localization6UpdateEv) refers to radians.o(i._ZN4Anki7RadiansC1Ef) for Anki::Radians::Radians(float)
    localization.o(i._ZN4Anki5Cozmo12Localization6UpdateEv) refers to radians.o(i._ZN4AnkimiERKNS_7RadiansES2_) for Anki::operator -(const Anki::Radians&, const Anki::Radians&)
    localization.o(i._ZN4Anki5Cozmo12Localization6UpdateEv) refers to radians.o(i._ZN4Anki7RadiansaSERKS0_) for Anki::Radians::operator =(const Anki::Radians&)
    localization.o(i._ZN4Anki5Cozmo12Localization6UpdateEv) refers to radians.o(i._ZN4Anki7RadiansaSEf) for Anki::Radians::operator =(float)
    localization.o(i._ZN4Anki5Cozmo12Localization6UpdateEv) refers to localization.o(i._ZN4Anki5Cozmo12Localization13AddPoseToHistEv) for Anki::Cozmo::Localization::AddPoseToHist()
    localization.o(i._ZN4Anki5Cozmo12Localization6UpdateEv) refers to localization.o(.data) for .data
    localization.o(i._ZN4Anki5Cozmo12Localization8IsOnRampEv) refers to localization.o(.data) for .data
    localization.o(i._ZN4Anki5Cozmo12Localization9GetDistToEff) refers to sqrtf.o(i.__hardfp_sqrtf) for __hardfp_sqrtf
    localization.o(i._ZN4Anki5Cozmo12Localization9GetDistToEff) refers to localization.o(.data) for .data
    localization.o(i._ZN4Anki5Cozmo12Localization9SetOnRampEb) refers to main.o(i.GetTimeStamp) for GetTimeStamp
    localization.o(i._ZN4Anki5Cozmo12Localization9SetOnRampEb) refers to localization.o(i._ZN4Anki5Cozmo14RobotInterface11SendMessageERKNS0_17RampTraverseStartE) for Anki::Cozmo::RobotInterface::SendMessage(const Anki::Cozmo::RampTraverseStart&)
    localization.o(i._ZN4Anki5Cozmo12Localization9SetOnRampEb) refers to localization.o(i._ZN4Anki5Cozmo14RobotInterface11SendMessageERKNS0_20RampTraverseCompleteE) for Anki::Cozmo::RobotInterface::SendMessage(const Anki::Cozmo::RampTraverseComplete&)
    localization.o(i._ZN4Anki5Cozmo12Localization9SetOnRampEb) refers to localization.o(.data) for .data
    localization.o(i.__sti___16_localization_cpp) refers to localization_geometry.o(i._ZN4Anki8Embedded7Point2fC1Eff) for Anki::Embedded::Point2f::Point2f(float, float)
    localization.o(i.__sti___16_localization_cpp) refers to radians.o(i._ZN4Anki7RadiansC1Ef) for Anki::Radians::Radians(float)
    localization.o(i.__sti___16_localization_cpp) refers to localization_geometry.o(i._ZN4Anki8Embedded10Rotation2dC1ENS_7RadiansE) for Anki::Embedded::Rotation2d::Rotation2d(Anki::Radians)
    localization.o(i.__sti___16_localization_cpp) refers to localization.o(.bss) for .bss
    localization.o(i.__sti___16_localization_cpp) refers to localization.o(.data) for .data
    localization.o(.ARM.exidx) refers to localization.o(i._ZN4Anki5Cozmo12Localization12ClearHistoryEv) for i._ZN4Anki5Cozmo12Localization12ClearHistoryEv
    localization.o(.ARM.exidx) refers to localization.o(i._ZN4Anki5Cozmo12Localization15InterpolatePoseEiifi) for i._ZN4Anki5Cozmo12Localization15InterpolatePoseEiifi
    localization.o(.ARM.exidx) refers to localization.o(i._ZN4Anki5Cozmo12Localization10GetHistIdxEjRt) for i._ZN4Anki5Cozmo12Localization10GetHistIdxEjRt
    localization.o(.ARM.exidx) refers to localization.o(i._ZN4Anki5Cozmo12Localization13AddPoseToHistEv) for i._ZN4Anki5Cozmo12Localization13AddPoseToHistEv
    localization.o(.ARM.exidx) refers to localization.o(i._ZN4Anki5Cozmo12Localization20GetDriveCenterOffsetEv) for i._ZN4Anki5Cozmo12Localization20GetDriveCenterOffsetEv
    localization.o(.ARM.exidx) refers to localization.o(i._ZN4Anki5Cozmo12Localization17SetCurrentMatPoseERKfS3_RKNS_7RadiansE) for i._ZN4Anki5Cozmo12Localization17SetCurrentMatPoseERKfS3_RKNS_7RadiansE
    localization.o(.ARM.exidx) refers to localization.o(i._ZN4Anki5Cozmo12Localization22UpdatePoseWithKeyframeEjjjfff) for i._ZN4Anki5Cozmo12Localization22UpdatePoseWithKeyframeEjjjfff
    localization.o(.ARM.exidx) refers to localization.o(i._ZN4Anki5Cozmo12Localization18GetHistPoseAtIndexEtRNS_8Embedded6Pose2dE) for i._ZN4Anki5Cozmo12Localization18GetHistPoseAtIndexEtRNS_8Embedded6Pose2dE
    localization.o(.ARM.exidx) refers to localization.o(i._ZN4Anki5Cozmo12Localization17GetHistPoseAtTimeEjRNS_8Embedded6Pose2dE) for i._ZN4Anki5Cozmo12Localization17GetHistPoseAtTimeEjRNS_8Embedded6Pose2dE
    localization.o(.ARM.exidx) refers to localization.o(i._ZN4Anki5Cozmo12Localization4InitEv) for i._ZN4Anki5Cozmo12Localization4InitEv
    localization.o(.ARM.exidx) refers to localization.o(i._ZN4Anki5Cozmo12Localization28SendRampTraverseStartMessageEv) for i._ZN4Anki5Cozmo12Localization28SendRampTraverseStartMessageEv
    localization.o(.ARM.exidx) refers to localization.o(i._ZN4Anki5Cozmo12Localization24SendRampTraverseCompleteEb) for i._ZN4Anki5Cozmo12Localization24SendRampTraverseCompleteEb
    localization.o(.ARM.exidx) refers to localization.o(i._ZN4Anki5Cozmo12Localization9SetOnRampEb) for i._ZN4Anki5Cozmo12Localization9SetOnRampEb
    localization.o(.ARM.exidx) refers to localization.o(i._ZN4Anki5Cozmo12Localization8IsOnRampEv) for i._ZN4Anki5Cozmo12Localization8IsOnRampEv
    localization.o(.ARM.exidx) refers to localization.o(i._ZN4Anki5Cozmo12Localization11SetOnBridgeEb) for i._ZN4Anki5Cozmo12Localization11SetOnBridgeEb
    localization.o(.ARM.exidx) refers to localization.o(i._ZN4Anki5Cozmo12Localization10IsOnBridgeEv) for i._ZN4Anki5Cozmo12Localization10IsOnBridgeEv
    localization.o(.ARM.exidx) refers to localization.o(i._ZN4Anki5Cozmo12Localization20SetDriveCenterOffsetEf) for i._ZN4Anki5Cozmo12Localization20SetDriveCenterOffsetEf
    localization.o(.ARM.exidx) refers to localization.o(i._ZN4Anki5Cozmo12Localization6UpdateEv) for i._ZN4Anki5Cozmo12Localization6UpdateEv
    localization.o(.ARM.exidx) refers to localization.o(i._ZN4Anki5Cozmo12Localization18SetDriveCenterPoseERKfS3_RKNS_7RadiansE) for i._ZN4Anki5Cozmo12Localization18SetDriveCenterPoseERKfS3_RKNS_7RadiansE
    localization.o(.ARM.exidx) refers to localization.o(i._ZN4Anki5Cozmo12Localization17GetCurrentMatPoseERfS2_RNS_7RadiansE) for i._ZN4Anki5Cozmo12Localization17GetCurrentMatPoseERfS2_RNS_7RadiansE
    localization.o(.ARM.exidx) refers to localization.o(i._ZN4Anki5Cozmo12Localization13GetCurrPose_xEv) for i._ZN4Anki5Cozmo12Localization13GetCurrPose_xEv
    localization.o(.ARM.exidx) refers to localization.o(i._ZN4Anki5Cozmo12Localization13GetCurrPose_yEv) for i._ZN4Anki5Cozmo12Localization13GetCurrPose_yEv
    localization.o(.ARM.exidx) refers to localization.o(i._ZN4Anki5Cozmo12Localization17GetCurrPose_angleEv) for i._ZN4Anki5Cozmo12Localization17GetCurrPose_angleEv
    localization.o(.ARM.exidx) refers to localization.o(i._ZN4Anki5Cozmo12Localization11GetCurrPoseEv) for i._ZN4Anki5Cozmo12Localization11GetCurrPoseEv
    localization.o(.ARM.exidx) refers to localization.o(i._ZN4Anki5Cozmo12Localization18GetDriveCenterPoseERfS2_RNS_7RadiansE) for i._ZN4Anki5Cozmo12Localization18GetDriveCenterPoseERfS2_RNS_7RadiansE
    localization.o(.ARM.exidx) refers to localization.o(i._ZN4Anki5Cozmo12Localization24ConvertToDriveCenterPoseERKNS_8Embedded6Pose2dERS3_) for i._ZN4Anki5Cozmo12Localization24ConvertToDriveCenterPoseERKNS_8Embedded6Pose2dERS3_
    localization.o(.ARM.exidx) refers to localization.o(i._ZN4Anki5Cozmo12Localization19ConvertToOriginPoseERKNS_8Embedded6Pose2dERS3_) for i._ZN4Anki5Cozmo12Localization19ConvertToOriginPoseERKNS_8Embedded6Pose2dERS3_
    localization.o(.ARM.exidx) refers to localization.o(i._ZN4Anki5Cozmo12Localization14GetPoseFrameIdEv) for i._ZN4Anki5Cozmo12Localization14GetPoseFrameIdEv
    localization.o(.ARM.exidx) refers to localization.o(i._ZN4Anki5Cozmo12Localization15GetPoseOriginIdEv) for i._ZN4Anki5Cozmo12Localization15GetPoseOriginIdEv
    localization.o(.ARM.exidx) refers to localization.o(i._ZN4Anki5Cozmo12Localization14ResetPoseFrameEv) for i._ZN4Anki5Cozmo12Localization14ResetPoseFrameEv
    localization.o(.ARM.exidx) refers to localization.o(i._ZN4Anki5Cozmo12Localization9GetDistToEff) for i._ZN4Anki5Cozmo12Localization9GetDistToEff
    localization.o(.ARM.exidx) refers to localization.o(i._ZN4Anki5Cozmo12Localization20SetMotionModelParamsEf) for i._ZN4Anki5Cozmo12Localization20SetMotionModelParamsEf
    localization.o(.ARM.exidx) refers to localization.o(i.__sti___16_localization_cpp) for i.__sti___16_localization_cpp
    localization.o(.init_array) refers to localization.o(i.__sti___16_localization_cpp) for __sti___16_localization_cpp
    localization.o(.init_array) refers to cpp_init.o(.text) for __cpp_initialize__aeabi_
    localization_geometry.o(i._ZN4Anki8Embedded10Rotation2d6InvertEv) refers to radians.o(i._ZN4Anki7RadiansmLEf) for Anki::Radians::operator *=(float)
    localization_geometry.o(i._ZN4Anki8Embedded10Rotation2dC1ENS_7RadiansE) refers to radians.o(i._ZN4Anki7RadiansC1ERKS0_) for Anki::Radians::Radians(const Anki::Radians&)
    localization_geometry.o(i._ZN4Anki8Embedded10Rotation2dC1Ev) refers to radians.o(i._ZN4Anki7RadiansC1Ef) for Anki::Radians::Radians(float)
    localization_geometry.o(i._ZN4Anki8Embedded6Pose2dmlERKS1_) refers to localization_geometry.o(i._ZNK4Anki8Embedded10Rotation2d8GetAngleEv) for Anki::Embedded::Rotation2d::GetAngle() const
    localization_geometry.o(i._ZN4Anki8Embedded6Pose2dmlERKS1_) refers to radians.o(i._ZN4AnkiplERKNS_7RadiansES2_) for Anki::operator +(const Anki::Radians&, const Anki::Radians&)
    localization_geometry.o(i._ZN4Anki8Embedded6Pose2dmlERKS1_) refers to radians.o(i._ZN4Anki7RadiansC1ERKS0_) for Anki::Radians::Radians(const Anki::Radians&)
    localization_geometry.o(i._ZN4Anki8Embedded6Pose2dmlERKS1_) refers to localization_geometry.o(i._ZN4Anki8Embedded10Rotation2dC1ENS_7RadiansE) for Anki::Embedded::Rotation2d::Rotation2d(Anki::Radians)
    localization_geometry.o(i._ZN4Anki8Embedded6Pose2dmlERKS1_) refers to localization_geometry.o(i._ZNK4Anki8Embedded10Rotation2dmlERKNS0_7Point2fE) for Anki::Embedded::Rotation2d::operator *(const Anki::Embedded::Point2f&) const
    localization_geometry.o(i._ZN4Anki8Embedded6Pose2dmlERKS1_) refers to localization_geometry.o(i._ZN4Anki8Embedded7Point2fpLERKS1_) for Anki::Embedded::Point2f::operator +=(const Anki::Embedded::Point2f&)
    localization_geometry.o(i._ZN4Anki8Embedded6Pose2dmlERKS1_) refers to localization_geometry.o(i._ZN4Anki8Embedded7Point2fC1ERKS1_) for Anki::Embedded::Point2f::Point2f(const Anki::Embedded::Point2f&)
    localization_geometry.o(i._ZN4Anki8Embedded6Pose2dmlERKS1_) refers to localization_geometry.o(i._ZN4Anki8Embedded6Pose2dC1ENS0_7Point2fENS0_10Rotation2dE) for Anki::Embedded::Pose2d::Pose2d(Anki::Embedded::Point2f, Anki::Embedded::Rotation2d)
    localization_geometry.o(i._ZNK4Anki8Embedded10Rotation2d10GetInverseEv) refers to radians.o(i._ZN4Anki7RadiansC1ERKS0_) for Anki::Radians::Radians(const Anki::Radians&)
    localization_geometry.o(i._ZNK4Anki8Embedded10Rotation2d10GetInverseEv) refers to localization_geometry.o(i._ZN4Anki8Embedded10Rotation2d6InvertEv) for Anki::Embedded::Rotation2d::Invert()
    localization_geometry.o(i._ZNK4Anki8Embedded10Rotation2d8GetAngleEv) refers to radians.o(i._ZN4Anki7RadiansC1ERKS0_) for Anki::Radians::Radians(const Anki::Radians&)
    localization_geometry.o(i._ZNK4Anki8Embedded10Rotation2dmlERKNS0_7Point2fE) refers to cosf.o(i.__hardfp_cosf) for __hardfp_cosf
    localization_geometry.o(i._ZNK4Anki8Embedded10Rotation2dmlERKNS0_7Point2fE) refers to sinf.o(i.__hardfp_sinf) for __hardfp_sinf
    localization_geometry.o(i._ZNK4Anki8Embedded10Rotation2dmlERKNS0_7Point2fE) refers to localization_geometry.o(i._ZN4Anki8Embedded7Point2fC1Ev) for Anki::Embedded::Point2f::Point2f()
    localization_geometry.o(i._ZNK4Anki8Embedded10Rotation2dmlERKS1_) refers to radians.o(i._ZN4AnkiplERKNS_7RadiansES2_) for Anki::operator +(const Anki::Radians&, const Anki::Radians&)
    localization_geometry.o(i._ZNK4Anki8Embedded10Rotation2dmlERKS1_) refers to localization_geometry.o(i._ZN4Anki8Embedded10Rotation2dC1ENS_7RadiansE) for Anki::Embedded::Rotation2d::Rotation2d(Anki::Radians)
    localization_geometry.o(i._ZNK4Anki8Embedded6Pose2d16GetWithRespectToERKS1_) refers to localization_geometry.o(i._ZNK4Anki8Embedded10Rotation2d10GetInverseEv) for Anki::Embedded::Rotation2d::GetInverse() const
    localization_geometry.o(i._ZNK4Anki8Embedded6Pose2d16GetWithRespectToERKS1_) refers to localization_geometry.o(i._ZNK4Anki8Embedded10Rotation2dmlERKS1_) for Anki::Embedded::Rotation2d::operator *(const Anki::Embedded::Rotation2d&) const
    localization_geometry.o(i._ZNK4Anki8Embedded6Pose2d16GetWithRespectToERKS1_) refers to localization_geometry.o(i._ZNK4Anki8Embedded7Point2fmiERKS1_) for Anki::Embedded::Point2f::operator -(const Anki::Embedded::Point2f&) const
    localization_geometry.o(i._ZNK4Anki8Embedded6Pose2d16GetWithRespectToERKS1_) refers to localization_geometry.o(i._ZNK4Anki8Embedded10Rotation2dmlERKNS0_7Point2fE) for Anki::Embedded::Rotation2d::operator *(const Anki::Embedded::Point2f&) const
    localization_geometry.o(i._ZNK4Anki8Embedded6Pose2d16GetWithRespectToERKS1_) refers to localization_geometry.o(i._ZN4Anki8Embedded6Pose2dC1ENS0_7Point2fENS0_10Rotation2dE) for Anki::Embedded::Pose2d::Pose2d(Anki::Embedded::Point2f, Anki::Embedded::Rotation2d)
    localization_geometry.o(i._ZNK4Anki8Embedded7Point2f4DistERKS1_) refers to sqrtf.o(i.__hardfp_sqrtf) for __hardfp_sqrtf
    localization_geometry.o(i._ZNK4Anki8Embedded7Point2f6LengthEv) refers to sqrtf.o(i.__hardfp_sqrtf) for __hardfp_sqrtf
    localization_geometry.o(i._ZNK4Anki8Embedded7Point2fmiERKS1_) refers to localization_geometry.o(i._ZN4Anki8Embedded7Point2fC1Eff) for Anki::Embedded::Point2f::Point2f(float, float)
    localization_geometry.o(i._ZNK4Anki8Embedded7Point2fplERKS1_) refers to localization_geometry.o(i._ZN4Anki8Embedded7Point2fC1Eff) for Anki::Embedded::Point2f::Point2f(float, float)
    localization_geometry.o(.ARM.exidx) refers to localization_geometry.o(i._ZN4Anki8Embedded7Point2fC1Ev) for i._ZN4Anki8Embedded7Point2fC1Ev
    localization_geometry.o(.ARM.exidx) refers to localization_geometry.o(i._ZN4Anki8Embedded7Point2fC1Eff) for i._ZN4Anki8Embedded7Point2fC1Eff
    localization_geometry.o(.ARM.exidx) refers to localization_geometry.o(i._ZN4Anki8Embedded7Point2fC1ERKS1_) for i._ZN4Anki8Embedded7Point2fC1ERKS1_
    localization_geometry.o(.ARM.exidx) refers to localization_geometry.o(i._ZNK4Anki8Embedded7Point2feqERKS1_) for i._ZNK4Anki8Embedded7Point2feqERKS1_
    localization_geometry.o(.ARM.exidx) refers to localization_geometry.o(i._ZNK4Anki8Embedded7Point2fplERKS1_) for i._ZNK4Anki8Embedded7Point2fplERKS1_
    localization_geometry.o(.ARM.exidx) refers to localization_geometry.o(i._ZNK4Anki8Embedded7Point2fmiERKS1_) for i._ZNK4Anki8Embedded7Point2fmiERKS1_
    localization_geometry.o(.ARM.exidx) refers to localization_geometry.o(i._ZN4Anki8Embedded7Point2fmLEf) for i._ZN4Anki8Embedded7Point2fmLEf
    localization_geometry.o(.ARM.exidx) refers to localization_geometry.o(i._ZN4Anki8Embedded7Point2fdVEf) for i._ZN4Anki8Embedded7Point2fdVEf
    localization_geometry.o(.ARM.exidx) refers to localization_geometry.o(i._ZN4Anki8Embedded7Point2fpLERKS1_) for i._ZN4Anki8Embedded7Point2fpLERKS1_
    localization_geometry.o(.ARM.exidx) refers to localization_geometry.o(i._ZN4Anki8Embedded7Point2fmIERKS1_) for i._ZN4Anki8Embedded7Point2fmIERKS1_
    localization_geometry.o(.ARM.exidx) refers to localization_geometry.o(i._ZN4Anki8Embedded7Point2faSERKS1_) for i._ZN4Anki8Embedded7Point2faSERKS1_
    localization_geometry.o(.ARM.exidx) refers to localization_geometry.o(i._ZNK4Anki8Embedded7Point2f4DistERKS1_) for i._ZNK4Anki8Embedded7Point2f4DistERKS1_
    localization_geometry.o(.ARM.exidx) refers to localization_geometry.o(i._ZNK4Anki8Embedded7Point2f6LengthEv) for i._ZNK4Anki8Embedded7Point2f6LengthEv
    localization_geometry.o(.ARM.exidx) refers to localization_geometry.o(i._ZN4Anki8Embedded10Rotation2dC1Ev) for i._ZN4Anki8Embedded10Rotation2dC1Ev
    localization_geometry.o(.ARM.exidx) refers to localization_geometry.o(i._ZN4Anki8Embedded10Rotation2dC1ENS_7RadiansE) for i._ZN4Anki8Embedded10Rotation2dC1ENS_7RadiansE
    localization_geometry.o(.ARM.exidx) refers to localization_geometry.o(i._ZNK4Anki8Embedded10Rotation2dmlERKS1_) for i._ZNK4Anki8Embedded10Rotation2dmlERKS1_
    localization_geometry.o(.ARM.exidx) refers to localization_geometry.o(i._ZNK4Anki8Embedded10Rotation2dmlERKNS0_7Point2fE) for i._ZNK4Anki8Embedded10Rotation2dmlERKNS0_7Point2fE
    localization_geometry.o(.ARM.exidx) refers to localization_geometry.o(i._ZNK4Anki8Embedded10Rotation2d8GetAngleEv) for i._ZNK4Anki8Embedded10Rotation2d8GetAngleEv
    localization_geometry.o(.ARM.exidx) refers to localization_geometry.o(i._ZN4Anki8Embedded10Rotation2d6InvertEv) for i._ZN4Anki8Embedded10Rotation2d6InvertEv
    localization_geometry.o(.ARM.exidx) refers to localization_geometry.o(i._ZNK4Anki8Embedded10Rotation2d10GetInverseEv) for i._ZNK4Anki8Embedded10Rotation2d10GetInverseEv
    localization_geometry.o(.ARM.exidx) refers to localization_geometry.o(i._ZN4Anki8Embedded6Pose2dmlERKS1_) for i._ZN4Anki8Embedded6Pose2dmlERKS1_
    localization_geometry.o(.ARM.exidx) refers to localization_geometry.o(i._ZNK4Anki8Embedded6Pose2d16GetWithRespectToERKS1_) for i._ZNK4Anki8Embedded6Pose2d16GetWithRespectToERKS1_
    path.o(i._ZN4Anki8Planning11GetArcAngleEffffffb) refers to trig_fast.o(i._Z9atan2_accff) for atan2_acc(float, float)
    path.o(i._ZN4Anki8Planning11PathSegment10DefineLineEfffffff) refers to trig_fast.o(i._Z9atan2_accff) for atan2_acc(float, float)
    path.o(i._ZN4Anki8Planning11PathSegment10DefineLineEfffffff) refers to radians.o(i._ZN4Anki7RadiansC1Ef) for Anki::Radians::Radians(float)
    path.o(i._ZN4Anki8Planning11PathSegment10DefineLineEfffffff) refers to path.o(i._ZN4Anki8Planning11PathSegment15SetSpeedProfileEfff) for Anki::Planning::PathSegment::SetSpeedProfile(float, float, float)
    path.o(i._ZN4Anki8Planning11PathSegment11OffsetStartEff) refers to messages.o(i._ZN4Anki5Cozmo14RobotInterface7SendLogEatthz) for Anki::Cozmo::RobotInterface::SendLog(signed char, unsigned short, unsigned short, unsigned char, ...)
    path.o(i._ZN4Anki8Planning11PathSegment11OffsetStartEff) refers to lights.o(i._ZN4Anki5Cozmo3HAL6SetLEDEht) for Anki::Cozmo::HAL::SetLED(unsigned char, unsigned short)
    path.o(i._ZN4Anki8Planning11PathSegment15DefinePointTurnEfffffffb) refers to path.o(i._ZN4Anki8Planning11PathSegment15SetSpeedProfileEfff) for Anki::Planning::PathSegment::SetSpeedProfile(float, float, float)
    path.o(i._ZN4Anki8Planning11PathSegment9DefineArcEffffffff) refers to radians.o(i._ZN4Anki7RadiansC1Ef) for Anki::Radians::Radians(float)
    path.o(i._ZN4Anki8Planning11PathSegment9DefineArcEffffffff) refers to path.o(i._ZN4Anki8Planning11PathSegment15SetSpeedProfileEfff) for Anki::Planning::PathSegment::SetSpeedProfile(float, float, float)
    path.o(i._ZN4Anki8Planning16GenerateCSCCurveEfffffffffffNS0_14DubinsPathTypeEPNS0_11PathSegmentERf) refers to messages.o(i._ZN4Anki5Cozmo14RobotInterface7SendLogEatthz) for Anki::Cozmo::RobotInterface::SendLog(signed char, unsigned short, unsigned short, unsigned char, ...)
    path.o(i._ZN4Anki8Planning16GenerateCSCCurveEfffffffffffNS0_14DubinsPathTypeEPNS0_11PathSegmentERf) refers to lights.o(i._ZN4Anki5Cozmo3HAL6SetLEDEht) for Anki::Cozmo::HAL::SetLED(unsigned char, unsigned short)
    path.o(i._ZN4Anki8Planning16GenerateCSCCurveEfffffffffffNS0_14DubinsPathTypeEPNS0_11PathSegmentERf) refers to sinf.o(i.__hardfp_sinf) for __hardfp_sinf
    path.o(i._ZN4Anki8Planning16GenerateCSCCurveEfffffffffffNS0_14DubinsPathTypeEPNS0_11PathSegmentERf) refers to cosf.o(i.__hardfp_cosf) for __hardfp_cosf
    path.o(i._ZN4Anki8Planning16GenerateCSCCurveEfffffffffffNS0_14DubinsPathTypeEPNS0_11PathSegmentERf) refers to sqrtf.o(i.__hardfp_sqrtf) for __hardfp_sqrtf
    path.o(i._ZN4Anki8Planning16GenerateCSCCurveEfffffffffffNS0_14DubinsPathTypeEPNS0_11PathSegmentERf) refers to path.o(i._ZN4Anki8Planning11GetArcAngleEffffffb) for Anki::Planning::GetArcAngle(float, float, float, float, float, float, bool)
    path.o(i._ZN4Anki8Planning16GenerateCSCCurveEfffffffffffNS0_14DubinsPathTypeEPNS0_11PathSegmentERf) refers to trig_fast.o(i._Z9atan2_accff) for atan2_acc(float, float)
    path.o(i._ZN4Anki8Planning16GenerateCSCCurveEfffffffffffNS0_14DubinsPathTypeEPNS0_11PathSegmentERf) refers to path.o(i._ZN4Anki8Planning11PathSegment9DefineArcEffffffff) for Anki::Planning::PathSegment::DefineArc(float, float, float, float, float, float, float, float)
    path.o(i._ZN4Anki8Planning16GenerateCSCCurveEfffffffffffNS0_14DubinsPathTypeEPNS0_11PathSegmentERf) refers to path.o(i._ZNK4Anki8Planning11PathSegment9GetLengthEv) for Anki::Planning::PathSegment::GetLength() const
    path.o(i._ZN4Anki8Planning16GenerateCSCCurveEfffffffffffNS0_14DubinsPathTypeEPNS0_11PathSegmentERf) refers to path.o(i._ZN4Anki8Planning11PathSegment10DefineLineEfffffff) for Anki::Planning::PathSegment::DefineLine(float, float, float, float, float, float, float)
    path.o(i._ZN4Anki8Planning18GenerateDubinsPathERNS0_4PathEffffffffffffPf) refers to main.o(i.__aeabi_vec_ctor_nocookie_nodtor) for __aeabi_vec_ctor_nocookie_nodtor
    path.o(i._ZN4Anki8Planning18GenerateDubinsPathERNS0_4PathEffffffffffffPf) refers to cosf.o(i.__hardfp_cosf) for __hardfp_cosf
    path.o(i._ZN4Anki8Planning18GenerateDubinsPathERNS0_4PathEffffffffffffPf) refers to sinf.o(i.__hardfp_sinf) for __hardfp_sinf
    path.o(i._ZN4Anki8Planning18GenerateDubinsPathERNS0_4PathEffffffffffffPf) refers to path.o(i._ZN4Anki8Planning16GenerateCSCCurveEfffffffffffNS0_14DubinsPathTypeEPNS0_11PathSegmentERf) for Anki::Planning::GenerateCSCCurve(float, float, float, float, float, float, float, float, float, float, float, Anki::Planning::DubinsPathType, Anki::Planning::PathSegment*, float&)
    path.o(i._ZN4Anki8Planning18GenerateDubinsPathERNS0_4PathEffffffffffffPf) refers to messages.o(i._ZN4Anki5Cozmo14RobotInterface7SendLogEatthz) for Anki::Cozmo::RobotInterface::SendLog(signed char, unsigned short, unsigned short, unsigned char, ...)
    path.o(i._ZN4Anki8Planning18GenerateDubinsPathERNS0_4PathEffffffffffffPf) refers to lights.o(i._ZN4Anki5Cozmo3HAL6SetLEDEht) for Anki::Cozmo::HAL::SetLED(unsigned char, unsigned short)
    path.o(i._ZN4Anki8Planning18GenerateDubinsPathERNS0_4PathEffffffffffffPf) refers to path.o(i._ZN4Anki8Planning4Path10AppendLineEjfffffff) for Anki::Planning::Path::AppendLine(unsigned, float, float, float, float, float, float, float)
    path.o(i._ZN4Anki8Planning18GenerateDubinsPathERNS0_4PathEffffffffffffPf) refers to path.o(i._ZN4Anki8Planning4Path9AppendArcEjffffffff) for Anki::Planning::Path::AppendArc(unsigned, float, float, float, float, float, float, float, float)
    path.o(i._ZN4Anki8Planning18GenerateDubinsPathERNS0_4PathEffffffffffffPf) refers to path.o(i._ZN4Anki8Planning11PathSegmentC1Ev) for Anki::Planning::PathSegment::PathSegment()
    path.o(i._ZN4Anki8Planning4Path10AppendLineEjfffffff) refers to messages.o(i._ZN4Anki5Cozmo14RobotInterface7SendLogEatthz) for Anki::Cozmo::RobotInterface::SendLog(signed char, unsigned short, unsigned short, unsigned char, ...)
    path.o(i._ZN4Anki8Planning4Path10AppendLineEjfffffff) refers to lights.o(i._ZN4Anki5Cozmo3HAL6SetLEDEht) for Anki::Cozmo::HAL::SetLED(unsigned char, unsigned short)
    path.o(i._ZN4Anki8Planning4Path10AppendLineEjfffffff) refers to path.o(i._ZN4Anki8Planning11PathSegment10DefineLineEfffffff) for Anki::Planning::PathSegment::DefineLine(float, float, float, float, float, float, float)
    path.o(i._ZN4Anki8Planning4Path13AppendSegmentERKNS0_11PathSegmentE) refers to messages.o(i._ZN4Anki5Cozmo14RobotInterface7SendLogEatthz) for Anki::Cozmo::RobotInterface::SendLog(signed char, unsigned short, unsigned short, unsigned char, ...)
    path.o(i._ZN4Anki8Planning4Path13AppendSegmentERKNS0_11PathSegmentE) refers to lights.o(i._ZN4Anki5Cozmo3HAL6SetLEDEht) for Anki::Cozmo::HAL::SetLED(unsigned char, unsigned short)
    path.o(i._ZN4Anki8Planning4Path13AppendSegmentERKNS0_11PathSegmentE) refers to memcpya.o(.text) for __aeabi_memcpy4
    path.o(i._ZN4Anki8Planning4Path15AppendPointTurnEjfffffffb) refers to messages.o(i._ZN4Anki5Cozmo14RobotInterface7SendLogEatthz) for Anki::Cozmo::RobotInterface::SendLog(signed char, unsigned short, unsigned short, unsigned char, ...)
    path.o(i._ZN4Anki8Planning4Path15AppendPointTurnEjfffffffb) refers to lights.o(i._ZN4Anki5Cozmo3HAL6SetLEDEht) for Anki::Cozmo::HAL::SetLED(unsigned char, unsigned short)
    path.o(i._ZN4Anki8Planning4Path15AppendPointTurnEjfffffffb) refers to path.o(i._ZN4Anki8Planning11PathSegment15DefinePointTurnEfffffffb) for Anki::Planning::PathSegment::DefinePointTurn(float, float, float, float, float, float, float, bool)
    path.o(i._ZN4Anki8Planning4Path5ClearEv) refers to messages.o(i._ZN4Anki5Cozmo14RobotInterface7SendLogEatthz) for Anki::Cozmo::RobotInterface::SendLog(signed char, unsigned short, unsigned short, unsigned char, ...)
    path.o(i._ZN4Anki8Planning4Path5ClearEv) refers to lights.o(i._ZN4Anki5Cozmo3HAL6SetLEDEht) for Anki::Cozmo::HAL::SetLED(unsigned char, unsigned short)
    path.o(i._ZN4Anki8Planning4Path6AddArcEffffffff) refers to messages.o(i._ZN4Anki5Cozmo14RobotInterface7SendLogEatthz) for Anki::Cozmo::RobotInterface::SendLog(signed char, unsigned short, unsigned short, unsigned char, ...)
    path.o(i._ZN4Anki8Planning4Path6AddArcEffffffff) refers to lights.o(i._ZN4Anki5Cozmo3HAL6SetLEDEht) for Anki::Cozmo::HAL::SetLED(unsigned char, unsigned short)
    path.o(i._ZN4Anki8Planning4Path6AddArcEffffffff) refers to path.o(i._ZN4Anki8Planning11PathSegment9DefineArcEffffffff) for Anki::Planning::PathSegment::DefineArc(float, float, float, float, float, float, float, float)
    path.o(i._ZN4Anki8Planning4Path7PopBackEh) refers to messages.o(i._ZN4Anki5Cozmo14RobotInterface7SendLogEatthz) for Anki::Cozmo::RobotInterface::SendLog(signed char, unsigned short, unsigned short, unsigned char, ...)
    path.o(i._ZN4Anki8Planning4Path7PopBackEh) refers to lights.o(i._ZN4Anki5Cozmo3HAL6SetLEDEht) for Anki::Cozmo::HAL::SetLED(unsigned char, unsigned short)
    path.o(i._ZN4Anki8Planning4Path8PopFrontEh) refers to messages.o(i._ZN4Anki5Cozmo14RobotInterface7SendLogEatthz) for Anki::Cozmo::RobotInterface::SendLog(signed char, unsigned short, unsigned short, unsigned char, ...)
    path.o(i._ZN4Anki8Planning4Path8PopFrontEh) refers to lights.o(i._ZN4Anki5Cozmo3HAL6SetLEDEht) for Anki::Cozmo::HAL::SetLED(unsigned char, unsigned short)
    path.o(i._ZN4Anki8Planning4Path8PopFrontEh) refers to memcpya.o(.text) for __aeabi_memcpy4
    path.o(i._ZN4Anki8Planning4Path9AppendArcEjffffffff) refers to messages.o(i._ZN4Anki5Cozmo14RobotInterface7SendLogEatthz) for Anki::Cozmo::RobotInterface::SendLog(signed char, unsigned short, unsigned short, unsigned char, ...)
    path.o(i._ZN4Anki8Planning4Path9AppendArcEjffffffff) refers to lights.o(i._ZN4Anki5Cozmo3HAL6SetLEDEht) for Anki::Cozmo::HAL::SetLED(unsigned char, unsigned short)
    path.o(i._ZN4Anki8Planning4Path9AppendArcEjffffffff) refers to radians.o(i._ZN4Anki7RadiansC1Ef) for Anki::Radians::Radians(float)
    path.o(i._ZN4Anki8Planning4Path9AppendArcEjffffffff) refers to radians.o(i._ZN4Anki7RadiansC1ERKS0_) for Anki::Radians::Radians(const Anki::Radians&)
    path.o(i._ZN4Anki8Planning4Path9AppendArcEjffffffff) refers to radians.o(i._ZN4AnkigeERKNS_7RadiansES2_) for Anki::operator >=(const Anki::Radians&, const Anki::Radians&)
    path.o(i._ZN4Anki8Planning4Path9AppendArcEjffffffff) refers to radians.o(i._ZN4AnkineERKNS_7RadiansES2_) for Anki::operator !=(const Anki::Radians&, const Anki::Radians&)
    path.o(i._ZN4Anki8Planning4Path9AppendArcEjffffffff) refers to radians.o(i._ZN4AnkiltERKNS_7RadiansES2_) for Anki::operator <(const Anki::Radians&, const Anki::Radians&)
    path.o(i._ZN4Anki8Planning4Path9AppendArcEjffffffff) refers to radians.o(i._ZN4AnkimiERKNS_7RadiansES2_) for Anki::operator -(const Anki::Radians&, const Anki::Radians&)
    path.o(i._ZN4Anki8Planning4Path9AppendArcEjffffffff) refers to path.o(i._ZN4Anki8Planning4Path6AddArcEffffffff) for Anki::Planning::Path::AddArc(float, float, float, float, float, float, float, float)
    path.o(i._ZN4Anki8Planning4Path9AppendArcEjffffffff) refers to radians.o(i._ZN4Anki7RadiansaSERKS0_) for Anki::Radians::operator =(const Anki::Radians&)
    path.o(i._ZN4Anki8Planning4Path9AppendArcEjffffffff) refers to radians.o(i._ZN4AnkieqERKNS_7RadiansES2_) for Anki::operator ==(const Anki::Radians&, const Anki::Radians&)
    path.o(i._ZN4Anki8Planning4PathC1ERKS1_) refers to main.o(i.__aeabi_vec_ctor_nocookie_nodtor) for __aeabi_vec_ctor_nocookie_nodtor
    path.o(i._ZN4Anki8Planning4PathC1ERKS1_) refers to path.o(i._ZN4Anki8Planning4Path5ClearEv) for Anki::Planning::Path::Clear()
    path.o(i._ZN4Anki8Planning4PathC1ERKS1_) refers to path.o(i._ZN4Anki8Planning4PathaSERKS1_) for Anki::Planning::Path::operator =(const Anki::Planning::Path&)
    path.o(i._ZN4Anki8Planning4PathC1ERKS1_) refers to path.o(i._ZN4Anki8Planning11PathSegmentC1Ev) for Anki::Planning::PathSegment::PathSegment()
    path.o(i._ZN4Anki8Planning4PathC1Ev) refers to main.o(i.__aeabi_vec_ctor_nocookie_nodtor) for __aeabi_vec_ctor_nocookie_nodtor
    path.o(i._ZN4Anki8Planning4PathC1Ev) refers to path.o(i._ZN4Anki8Planning4Path5ClearEv) for Anki::Planning::Path::Clear()
    path.o(i._ZN4Anki8Planning4PathC1Ev) refers to path.o(i._ZN4Anki8Planning11PathSegmentC1Ev) for Anki::Planning::PathSegment::PathSegment()
    path.o(i._ZN4Anki8Planning4PathaSERKS1_) refers to messages.o(i._ZN4Anki5Cozmo14RobotInterface7SendLogEatthz) for Anki::Cozmo::RobotInterface::SendLog(signed char, unsigned short, unsigned short, unsigned char, ...)
    path.o(i._ZN4Anki8Planning4PathaSERKS1_) refers to lights.o(i._ZN4Anki5Cozmo3HAL6SetLEDEht) for Anki::Cozmo::HAL::SetLED(unsigned char, unsigned short)
    path.o(i._ZN4Anki8Planning4PathaSERKS1_) refers to memcpya.o(.text) for __aeabi_memcpy4
    path.o(i._ZNK4Anki8Planning11PathSegment10GetEndPoseERfS2_S2_) refers to messages.o(i._ZN4Anki5Cozmo14RobotInterface7SendLogEatthz) for Anki::Cozmo::RobotInterface::SendLog(signed char, unsigned short, unsigned short, unsigned char, ...)
    path.o(i._ZNK4Anki8Planning11PathSegment10GetEndPoseERfS2_S2_) refers to lights.o(i._ZN4Anki5Cozmo3HAL6SetLEDEht) for Anki::Cozmo::HAL::SetLED(unsigned char, unsigned short)
    path.o(i._ZNK4Anki8Planning11PathSegment10GetEndPoseERfS2_S2_) refers to cosf.o(i.__hardfp_cosf) for __hardfp_cosf
    path.o(i._ZNK4Anki8Planning11PathSegment10GetEndPoseERfS2_S2_) refers to sinf.o(i.__hardfp_sinf) for __hardfp_sinf
    path.o(i._ZNK4Anki8Planning11PathSegment13GetStartPointERfS2_) refers to messages.o(i._ZN4Anki5Cozmo14RobotInterface7SendLogEatthz) for Anki::Cozmo::RobotInterface::SendLog(signed char, unsigned short, unsigned short, unsigned char, ...)
    path.o(i._ZNK4Anki8Planning11PathSegment13GetStartPointERfS2_) refers to lights.o(i._ZN4Anki5Cozmo3HAL6SetLEDEht) for Anki::Cozmo::HAL::SetLED(unsigned char, unsigned short)
    path.o(i._ZNK4Anki8Planning11PathSegment13GetStartPointERfS2_) refers to cosf.o(i.__hardfp_cosf) for __hardfp_cosf
    path.o(i._ZNK4Anki8Planning11PathSegment13GetStartPointERfS2_) refers to sinf.o(i.__hardfp_sinf) for __hardfp_sinf
    path.o(i._ZNK4Anki8Planning11PathSegment16GetDistToSegmentEfffRfS2_Pf) refers to messages.o(i._ZN4Anki5Cozmo14RobotInterface7SendLogEatthz) for Anki::Cozmo::RobotInterface::SendLog(signed char, unsigned short, unsigned short, unsigned char, ...)
    path.o(i._ZNK4Anki8Planning11PathSegment16GetDistToSegmentEfffRfS2_Pf) refers to lights.o(i._ZN4Anki5Cozmo3HAL6SetLEDEht) for Anki::Cozmo::HAL::SetLED(unsigned char, unsigned short)
    path.o(i._ZNK4Anki8Planning11PathSegment16GetDistToSegmentEfffRfS2_Pf) refers to path.o(i._ZNK4Anki8Planning11PathSegment20GetDistToLineSegmentEfffRfS2_Pf) for Anki::Planning::PathSegment::GetDistToLineSegment(float, float, float, float&, float&, float*) const
    path.o(i._ZNK4Anki8Planning11PathSegment16GetDistToSegmentEfffRfS2_Pf) refers to path.o(i._ZNK4Anki8Planning11PathSegment19GetDistToArcSegmentEfffRfS2_Pf) for Anki::Planning::PathSegment::GetDistToArcSegment(float, float, float, float&, float&, float*) const
    path.o(i._ZNK4Anki8Planning11PathSegment16GetDistToSegmentEfffRfS2_Pf) refers to path.o(i._ZNK4Anki8Planning11PathSegment25GetDistToPointTurnSegmentEfffRfS2_) for Anki::Planning::PathSegment::GetDistToPointTurnSegment(float, float, float, float&, float&) const
    path.o(i._ZNK4Anki8Planning11PathSegment19GetDistToArcSegmentEfffRfS2_Pf) refers to radians.o(i._ZN4Anki7RadiansC1Ef) for Anki::Radians::Radians(float)
    path.o(i._ZNK4Anki8Planning11PathSegment19GetDistToArcSegmentEfffRfS2_Pf) refers to trig_fast.o(i._Z10atan2_fastff) for atan2_fast(float, float)
    path.o(i._ZNK4Anki8Planning11PathSegment19GetDistToArcSegmentEfffRfS2_Pf) refers to radians.o(i._ZN4AnkiplERKNS_7RadiansES2_) for Anki::operator +(const Anki::Radians&, const Anki::Radians&)
    path.o(i._ZNK4Anki8Planning11PathSegment19GetDistToArcSegmentEfffRfS2_Pf) refers to radians.o(i._ZN4AnkimiERKNS_7RadiansEf) for Anki::operator -(const Anki::Radians&, float)
    path.o(i._ZNK4Anki8Planning11PathSegment19GetDistToArcSegmentEfffRfS2_Pf) refers to sqrtf.o(i.__hardfp_sqrtf) for __hardfp_sqrtf
    path.o(i._ZNK4Anki8Planning11PathSegment19GetDistToArcSegmentEfffRfS2_Pf) refers to path.o(i.__ARM_signbitf) for __ARM_signbitf
    path.o(i._ZNK4Anki8Planning11PathSegment19GetDistToArcSegmentEfffRfS2_Pf) refers to radians.o(i._ZN4AnkimiERKNS_7RadiansES2_) for Anki::operator -(const Anki::Radians&, const Anki::Radians&)
    path.o(i._ZNK4Anki8Planning11PathSegment20GetDistToLineSegmentEfffRfS2_Pf) refers to d2f.o(.text) for __aeabi_d2f
    path.o(i._ZNK4Anki8Planning11PathSegment20GetDistToLineSegmentEfffRfS2_Pf) refers to trig_fast.o(i._Z10atan2_fastff) for atan2_fast(float, float)
    path.o(i._ZNK4Anki8Planning11PathSegment20GetDistToLineSegmentEfffRfS2_Pf) refers to radians.o(i._ZN4Anki7RadiansC1Ef) for Anki::Radians::Radians(float)
    path.o(i._ZNK4Anki8Planning11PathSegment20GetDistToLineSegmentEfffRfS2_Pf) refers to radians.o(i._ZN4AnkimiERKNS_7RadiansEf) for Anki::operator -(const Anki::Radians&, float)
    path.o(i._ZNK4Anki8Planning11PathSegment20GetDistToLineSegmentEfffRfS2_Pf) refers to path.o(i.__ARM_signbitf) for __ARM_signbitf
    path.o(i._ZNK4Anki8Planning11PathSegment20GetDistToLineSegmentEfffRfS2_Pf) refers to f2d.o(.text) for __aeabi_f2d
    path.o(i._ZNK4Anki8Planning11PathSegment20GetDistToLineSegmentEfffRfS2_Pf) refers to ddiv.o(.text) for __aeabi_ddiv
    path.o(i._ZNK4Anki8Planning11PathSegment20GetDistToLineSegmentEfffRfS2_Pf) refers to dadd.o(.text) for __aeabi_dadd
    path.o(i._ZNK4Anki8Planning11PathSegment20GetDistToLineSegmentEfffRfS2_Pf) refers to sqrtf.o(i.__hardfp_sqrtf) for __hardfp_sqrtf
    path.o(i._ZNK4Anki8Planning11PathSegment25GetDistToPointTurnSegmentEfffRfS2_) refers to sqrtf.o(i.__hardfp_sqrtf) for __hardfp_sqrtf
    path.o(i._ZNK4Anki8Planning11PathSegment25GetDistToPointTurnSegmentEfffRfS2_) refers to radians.o(i._ZN4Anki7RadiansC1Ef) for Anki::Radians::Radians(float)
    path.o(i._ZNK4Anki8Planning11PathSegment25GetDistToPointTurnSegmentEfffRfS2_) refers to radians.o(i._ZN4Anki7Radians15angularDistanceERKS0_b) for Anki::Radians::angularDistance(const Anki::Radians&, bool)
    path.o(i._ZNK4Anki8Planning11PathSegment5PrintEv) refers to messages.o(i._Z10trace_castIfEiT_) for trace_cast<float>(T1)
    path.o(i._ZNK4Anki8Planning11PathSegment5PrintEv) refers to messages.o(i._ZN4Anki5Cozmo14RobotInterface7SendLogEatthz) for Anki::Cozmo::RobotInterface::SendLog(signed char, unsigned short, unsigned short, unsigned char, ...)
    path.o(i._ZNK4Anki8Planning11PathSegment9GetLengthEv) refers to messages.o(i._ZN4Anki5Cozmo14RobotInterface7SendLogEatthz) for Anki::Cozmo::RobotInterface::SendLog(signed char, unsigned short, unsigned short, unsigned char, ...)
    path.o(i._ZNK4Anki8Planning11PathSegment9GetLengthEv) refers to lights.o(i._ZN4Anki5Cozmo3HAL6SetLEDEht) for Anki::Cozmo::HAL::SetLED(unsigned char, unsigned short)
    path.o(i._ZNK4Anki8Planning11PathSegment9GetLengthEv) refers to sqrtf.o(i.__hardfp_sqrtf) for __hardfp_sqrtf
    path.o(i._ZNK4Anki8Planning4Path12PrintSegmentEh) refers to messages.o(i._ZN4Anki5Cozmo14RobotInterface7SendLogEatthz) for Anki::Cozmo::RobotInterface::SendLog(signed char, unsigned short, unsigned short, unsigned char, ...)
    path.o(i._ZNK4Anki8Planning4Path12PrintSegmentEh) refers to lights.o(i._ZN4Anki5Cozmo3HAL6SetLEDEht) for Anki::Cozmo::HAL::SetLED(unsigned char, unsigned short)
    path.o(i._ZNK4Anki8Planning4Path12PrintSegmentEh) refers to path.o(i._ZNK4Anki8Planning11PathSegment5PrintEv) for Anki::Planning::PathSegment::Print() const
    path.o(i._ZNK4Anki8Planning4Path15CheckContinuityEfa) refers to messages.o(i._ZN4Anki5Cozmo14RobotInterface7SendLogEatthz) for Anki::Cozmo::RobotInterface::SendLog(signed char, unsigned short, unsigned short, unsigned char, ...)
    path.o(i._ZNK4Anki8Planning4Path15CheckContinuityEfa) refers to lights.o(i._ZN4Anki5Cozmo3HAL6SetLEDEht) for Anki::Cozmo::HAL::SetLED(unsigned char, unsigned short)
    path.o(i._ZNK4Anki8Planning4Path15CheckContinuityEfa) refers to path.o(i._ZNK4Anki8Planning4Path22CheckSegmentContinuityEfa) for Anki::Planning::Path::CheckSegmentContinuity(float, signed char) const
    path.o(i._ZNK4Anki8Planning4Path22CheckSegmentContinuityEfa) refers to messages.o(i._ZN4Anki5Cozmo14RobotInterface7SendLogEatthz) for Anki::Cozmo::RobotInterface::SendLog(signed char, unsigned short, unsigned short, unsigned char, ...)
    path.o(i._ZNK4Anki8Planning4Path22CheckSegmentContinuityEfa) refers to lights.o(i._ZN4Anki5Cozmo3HAL6SetLEDEht) for Anki::Cozmo::HAL::SetLED(unsigned char, unsigned short)
    path.o(i._ZNK4Anki8Planning4Path22CheckSegmentContinuityEfa) refers to path.o(i._ZNK4Anki8Planning11PathSegment13GetStartPointERfS2_) for Anki::Planning::PathSegment::GetStartPoint(float&, float&) const
    path.o(i._ZNK4Anki8Planning4Path22CheckSegmentContinuityEfa) refers to path.o(i._ZNK4Anki8Planning11PathSegment10GetEndPoseERfS2_S2_) for Anki::Planning::PathSegment::GetEndPose(float&, float&, float&) const
    path.o(i._ZNK4Anki8Planning4Path22CheckSegmentContinuityEfa) refers to messages.o(i._Z10trace_castIfEiT_) for trace_cast<float>(T1)
    path.o(i._ZNK4Anki8Planning4Path9PrintPathEv) refers to messages.o(i._ZN4Anki5Cozmo14RobotInterface7SendLogEatthz) for Anki::Cozmo::RobotInterface::SendLog(signed char, unsigned short, unsigned short, unsigned char, ...)
    path.o(i._ZNK4Anki8Planning4Path9PrintPathEv) refers to lights.o(i._ZN4Anki5Cozmo3HAL6SetLEDEht) for Anki::Cozmo::HAL::SetLED(unsigned char, unsigned short)
    path.o(i._ZNK4Anki8Planning4Path9PrintPathEv) refers to path.o(i._ZNK4Anki8Planning4Path12PrintSegmentEh) for Anki::Planning::Path::PrintSegment(unsigned char) const
    path.o(.ARM.exidx) refers to path.o(i._ZN4Anki8Planning11PathSegment15SetSpeedProfileEfff) for i._ZN4Anki8Planning11PathSegment15SetSpeedProfileEfff
    path.o(.ARM.exidx) refers to path.o(i._ZN4Anki8Planning11PathSegment10DefineLineEfffffff) for i._ZN4Anki8Planning11PathSegment10DefineLineEfffffff
    path.o(.ARM.exidx) refers to path.o(i._ZN4Anki8Planning11PathSegment9DefineArcEffffffff) for i._ZN4Anki8Planning11PathSegment9DefineArcEffffffff
    path.o(.ARM.exidx) refers to path.o(i._ZN4Anki8Planning11PathSegment15DefinePointTurnEfffffffb) for i._ZN4Anki8Planning11PathSegment15DefinePointTurnEfffffffb
    path.o(.ARM.exidx) refers to path.o(i._ZN4Anki8Planning11PathSegment11OffsetStartEff) for i._ZN4Anki8Planning11PathSegment11OffsetStartEff
    path.o(.ARM.exidx) refers to path.o(i._ZNK4Anki8Planning11PathSegment9GetLengthEv) for i._ZNK4Anki8Planning11PathSegment9GetLengthEv
    path.o(.ARM.exidx) refers to path.o(i._ZNK4Anki8Planning11PathSegment13GetStartPointERfS2_) for i._ZNK4Anki8Planning11PathSegment13GetStartPointERfS2_
    path.o(.ARM.exidx) refers to path.o(i._ZNK4Anki8Planning11PathSegment10GetEndPoseERfS2_S2_) for i._ZNK4Anki8Planning11PathSegment10GetEndPoseERfS2_S2_
    path.o(.ARM.exidx) refers to path.o(i._ZNK4Anki8Planning11PathSegment5PrintEv) for i._ZNK4Anki8Planning11PathSegment5PrintEv
    path.o(.ARM.exidx) refers to path.o(i._ZNK4Anki8Planning11PathSegment25GetDistToPointTurnSegmentEfffRfS2_) for i._ZNK4Anki8Planning11PathSegment25GetDistToPointTurnSegmentEfffRfS2_
    path.o(.ARM.exidx) refers to path.o(i._ZNK4Anki8Planning11PathSegment19GetDistToArcSegmentEfffRfS2_Pf) for i._ZNK4Anki8Planning11PathSegment19GetDistToArcSegmentEfffRfS2_Pf
    path.o(.ARM.exidx) refers to path.o(i._ZNK4Anki8Planning11PathSegment20GetDistToLineSegmentEfffRfS2_Pf) for i._ZNK4Anki8Planning11PathSegment20GetDistToLineSegmentEfffRfS2_Pf
    path.o(.ARM.exidx) refers to path.o(i._ZNK4Anki8Planning11PathSegment16GetDistToSegmentEfffRfS2_Pf) for i._ZNK4Anki8Planning11PathSegment16GetDistToSegmentEfffRfS2_Pf
    path.o(.ARM.exidx) refers to path.o(i._ZN4Anki8Planning4Path5ClearEv) for i._ZN4Anki8Planning4Path5ClearEv
    path.o(.ARM.exidx) refers to path.o(i._ZN4Anki8Planning4PathC1Ev) for i._ZN4Anki8Planning4PathC1Ev
    path.o(.ARM.exidx) refers to path.o(i._ZN4Anki8Planning4PathaSERKS1_) for i._ZN4Anki8Planning4PathaSERKS1_
    path.o(.ARM.exidx) refers to path.o(i._ZN4Anki8Planning4PathC1ERKS1_) for i._ZN4Anki8Planning4PathC1ERKS1_
    path.o(.ARM.exidx) refers to path.o(i._ZNK4Anki8Planning4Path12PrintSegmentEh) for i._ZNK4Anki8Planning4Path12PrintSegmentEh
    path.o(.ARM.exidx) refers to path.o(i._ZNK4Anki8Planning4Path9PrintPathEv) for i._ZNK4Anki8Planning4Path9PrintPathEv
    path.o(.ARM.exidx) refers to path.o(i._ZN4Anki8Planning4Path10AppendLineEjfffffff) for i._ZN4Anki8Planning4Path10AppendLineEjfffffff
    path.o(.ARM.exidx) refers to path.o(i._ZN4Anki8Planning4Path6AddArcEffffffff) for i._ZN4Anki8Planning4Path6AddArcEffffffff
    path.o(.ARM.exidx) refers to path.o(i._ZN4Anki8Planning4Path9AppendArcEjffffffff) for i._ZN4Anki8Planning4Path9AppendArcEjffffffff
    path.o(.ARM.exidx) refers to path.o(i._ZN4Anki8Planning4Path15AppendPointTurnEjfffffffb) for i._ZN4Anki8Planning4Path15AppendPointTurnEjfffffffb
    path.o(.ARM.exidx) refers to path.o(i._ZN4Anki8Planning4Path13AppendSegmentERKNS0_11PathSegmentE) for i._ZN4Anki8Planning4Path13AppendSegmentERKNS0_11PathSegmentE
    path.o(.ARM.exidx) refers to path.o(i._ZN4Anki8Planning4Path8PopFrontEh) for i._ZN4Anki8Planning4Path8PopFrontEh
    path.o(.ARM.exidx) refers to path.o(i._ZN4Anki8Planning4Path7PopBackEh) for i._ZN4Anki8Planning4Path7PopBackEh
    path.o(.ARM.exidx) refers to path.o(i._ZNK4Anki8Planning4Path22CheckSegmentContinuityEfa) for i._ZNK4Anki8Planning4Path22CheckSegmentContinuityEfa
    path.o(.ARM.exidx) refers to path.o(i._ZNK4Anki8Planning4Path15CheckContinuityEfa) for i._ZNK4Anki8Planning4Path15CheckContinuityEfa
    path.o(.ARM.exidx) refers to path.o(i._ZN4Anki8Planning11GetArcAngleEffffffb) for i._ZN4Anki8Planning11GetArcAngleEffffffb
    path.o(.ARM.exidx) refers to path.o(i._ZN4Anki8Planning16GenerateCSCCurveEfffffffffffNS0_14DubinsPathTypeEPNS0_11PathSegmentERf) for i._ZN4Anki8Planning16GenerateCSCCurveEfffffffffffNS0_14DubinsPathTypeEPNS0_11PathSegmentERf
    path.o(.ARM.exidx) refers to path.o(i._ZN4Anki8Planning18GenerateDubinsPathERNS0_4PathEffffffffffffPf) for i._ZN4Anki8Planning18GenerateDubinsPathERNS0_4PathEffffffffffffPf
    pathfollower.o(i._ZN4Anki5Cozmo12PathFollower12GetPathErrorERfS2_) refers to pathfollower.o(i._ZN4Anki5Cozmo12PathFollower16IsTraversingPathEv) for Anki::Cozmo::PathFollower::IsTraversingPath()
    pathfollower.o(i._ZN4Anki5Cozmo12PathFollower12GetPathErrorERfS2_) refers to pathfollower.o(.data) for .data
    pathfollower.o(i._ZN4Anki5Cozmo12PathFollower12PathCompleteEv) refers to pathfollower.o(.data) for .data
    pathfollower.o(i._ZN4Anki5Cozmo12PathFollower13DriveStraightEffff) refers to velocityprofilegenerator.o(i._ZN4Anki24VelocityProfileGeneratorC1Ev) for Anki::VelocityProfileGenerator::VelocityProfileGenerator()
    pathfollower.o(i._ZN4Anki5Cozmo12PathFollower13DriveStraightEffff) refers to radians.o(i._ZN4Anki7RadiansC1Ev) for Anki::Radians::Radians()
    pathfollower.o(i._ZN4Anki5Cozmo12PathFollower13DriveStraightEffff) refers to localization.o(i._ZN4Anki5Cozmo12Localization18GetDriveCenterPoseERfS2_RNS_7RadiansE) for Anki::Cozmo::Localization::GetDriveCenterPose(float&, float&, Anki::Radians&)
    pathfollower.o(i._ZN4Anki5Cozmo12PathFollower13DriveStraightEffff) refers to speedcontroller.o(i._ZN4Anki5Cozmo15SpeedController30GetCurrentMeasuredVehicleSpeedEv) for Anki::Cozmo::SpeedController::GetCurrentMeasuredVehicleSpeed()
    pathfollower.o(i._ZN4Anki5Cozmo12PathFollower13DriveStraightEffff) refers to messages.o(i._Z10trace_castIfEiT_) for trace_cast<float>(T1)
    pathfollower.o(i._ZN4Anki5Cozmo12PathFollower13DriveStraightEffff) refers to messages.o(i._ZN4Anki5Cozmo14RobotInterface7SendLogEatthz) for Anki::Cozmo::RobotInterface::SendLog(signed char, unsigned short, unsigned short, unsigned char, ...)
    pathfollower.o(i._ZN4Anki5Cozmo12PathFollower13DriveStraightEffff) refers to velocityprofilegenerator.o(i._ZN4Anki24VelocityProfileGenerator26StartProfile_fixedDurationEfffffffff) for Anki::VelocityProfileGenerator::StartProfile_fixedDuration(float, float, float, float, float, float, float, float, float)
    pathfollower.o(i._ZN4Anki5Cozmo12PathFollower13DriveStraightEffff) refers to cosf.o(i.__hardfp_cosf) for __hardfp_cosf
    pathfollower.o(i._ZN4Anki5Cozmo12PathFollower13DriveStraightEffff) refers to sinf.o(i.__hardfp_sinf) for __hardfp_sinf
    pathfollower.o(i._ZN4Anki5Cozmo12PathFollower13DriveStraightEffff) refers to pathfollower.o(i._ZN4Anki5Cozmo12PathFollower9ClearPathEv) for Anki::Cozmo::PathFollower::ClearPath()
    pathfollower.o(i._ZN4Anki5Cozmo12PathFollower13DriveStraightEffff) refers to pathfollower.o(i._ZN4Anki5Cozmo12PathFollower22AppendPathSegment_LineEjfffffff) for Anki::Cozmo::PathFollower::AppendPathSegment_Line(unsigned, float, float, float, float, float, float, float)
    pathfollower.o(i._ZN4Anki5Cozmo12PathFollower13DriveStraightEffff) refers to pathfollower.o(i._ZN4Anki5Cozmo12PathFollower18StartPathTraversalEtb) for Anki::Cozmo::PathFollower::StartPathTraversal(unsigned short, bool)
    pathfollower.o(i._ZN4Anki5Cozmo12PathFollower13GetLastPathIDEv) refers to pathfollower.o(.data) for .data
    pathfollower.o(i._ZN4Anki5Cozmo12PathFollower14DrivePointTurnEfffff) refers to velocityprofilegenerator.o(i._ZN4Anki24VelocityProfileGeneratorC1Ev) for Anki::VelocityProfileGenerator::VelocityProfileGenerator()
    pathfollower.o(i._ZN4Anki5Cozmo12PathFollower14DrivePointTurnEfffff) refers to radians.o(i._ZN4Anki7RadiansC1Ev) for Anki::Radians::Radians()
    pathfollower.o(i._ZN4Anki5Cozmo12PathFollower14DrivePointTurnEfffff) refers to localization.o(i._ZN4Anki5Cozmo12Localization18GetDriveCenterPoseERfS2_RNS_7RadiansE) for Anki::Cozmo::Localization::GetDriveCenterPose(float&, float&, Anki::Radians&)
    pathfollower.o(i._ZN4Anki5Cozmo12PathFollower14DrivePointTurnEfffff) refers to messages.o(i._Z10trace_castIfEiT_) for trace_cast<float>(T1)
    pathfollower.o(i._ZN4Anki5Cozmo12PathFollower14DrivePointTurnEfffff) refers to messages.o(i._ZN4Anki5Cozmo14RobotInterface7SendLogEatthz) for Anki::Cozmo::RobotInterface::SendLog(signed char, unsigned short, unsigned short, unsigned char, ...)
    pathfollower.o(i._ZN4Anki5Cozmo12PathFollower14DrivePointTurnEfffff) refers to velocityprofilegenerator.o(i._ZN4Anki24VelocityProfileGenerator26StartProfile_fixedDurationEfffffffff) for Anki::VelocityProfileGenerator::StartProfile_fixedDuration(float, float, float, float, float, float, float, float, float)
    pathfollower.o(i._ZN4Anki5Cozmo12PathFollower14DrivePointTurnEfffff) refers to pathfollower.o(i._ZN4Anki5Cozmo12PathFollower9ClearPathEv) for Anki::Cozmo::PathFollower::ClearPath()
    pathfollower.o(i._ZN4Anki5Cozmo12PathFollower14DrivePointTurnEfffff) refers to pathfollower.o(i._ZN4Anki5Cozmo12PathFollower27AppendPathSegment_PointTurnEjfffffffb) for Anki::Cozmo::PathFollower::AppendPathSegment_PointTurn(unsigned, float, float, float, float, float, float, float, bool)
    pathfollower.o(i._ZN4Anki5Cozmo12PathFollower14DrivePointTurnEfffff) refers to pathfollower.o(i._ZN4Anki5Cozmo12PathFollower18StartPathTraversalEtb) for Anki::Cozmo::PathFollower::StartPathTraversal(unsigned short, bool)
    pathfollower.o(i._ZN4Anki5Cozmo12PathFollower16IsTraversingPathEv) refers to pathfollower.o(.data) for .data
    pathfollower.o(i._ZN4Anki5Cozmo12PathFollower16PrintPathSegmentEs) refers to path.o(i._ZNK4Anki8Planning4Path12PrintSegmentEh) for Anki::Planning::Path::PrintSegment(unsigned char) const
    pathfollower.o(i._ZN4Anki5Cozmo12PathFollower16PrintPathSegmentEs) refers to pathfollower.o(.bss) for .bss
    pathfollower.o(i._ZN4Anki5Cozmo12PathFollower17GetClosestSegmentEfff) refers to messages.o(i._ZN4Anki5Cozmo14RobotInterface7SendLogEatthz) for Anki::Cozmo::RobotInterface::SendLog(signed char, unsigned short, unsigned short, unsigned char, ...)
    pathfollower.o(i._ZN4Anki5Cozmo12PathFollower17GetClosestSegmentEfff) refers to lights.o(i._ZN4Anki5Cozmo3HAL6SetLEDEht) for Anki::Cozmo::HAL::SetLED(unsigned char, unsigned short)
    pathfollower.o(i._ZN4Anki5Cozmo12PathFollower17GetClosestSegmentEfff) refers to pathfollower.o(i._ZN4Anki8Planning4PathixEh) for Anki::Planning::Path::operator [](unsigned char)
    pathfollower.o(i._ZN4Anki5Cozmo12PathFollower17GetClosestSegmentEfff) refers to path.o(i._ZNK4Anki8Planning11PathSegment16GetDistToSegmentEfffRfS2_Pf) for Anki::Planning::PathSegment::GetDistToSegment(float, float, float, float&, float&, float*) const
    pathfollower.o(i._ZN4Anki5Cozmo12PathFollower17GetClosestSegmentEfff) refers to pathfollower.o(.bss) for .bss
    pathfollower.o(i._ZN4Anki5Cozmo12PathFollower18GenerateDubinsPathEffffffffffffPf) refers to path.o(i._ZN4Anki8Planning18GenerateDubinsPathERNS0_4PathEffffffffffffPf) for Anki::Planning::GenerateDubinsPath(Anki::Planning::Path&, float, float, float, float, float, float, float, float, float, float, float, float, float*)
    pathfollower.o(i._ZN4Anki5Cozmo12PathFollower18GenerateDubinsPathEffffffffffffPf) refers to pathfollower.o(.bss) for .bss
    pathfollower.o(i._ZN4Anki5Cozmo12PathFollower18GetCurrPathSegmentEv) refers to pathfollower.o(.data) for .data
    pathfollower.o(i._ZN4Anki5Cozmo12PathFollower18ProcessPathSegmentERfS2_) refers to radians.o(i._ZN4Anki7RadiansC1Ev) for Anki::Radians::Radians()
    pathfollower.o(i._ZN4Anki5Cozmo12PathFollower18ProcessPathSegmentERfS2_) refers to localization.o(i._ZN4Anki5Cozmo12Localization18GetDriveCenterPoseERfS2_RNS_7RadiansE) for Anki::Cozmo::Localization::GetDriveCenterPose(float&, float&, Anki::Radians&)
    pathfollower.o(i._ZN4Anki5Cozmo12PathFollower18ProcessPathSegmentERfS2_) refers to pathfollower.o(i._ZN4Anki8Planning4PathixEh) for Anki::Planning::Path::operator [](unsigned char)
    pathfollower.o(i._ZN4Anki5Cozmo12PathFollower18ProcessPathSegmentERfS2_) refers to messages.o(i._ZN4Anki5Cozmo14RobotInterface7SendLogEatthz) for Anki::Cozmo::RobotInterface::SendLog(signed char, unsigned short, unsigned short, unsigned char, ...)
    pathfollower.o(i._ZN4Anki5Cozmo12PathFollower18ProcessPathSegmentERfS2_) refers to lights.o(i._ZN4Anki5Cozmo3HAL6SetLEDEht) for Anki::Cozmo::HAL::SetLED(unsigned char, unsigned short)
    pathfollower.o(i._ZN4Anki5Cozmo12PathFollower18ProcessPathSegmentERfS2_) refers to cosf.o(i.__hardfp_cosf) for __hardfp_cosf
    pathfollower.o(i._ZN4Anki5Cozmo12PathFollower18ProcessPathSegmentERfS2_) refers to sinf.o(i.__hardfp_sinf) for __hardfp_sinf
    pathfollower.o(i._ZN4Anki5Cozmo12PathFollower18ProcessPathSegmentERfS2_) refers to path.o(i._ZNK4Anki8Planning11PathSegment16GetDistToSegmentEfffRfS2_Pf) for Anki::Planning::PathSegment::GetDistToSegment(float, float, float, float&, float&, float*) const
    pathfollower.o(i._ZN4Anki5Cozmo12PathFollower18ProcessPathSegmentERfS2_) refers to speedcontroller.o(i._ZN4Anki5Cozmo15SpeedController28GetUserCommandedDecelerationEv) for Anki::Cozmo::SpeedController::GetUserCommandedDeceleration()
    pathfollower.o(i._ZN4Anki5Cozmo12PathFollower18ProcessPathSegmentERfS2_) refers to speedcontroller.o(i._ZN4Anki5Cozmo15SpeedController35GetUserCommandedCurrentVehicleSpeedEv) for Anki::Cozmo::SpeedController::GetUserCommandedCurrentVehicleSpeed()
    pathfollower.o(i._ZN4Anki5Cozmo12PathFollower18ProcessPathSegmentERfS2_) refers to speedcontroller.o(i._ZN4Anki5Cozmo15SpeedController28SetUserCommandedDecelerationEt) for Anki::Cozmo::SpeedController::SetUserCommandedDeceleration(unsigned short)
    pathfollower.o(i._ZN4Anki5Cozmo12PathFollower18ProcessPathSegmentERfS2_) refers to f2d.o(.text) for __aeabi_f2d
    pathfollower.o(i._ZN4Anki5Cozmo12PathFollower18ProcessPathSegmentERfS2_) refers to dfixi.o(.text) for __aeabi_d2iz
    pathfollower.o(i._ZN4Anki5Cozmo12PathFollower18ProcessPathSegmentERfS2_) refers to speedcontroller.o(i._ZN4Anki5Cozmo15SpeedController35SetUserCommandedDesiredVehicleSpeedEs) for Anki::Cozmo::SpeedController::SetUserCommandedDesiredVehicleSpeed(short)
    pathfollower.o(i._ZN4Anki5Cozmo12PathFollower18ProcessPathSegmentERfS2_) refers to pathfollower.o(.data) for .data
    pathfollower.o(i._ZN4Anki5Cozmo12PathFollower18ProcessPathSegmentERfS2_) refers to pathfollower.o(.bss) for .bss
    pathfollower.o(i._ZN4Anki5Cozmo12PathFollower18SetManualPathSpeedEfff) refers to pathfollower.o(.data) for .data
    pathfollower.o(i._ZN4Anki5Cozmo12PathFollower18StartPathTraversalEtb) refers to path.o(i._ZNK4Anki8Planning4Path15CheckContinuityEfa) for Anki::Planning::Path::CheckContinuity(float, signed char) const
    pathfollower.o(i._ZN4Anki5Cozmo12PathFollower18StartPathTraversalEtb) refers to pathfollower.o(i._ZN4Anki8Planning4PathixEh) for Anki::Planning::Path::operator [](unsigned char)
    pathfollower.o(i._ZN4Anki5Cozmo12PathFollower18StartPathTraversalEtb) refers to speedcontroller.o(i._ZN4Anki5Cozmo15SpeedController35SetUserCommandedDesiredVehicleSpeedEs) for Anki::Cozmo::SpeedController::SetUserCommandedDesiredVehicleSpeed(short)
    pathfollower.o(i._ZN4Anki5Cozmo12PathFollower18StartPathTraversalEtb) refers to speedcontroller.o(i._ZN4Anki5Cozmo15SpeedController28SetUserCommandedAccelerationEt) for Anki::Cozmo::SpeedController::SetUserCommandedAcceleration(unsigned short)
    pathfollower.o(i._ZN4Anki5Cozmo12PathFollower18StartPathTraversalEtb) refers to messages.o(i._ZN4Anki5Cozmo14RobotInterface7SendLogEatthz) for Anki::Cozmo::RobotInterface::SendLog(signed char, unsigned short, unsigned short, unsigned char, ...)
    pathfollower.o(i._ZN4Anki5Cozmo12PathFollower18StartPathTraversalEtb) refers to speedcontroller.o(i._ZN4Anki5Cozmo15SpeedController28SetUserCommandedDecelerationEt) for Anki::Cozmo::SpeedController::SetUserCommandedDeceleration(unsigned short)
    pathfollower.o(i._ZN4Anki5Cozmo12PathFollower18StartPathTraversalEtb) refers to steeringcontroller.o(i._ZN4Anki5Cozmo18SteeringController17SetPathFollowModeEv) for Anki::Cozmo::SteeringController::SetPathFollowMode()
    pathfollower.o(i._ZN4Anki5Cozmo12PathFollower18StartPathTraversalEtb) refers to pathfollower.o(.bss) for .bss
    pathfollower.o(i._ZN4Anki5Cozmo12PathFollower18StartPathTraversalEtb) refers to pathfollower.o(.data) for .data
    pathfollower.o(i._ZN4Anki5Cozmo12PathFollower19IsInManualSpeedModeEv) refers to pathfollower.o(.data) for .data
    pathfollower.o(i._ZN4Anki5Cozmo12PathFollower21AppendPathSegment_ArcEjffffffff) refers to pathfollower.o(i._ZN4Anki5Cozmo12PathFollower8TrimPathEv) for Anki::Cozmo::PathFollower::TrimPath()
    pathfollower.o(i._ZN4Anki5Cozmo12PathFollower21AppendPathSegment_ArcEjffffffff) refers to path.o(i._ZN4Anki8Planning4Path9AppendArcEjffffffff) for Anki::Planning::Path::AppendArc(unsigned, float, float, float, float, float, float, float, float)
    pathfollower.o(i._ZN4Anki5Cozmo12PathFollower21AppendPathSegment_ArcEjffffffff) refers to pathfollower.o(.bss) for .bss
    pathfollower.o(i._ZN4Anki5Cozmo12PathFollower22AppendPathSegment_LineEjfffffff) refers to pathfollower.o(i._ZN4Anki5Cozmo12PathFollower8TrimPathEv) for Anki::Cozmo::PathFollower::TrimPath()
    pathfollower.o(i._ZN4Anki5Cozmo12PathFollower22AppendPathSegment_LineEjfffffff) refers to path.o(i._ZN4Anki8Planning4Path10AppendLineEjfffffff) for Anki::Planning::Path::AppendLine(unsigned, float, float, float, float, float, float, float)
    pathfollower.o(i._ZN4Anki5Cozmo12PathFollower22AppendPathSegment_LineEjfffffff) refers to pathfollower.o(.bss) for .bss
    pathfollower.o(i._ZN4Anki5Cozmo12PathFollower22GetNumFreeSegmentSlotsEv) refers to pathfollower.o(.bss) for .bss
    pathfollower.o(i._ZN4Anki5Cozmo12PathFollower22GetNumFreeSegmentSlotsEv) refers to pathfollower.o(.data) for .data
    pathfollower.o(i._ZN4Anki5Cozmo12PathFollower27AppendPathSegment_PointTurnEjfffffffb) refers to pathfollower.o(i._ZN4Anki5Cozmo12PathFollower8TrimPathEv) for Anki::Cozmo::PathFollower::TrimPath()
    pathfollower.o(i._ZN4Anki5Cozmo12PathFollower27AppendPathSegment_PointTurnEjfffffffb) refers to path.o(i._ZN4Anki8Planning4Path15AppendPointTurnEjfffffffb) for Anki::Planning::Path::AppendPointTurn(unsigned, float, float, float, float, float, float, float, bool)
    pathfollower.o(i._ZN4Anki5Cozmo12PathFollower27AppendPathSegment_PointTurnEjfffffffb) refers to pathfollower.o(.bss) for .bss
    pathfollower.o(i._ZN4Anki5Cozmo12PathFollower27ProcessPathSegmentPointTurnERfS2_) refers to pathfollower.o(i._ZN4Anki8Planning4PathixEh) for Anki::Planning::Path::operator [](unsigned char)
    pathfollower.o(i._ZN4Anki5Cozmo12PathFollower27ProcessPathSegmentPointTurnERfS2_) refers to steeringcontroller.o(i._ZN4Anki5Cozmo18SteeringController7GetModeEv) for Anki::Cozmo::SteeringController::GetMode()
    pathfollower.o(i._ZN4Anki5Cozmo12PathFollower27ProcessPathSegmentPointTurnERfS2_) refers to steeringcontroller.o(i._ZN4Anki5Cozmo18SteeringController16ExecutePointTurnEfffffb) for Anki::Cozmo::SteeringController::ExecutePointTurn(float, float, float, float, float, bool)
    pathfollower.o(i._ZN4Anki5Cozmo12PathFollower27ProcessPathSegmentPointTurnERfS2_) refers to pathfollower.o(.data) for .data
    pathfollower.o(i._ZN4Anki5Cozmo12PathFollower27ProcessPathSegmentPointTurnERfS2_) refers to pathfollower.o(.bss) for .bss
    pathfollower.o(i._ZN4Anki5Cozmo12PathFollower4InitEv) refers to pathfollower.o(i._ZN4Anki5Cozmo12PathFollower9ClearPathEv) for Anki::Cozmo::PathFollower::ClearPath()
    pathfollower.o(i._ZN4Anki5Cozmo12PathFollower6UpdateEv) refers to speedcontroller.o(i._ZN4Anki5Cozmo15SpeedController35SetUserCommandedDesiredVehicleSpeedEs) for Anki::Cozmo::SpeedController::SetUserCommandedDesiredVehicleSpeed(short)
    pathfollower.o(i._ZN4Anki5Cozmo12PathFollower6UpdateEv) refers to pathfollower.o(i._ZN4Anki8Planning4PathixEh) for Anki::Planning::Path::operator [](unsigned char)
    pathfollower.o(i._ZN4Anki5Cozmo12PathFollower6UpdateEv) refers to messages.o(i._ZN4Anki5Cozmo14RobotInterface7SendLogEatthz) for Anki::Cozmo::RobotInterface::SendLog(signed char, unsigned short, unsigned short, unsigned char, ...)
    pathfollower.o(i._ZN4Anki5Cozmo12PathFollower6UpdateEv) refers to pathfollower.o(i._ZN4Anki5Cozmo12PathFollower18ProcessPathSegmentERfS2_) for Anki::Cozmo::PathFollower::ProcessPathSegment(float&, float&)
    pathfollower.o(i._ZN4Anki5Cozmo12PathFollower6UpdateEv) refers to pathfollower.o(i._ZN4Anki5Cozmo12PathFollower27ProcessPathSegmentPointTurnERfS2_) for Anki::Cozmo::PathFollower::ProcessPathSegmentPointTurn(float&, float&)
    pathfollower.o(i._ZN4Anki5Cozmo12PathFollower6UpdateEv) refers to pathfollower.o(i._ZN4Anki5Cozmo12PathFollower12PathCompleteEv) for Anki::Cozmo::PathFollower::PathComplete()
    pathfollower.o(i._ZN4Anki5Cozmo12PathFollower6UpdateEv) refers to speedcontroller.o(i._ZN4Anki5Cozmo15SpeedController28SetUserCommandedAccelerationEt) for Anki::Cozmo::SpeedController::SetUserCommandedAcceleration(unsigned short)
    pathfollower.o(i._ZN4Anki5Cozmo12PathFollower6UpdateEv) refers to speedcontroller.o(i._ZN4Anki5Cozmo15SpeedController28SetUserCommandedDecelerationEt) for Anki::Cozmo::SpeedController::SetUserCommandedDeceleration(unsigned short)
    pathfollower.o(i._ZN4Anki5Cozmo12PathFollower6UpdateEv) refers to dockingcontroller.o(i._ZN4Anki5Cozmo17DockingController6IsBusyEv) for Anki::Cozmo::DockingController::IsBusy()
    pathfollower.o(i._ZN4Anki5Cozmo12PathFollower6UpdateEv) refers to pathfollower.o(.data) for .data
    pathfollower.o(i._ZN4Anki5Cozmo12PathFollower6UpdateEv) refers to pathfollower.o(.bss) for .bss
    pathfollower.o(i._ZN4Anki5Cozmo12PathFollower7GetPathEv) refers to pathfollower.o(.bss) for .bss
    pathfollower.o(i._ZN4Anki5Cozmo12PathFollower8DriveArcEfffff) refers to velocityprofilegenerator.o(i._ZN4Anki24VelocityProfileGeneratorC1Ev) for Anki::VelocityProfileGenerator::VelocityProfileGenerator()
    pathfollower.o(i._ZN4Anki5Cozmo12PathFollower8DriveArcEfffff) refers to radians.o(i._ZN4Anki7RadiansC1Ev) for Anki::Radians::Radians()
    pathfollower.o(i._ZN4Anki5Cozmo12PathFollower8DriveArcEfffff) refers to localization.o(i._ZN4Anki5Cozmo12Localization18GetDriveCenterPoseERfS2_RNS_7RadiansE) for Anki::Cozmo::Localization::GetDriveCenterPose(float&, float&, Anki::Radians&)
    pathfollower.o(i._ZN4Anki5Cozmo12PathFollower8DriveArcEfffff) refers to speedcontroller.o(i._ZN4Anki5Cozmo15SpeedController30GetCurrentMeasuredVehicleSpeedEv) for Anki::Cozmo::SpeedController::GetCurrentMeasuredVehicleSpeed()
    pathfollower.o(i._ZN4Anki5Cozmo12PathFollower8DriveArcEfffff) refers to messages.o(i._Z10trace_castIfEiT_) for trace_cast<float>(T1)
    pathfollower.o(i._ZN4Anki5Cozmo12PathFollower8DriveArcEfffff) refers to messages.o(i._ZN4Anki5Cozmo14RobotInterface7SendLogEatthz) for Anki::Cozmo::RobotInterface::SendLog(signed char, unsigned short, unsigned short, unsigned char, ...)
    pathfollower.o(i._ZN4Anki5Cozmo12PathFollower8DriveArcEfffff) refers to velocityprofilegenerator.o(i._ZN4Anki24VelocityProfileGenerator26StartProfile_fixedDurationEfffffffff) for Anki::VelocityProfileGenerator::StartProfile_fixedDuration(float, float, float, float, float, float, float, float, float)
    pathfollower.o(i._ZN4Anki5Cozmo12PathFollower8DriveArcEfffff) refers to cosf.o(i.__hardfp_cosf) for __hardfp_cosf
    pathfollower.o(i._ZN4Anki5Cozmo12PathFollower8DriveArcEfffff) refers to sinf.o(i.__hardfp_sinf) for __hardfp_sinf
    pathfollower.o(i._ZN4Anki5Cozmo12PathFollower8DriveArcEfffff) refers to pathfollower.o(i._ZN4Anki5Cozmo12PathFollower9ClearPathEv) for Anki::Cozmo::PathFollower::ClearPath()
    pathfollower.o(i._ZN4Anki5Cozmo12PathFollower8DriveArcEfffff) refers to pathfollower.o(i._ZN4Anki5Cozmo12PathFollower21AppendPathSegment_ArcEjffffffff) for Anki::Cozmo::PathFollower::AppendPathSegment_Arc(unsigned, float, float, float, float, float, float, float, float)
    pathfollower.o(i._ZN4Anki5Cozmo12PathFollower8DriveArcEfffff) refers to pathfollower.o(i._ZN4Anki5Cozmo12PathFollower18StartPathTraversalEtb) for Anki::Cozmo::PathFollower::StartPathTraversal(unsigned short, bool)
    pathfollower.o(i._ZN4Anki5Cozmo12PathFollower8TrimPathEhh) refers to path.o(i._ZN4Anki8Planning4Path7PopBackEh) for Anki::Planning::Path::PopBack(unsigned char)
    pathfollower.o(i._ZN4Anki5Cozmo12PathFollower8TrimPathEhh) refers to path.o(i._ZN4Anki8Planning4Path8PopFrontEh) for Anki::Planning::Path::PopFront(unsigned char)
    pathfollower.o(i._ZN4Anki5Cozmo12PathFollower8TrimPathEhh) refers to pathfollower.o(.bss) for .bss
    pathfollower.o(i._ZN4Anki5Cozmo12PathFollower8TrimPathEhh) refers to pathfollower.o(.data) for .data
    pathfollower.o(i._ZN4Anki5Cozmo12PathFollower8TrimPathEv) refers to pathfollower.o(i._ZN4Anki5Cozmo12PathFollower8TrimPathEhh) for Anki::Cozmo::PathFollower::TrimPath(unsigned char, unsigned char)
    pathfollower.o(i._ZN4Anki5Cozmo12PathFollower8TrimPathEv) refers to pathfollower.o(.data) for .data
    pathfollower.o(i._ZN4Anki5Cozmo12PathFollower9ClearPathEv) refers to path.o(i._ZN4Anki8Planning4Path5ClearEv) for Anki::Planning::Path::Clear()
    pathfollower.o(i._ZN4Anki5Cozmo12PathFollower9ClearPathEv) refers to pathfollower.o(.bss) for .bss
    pathfollower.o(i._ZN4Anki5Cozmo12PathFollower9ClearPathEv) refers to pathfollower.o(.data) for .data
    pathfollower.o(i._ZN4Anki5Cozmo12PathFollower9PrintPathEv) refers to path.o(i._ZNK4Anki8Planning4Path9PrintPathEv) for Anki::Planning::Path::PrintPath() const
    pathfollower.o(i._ZN4Anki5Cozmo12PathFollower9PrintPathEv) refers to pathfollower.o(.bss) for .bss
    pathfollower.o(i.__sti___16_pathFollower_cpp) refers to path.o(i._ZN4Anki8Planning4PathC1Ev) for Anki::Planning::Path::Path()
    pathfollower.o(i.__sti___16_pathFollower_cpp) refers to pathfollower.o(.bss) for .bss
    pathfollower.o(.ARM.exidx) refers to pathfollower.o(i._ZN4Anki5Cozmo12PathFollower9ClearPathEv) for i._ZN4Anki5Cozmo12PathFollower9ClearPathEv
    pathfollower.o(.ARM.exidx) refers to pathfollower.o(i._ZN4Anki5Cozmo12PathFollower4InitEv) for i._ZN4Anki5Cozmo12PathFollower4InitEv
    pathfollower.o(.ARM.exidx) refers to pathfollower.o(i._ZN4Anki5Cozmo12PathFollower8TrimPathEhh) for i._ZN4Anki5Cozmo12PathFollower8TrimPathEhh
    pathfollower.o(.ARM.exidx) refers to pathfollower.o(i._ZN4Anki5Cozmo12PathFollower8TrimPathEv) for i._ZN4Anki5Cozmo12PathFollower8TrimPathEv
    pathfollower.o(.ARM.exidx) refers to pathfollower.o(i._ZN4Anki5Cozmo12PathFollower22AppendPathSegment_LineEjfffffff) for i._ZN4Anki5Cozmo12PathFollower22AppendPathSegment_LineEjfffffff
    pathfollower.o(.ARM.exidx) refers to pathfollower.o(i._ZN4Anki5Cozmo12PathFollower21AppendPathSegment_ArcEjffffffff) for i._ZN4Anki5Cozmo12PathFollower21AppendPathSegment_ArcEjffffffff
    pathfollower.o(.ARM.exidx) refers to pathfollower.o(i._ZN4Anki5Cozmo12PathFollower27AppendPathSegment_PointTurnEjfffffffb) for i._ZN4Anki5Cozmo12PathFollower27AppendPathSegment_PointTurnEjfffffffb
    pathfollower.o(.ARM.exidx) refers to pathfollower.o(i._ZN4Anki5Cozmo12PathFollower18GenerateDubinsPathEffffffffffffPf) for i._ZN4Anki5Cozmo12PathFollower18GenerateDubinsPathEffffffffffffPf
    pathfollower.o(.ARM.exidx) refers to pathfollower.o(i._ZN4Anki5Cozmo12PathFollower17GetClosestSegmentEfff) for i._ZN4Anki5Cozmo12PathFollower17GetClosestSegmentEfff
    pathfollower.o(.ARM.exidx) refers to pathfollower.o(i._ZN4Anki5Cozmo12PathFollower18StartPathTraversalEtb) for i._ZN4Anki5Cozmo12PathFollower18StartPathTraversalEtb
    pathfollower.o(.ARM.exidx) refers to pathfollower.o(i._ZN4Anki5Cozmo12PathFollower16IsTraversingPathEv) for i._ZN4Anki5Cozmo12PathFollower16IsTraversingPathEv
    pathfollower.o(.ARM.exidx) refers to pathfollower.o(i._ZN4Anki5Cozmo12PathFollower19IsInManualSpeedModeEv) for i._ZN4Anki5Cozmo12PathFollower19IsInManualSpeedModeEv
    pathfollower.o(.ARM.exidx) refers to pathfollower.o(i._ZN4Anki5Cozmo12PathFollower18SetManualPathSpeedEfff) for i._ZN4Anki5Cozmo12PathFollower18SetManualPathSpeedEfff
    pathfollower.o(.ARM.exidx) refers to pathfollower.o(i._ZN4Anki5Cozmo12PathFollower18GetCurrPathSegmentEv) for i._ZN4Anki5Cozmo12PathFollower18GetCurrPathSegmentEv
    pathfollower.o(.ARM.exidx) refers to pathfollower.o(i._ZN4Anki5Cozmo12PathFollower22GetNumFreeSegmentSlotsEv) for i._ZN4Anki5Cozmo12PathFollower22GetNumFreeSegmentSlotsEv
    pathfollower.o(.ARM.exidx) refers to pathfollower.o(i._ZN4Anki5Cozmo12PathFollower18ProcessPathSegmentERfS2_) for i._ZN4Anki5Cozmo12PathFollower18ProcessPathSegmentERfS2_
    pathfollower.o(.ARM.exidx) refers to pathfollower.o(i._ZN4Anki5Cozmo12PathFollower27ProcessPathSegmentPointTurnERfS2_) for i._ZN4Anki5Cozmo12PathFollower27ProcessPathSegmentPointTurnERfS2_
    pathfollower.o(.ARM.exidx) refers to pathfollower.o(i._ZN4Anki5Cozmo12PathFollower12PathCompleteEv) for i._ZN4Anki5Cozmo12PathFollower12PathCompleteEv
    pathfollower.o(.ARM.exidx) refers to pathfollower.o(i._ZN4Anki5Cozmo12PathFollower12GetPathErrorERfS2_) for i._ZN4Anki5Cozmo12PathFollower12GetPathErrorERfS2_
    pathfollower.o(.ARM.exidx) refers to pathfollower.o(i._ZN4Anki5Cozmo12PathFollower6UpdateEv) for i._ZN4Anki5Cozmo12PathFollower6UpdateEv
    pathfollower.o(.ARM.exidx) refers to pathfollower.o(i._ZN4Anki5Cozmo12PathFollower9PrintPathEv) for i._ZN4Anki5Cozmo12PathFollower9PrintPathEv
    pathfollower.o(.ARM.exidx) refers to pathfollower.o(i._ZN4Anki5Cozmo12PathFollower16PrintPathSegmentEs) for i._ZN4Anki5Cozmo12PathFollower16PrintPathSegmentEs
    pathfollower.o(.ARM.exidx) refers to pathfollower.o(i._ZN4Anki5Cozmo12PathFollower13GetLastPathIDEv) for i._ZN4Anki5Cozmo12PathFollower13GetLastPathIDEv
    pathfollower.o(.ARM.exidx) refers to pathfollower.o(i._ZN4Anki5Cozmo12PathFollower7GetPathEv) for i._ZN4Anki5Cozmo12PathFollower7GetPathEv
    pathfollower.o(.ARM.exidx) refers to pathfollower.o(i._ZN4Anki5Cozmo12PathFollower13DriveStraightEffff) for i._ZN4Anki5Cozmo12PathFollower13DriveStraightEffff
    pathfollower.o(.ARM.exidx) refers to pathfollower.o(i._ZN4Anki5Cozmo12PathFollower8DriveArcEfffff) for i._ZN4Anki5Cozmo12PathFollower8DriveArcEfffff
    pathfollower.o(.ARM.exidx) refers to pathfollower.o(i._ZN4Anki5Cozmo12PathFollower14DrivePointTurnEfffff) for i._ZN4Anki5Cozmo12PathFollower14DrivePointTurnEfffff
    pathfollower.o(.ARM.exidx) refers to pathfollower.o(i.__sti___16_pathFollower_cpp) for i.__sti___16_pathFollower_cpp
    pathfollower.o(.init_array) refers to pathfollower.o(i.__sti___16_pathFollower_cpp) for __sti___16_pathFollower_cpp
    pathfollower.o(.init_array) refers to cpp_init.o(.text) for __cpp_initialize__aeabi_
    pickandplacecontroller.o(i._ZN4Anki5Cozmo22PickAndPlaceController11DockToBlockEhffffffbh) refers to dockingcontroller.o(i._ZN4Anki5Cozmo17DockingController13SetMaxRetriesEh) for Anki::Cozmo::DockingController::SetMaxRetries(unsigned char)
    pickandplacecontroller.o(i._ZN4Anki5Cozmo22PickAndPlaceController11DockToBlockEhffffffbh) refers to pickandplacecontroller.o(.data) for .data
    pickandplacecontroller.o(i._ZN4Anki5Cozmo22PickAndPlaceController12GetCurActionEv) refers to pickandplacecontroller.o(.data) for .data
    pickandplacecontroller.o(i._ZN4Anki5Cozmo22PickAndPlaceController13GetCarryStateEv) refers to pickandplacecontroller.o(.data) for .data
    pickandplacecontroller.o(i._ZN4Anki5Cozmo22PickAndPlaceController13PlaceOnGroundEffffffb) refers to pickandplacecontroller.o(i._ZN4Anki5Cozmo22PickAndPlaceController11DockToBlockEhffffffbh) for Anki::Cozmo::PickAndPlaceController::DockToBlock(unsigned char, float, float, float, float, float, float, bool, unsigned char)
    pickandplacecontroller.o(i._ZN4Anki5Cozmo22PickAndPlaceController13SetCarryStateEh) refers to pickandplacecontroller.o(.data) for .data
    pickandplacecontroller.o(i._ZN4Anki5Cozmo22PickAndPlaceController15IsCarryingBlockEv) refers to pickandplacecontroller.o(.data) for .data
    pickandplacecontroller.o(i._ZN4Anki5Cozmo22PickAndPlaceController15StartBackingOutEv) refers to messages.o(i._ZN4Anki5Cozmo14RobotInterface7SendLogEatthz) for Anki::Cozmo::RobotInterface::SendLog(signed char, unsigned short, unsigned short, unsigned char, ...)
    pickandplacecontroller.o(i._ZN4Anki5Cozmo22PickAndPlaceController15StartBackingOutEv) refers to messages.o(i._Z10trace_castIfEiT_) for trace_cast<float>(T1)
    pickandplacecontroller.o(i._ZN4Anki5Cozmo22PickAndPlaceController15StartBackingOutEv) refers to main.o(i.GetTimeStamp) for GetTimeStamp
    pickandplacecontroller.o(i._ZN4Anki5Cozmo22PickAndPlaceController15StartBackingOutEv) refers to steeringcontroller.o(i._ZN4Anki5Cozmo18SteeringController18ExecuteDirectDriveEffff) for Anki::Cozmo::SteeringController::ExecuteDirectDrive(float, float, float, float)
    pickandplacecontroller.o(i._ZN4Anki5Cozmo22PickAndPlaceController15StartBackingOutEv) refers to pickandplacecontroller.o(.data) for .data
    pickandplacecontroller.o(i._ZN4Anki5Cozmo22PickAndPlaceController18UpdatePoseSnapshotEv) refers to localization.o(i._ZN4Anki5Cozmo12Localization17GetCurrentMatPoseERfS2_RNS_7RadiansE) for Anki::Cozmo::Localization::GetCurrentMatPose(float&, float&, Anki::Radians&)
    pickandplacecontroller.o(i._ZN4Anki5Cozmo22PickAndPlaceController18UpdatePoseSnapshotEv) refers to pickandplacecontroller.o(.data) for .data
    pickandplacecontroller.o(i._ZN4Anki5Cozmo22PickAndPlaceController19SetRollActionParamsEfffjf) refers to messages.o(i._Z10trace_castIfEiT_) for trace_cast<float>(T1)
    pickandplacecontroller.o(i._ZN4Anki5Cozmo22PickAndPlaceController19SetRollActionParamsEfffjf) refers to messages.o(i._ZN4Anki5Cozmo14RobotInterface7SendLogEatthz) for Anki::Cozmo::RobotInterface::SendLog(signed char, unsigned short, unsigned short, unsigned char, ...)
    pickandplacecontroller.o(i._ZN4Anki5Cozmo22PickAndPlaceController19SetRollActionParamsEfffjf) refers to pickandplacecontroller.o(.data) for .data
    pickandplacecontroller.o(i._ZN4Anki5Cozmo22PickAndPlaceController20DidLastActionSucceedEv) refers to pickandplacecontroller.o(.data) for .data
    pickandplacecontroller.o(i._ZN4Anki5Cozmo22PickAndPlaceController22SendBlockPickUpMessageEb) refers to main.o(i.GetTimeStamp) for GetTimeStamp
    pickandplacecontroller.o(i._ZN4Anki5Cozmo22PickAndPlaceController22SendBlockPickUpMessageEb) refers to dockingcontroller.o(i._ZN4Anki5Cozmo17DockingController16GetDockingResultEv) for Anki::Cozmo::DockingController::GetDockingResult()
    pickandplacecontroller.o(i._ZN4Anki5Cozmo22PickAndPlaceController22SendBlockPickUpMessageEb) refers to wifi.o(i._ZN4Anki5Cozmo3HAL16RadioSendMessageEPKvth) for Anki::Cozmo::HAL::RadioSendMessage(const void*, unsigned short, unsigned char)
    pickandplacecontroller.o(i._ZN4Anki5Cozmo22PickAndPlaceController22SendBlockPlacedMessageEb) refers to main.o(i.GetTimeStamp) for GetTimeStamp
    pickandplacecontroller.o(i._ZN4Anki5Cozmo22PickAndPlaceController22SendBlockPlacedMessageEb) refers to wifi.o(i._ZN4Anki5Cozmo3HAL16RadioSendMessageEPKvth) for Anki::Cozmo::HAL::RadioSendMessage(const void*, unsigned short, unsigned char)
    pickandplacecontroller.o(i._ZN4Anki5Cozmo22PickAndPlaceController29SendMovingLiftPostDockMessageEv) refers to wifi.o(i._ZN4Anki5Cozmo3HAL16RadioSendMessageEPKvth) for Anki::Cozmo::HAL::RadioSendMessage(const void*, unsigned short, unsigned char)
    pickandplacecontroller.o(i._ZN4Anki5Cozmo22PickAndPlaceController29SendMovingLiftPostDockMessageEv) refers to pickandplacecontroller.o(.data) for .data
    pickandplacecontroller.o(i._ZN4Anki5Cozmo22PickAndPlaceController31SendChargerMountCompleteMessageEb) refers to main.o(i.GetTimeStamp) for GetTimeStamp
    pickandplacecontroller.o(i._ZN4Anki5Cozmo22PickAndPlaceController31SendChargerMountCompleteMessageEb) refers to wifi.o(i._ZN4Anki5Cozmo3HAL16RadioSendMessageEPKvth) for Anki::Cozmo::HAL::RadioSendMessage(const void*, unsigned short, unsigned char)
    pickandplacecontroller.o(i._ZN4Anki5Cozmo22PickAndPlaceController4InitEv) refers to pickandplacecontroller.o(i._ZN4Anki5Cozmo22PickAndPlaceController5ResetEv) for Anki::Cozmo::PickAndPlaceController::Reset()
    pickandplacecontroller.o(i._ZN4Anki5Cozmo22PickAndPlaceController5ResetEv) refers to dockingcontroller.o(i._ZN4Anki5Cozmo17DockingController11StopDockingEa) for Anki::Cozmo::DockingController::StopDocking(signed char)
    pickandplacecontroller.o(i._ZN4Anki5Cozmo22PickAndPlaceController5ResetEv) refers to pickandplacecontroller.o(.data) for .data
    pickandplacecontroller.o(i._ZN4Anki5Cozmo22PickAndPlaceController6IsBusyEv) refers to pickandplacecontroller.o(.data) for .data
    pickandplacecontroller.o(i._ZN4Anki5Cozmo22PickAndPlaceController6UpdateEv) refers to liftcontroller.o(i._ZN4Anki5Cozmo14LiftController19SetMaxSpeedAndAccelEff) for Anki::Cozmo::LiftController::SetMaxSpeedAndAccel(float, float)
    pickandplacecontroller.o(i._ZN4Anki5Cozmo22PickAndPlaceController6UpdateEv) refers to liftcontroller.o(i._ZN4Anki5Cozmo14LiftController16SetDesiredHeightEf) for Anki::Cozmo::LiftController::SetDesiredHeight(float)
    pickandplacecontroller.o(i._ZN4Anki5Cozmo22PickAndPlaceController6UpdateEv) refers to messages.o(i._ZN4Anki5Cozmo14RobotInterface7SendLogEatthz) for Anki::Cozmo::RobotInterface::SendLog(signed char, unsigned short, unsigned short, unsigned char, ...)
    pickandplacecontroller.o(i._ZN4Anki5Cozmo22PickAndPlaceController6UpdateEv) refers to liftcontroller.o(i._ZN4Anki5Cozmo14LiftController12IsInPositionEv) for Anki::Cozmo::LiftController::IsInPosition()
    pickandplacecontroller.o(i._ZN4Anki5Cozmo22PickAndPlaceController6UpdateEv) refers to headcontroller.o(i._ZN4Anki5Cozmo14HeadController12IsInPositionEv) for Anki::Cozmo::HeadController::IsInPosition()
    pickandplacecontroller.o(i._ZN4Anki5Cozmo22PickAndPlaceController6UpdateEv) refers to dockingcontroller.o(i._ZN4Anki5Cozmo17DockingController21StartDockingToRelPoseEffffffb) for Anki::Cozmo::DockingController::StartDockingToRelPose(float, float, float, float, float, float, bool)
    pickandplacecontroller.o(i._ZN4Anki5Cozmo22PickAndPlaceController6UpdateEv) refers to dockingcontroller.o(i._ZN4Anki5Cozmo17DockingController12StartDockingEffffffbjb) for Anki::Cozmo::DockingController::StartDocking(float, float, float, float, float, float, bool, unsigned, bool)
    pickandplacecontroller.o(i._ZN4Anki5Cozmo22PickAndPlaceController6UpdateEv) refers to dockingcontroller.o(i._ZN4Anki5Cozmo17DockingController6IsBusyEv) for Anki::Cozmo::DockingController::IsBusy()
    pickandplacecontroller.o(i._ZN4Anki5Cozmo22PickAndPlaceController6UpdateEv) refers to dockingcontroller.o(i._ZN4Anki5Cozmo17DockingController18DidLastDockSucceedEv) for Anki::Cozmo::DockingController::DidLastDockSucceed()
    pickandplacecontroller.o(i._ZN4Anki5Cozmo22PickAndPlaceController6UpdateEv) refers to dockingcontroller.o(i._ZN4Anki5Cozmo17DockingController11StopDockingEa) for Anki::Cozmo::DockingController::StopDocking(signed char)
    pickandplacecontroller.o(i._ZN4Anki5Cozmo22PickAndPlaceController6UpdateEv) refers to pickandplacecontroller.o(i._ZN4Anki5Cozmo22PickAndPlaceController18UpdatePoseSnapshotEv) for Anki::Cozmo::PickAndPlaceController::UpdatePoseSnapshot()
    pickandplacecontroller.o(i._ZN4Anki5Cozmo22PickAndPlaceController6UpdateEv) refers to steeringcontroller.o(i._ZN4Anki5Cozmo18SteeringController18ExecuteDirectDriveEffff) for Anki::Cozmo::SteeringController::ExecuteDirectDrive(float, float, float, float)
    pickandplacecontroller.o(i._ZN4Anki5Cozmo22PickAndPlaceController6UpdateEv) refers to radians.o(i._ZN4Anki7RadiansC1Ev) for Anki::Radians::Radians()
    pickandplacecontroller.o(i._ZN4Anki5Cozmo22PickAndPlaceController6UpdateEv) refers to localization.o(i._ZN4Anki5Cozmo12Localization18GetDriveCenterPoseERfS2_RNS_7RadiansE) for Anki::Cozmo::Localization::GetDriveCenterPose(float&, float&, Anki::Radians&)
    pickandplacecontroller.o(i._ZN4Anki5Cozmo22PickAndPlaceController6UpdateEv) refers to dockingcontroller.o(i._ZN4Anki5Cozmo17DockingController20GetLastMarkerAbsPoseEv) for Anki::Cozmo::DockingController::GetLastMarkerAbsPose()
    pickandplacecontroller.o(i._ZN4Anki5Cozmo22PickAndPlaceController6UpdateEv) refers to trig_fast.o(i._Z9atan2_accff) for atan2_acc(float, float)
    pickandplacecontroller.o(i._ZN4Anki5Cozmo22PickAndPlaceController6UpdateEv) refers to localization.o(i._ZN4Anki5Cozmo12Localization17GetCurrPose_angleEv) for Anki::Cozmo::Localization::GetCurrPose_angle()
    pickandplacecontroller.o(i._ZN4Anki5Cozmo22PickAndPlaceController6UpdateEv) refers to radians.o(i._ZN4AnkiplERKNS_7RadiansEf) for Anki::operator +(const Anki::Radians&, float)
    pickandplacecontroller.o(i._ZN4Anki5Cozmo22PickAndPlaceController6UpdateEv) refers to steeringcontroller.o(i._ZN4Anki5Cozmo18SteeringController16ExecutePointTurnEfffffb) for Anki::Cozmo::SteeringController::ExecutePointTurn(float, float, float, float, float, bool)
    pickandplacecontroller.o(i._ZN4Anki5Cozmo22PickAndPlaceController6UpdateEv) refers to pickandplacecontroller.o(i._ZN4Anki5Cozmo22PickAndPlaceController22SendBlockPickUpMessageEb) for Anki::Cozmo::PickAndPlaceController::SendBlockPickUpMessage(bool)
    pickandplacecontroller.o(i._ZN4Anki5Cozmo22PickAndPlaceController6UpdateEv) refers to pickandplacecontroller.o(i._ZN4Anki5Cozmo22PickAndPlaceController22SendBlockPlacedMessageEb) for Anki::Cozmo::PickAndPlaceController::SendBlockPlacedMessage(bool)
    pickandplacecontroller.o(i._ZN4Anki5Cozmo22PickAndPlaceController6UpdateEv) refers to pickandplacecontroller.o(i._ZN4Anki5Cozmo22PickAndPlaceController15StartBackingOutEv) for Anki::Cozmo::PickAndPlaceController::StartBackingOut()
    pickandplacecontroller.o(i._ZN4Anki5Cozmo22PickAndPlaceController6UpdateEv) refers to imufilter.o(i._ZN4Anki5Cozmo9IMUFilter8GetPitchEv) for Anki::Cozmo::IMUFilter::GetPitch()
    pickandplacecontroller.o(i._ZN4Anki5Cozmo22PickAndPlaceController6UpdateEv) refers to pickandplacecontroller.o(i._ZN4Anki5Cozmo22PickAndPlaceController29SendMovingLiftPostDockMessageEv) for Anki::Cozmo::PickAndPlaceController::SendMovingLiftPostDockMessage()
    pickandplacecontroller.o(i._ZN4Anki5Cozmo22PickAndPlaceController6UpdateEv) refers to main.o(i.GetTimeStamp) for GetTimeStamp
    pickandplacecontroller.o(i._ZN4Anki5Cozmo22PickAndPlaceController6UpdateEv) refers to pathfollower.o(i._ZN4Anki5Cozmo12PathFollower9ClearPathEv) for Anki::Cozmo::PathFollower::ClearPath()
    pickandplacecontroller.o(i._ZN4Anki5Cozmo22PickAndPlaceController6UpdateEv) refers to sinf.o(i.__hardfp_sinf) for __hardfp_sinf
    pickandplacecontroller.o(i._ZN4Anki5Cozmo22PickAndPlaceController6UpdateEv) refers to cosf.o(i.__hardfp_cosf) for __hardfp_cosf
    pickandplacecontroller.o(i._ZN4Anki5Cozmo22PickAndPlaceController6UpdateEv) refers to pathfollower.o(i._ZN4Anki5Cozmo12PathFollower22AppendPathSegment_LineEjfffffff) for Anki::Cozmo::PathFollower::AppendPathSegment_Line(unsigned, float, float, float, float, float, float, float)
    pickandplacecontroller.o(i._ZN4Anki5Cozmo22PickAndPlaceController6UpdateEv) refers to pathfollower.o(i._ZN4Anki5Cozmo12PathFollower18StartPathTraversalEtb) for Anki::Cozmo::PathFollower::StartPathTraversal(unsigned short, bool)
    pickandplacecontroller.o(i._ZN4Anki5Cozmo22PickAndPlaceController6UpdateEv) refers to pickandplacecontroller.o(.data) for .data
    pickandplacecontroller.o(i._ZN4Anki5Cozmo22PickAndPlaceController6UpdateEv) refers to proxsensors.o(i._ZN4Anki5Cozmo11ProxSensors19EnableCliffDetectorEb) for Anki::Cozmo::ProxSensors::EnableCliffDetector(bool)
    pickandplacecontroller.o(i._ZN4Anki5Cozmo22PickAndPlaceController6UpdateEv) refers to imufilter.o(i._ZN4Anki5Cozmo9IMUFilter18EnablePickupDetectEb) for Anki::Cozmo::IMUFilter::EnablePickupDetect(bool)
    pickandplacecontroller.o(i._ZN4Anki5Cozmo22PickAndPlaceController6UpdateEv) refers to speedcontroller.o(i._ZN4Anki5Cozmo15SpeedController28SetUserCommandedAccelerationEt) for Anki::Cozmo::SpeedController::SetUserCommandedAcceleration(unsigned short)
    pickandplacecontroller.o(i._ZN4Anki5Cozmo22PickAndPlaceController6UpdateEv) refers to liftcontroller.o(i._ZN4Anki5Cozmo14LiftController11GetHeightMMEv) for Anki::Cozmo::LiftController::GetHeightMM()
    pickandplacecontroller.o(i._ZN4Anki5Cozmo22PickAndPlaceController6UpdateEv) refers to localization.o(i._ZN4Anki5Cozmo12Localization9SetOnRampEb) for Anki::Cozmo::Localization::SetOnRamp(bool)
    pickandplacecontroller.o(i._ZN4Anki5Cozmo22PickAndPlaceController6UpdateEv) refers to localization.o(i._ZN4Anki5Cozmo12Localization9GetDistToEff) for Anki::Cozmo::Localization::GetDistTo(float, float)
    pickandplacecontroller.o(i._ZN4Anki5Cozmo22PickAndPlaceController6UpdateEv) refers to dockingcontroller.o(i._ZN4Anki5Cozmo17DockingController23GetDistToLastDockMarkerEv) for Anki::Cozmo::DockingController::GetDistToLastDockMarker()
    pickandplacecontroller.o(i._ZN4Anki5Cozmo22PickAndPlaceController6UpdateEv) refers to localization.o(i._ZN4Anki5Cozmo12Localization11SetOnBridgeEb) for Anki::Cozmo::Localization::SetOnBridge(bool)
    pickandplacecontroller.o(i._ZN4Anki5Cozmo22PickAndPlaceController6UpdateEv) refers to steeringcontroller.o(i._ZN4Anki5Cozmo18SteeringController7GetModeEv) for Anki::Cozmo::SteeringController::GetMode()
    pickandplacecontroller.o(i._ZN4Anki5Cozmo22PickAndPlaceController6UpdateEv) refers to messages.o(i._ZN4Anki5Cozmo3HAL18BatteryIsOnChargerEv) for Anki::Cozmo::HAL::BatteryIsOnCharger()
    pickandplacecontroller.o(i._ZN4Anki5Cozmo22PickAndPlaceController6UpdateEv) refers to pickandplacecontroller.o(i._ZN4Anki5Cozmo22PickAndPlaceController31SendChargerMountCompleteMessageEb) for Anki::Cozmo::PickAndPlaceController::SendChargerMountCompleteMessage(bool)
    pickandplacecontroller.o(i._ZN4Anki5Cozmo22PickAndPlaceController6UpdateEv) refers to pathfollower.o(i._ZN4Anki5Cozmo12PathFollower16IsTraversingPathEv) for Anki::Cozmo::PathFollower::IsTraversingPath()
    pickandplacecontroller.o(i._ZN4Anki5Cozmo22PickAndPlaceController7GetModeEv) refers to pickandplacecontroller.o(.data) for .data
    pickandplacecontroller.o(i.__sti___26_pickAndPlaceController_cpp) refers to localization_geometry.o(i._ZN4Anki8Embedded7Point2fC1Ev) for Anki::Embedded::Point2f::Point2f()
    pickandplacecontroller.o(i.__sti___26_pickAndPlaceController_cpp) refers to radians.o(i._ZN4Anki7RadiansC1Ev) for Anki::Radians::Radians()
    pickandplacecontroller.o(i.__sti___26_pickAndPlaceController_cpp) refers to pickandplacecontroller.o(.data) for .data
    pickandplacecontroller.o(.ARM.exidx) refers to pickandplacecontroller.o(i._ZN4Anki5Cozmo22PickAndPlaceController7GetModeEv) for i._ZN4Anki5Cozmo22PickAndPlaceController7GetModeEv
    pickandplacecontroller.o(.ARM.exidx) refers to pickandplacecontroller.o(i._ZN4Anki5Cozmo22PickAndPlaceController5ResetEv) for i._ZN4Anki5Cozmo22PickAndPlaceController5ResetEv
    pickandplacecontroller.o(.ARM.exidx) refers to pickandplacecontroller.o(i._ZN4Anki5Cozmo22PickAndPlaceController4InitEv) for i._ZN4Anki5Cozmo22PickAndPlaceController4InitEv
    pickandplacecontroller.o(.ARM.exidx) refers to pickandplacecontroller.o(i._ZN4Anki5Cozmo22PickAndPlaceController12GetCurActionEv) for i._ZN4Anki5Cozmo22PickAndPlaceController12GetCurActionEv
    pickandplacecontroller.o(.ARM.exidx) refers to pickandplacecontroller.o(i._ZN4Anki5Cozmo22PickAndPlaceController18UpdatePoseSnapshotEv) for i._ZN4Anki5Cozmo22PickAndPlaceController18UpdatePoseSnapshotEv
    pickandplacecontroller.o(.ARM.exidx) refers to pickandplacecontroller.o(i._ZN4Anki5Cozmo22PickAndPlaceController22SendBlockPickUpMessageEb) for i._ZN4Anki5Cozmo22PickAndPlaceController22SendBlockPickUpMessageEb
    pickandplacecontroller.o(.ARM.exidx) refers to pickandplacecontroller.o(i._ZN4Anki5Cozmo22PickAndPlaceController22SendBlockPlacedMessageEb) for i._ZN4Anki5Cozmo22PickAndPlaceController22SendBlockPlacedMessageEb
    pickandplacecontroller.o(.ARM.exidx) refers to pickandplacecontroller.o(i._ZN4Anki5Cozmo22PickAndPlaceController29SendMovingLiftPostDockMessageEv) for i._ZN4Anki5Cozmo22PickAndPlaceController29SendMovingLiftPostDockMessageEv
    pickandplacecontroller.o(.ARM.exidx) refers to pickandplacecontroller.o(i._ZN4Anki5Cozmo22PickAndPlaceController31SendChargerMountCompleteMessageEb) for i._ZN4Anki5Cozmo22PickAndPlaceController31SendChargerMountCompleteMessageEb
    pickandplacecontroller.o(.ARM.exidx) refers to pickandplacecontroller.o(i._ZN4Anki5Cozmo22PickAndPlaceController15StartBackingOutEv) for i._ZN4Anki5Cozmo22PickAndPlaceController15StartBackingOutEv
    pickandplacecontroller.o(.ARM.exidx) refers to pickandplacecontroller.o(i._ZN4Anki5Cozmo22PickAndPlaceController6UpdateEv) for i._ZN4Anki5Cozmo22PickAndPlaceController6UpdateEv
    pickandplacecontroller.o(.ARM.exidx) refers to pickandplacecontroller.o(i._ZN4Anki5Cozmo22PickAndPlaceController20DidLastActionSucceedEv) for i._ZN4Anki5Cozmo22PickAndPlaceController20DidLastActionSucceedEv
    pickandplacecontroller.o(.ARM.exidx) refers to pickandplacecontroller.o(i._ZN4Anki5Cozmo22PickAndPlaceController6IsBusyEv) for i._ZN4Anki5Cozmo22PickAndPlaceController6IsBusyEv
    pickandplacecontroller.o(.ARM.exidx) refers to pickandplacecontroller.o(i._ZN4Anki5Cozmo22PickAndPlaceController15IsCarryingBlockEv) for i._ZN4Anki5Cozmo22PickAndPlaceController15IsCarryingBlockEv
    pickandplacecontroller.o(.ARM.exidx) refers to pickandplacecontroller.o(i._ZN4Anki5Cozmo22PickAndPlaceController13SetCarryStateEh) for i._ZN4Anki5Cozmo22PickAndPlaceController13SetCarryStateEh
    pickandplacecontroller.o(.ARM.exidx) refers to pickandplacecontroller.o(i._ZN4Anki5Cozmo22PickAndPlaceController13GetCarryStateEv) for i._ZN4Anki5Cozmo22PickAndPlaceController13GetCarryStateEv
    pickandplacecontroller.o(.ARM.exidx) refers to pickandplacecontroller.o(i._ZN4Anki5Cozmo22PickAndPlaceController11DockToBlockEhffffffbh) for i._ZN4Anki5Cozmo22PickAndPlaceController11DockToBlockEhffffffbh
    pickandplacecontroller.o(.ARM.exidx) refers to pickandplacecontroller.o(i._ZN4Anki5Cozmo22PickAndPlaceController13PlaceOnGroundEffffffb) for i._ZN4Anki5Cozmo22PickAndPlaceController13PlaceOnGroundEffffffb
    pickandplacecontroller.o(.ARM.exidx) refers to pickandplacecontroller.o(i._ZN4Anki5Cozmo22PickAndPlaceController19SetRollActionParamsEfffjf) for i._ZN4Anki5Cozmo22PickAndPlaceController19SetRollActionParamsEfffjf
    pickandplacecontroller.o(.ARM.exidx) refers to pickandplacecontroller.o(i.__sti___26_pickAndPlaceController_cpp) for i.__sti___26_pickAndPlaceController_cpp
    pickandplacecontroller.o(.init_array) refers to pickandplacecontroller.o(i.__sti___26_pickAndPlaceController_cpp) for __sti___26_pickAndPlaceController_cpp
    pickandplacecontroller.o(.init_array) refers to cpp_init.o(.text) for __cpp_initialize__aeabi_
    speedcontroller.o(i._ZN4Anki5Cozmo15SpeedController18ResetIntegralErrorEv) refers to speedcontroller.o(.data) for .data
    speedcontroller.o(i._ZN4Anki5Cozmo15SpeedController21RunAccelerationUpdateEv) refers to speedcontroller.o(.data) for .data
    speedcontroller.o(i._ZN4Anki5Cozmo15SpeedController28GetUserCommandedAccelerationEv) refers to speedcontroller.o(.data) for .data
    speedcontroller.o(i._ZN4Anki5Cozmo15SpeedController28GetUserCommandedDecelerationEv) refers to speedcontroller.o(.data) for .data
    speedcontroller.o(i._ZN4Anki5Cozmo15SpeedController28SetUserCommandedAccelerationEt) refers to speedcontroller.o(.data) for .data
    speedcontroller.o(i._ZN4Anki5Cozmo15SpeedController28SetUserCommandedDecelerationEt) refers to speedcontroller.o(.data) for .data
    speedcontroller.o(i._ZN4Anki5Cozmo15SpeedController30GetCurrentMeasuredVehicleSpeedEv) refers to wheelcontroller.o(i._ZN4Anki5Cozmo15WheelController22GetFilteredWheelSpeedsERfS2_) for Anki::Cozmo::WheelController::GetFilteredWheelSpeeds(float&, float&)
    speedcontroller.o(i._ZN4Anki5Cozmo15SpeedController33SetBothDesiredAndCurrentUserSpeedEs) refers to speedcontroller.o(.data) for .data
    speedcontroller.o(i._ZN4Anki5Cozmo15SpeedController34GetControllerCommandedVehicleSpeedEv) refers to speedcontroller.o(.data) for .data
    speedcontroller.o(i._ZN4Anki5Cozmo15SpeedController34SetControllerCommandedVehicleSpeedEs) refers to speedcontroller.o(.data) for .data
    speedcontroller.o(i._ZN4Anki5Cozmo15SpeedController35GetUserCommandedCurrentVehicleSpeedEv) refers to speedcontroller.o(.data) for .data
    speedcontroller.o(i._ZN4Anki5Cozmo15SpeedController35GetUserCommandedDesiredVehicleSpeedEv) refers to speedcontroller.o(.data) for .data
    speedcontroller.o(i._ZN4Anki5Cozmo15SpeedController35SetUserCommandedCurrentVehicleSpeedEs) refers to speedcontroller.o(.data) for .data
    speedcontroller.o(i._ZN4Anki5Cozmo15SpeedController35SetUserCommandedDesiredVehicleSpeedEs) refers to speedcontroller.o(i._ZN4Anki5Cozmo15SpeedController30GetCurrentMeasuredVehicleSpeedEv) for Anki::Cozmo::SpeedController::GetCurrentMeasuredVehicleSpeed()
    speedcontroller.o(i._ZN4Anki5Cozmo15SpeedController35SetUserCommandedDesiredVehicleSpeedEs) refers to dflti.o(.text) for __aeabi_i2d
    speedcontroller.o(i._ZN4Anki5Cozmo15SpeedController35SetUserCommandedDesiredVehicleSpeedEs) refers to speedcontroller.o(.data) for .data
    speedcontroller.o(i._ZN4Anki5Cozmo15SpeedController3RunEs) refers to speedcontroller.o(.data) for .data
    speedcontroller.o(i._ZN4Anki5Cozmo15SpeedController6ManageEv) refers to speedcontroller.o(i._ZN4Anki5Cozmo15SpeedController21RunAccelerationUpdateEv) for Anki::Cozmo::SpeedController::RunAccelerationUpdate()
    speedcontroller.o(i._ZN4Anki5Cozmo15SpeedController6ManageEv) refers to speedcontroller.o(i._ZN4Anki5Cozmo15SpeedController35GetUserCommandedCurrentVehicleSpeedEv) for Anki::Cozmo::SpeedController::GetUserCommandedCurrentVehicleSpeed()
    speedcontroller.o(i._ZN4Anki5Cozmo15SpeedController6ManageEv) refers to speedcontroller.o(.data) for .data
    speedcontroller.o(.ARM.exidx) refers to speedcontroller.o(i._ZN4Anki5Cozmo15SpeedController35SetUserCommandedCurrentVehicleSpeedEs) for i._ZN4Anki5Cozmo15SpeedController35SetUserCommandedCurrentVehicleSpeedEs
    speedcontroller.o(.ARM.exidx) refers to speedcontroller.o(i._ZN4Anki5Cozmo15SpeedController35GetUserCommandedCurrentVehicleSpeedEv) for i._ZN4Anki5Cozmo15SpeedController35GetUserCommandedCurrentVehicleSpeedEv
    speedcontroller.o(.ARM.exidx) refers to speedcontroller.o(i._ZN4Anki5Cozmo15SpeedController30GetCurrentMeasuredVehicleSpeedEv) for i._ZN4Anki5Cozmo15SpeedController30GetCurrentMeasuredVehicleSpeedEv
    speedcontroller.o(.ARM.exidx) refers to speedcontroller.o(i._ZN4Anki5Cozmo15SpeedController35SetUserCommandedDesiredVehicleSpeedEs) for i._ZN4Anki5Cozmo15SpeedController35SetUserCommandedDesiredVehicleSpeedEs
    speedcontroller.o(.ARM.exidx) refers to speedcontroller.o(i._ZN4Anki5Cozmo15SpeedController35GetUserCommandedDesiredVehicleSpeedEv) for i._ZN4Anki5Cozmo15SpeedController35GetUserCommandedDesiredVehicleSpeedEv
    speedcontroller.o(.ARM.exidx) refers to speedcontroller.o(i._ZN4Anki5Cozmo15SpeedController33SetBothDesiredAndCurrentUserSpeedEs) for i._ZN4Anki5Cozmo15SpeedController33SetBothDesiredAndCurrentUserSpeedEs
    speedcontroller.o(.ARM.exidx) refers to speedcontroller.o(i._ZN4Anki5Cozmo15SpeedController28SetUserCommandedAccelerationEt) for i._ZN4Anki5Cozmo15SpeedController28SetUserCommandedAccelerationEt
    speedcontroller.o(.ARM.exidx) refers to speedcontroller.o(i._ZN4Anki5Cozmo15SpeedController28GetUserCommandedAccelerationEv) for i._ZN4Anki5Cozmo15SpeedController28GetUserCommandedAccelerationEv
    speedcontroller.o(.ARM.exidx) refers to speedcontroller.o(i._ZN4Anki5Cozmo15SpeedController28SetUserCommandedDecelerationEt) for i._ZN4Anki5Cozmo15SpeedController28SetUserCommandedDecelerationEt
    speedcontroller.o(.ARM.exidx) refers to speedcontroller.o(i._ZN4Anki5Cozmo15SpeedController28GetUserCommandedDecelerationEv) for i._ZN4Anki5Cozmo15SpeedController28GetUserCommandedDecelerationEv
    speedcontroller.o(.ARM.exidx) refers to speedcontroller.o(i._ZN4Anki5Cozmo15SpeedController34SetControllerCommandedVehicleSpeedEs) for i._ZN4Anki5Cozmo15SpeedController34SetControllerCommandedVehicleSpeedEs
    speedcontroller.o(.ARM.exidx) refers to speedcontroller.o(i._ZN4Anki5Cozmo15SpeedController34GetControllerCommandedVehicleSpeedEv) for i._ZN4Anki5Cozmo15SpeedController34GetControllerCommandedVehicleSpeedEv
    speedcontroller.o(.ARM.exidx) refers to speedcontroller.o(i._ZN4Anki5Cozmo15SpeedController21RunAccelerationUpdateEv) for i._ZN4Anki5Cozmo15SpeedController21RunAccelerationUpdateEv
    speedcontroller.o(.ARM.exidx) refers to speedcontroller.o(i._ZN4Anki5Cozmo15SpeedController3RunEs) for i._ZN4Anki5Cozmo15SpeedController3RunEs
    speedcontroller.o(.ARM.exidx) refers to speedcontroller.o(i._ZN4Anki5Cozmo15SpeedController6ManageEv) for i._ZN4Anki5Cozmo15SpeedController6ManageEv
    speedcontroller.o(.ARM.exidx) refers to speedcontroller.o(i._ZN4Anki5Cozmo15SpeedController18ResetIntegralErrorEv) for i._ZN4Anki5Cozmo15SpeedController18ResetIntegralErrorEv
    steeringcontroller.o(i._ZN4Anki5Cozmo18SteeringController12SetSteerModeENS1_9SteerModeE) refers to pathfollower.o(i._ZN4Anki5Cozmo12PathFollower9ClearPathEv) for Anki::Cozmo::PathFollower::ClearPath()
    steeringcontroller.o(i._ZN4Anki5Cozmo18SteeringController12SetSteerModeENS1_9SteerModeE) refers to steeringcontroller.o(.data) for .data
    steeringcontroller.o(i._ZN4Anki5Cozmo18SteeringController13ExitPointTurnEv) refers to wheelcontroller.o(i._ZN4Anki5Cozmo15WheelController21SetDesiredWheelSpeedsEff) for Anki::Cozmo::WheelController::SetDesiredWheelSpeeds(float, float)
    steeringcontroller.o(i._ZN4Anki5Cozmo18SteeringController13ExitPointTurnEv) refers to steeringcontroller.o(i._ZN4Anki5Cozmo18SteeringController12SetSteerModeENS1_9SteerModeE) for Anki::Cozmo::SteeringController::SetSteerMode(Anki::Cozmo::SteeringController::SteerMode)
    steeringcontroller.o(i._ZN4Anki5Cozmo18SteeringController15ManagePointTurnEv) refers to velocityprofilegenerator.o(i._ZN4Anki24VelocityProfileGenerator4StepERfS1_) for Anki::VelocityProfileGenerator::Step(float&, float&)
    steeringcontroller.o(i._ZN4Anki5Cozmo18SteeringController15ManagePointTurnEv) refers to localization.o(i._ZN4Anki5Cozmo12Localization17GetCurrPose_angleEv) for Anki::Cozmo::Localization::GetCurrPose_angle()
    steeringcontroller.o(i._ZN4Anki5Cozmo18SteeringController15ManagePointTurnEv) refers to radians.o(i._ZN4AnkimiERKNS_7RadiansES2_) for Anki::operator -(const Anki::Radians&, const Anki::Radians&)
    steeringcontroller.o(i._ZN4Anki5Cozmo18SteeringController15ManagePointTurnEv) refers to radians.o(i._ZN4Anki7RadiansaSERKS0_) for Anki::Radians::operator =(const Anki::Radians&)
    steeringcontroller.o(i._ZN4Anki5Cozmo18SteeringController15ManagePointTurnEv) refers to radians.o(i._ZN4Anki7Radians15angularDistanceERKS0_b) for Anki::Radians::angularDistance(const Anki::Radians&, bool)
    steeringcontroller.o(i._ZN4Anki5Cozmo18SteeringController15ManagePointTurnEv) refers to main.o(i.GetTimeStamp) for GetTimeStamp
    steeringcontroller.o(i._ZN4Anki5Cozmo18SteeringController15ManagePointTurnEv) refers to wheelcontroller.o(i._ZN4Anki5Cozmo15WheelController15AreWheelsMovingEv) for Anki::Cozmo::WheelController::AreWheelsMoving()
    steeringcontroller.o(i._ZN4Anki5Cozmo18SteeringController15ManagePointTurnEv) refers to f2d.o(.text) for __aeabi_f2d
    steeringcontroller.o(i._ZN4Anki5Cozmo18SteeringController15ManagePointTurnEv) refers to dmul.o(.text) for __aeabi_dmul
    steeringcontroller.o(i._ZN4Anki5Cozmo18SteeringController15ManagePointTurnEv) refers to steeringcontroller.o(i._Z10trace_castIdEiT_) for trace_cast<double>(T1)
    steeringcontroller.o(i._ZN4Anki5Cozmo18SteeringController15ManagePointTurnEv) refers to radians.o(i._ZNK4Anki7Radians10getDegreesEv) for Anki::Radians::getDegrees() const
    steeringcontroller.o(i._ZN4Anki5Cozmo18SteeringController15ManagePointTurnEv) refers to messages.o(i._Z10trace_castIfEiT_) for trace_cast<float>(T1)
    steeringcontroller.o(i._ZN4Anki5Cozmo18SteeringController15ManagePointTurnEv) refers to messages.o(i._ZN4Anki5Cozmo14RobotInterface7SendLogEatthz) for Anki::Cozmo::RobotInterface::SendLog(signed char, unsigned short, unsigned short, unsigned char, ...)
    steeringcontroller.o(i._ZN4Anki5Cozmo18SteeringController15ManagePointTurnEv) refers to radians.o(i._ZN4Anki7RadiansC1Ef) for Anki::Radians::Radians(float)
    steeringcontroller.o(i._ZN4Anki5Cozmo18SteeringController15ManagePointTurnEv) refers to wheelcontroller.o(i._ZN4Anki5Cozmo15WheelController21SetDesiredWheelSpeedsEff) for Anki::Cozmo::WheelController::SetDesiredWheelSpeeds(float, float)
    steeringcontroller.o(i._ZN4Anki5Cozmo18SteeringController15ManagePointTurnEv) refers to steeringcontroller.o(i._ZN4Anki5Cozmo18SteeringController13ExitPointTurnEv) for Anki::Cozmo::SteeringController::ExitPointTurn()
    steeringcontroller.o(i._ZN4Anki5Cozmo18SteeringController15ManagePointTurnEv) refers to imufilter.o(i._ZN4Anki5Cozmo9IMUFilter16GetRotationSpeedEv) for Anki::Cozmo::IMUFilter::GetRotationSpeed()
    steeringcontroller.o(i._ZN4Anki5Cozmo18SteeringController15ManagePointTurnEv) refers to steeringcontroller.o(.bss) for .bss
    steeringcontroller.o(i._ZN4Anki5Cozmo18SteeringController15ManagePointTurnEv) refers to steeringcontroller.o(.data) for .data
    steeringcontroller.o(i._ZN4Anki5Cozmo18SteeringController16ExecutePointTurnEff) refers to messages.o(i._Z10trace_castIfEiT_) for trace_cast<float>(T1)
    steeringcontroller.o(i._ZN4Anki5Cozmo18SteeringController16ExecutePointTurnEff) refers to messages.o(i._ZN4Anki5Cozmo14RobotInterface7SendLogEatthz) for Anki::Cozmo::RobotInterface::SendLog(signed char, unsigned short, unsigned short, unsigned char, ...)
    steeringcontroller.o(i._ZN4Anki5Cozmo18SteeringController16ExecutePointTurnEff) refers to f2d.o(.text) for __aeabi_f2d
    steeringcontroller.o(i._ZN4Anki5Cozmo18SteeringController16ExecutePointTurnEff) refers to d2f.o(.text) for __aeabi_d2f
    steeringcontroller.o(i._ZN4Anki5Cozmo18SteeringController16ExecutePointTurnEff) refers to steeringcontroller.o(i._ZN4Anki5Cozmo18SteeringController25ExecutePointTurn_InternalEff) for Anki::Cozmo::SteeringController::ExecutePointTurn_Internal(float, float)
    steeringcontroller.o(i._ZN4Anki5Cozmo18SteeringController16ExecutePointTurnEff) refers to localization.o(i._ZN4Anki5Cozmo12Localization17GetCurrPose_angleEv) for Anki::Cozmo::Localization::GetCurrPose_angle()
    steeringcontroller.o(i._ZN4Anki5Cozmo18SteeringController16ExecutePointTurnEff) refers to radians.o(i._ZN4Anki7RadiansaSERKS0_) for Anki::Radians::operator =(const Anki::Radians&)
    steeringcontroller.o(i._ZN4Anki5Cozmo18SteeringController16ExecutePointTurnEff) refers to imufilter.o(i._ZN4Anki5Cozmo9IMUFilter16GetRotationSpeedEv) for Anki::Cozmo::IMUFilter::GetRotationSpeed()
    steeringcontroller.o(i._ZN4Anki5Cozmo18SteeringController16ExecutePointTurnEff) refers to velocityprofilegenerator.o(i._ZN4Anki24VelocityProfileGenerator12StartProfileEfffff) for Anki::VelocityProfileGenerator::StartProfile(float, float, float, float, float)
    steeringcontroller.o(i._ZN4Anki5Cozmo18SteeringController16ExecutePointTurnEff) refers to steeringcontroller.o(.data) for .data
    steeringcontroller.o(i._ZN4Anki5Cozmo18SteeringController16ExecutePointTurnEff) refers to steeringcontroller.o(.bss) for .bss
    steeringcontroller.o(i._ZN4Anki5Cozmo18SteeringController16ExecutePointTurnEfffffb) refers to messages.o(i._Z10trace_castIfEiT_) for trace_cast<float>(T1)
    steeringcontroller.o(i._ZN4Anki5Cozmo18SteeringController16ExecutePointTurnEfffffb) refers to messages.o(i._ZN4Anki5Cozmo14RobotInterface7SendLogEatthz) for Anki::Cozmo::RobotInterface::SendLog(signed char, unsigned short, unsigned short, unsigned char, ...)
    steeringcontroller.o(i._ZN4Anki5Cozmo18SteeringController16ExecutePointTurnEfffffb) refers to f2d.o(.text) for __aeabi_f2d
    steeringcontroller.o(i._ZN4Anki5Cozmo18SteeringController16ExecutePointTurnEfffffb) refers to d2f.o(.text) for __aeabi_d2f
    steeringcontroller.o(i._ZN4Anki5Cozmo18SteeringController16ExecutePointTurnEfffffb) refers to steeringcontroller.o(i._ZN4Anki5Cozmo18SteeringController25ExecutePointTurn_InternalEff) for Anki::Cozmo::SteeringController::ExecutePointTurn_Internal(float, float)
    steeringcontroller.o(i._ZN4Anki5Cozmo18SteeringController16ExecutePointTurnEfffffb) refers to radians.o(i._ZN4Anki7RadiansaSEf) for Anki::Radians::operator =(float)
    steeringcontroller.o(i._ZN4Anki5Cozmo18SteeringController16ExecutePointTurnEfffffb) refers to localization.o(i._ZN4Anki5Cozmo12Localization17GetCurrPose_angleEv) for Anki::Cozmo::Localization::GetCurrPose_angle()
    steeringcontroller.o(i._ZN4Anki5Cozmo18SteeringController16ExecutePointTurnEfffffb) refers to radians.o(i._ZN4Anki7RadiansaSERKS0_) for Anki::Radians::operator =(const Anki::Radians&)
    steeringcontroller.o(i._ZN4Anki5Cozmo18SteeringController16ExecutePointTurnEfffffb) refers to radians.o(i._ZN4AnkimiEfRKNS_7RadiansE) for Anki::operator -(float, const Anki::Radians&)
    steeringcontroller.o(i._ZN4Anki5Cozmo18SteeringController16ExecutePointTurnEfffffb) refers to steeringcontroller.o(i._ZN4Anki5Cozmo18SteeringController13ExitPointTurnEv) for Anki::Cozmo::SteeringController::ExitPointTurn()
    steeringcontroller.o(i._ZN4Anki5Cozmo18SteeringController16ExecutePointTurnEfffffb) refers to imufilter.o(i._ZN4Anki5Cozmo9IMUFilter16GetRotationSpeedEv) for Anki::Cozmo::IMUFilter::GetRotationSpeed()
    steeringcontroller.o(i._ZN4Anki5Cozmo18SteeringController16ExecutePointTurnEfffffb) refers to velocityprofilegenerator.o(i._ZN4Anki24VelocityProfileGenerator12StartProfileEfffffff) for Anki::VelocityProfileGenerator::StartProfile(float, float, float, float, float, float, float)
    steeringcontroller.o(i._ZN4Anki5Cozmo18SteeringController16ExecutePointTurnEfffffb) refers to steeringcontroller.o(.data) for .data
    steeringcontroller.o(i._ZN4Anki5Cozmo18SteeringController16ExecutePointTurnEfffffb) refers to steeringcontroller.o(.bss) for .bss
    steeringcontroller.o(i._ZN4Anki5Cozmo18SteeringController16ManagePathFollowEv) refers to pathfollower.o(i._ZN4Anki5Cozmo12PathFollower16IsTraversingPathEv) for Anki::Cozmo::PathFollower::IsTraversingPath()
    steeringcontroller.o(i._ZN4Anki5Cozmo18SteeringController16ManagePathFollowEv) refers to pathfollower.o(i._ZN4Anki5Cozmo12PathFollower12GetPathErrorERfS2_) for Anki::Cozmo::PathFollower::GetPathError(float&, float&)
    steeringcontroller.o(i._ZN4Anki5Cozmo18SteeringController16ManagePathFollowEv) refers to dockingcontroller.o(i._ZN4Anki5Cozmo17DockingController6IsBusyEv) for Anki::Cozmo::DockingController::IsBusy()
    steeringcontroller.o(i._ZN4Anki5Cozmo18SteeringController16ManagePathFollowEv) refers to speedcontroller.o(i._ZN4Anki5Cozmo15SpeedController35SetUserCommandedDesiredVehicleSpeedEs) for Anki::Cozmo::SpeedController::SetUserCommandedDesiredVehicleSpeed(short)
    steeringcontroller.o(i._ZN4Anki5Cozmo18SteeringController16ManagePathFollowEv) refers to speedcontroller.o(i._ZN4Anki5Cozmo15SpeedController35GetUserCommandedDesiredVehicleSpeedEv) for Anki::Cozmo::SpeedController::GetUserCommandedDesiredVehicleSpeed()
    steeringcontroller.o(i._ZN4Anki5Cozmo18SteeringController16ManagePathFollowEv) refers to steeringcontroller.o(i._ZN4Anki5Cozmo18SteeringController25RunLineFollowControllerNLEff) for Anki::Cozmo::SteeringController::RunLineFollowControllerNL(float, float)
    steeringcontroller.o(i._ZN4Anki5Cozmo18SteeringController16ManagePathFollowEv) refers to steeringcontroller.o(.data) for .data
    steeringcontroller.o(i._ZN4Anki5Cozmo18SteeringController17ManageDirectDriveEv) refers to wheelcontroller.o(i._ZN4Anki5Cozmo15WheelController21GetDesiredWheelSpeedsERfS2_) for Anki::Cozmo::WheelController::GetDesiredWheelSpeeds(float&, float&)
    steeringcontroller.o(i._ZN4Anki5Cozmo18SteeringController17ManageDirectDriveEv) refers to wheelcontroller.o(i._ZN4Anki5Cozmo15WheelController21SetDesiredWheelSpeedsEff) for Anki::Cozmo::WheelController::SetDesiredWheelSpeeds(float, float)
    steeringcontroller.o(i._ZN4Anki5Cozmo18SteeringController17ManageDirectDriveEv) refers to steeringcontroller.o(.data) for .data
    steeringcontroller.o(i._ZN4Anki5Cozmo18SteeringController17SetPathFollowModeEv) refers to steeringcontroller.o(.data) for .data
    steeringcontroller.o(i._ZN4Anki5Cozmo18SteeringController17SetPointTurnGainsEffff) refers to messages.o(i._Z10trace_castIfEiT_) for trace_cast<float>(T1)
    steeringcontroller.o(i._ZN4Anki5Cozmo18SteeringController17SetPointTurnGainsEffff) refers to messages.o(i._ZN4Anki5Cozmo14RobotInterface7SendLogEatthz) for Anki::Cozmo::RobotInterface::SendLog(signed char, unsigned short, unsigned short, unsigned char, ...)
    steeringcontroller.o(i._ZN4Anki5Cozmo18SteeringController17SetPointTurnGainsEffff) refers to steeringcontroller.o(.data) for .data
    steeringcontroller.o(i._ZN4Anki5Cozmo18SteeringController18ExecuteDirectDriveEffff) refers to steeringcontroller.o(i._ZN4Anki5Cozmo18SteeringController12SetSteerModeENS1_9SteerModeE) for Anki::Cozmo::SteeringController::SetSteerMode(Anki::Cozmo::SteeringController::SteerMode)
    steeringcontroller.o(i._ZN4Anki5Cozmo18SteeringController18ExecuteDirectDriveEffff) refers to wheelcontroller.o(i._ZN4Anki5Cozmo15WheelController21GetDesiredWheelSpeedsERfS2_) for Anki::Cozmo::WheelController::GetDesiredWheelSpeeds(float&, float&)
    steeringcontroller.o(i._ZN4Anki5Cozmo18SteeringController18ExecuteDirectDriveEffff) refers to steeringcontroller.o(.data) for .data
    steeringcontroller.o(i._ZN4Anki5Cozmo18SteeringController19GetPathAngOffsetCapEv) refers to steeringcontroller.o(.data) for .data
    steeringcontroller.o(i._ZN4Anki5Cozmo18SteeringController20GetPathDistOffsetCapEv) refers to steeringcontroller.o(.data) for .data
    steeringcontroller.o(i._ZN4Anki5Cozmo18SteeringController21CheckWheelSpeedLimitsERfS2_) refers to steeringcontroller.o(.data) for .data
    steeringcontroller.o(i._ZN4Anki5Cozmo18SteeringController21ExecuteDriveCurvatureEff) refers to steeringcontroller.o(i._ZN4Anki5Cozmo18SteeringController16ExecutePointTurnEff) for Anki::Cozmo::SteeringController::ExecutePointTurn(float, float)
    steeringcontroller.o(i._ZN4Anki5Cozmo18SteeringController21ExecuteDriveCurvatureEff) refers to steeringcontroller.o(i._ZN4Anki5Cozmo18SteeringController18ExecuteDirectDriveEffff) for Anki::Cozmo::SteeringController::ExecuteDirectDrive(float, float, float, float)
    steeringcontroller.o(i._ZN4Anki5Cozmo18SteeringController21GetRotationSpeedLimitEv) refers to steeringcontroller.o(.data) for .data
    steeringcontroller.o(i._ZN4Anki5Cozmo18SteeringController21SetRotationSpeedLimitEf) refers to steeringcontroller.o(.data) for .data
    steeringcontroller.o(i._ZN4Anki5Cozmo18SteeringController25DisableRotationSpeedLimitEv) refers to steeringcontroller.o(.data) for .data
    steeringcontroller.o(i._ZN4Anki5Cozmo18SteeringController25ExecutePointTurn_InternalEff) refers to speedcontroller.o(i._ZN4Anki5Cozmo15SpeedController35GetUserCommandedDesiredVehicleSpeedEv) for Anki::Cozmo::SpeedController::GetUserCommandedDesiredVehicleSpeed()
    steeringcontroller.o(i._ZN4Anki5Cozmo18SteeringController25ExecutePointTurn_InternalEff) refers to speedcontroller.o(i._ZN4Anki5Cozmo15SpeedController28SetUserCommandedDecelerationEt) for Anki::Cozmo::SpeedController::SetUserCommandedDeceleration(unsigned short)
    steeringcontroller.o(i._ZN4Anki5Cozmo18SteeringController25ExecutePointTurn_InternalEff) refers to speedcontroller.o(i._ZN4Anki5Cozmo15SpeedController35SetUserCommandedDesiredVehicleSpeedEs) for Anki::Cozmo::SpeedController::SetUserCommandedDesiredVehicleSpeed(short)
    steeringcontroller.o(i._ZN4Anki5Cozmo18SteeringController25ExecutePointTurn_InternalEff) refers to messages.o(i._Z10trace_castIfEiT_) for trace_cast<float>(T1)
    steeringcontroller.o(i._ZN4Anki5Cozmo18SteeringController25ExecutePointTurn_InternalEff) refers to messages.o(i._ZN4Anki5Cozmo14RobotInterface7SendLogEatthz) for Anki::Cozmo::RobotInterface::SendLog(signed char, unsigned short, unsigned short, unsigned char, ...)
    steeringcontroller.o(i._ZN4Anki5Cozmo18SteeringController25ExecutePointTurn_InternalEff) refers to steeringcontroller.o(.data) for .data
    steeringcontroller.o(i._ZN4Anki5Cozmo18SteeringController25RunLineFollowControllerNLEff) refers to speedcontroller.o(i._ZN4Anki5Cozmo15SpeedController30GetCurrentMeasuredVehicleSpeedEv) for Anki::Cozmo::SpeedController::GetCurrentMeasuredVehicleSpeed()
    steeringcontroller.o(i._ZN4Anki5Cozmo18SteeringController25RunLineFollowControllerNLEff) refers to speedcontroller.o(i._ZN4Anki5Cozmo15SpeedController34GetControllerCommandedVehicleSpeedEv) for Anki::Cozmo::SpeedController::GetControllerCommandedVehicleSpeed()
    steeringcontroller.o(i._ZN4Anki5Cozmo18SteeringController25RunLineFollowControllerNLEff) refers to speedcontroller.o(i._ZN4Anki5Cozmo15SpeedController35GetUserCommandedDesiredVehicleSpeedEv) for Anki::Cozmo::SpeedController::GetUserCommandedDesiredVehicleSpeed()
    steeringcontroller.o(i._ZN4Anki5Cozmo18SteeringController25RunLineFollowControllerNLEff) refers to radians.o(i._ZN4Anki7RadiansC1Ef) for Anki::Radians::Radians(float)
    steeringcontroller.o(i._ZN4Anki5Cozmo18SteeringController25RunLineFollowControllerNLEff) refers to wheelcontroller.o(i._ZN4Anki5Cozmo15WheelController15AreWheelsMovingEv) for Anki::Cozmo::WheelController::AreWheelsMoving()
    steeringcontroller.o(i._ZN4Anki5Cozmo18SteeringController25RunLineFollowControllerNLEff) refers to wheelcontroller.o(i._ZN4Anki5Cozmo15WheelController12SetCoastModeEb) for Anki::Cozmo::WheelController::SetCoastMode(bool)
    steeringcontroller.o(i._ZN4Anki5Cozmo18SteeringController25RunLineFollowControllerNLEff) refers to trig_fast.o(i._Z9atan_fastf) for atan_fast(float)
    steeringcontroller.o(i._ZN4Anki5Cozmo18SteeringController25RunLineFollowControllerNLEff) refers to steeringcontroller.o(i._ZN4Anki5Cozmo18SteeringController21CheckWheelSpeedLimitsERfS2_) for Anki::Cozmo::SteeringController::CheckWheelSpeedLimits(float&, float&)
    steeringcontroller.o(i._ZN4Anki5Cozmo18SteeringController25RunLineFollowControllerNLEff) refers to wheelcontroller.o(i._ZN4Anki5Cozmo15WheelController21SetDesiredWheelSpeedsEff) for Anki::Cozmo::WheelController::SetDesiredWheelSpeeds(float, float)
    steeringcontroller.o(i._ZN4Anki5Cozmo18SteeringController25RunLineFollowControllerNLEff) refers to steeringcontroller.o(.data) for .data
    steeringcontroller.o(i._ZN4Anki5Cozmo18SteeringController6ManageEv) refers to steeringcontroller.o(i._ZN4Anki5Cozmo18SteeringController15ManagePointTurnEv) for Anki::Cozmo::SteeringController::ManagePointTurn()
    steeringcontroller.o(i._ZN4Anki5Cozmo18SteeringController6ManageEv) refers to steeringcontroller.o(i._ZN4Anki5Cozmo18SteeringController16ManagePathFollowEv) for Anki::Cozmo::SteeringController::ManagePathFollow()
    steeringcontroller.o(i._ZN4Anki5Cozmo18SteeringController6ManageEv) refers to steeringcontroller.o(i._ZN4Anki5Cozmo18SteeringController17ManageDirectDriveEv) for Anki::Cozmo::SteeringController::ManageDirectDrive()
    steeringcontroller.o(i._ZN4Anki5Cozmo18SteeringController6ManageEv) refers to steeringcontroller.o(.data) for .data
    steeringcontroller.o(i._ZN4Anki5Cozmo18SteeringController7GetModeEv) refers to steeringcontroller.o(.data) for .data
    steeringcontroller.o(i._ZN4Anki5Cozmo18SteeringController8SetGainsEffff) refers to messages.o(i._Z10trace_castIfEiT_) for trace_cast<float>(T1)
    steeringcontroller.o(i._ZN4Anki5Cozmo18SteeringController8SetGainsEffff) refers to messages.o(i._ZN4Anki5Cozmo14RobotInterface7SendLogEatthz) for Anki::Cozmo::RobotInterface::SendLog(signed char, unsigned short, unsigned short, unsigned char, ...)
    steeringcontroller.o(i._ZN4Anki5Cozmo18SteeringController8SetGainsEffff) refers to steeringcontroller.o(.data) for .data
    steeringcontroller.o(i._ZN4Anki5Cozmo18SteeringController9GetK1GainEv) refers to steeringcontroller.o(.data) for .data
    steeringcontroller.o(i._ZN4Anki5Cozmo18SteeringController9GetK2GainEv) refers to steeringcontroller.o(.data) for .data
    steeringcontroller.o(i.__sti___22_steeringController_cpp) refers to radians.o(i._ZN4Anki7RadiansC1Ev) for Anki::Radians::Radians()
    steeringcontroller.o(i.__sti___22_steeringController_cpp) refers to radians.o(i._ZN4Anki7RadiansC1Ef) for Anki::Radians::Radians(float)
    steeringcontroller.o(i.__sti___22_steeringController_cpp) refers to velocityprofilegenerator.o(i._ZN4Anki24VelocityProfileGeneratorC1Ev) for Anki::VelocityProfileGenerator::VelocityProfileGenerator()
    steeringcontroller.o(i.__sti___22_steeringController_cpp) refers to steeringcontroller.o(.data) for .data
    steeringcontroller.o(i.__sti___22_steeringController_cpp) refers to steeringcontroller.o(.bss) for .bss
    steeringcontroller.o(.ARM.exidx) refers to steeringcontroller.o(i._ZN4Anki5Cozmo18SteeringController6ReInitEv) for i._ZN4Anki5Cozmo18SteeringController6ReInitEv
    steeringcontroller.o(.ARM.exidx) refers to steeringcontroller.o(i._ZN4Anki5Cozmo18SteeringController8SetGainsEffff) for i._ZN4Anki5Cozmo18SteeringController8SetGainsEffff
    steeringcontroller.o(.ARM.exidx) refers to steeringcontroller.o(i._ZN4Anki5Cozmo18SteeringController9GetK1GainEv) for i._ZN4Anki5Cozmo18SteeringController9GetK1GainEv
    steeringcontroller.o(.ARM.exidx) refers to steeringcontroller.o(i._ZN4Anki5Cozmo18SteeringController9GetK2GainEv) for i._ZN4Anki5Cozmo18SteeringController9GetK2GainEv
    steeringcontroller.o(.ARM.exidx) refers to steeringcontroller.o(i._ZN4Anki5Cozmo18SteeringController20GetPathDistOffsetCapEv) for i._ZN4Anki5Cozmo18SteeringController20GetPathDistOffsetCapEv
    steeringcontroller.o(.ARM.exidx) refers to steeringcontroller.o(i._ZN4Anki5Cozmo18SteeringController19GetPathAngOffsetCapEv) for i._ZN4Anki5Cozmo18SteeringController19GetPathAngOffsetCapEv
    steeringcontroller.o(.ARM.exidx) refers to steeringcontroller.o(i._ZN4Anki5Cozmo18SteeringController17SetPointTurnGainsEffff) for i._ZN4Anki5Cozmo18SteeringController17SetPointTurnGainsEffff
    steeringcontroller.o(.ARM.exidx) refers to steeringcontroller.o(i._ZN4Anki5Cozmo18SteeringController7GetModeEv) for i._ZN4Anki5Cozmo18SteeringController7GetModeEv
    steeringcontroller.o(.ARM.exidx) refers to steeringcontroller.o(i._ZN4Anki5Cozmo18SteeringController12SetSteerModeENS1_9SteerModeE) for i._ZN4Anki5Cozmo18SteeringController12SetSteerModeENS1_9SteerModeE
    steeringcontroller.o(.ARM.exidx) refers to steeringcontroller.o(i._ZN4Anki5Cozmo18SteeringController13ExitPointTurnEv) for i._ZN4Anki5Cozmo18SteeringController13ExitPointTurnEv
    steeringcontroller.o(.ARM.exidx) refers to steeringcontroller.o(i._ZN4Anki5Cozmo18SteeringController15ManagePointTurnEv) for i._ZN4Anki5Cozmo18SteeringController15ManagePointTurnEv
    steeringcontroller.o(.ARM.exidx) refers to steeringcontroller.o(i._ZN4Anki5Cozmo18SteeringController17ManageDirectDriveEv) for i._ZN4Anki5Cozmo18SteeringController17ManageDirectDriveEv
    steeringcontroller.o(.ARM.exidx) refers to steeringcontroller.o(i._ZN4Anki5Cozmo18SteeringController21CheckWheelSpeedLimitsERfS2_) for i._ZN4Anki5Cozmo18SteeringController21CheckWheelSpeedLimitsERfS2_
    steeringcontroller.o(.ARM.exidx) refers to steeringcontroller.o(i._ZN4Anki5Cozmo18SteeringController25RunLineFollowControllerNLEff) for i._ZN4Anki5Cozmo18SteeringController25RunLineFollowControllerNLEff
    steeringcontroller.o(.ARM.exidx) refers to steeringcontroller.o(i._ZN4Anki5Cozmo18SteeringController16ManagePathFollowEv) for i._ZN4Anki5Cozmo18SteeringController16ManagePathFollowEv
    steeringcontroller.o(.ARM.exidx) refers to steeringcontroller.o(i._ZN4Anki5Cozmo18SteeringController6ManageEv) for i._ZN4Anki5Cozmo18SteeringController6ManageEv
    steeringcontroller.o(.ARM.exidx) refers to steeringcontroller.o(i._ZN4Anki5Cozmo18SteeringController21SetRotationSpeedLimitEf) for i._ZN4Anki5Cozmo18SteeringController21SetRotationSpeedLimitEf
    steeringcontroller.o(.ARM.exidx) refers to steeringcontroller.o(i._ZN4Anki5Cozmo18SteeringController21GetRotationSpeedLimitEv) for i._ZN4Anki5Cozmo18SteeringController21GetRotationSpeedLimitEv
    steeringcontroller.o(.ARM.exidx) refers to steeringcontroller.o(i._ZN4Anki5Cozmo18SteeringController25DisableRotationSpeedLimitEv) for i._ZN4Anki5Cozmo18SteeringController25DisableRotationSpeedLimitEv
    steeringcontroller.o(.ARM.exidx) refers to steeringcontroller.o(i._ZN4Anki5Cozmo18SteeringController17SetPathFollowModeEv) for i._ZN4Anki5Cozmo18SteeringController17SetPathFollowModeEv
    steeringcontroller.o(.ARM.exidx) refers to steeringcontroller.o(i._ZN4Anki5Cozmo18SteeringController18ExecuteDirectDriveEffff) for i._ZN4Anki5Cozmo18SteeringController18ExecuteDirectDriveEffff
    steeringcontroller.o(.ARM.exidx) refers to steeringcontroller.o(i._ZN4Anki5Cozmo18SteeringController25ExecutePointTurn_InternalEff) for i._ZN4Anki5Cozmo18SteeringController25ExecutePointTurn_InternalEff
    steeringcontroller.o(.ARM.exidx) refers to steeringcontroller.o(i._ZN4Anki5Cozmo18SteeringController16ExecutePointTurnEff) for i._ZN4Anki5Cozmo18SteeringController16ExecutePointTurnEff
    steeringcontroller.o(.ARM.exidx) refers to steeringcontroller.o(i._ZN4Anki5Cozmo18SteeringController16ExecutePointTurnEfffffb) for i._ZN4Anki5Cozmo18SteeringController16ExecutePointTurnEfffffb
    steeringcontroller.o(.ARM.exidx) refers to steeringcontroller.o(i._ZN4Anki5Cozmo18SteeringController21ExecuteDriveCurvatureEff) for i._ZN4Anki5Cozmo18SteeringController21ExecuteDriveCurvatureEff
    steeringcontroller.o(.ARM.exidx) refers to steeringcontroller.o(i.__sti___22_steeringController_cpp) for i.__sti___22_steeringController_cpp
    steeringcontroller.o(.init_array) refers to steeringcontroller.o(i.__sti___22_steeringController_cpp) for __sti___22_steeringController_cpp
    steeringcontroller.o(.init_array) refers to cpp_init.o(.text) for __cpp_initialize__aeabi_
    timeprofiler.o(i._ZN4Anki5Cozmo12TimeProfiler10PrintStatsEv) refers to timeprofiler.o(i._ZN4Anki5Cozmo12TimeProfiler12ComputeStatsEPPjS3_) for Anki::Cozmo::TimeProfiler::ComputeStats(unsigned**, unsigned**)
    timeprofiler.o(i._ZN4Anki5Cozmo12TimeProfiler10PrintStatsEv) refers to strlen.o(.text) for strlen
    timeprofiler.o(i._ZN4Anki5Cozmo12TimeProfiler10PrintStatsEv) refers to memcpya.o(.text) for __aeabi_memcpy
    timeprofiler.o(i._ZN4Anki5Cozmo12TimeProfiler10PrintStatsEv) refers to timeprofiler.o(i._ZN4Anki5Cozmo14RobotInterface11SendMessageERKNS1_15TimeProfileStatE) for Anki::Cozmo::RobotInterface::SendMessage(const Anki::Cozmo::RobotInterface::TimeProfileStat&)
    timeprofiler.o(i._ZN4Anki5Cozmo12TimeProfiler11GetProfNameEj) refers to messages.o(i._ZN4Anki5Cozmo14RobotInterface7SendLogEatthz) for Anki::Cozmo::RobotInterface::SendLog(signed char, unsigned short, unsigned short, unsigned char, ...)
    timeprofiler.o(i._ZN4Anki5Cozmo12TimeProfiler12ComputeStatsEPPjS3_) refers to messages.o(i._ZN4Anki5Cozmo14RobotInterface7SendLogEatthz) for Anki::Cozmo::RobotInterface::SendLog(signed char, unsigned short, unsigned short, unsigned char, ...)
    timeprofiler.o(i._ZN4Anki5Cozmo12TimeProfiler12EndProfilingEv) refers to timeprofiler.o(i._ZN4Anki5Cozmo12TimeProfiler24MarkNextProfile_InternalEv) for Anki::Cozmo::TimeProfiler::MarkNextProfile_Internal()
    timeprofiler.o(i._ZN4Anki5Cozmo12TimeProfiler14StartProfilingEPKc) refers to timer.o(i._ZN4Anki5Cozmo3HAL15GetMicroCounterEv) for Anki::Cozmo::HAL::GetMicroCounter()
    timeprofiler.o(i._ZN4Anki5Cozmo12TimeProfiler14StartProfilingEPKc) refers to strncpy.o(.text) for strncpy
    timeprofiler.o(i._ZN4Anki5Cozmo12TimeProfiler15MarkNextProfileEPKc) refers to strncpy.o(.text) for strncpy
    timeprofiler.o(i._ZN4Anki5Cozmo12TimeProfiler15MarkNextProfileEPKc) refers to timeprofiler.o(i._ZN4Anki5Cozmo12TimeProfiler24MarkNextProfile_InternalEv) for Anki::Cozmo::TimeProfiler::MarkNextProfile_Internal()
    timeprofiler.o(i._ZN4Anki5Cozmo12TimeProfiler24MarkNextProfile_InternalEv) refers to timer.o(i._ZN4Anki5Cozmo3HAL15GetMicroCounterEv) for Anki::Cozmo::HAL::GetMicroCounter()
    timeprofiler.o(i._ZN4Anki5Cozmo12TimeProfiler5ResetEv) refers to memseta.o(.text) for __aeabi_memclr4
    timeprofiler.o(i._ZN4Anki5Cozmo12TimeProfilerC1EPKc) refers to strncpy.o(.text) for strncpy
    timeprofiler.o(i._ZN4Anki5Cozmo12TimeProfilerC1EPKc) refers to timeprofiler.o(i._ZN4Anki5Cozmo12TimeProfiler5ResetEv) for Anki::Cozmo::TimeProfiler::Reset()
    timeprofiler.o(.ARM.exidx) refers to timeprofiler.o(i._ZN4Anki5Cozmo12TimeProfiler5ResetEv) for i._ZN4Anki5Cozmo12TimeProfiler5ResetEv
    timeprofiler.o(.ARM.exidx) refers to timeprofiler.o(i._ZN4Anki5Cozmo12TimeProfilerC1EPKc) for i._ZN4Anki5Cozmo12TimeProfilerC1EPKc
    timeprofiler.o(.ARM.exidx) refers to timeprofiler.o(i._ZN4Anki5Cozmo12TimeProfiler14StartProfilingEPKc) for i._ZN4Anki5Cozmo12TimeProfiler14StartProfilingEPKc
    timeprofiler.o(.ARM.exidx) refers to timeprofiler.o(i._ZN4Anki5Cozmo12TimeProfiler24MarkNextProfile_InternalEv) for i._ZN4Anki5Cozmo12TimeProfiler24MarkNextProfile_InternalEv
    timeprofiler.o(.ARM.exidx) refers to timeprofiler.o(i._ZN4Anki5Cozmo12TimeProfiler15MarkNextProfileEPKc) for i._ZN4Anki5Cozmo12TimeProfiler15MarkNextProfileEPKc
    timeprofiler.o(.ARM.exidx) refers to timeprofiler.o(i._ZN4Anki5Cozmo12TimeProfiler12EndProfilingEv) for i._ZN4Anki5Cozmo12TimeProfiler12EndProfilingEv
    timeprofiler.o(.ARM.exidx) refers to timeprofiler.o(i._ZN4Anki5Cozmo12TimeProfiler11GetProfNameEj) for i._ZN4Anki5Cozmo12TimeProfiler11GetProfNameEj
    timeprofiler.o(.ARM.exidx) refers to timeprofiler.o(i._ZN4Anki5Cozmo12TimeProfiler12ComputeStatsEPPjS3_) for i._ZN4Anki5Cozmo12TimeProfiler12ComputeStatsEPPjS3_
    timeprofiler.o(.ARM.exidx) refers to timeprofiler.o(i._ZN4Anki5Cozmo12TimeProfiler10PrintStatsEv) for i._ZN4Anki5Cozmo12TimeProfiler10PrintStatsEv
    wheelcontroller.o(i._ZN4Anki5Cozmo15WheelController12SetCoastModeEb) refers to wheelcontroller.o(i._ZN4Anki5Cozmo15WheelController21ResetIntegralGainSumsEv) for Anki::Cozmo::WheelController::ResetIntegralGainSums()
    wheelcontroller.o(i._ZN4Anki5Cozmo15WheelController12SetCoastModeEb) refers to wheelcontroller.o(.data) for .data
    wheelcontroller.o(i._ZN4Anki5Cozmo15WheelController15AreWheelsMovingEv) refers to main.o(i.GetTimeStamp) for GetTimeStamp
    wheelcontroller.o(i._ZN4Anki5Cozmo15WheelController15AreWheelsMovingEv) refers to wheelcontroller.o(.data) for .data
    wheelcontroller.o(i._ZN4Anki5Cozmo15WheelController16AreWheelsPoweredEv) refers to wheelcontroller.o(.data) for .data
    wheelcontroller.o(i._ZN4Anki5Cozmo15WheelController17ComputeWheelPowerEfff) refers to f2d.o(.text) for __aeabi_f2d
    wheelcontroller.o(i._ZN4Anki5Cozmo15WheelController17ComputeWheelPowerEfff) refers to dmul.o(.text) for __aeabi_dmul
    wheelcontroller.o(i._ZN4Anki5Cozmo15WheelController17ComputeWheelPowerEfff) refers to dadd.o(.text) for __aeabi_dadd
    wheelcontroller.o(i._ZN4Anki5Cozmo15WheelController17ComputeWheelPowerEfff) refers to d2f.o(.text) for __aeabi_d2f
    wheelcontroller.o(i._ZN4Anki5Cozmo15WheelController17ComputeWheelPowerEfff) refers to wheelcontroller.o(.data) for .data
    wheelcontroller.o(i._ZN4Anki5Cozmo15WheelController21GetDesiredWheelSpeedsERfS2_) refers to wheelcontroller.o(.data) for .data
    wheelcontroller.o(i._ZN4Anki5Cozmo15WheelController21ResetIntegralGainSumsEv) refers to wheelcontroller.o(.data) for .data
    wheelcontroller.o(i._ZN4Anki5Cozmo15WheelController21SetDesiredWheelSpeedsEff) refers to wheelcontroller.o(.data) for .data
    wheelcontroller.o(i._ZN4Anki5Cozmo15WheelController22GetFilteredWheelSpeedsERfS2_) refers to wheelcontroller.o(.data) for .data
    wheelcontroller.o(i._ZN4Anki5Cozmo15WheelController26utilSetVehicleOLTrajectoryEtt) refers to wheelcontroller.o(i._ZN4Anki5Cozmo15WheelController21SetDesiredWheelSpeedsEff) for Anki::Cozmo::WheelController::SetDesiredWheelSpeeds(float, float)
    wheelcontroller.o(i._ZN4Anki5Cozmo15WheelController27EncoderSpeedFilterIterationEv) refers to motors.o(i._ZN4Anki5Cozmo3HAL13MotorGetSpeedEh) for Anki::Cozmo::HAL::MotorGetSpeed(unsigned char)
    wheelcontroller.o(i._ZN4Anki5Cozmo15WheelController27EncoderSpeedFilterIterationEv) refers to wheelcontroller.o(.data) for .data
    wheelcontroller.o(i._ZN4Anki5Cozmo15WheelController28GetAverageFilteredWheelSpeedEv) refers to wheelcontroller.o(.data) for .data
    wheelcontroller.o(i._ZN4Anki5Cozmo15WheelController3RunEv) refers to wheelcontroller.o(i._ZN4Anki5Cozmo15WheelController17ComputeWheelPowerEfff) for Anki::Cozmo::WheelController::ComputeWheelPower(float, float, float)
    wheelcontroller.o(i._ZN4Anki5Cozmo15WheelController3RunEv) refers to motors.o(i._ZN4Anki5Cozmo3HAL13MotorSetPowerEhf) for Anki::Cozmo::HAL::MotorSetPower(unsigned char, float)
    wheelcontroller.o(i._ZN4Anki5Cozmo15WheelController3RunEv) refers to main.o(i.GetTimeStamp) for GetTimeStamp
    wheelcontroller.o(i._ZN4Anki5Cozmo15WheelController3RunEv) refers to wheelcontroller.o(.data) for .data
    wheelcontroller.o(i._ZN4Anki5Cozmo15WheelController6EnableEv) refers to wheelcontroller.o(.data) for .data
    wheelcontroller.o(i._ZN4Anki5Cozmo15WheelController6ManageEv) refers to wheelcontroller.o(i._ZN4Anki5Cozmo15WheelController3RunEv) for Anki::Cozmo::WheelController::Run()
    wheelcontroller.o(i._ZN4Anki5Cozmo15WheelController6ManageEv) refers to wheelcontroller.o(i._ZN4Anki5Cozmo15WheelController27EncoderSpeedFilterIterationEv) for Anki::Cozmo::WheelController::EncoderSpeedFilterIteration()
    wheelcontroller.o(i._ZN4Anki5Cozmo15WheelController6ManageEv) refers to wheelcontroller.o(.data) for .data
    wheelcontroller.o(i._ZN4Anki5Cozmo15WheelController7DisableEv) refers to wheelcontroller.o(i._ZN4Anki5Cozmo15WheelController21ResetIntegralGainSumsEv) for Anki::Cozmo::WheelController::ResetIntegralGainSums()
    wheelcontroller.o(i._ZN4Anki5Cozmo15WheelController7DisableEv) refers to motors.o(i._ZN4Anki5Cozmo3HAL13MotorSetPowerEhf) for Anki::Cozmo::HAL::MotorSetPower(unsigned char, float)
    wheelcontroller.o(i._ZN4Anki5Cozmo15WheelController7DisableEv) refers to wheelcontroller.o(.data) for .data
    wheelcontroller.o(i._ZN4Anki5Cozmo15WheelController8SetGainsEfff) refers to messages.o(i._ZN4Anki5Cozmo14RobotInterface7SendLogEatthz) for Anki::Cozmo::RobotInterface::SendLog(signed char, unsigned short, unsigned short, unsigned char, ...)
    wheelcontroller.o(i._ZN4Anki5Cozmo15WheelController8SetGainsEfff) refers to wheelcontroller.o(.data) for .data
    wheelcontroller.o(.ARM.exidx) refers to wheelcontroller.o(i._ZN4Anki5Cozmo15WheelController8SetGainsEfff) for i._ZN4Anki5Cozmo15WheelController8SetGainsEfff
    wheelcontroller.o(.ARM.exidx) refers to wheelcontroller.o(i._ZN4Anki5Cozmo15WheelController6EnableEv) for i._ZN4Anki5Cozmo15WheelController6EnableEv
    wheelcontroller.o(.ARM.exidx) refers to wheelcontroller.o(i._ZN4Anki5Cozmo15WheelController21ResetIntegralGainSumsEv) for i._ZN4Anki5Cozmo15WheelController21ResetIntegralGainSumsEv
    wheelcontroller.o(.ARM.exidx) refers to wheelcontroller.o(i._ZN4Anki5Cozmo15WheelController7DisableEv) for i._ZN4Anki5Cozmo15WheelController7DisableEv
    wheelcontroller.o(.ARM.exidx) refers to wheelcontroller.o(i._ZN4Anki5Cozmo15WheelController17ComputeWheelPowerEfff) for i._ZN4Anki5Cozmo15WheelController17ComputeWheelPowerEfff
    wheelcontroller.o(.ARM.exidx) refers to wheelcontroller.o(i._ZN4Anki5Cozmo15WheelController3RunEv) for i._ZN4Anki5Cozmo15WheelController3RunEv
    wheelcontroller.o(.ARM.exidx) refers to wheelcontroller.o(i._ZN4Anki5Cozmo15WheelController27EncoderSpeedFilterIterationEv) for i._ZN4Anki5Cozmo15WheelController27EncoderSpeedFilterIterationEv
    wheelcontroller.o(.ARM.exidx) refers to wheelcontroller.o(i._ZN4Anki5Cozmo15WheelController6ManageEv) for i._ZN4Anki5Cozmo15WheelController6ManageEv
    wheelcontroller.o(.ARM.exidx) refers to wheelcontroller.o(i._ZN4Anki5Cozmo15WheelController22GetFilteredWheelSpeedsERfS2_) for i._ZN4Anki5Cozmo15WheelController22GetFilteredWheelSpeedsERfS2_
    wheelcontroller.o(.ARM.exidx) refers to wheelcontroller.o(i._ZN4Anki5Cozmo15WheelController28GetAverageFilteredWheelSpeedEv) for i._ZN4Anki5Cozmo15WheelController28GetAverageFilteredWheelSpeedEv
    wheelcontroller.o(.ARM.exidx) refers to wheelcontroller.o(i._ZN4Anki5Cozmo15WheelController21GetDesiredWheelSpeedsERfS2_) for i._ZN4Anki5Cozmo15WheelController21GetDesiredWheelSpeedsERfS2_
    wheelcontroller.o(.ARM.exidx) refers to wheelcontroller.o(i._ZN4Anki5Cozmo15WheelController21SetDesiredWheelSpeedsEff) for i._ZN4Anki5Cozmo15WheelController21SetDesiredWheelSpeedsEff
    wheelcontroller.o(.ARM.exidx) refers to wheelcontroller.o(i._ZN4Anki5Cozmo15WheelController26utilSetVehicleOLTrajectoryEtt) for i._ZN4Anki5Cozmo15WheelController26utilSetVehicleOLTrajectoryEtt
    wheelcontroller.o(.ARM.exidx) refers to wheelcontroller.o(i._ZN4Anki5Cozmo15WheelController12SetCoastModeEb) for i._ZN4Anki5Cozmo15WheelController12SetCoastModeEb
    wheelcontroller.o(.ARM.exidx) refers to wheelcontroller.o(i._ZN4Anki5Cozmo15WheelController16AreWheelsPoweredEv) for i._ZN4Anki5Cozmo15WheelController16AreWheelsPoweredEv
    wheelcontroller.o(.ARM.exidx) refers to wheelcontroller.o(i._ZN4Anki5Cozmo15WheelController15AreWheelsMovingEv) for i._ZN4Anki5Cozmo15WheelController15AreWheelsMovingEv
    proxsensors.o(i._ZN4Anki5Cozmo11ProxSensors11UpdateCliffEv) refers to wheelcontroller.o(i._ZN4Anki5Cozmo15WheelController28GetAverageFilteredWheelSpeedEv) for Anki::Cozmo::WheelController::GetAverageFilteredWheelSpeed()
    proxsensors.o(i._ZN4Anki5Cozmo11ProxSensors11UpdateCliffEv) refers to lights.o(i._ZN4Anki5Cozmo3HAL15IsCliffDetectedEv) for Anki::Cozmo::HAL::IsCliffDetected()
    proxsensors.o(i._ZN4Anki5Cozmo11ProxSensors11UpdateCliffEv) refers to imufilter.o(i._ZN4Anki5Cozmo9IMUFilter10IsPickedUpEv) for Anki::Cozmo::IMUFilter::IsPickedUp()
    proxsensors.o(i._ZN4Anki5Cozmo11ProxSensors11UpdateCliffEv) refers to proxsensors.o(i._ZN4Anki5Cozmo11ProxSensors17QueueUncliffEventEv) for Anki::Cozmo::ProxSensors::QueueUncliffEvent()
    proxsensors.o(i._ZN4Anki5Cozmo11ProxSensors11UpdateCliffEv) refers to messages.o(i._ZN4Anki5Cozmo14RobotInterface7SendLogEatthz) for Anki::Cozmo::RobotInterface::SendLog(signed char, unsigned short, unsigned short, unsigned char, ...)
    proxsensors.o(i._ZN4Anki5Cozmo11ProxSensors11UpdateCliffEv) refers to pickandplacecontroller.o(i._ZN4Anki5Cozmo22PickAndPlaceController5ResetEv) for Anki::Cozmo::PickAndPlaceController::Reset()
    proxsensors.o(i._ZN4Anki5Cozmo11ProxSensors11UpdateCliffEv) refers to steeringcontroller.o(i._ZN4Anki5Cozmo18SteeringController18ExecuteDirectDriveEffff) for Anki::Cozmo::SteeringController::ExecuteDirectDrive(float, float, float, float)
    proxsensors.o(i._ZN4Anki5Cozmo11ProxSensors11UpdateCliffEv) refers to wifi.o(i._ZN4Anki5Cozmo3HAL16RadioSendMessageEPKvth) for Anki::Cozmo::HAL::RadioSendMessage(const void*, unsigned short, unsigned char)
    proxsensors.o(i._ZN4Anki5Cozmo11ProxSensors11UpdateCliffEv) refers to localization.o(i._ZN4Anki5Cozmo12Localization17GetCurrPose_angleEv) for Anki::Cozmo::Localization::GetCurrPose_angle()
    proxsensors.o(i._ZN4Anki5Cozmo11ProxSensors11UpdateCliffEv) refers to localization.o(i._ZN4Anki5Cozmo12Localization13GetCurrPose_yEv) for Anki::Cozmo::Localization::GetCurrPose_y()
    proxsensors.o(i._ZN4Anki5Cozmo11ProxSensors11UpdateCliffEv) refers to localization.o(i._ZN4Anki5Cozmo12Localization13GetCurrPose_xEv) for Anki::Cozmo::Localization::GetCurrPose_x()
    proxsensors.o(i._ZN4Anki5Cozmo11ProxSensors11UpdateCliffEv) refers to proxsensors.o(i._ZN4Anki5Cozmo11ProxSensors15QueueCliffEventEfff) for Anki::Cozmo::ProxSensors::QueueCliffEvent(float, float, float)
    proxsensors.o(i._ZN4Anki5Cozmo11ProxSensors11UpdateCliffEv) refers to main.o(i.GetTimeStamp) for GetTimeStamp
    proxsensors.o(i._ZN4Anki5Cozmo11ProxSensors11UpdateCliffEv) refers to proxsensors.o(i._ZN4Anki5Cozmo14RobotInterface11SendMessageERKNS0_10CliffEventE) for Anki::Cozmo::RobotInterface::SendMessage(const Anki::Cozmo::CliffEvent&)
    proxsensors.o(i._ZN4Anki5Cozmo11ProxSensors11UpdateCliffEv) refers to proxsensors.o(.data) for .data
    proxsensors.o(i._ZN4Anki5Cozmo11ProxSensors11UpdateCliffEv) refers to proxsensors.o(.bss) for .bss
    proxsensors.o(i._ZN4Anki5Cozmo11ProxSensors15QueueCliffEventEfff) refers to main.o(i.GetTimeStamp) for GetTimeStamp
    proxsensors.o(i._ZN4Anki5Cozmo11ProxSensors15QueueCliffEventEfff) refers to proxsensors.o(.data) for .data
    proxsensors.o(i._ZN4Anki5Cozmo11ProxSensors15QueueCliffEventEfff) refers to proxsensors.o(.bss) for .bss
    proxsensors.o(i._ZN4Anki5Cozmo11ProxSensors17EnableStopOnCliffEb) refers to proxsensors.o(.data) for .data
    proxsensors.o(i._ZN4Anki5Cozmo11ProxSensors17QueueUncliffEventEv) refers to main.o(i.GetTimeStamp) for GetTimeStamp
    proxsensors.o(i._ZN4Anki5Cozmo11ProxSensors17QueueUncliffEventEv) refers to proxsensors.o(.data) for .data
    proxsensors.o(i._ZN4Anki5Cozmo11ProxSensors19EnableCliffDetectorEb) refers to proxsensors.o(.data) for .data
    proxsensors.o(i._ZN4Anki5Cozmo11ProxSensors6UpdateEv) refers to proxsensors.o(i._ZN4Anki5Cozmo11ProxSensors11UpdateCliffEv) for Anki::Cozmo::ProxSensors::UpdateCliff()
    proxsensors.o(.ARM.exidx) refers to proxsensors.o(i._ZN4Anki5Cozmo11ProxSensors15QueueCliffEventEfff) for i._ZN4Anki5Cozmo11ProxSensors15QueueCliffEventEfff
    proxsensors.o(.ARM.exidx) refers to proxsensors.o(i._ZN4Anki5Cozmo11ProxSensors17QueueUncliffEventEv) for i._ZN4Anki5Cozmo11ProxSensors17QueueUncliffEventEv
    proxsensors.o(.ARM.exidx) refers to proxsensors.o(i._ZN4Anki5Cozmo11ProxSensors11UpdateCliffEv) for i._ZN4Anki5Cozmo11ProxSensors11UpdateCliffEv
    proxsensors.o(.ARM.exidx) refers to proxsensors.o(i._ZN4Anki5Cozmo11ProxSensors6UpdateEv) for i._ZN4Anki5Cozmo11ProxSensors6UpdateEv
    proxsensors.o(.ARM.exidx) refers to proxsensors.o(i._ZN4Anki5Cozmo11ProxSensors19EnableCliffDetectorEb) for i._ZN4Anki5Cozmo11ProxSensors19EnableCliffDetectorEb
    proxsensors.o(.ARM.exidx) refers to proxsensors.o(i._ZN4Anki5Cozmo11ProxSensors17EnableStopOnCliffEb) for i._ZN4Anki5Cozmo11ProxSensors17EnableStopOnCliffEb
    testmodecontroller.o(i._ZN4Anki5Cozmo18TestModeController5ResetEv) refers to messages.o(i._ZN4Anki5Cozmo14RobotInterface7SendLogEatthz) for Anki::Cozmo::RobotInterface::SendLog(signed char, unsigned short, unsigned short, unsigned char, ...)
    testmodecontroller.o(i._ZN4Anki5Cozmo18TestModeController5ResetEv) refers to wheelcontroller.o(i._ZN4Anki5Cozmo15WheelController6EnableEv) for Anki::Cozmo::WheelController::Enable()
    testmodecontroller.o(i._ZN4Anki5Cozmo18TestModeController5ResetEv) refers to pickandplacecontroller.o(i._ZN4Anki5Cozmo22PickAndPlaceController5ResetEv) for Anki::Cozmo::PickAndPlaceController::Reset()
    testmodecontroller.o(i._ZN4Anki5Cozmo18TestModeController5ResetEv) refers to steeringcontroller.o(i._ZN4Anki5Cozmo18SteeringController18ExecuteDirectDriveEffff) for Anki::Cozmo::SteeringController::ExecuteDirectDrive(float, float, float, float)
    testmodecontroller.o(i._ZN4Anki5Cozmo18TestModeController5ResetEv) refers to liftcontroller.o(i._ZN4Anki5Cozmo14LiftController6EnableEv) for Anki::Cozmo::LiftController::Enable()
    testmodecontroller.o(i._ZN4Anki5Cozmo18TestModeController5ResetEv) refers to liftcontroller.o(i._ZN4Anki5Cozmo14LiftController18SetAngularVelocityEf) for Anki::Cozmo::LiftController::SetAngularVelocity(float)
    testmodecontroller.o(i._ZN4Anki5Cozmo18TestModeController5ResetEv) refers to headcontroller.o(i._ZN4Anki5Cozmo14HeadController6EnableEv) for Anki::Cozmo::HeadController::Enable()
    testmodecontroller.o(i._ZN4Anki5Cozmo18TestModeController5ResetEv) refers to headcontroller.o(i._ZN4Anki5Cozmo14HeadController18SetAngularVelocityEf) for Anki::Cozmo::HeadController::SetAngularVelocity(float)
    testmodecontroller.o(i._ZN4Anki5Cozmo18TestModeController5ResetEv) refers to proxsensors.o(i._ZN4Anki5Cozmo11ProxSensors19EnableCliffDetectorEb) for Anki::Cozmo::ProxSensors::EnableCliffDetector(bool)
    testmodecontroller.o(i._ZN4Anki5Cozmo18TestModeController5ResetEv) refers to testmodecontroller.o(.data) for .data
    testmodecontroller.o(i._ZN4Anki5Cozmo18TestModeController5StartEhiii) refers to messages.o(i._ZN4Anki5Cozmo14RobotInterface7SendLogEatthz) for Anki::Cozmo::RobotInterface::SendLog(signed char, unsigned short, unsigned short, unsigned char, ...)
    testmodecontroller.o(i._ZN4Anki5Cozmo18TestModeController5StartEhiii) refers to testmodecontroller.o(i._ZN4Anki5Cozmo18TestModeController5ResetEv) for Anki::Cozmo::TestModeController::Reset()
    testmodecontroller.o(i._ZN4Anki5Cozmo18TestModeController5StartEhiii) refers to testmodecontroller.o(.data) for .data
    testmodecontroller.o(i._ZN4Anki5Cozmo18TestModeController6UpdateEv) refers to cozmobot.o(i._ZN4Anki5Cozmo5Robot16GetOperationModeEv) for Anki::Cozmo::Robot::GetOperationMode()
    testmodecontroller.o(i._ZN4Anki5Cozmo18TestModeController6UpdateEv) refers to testmodecontroller.o(.data) for .data
    testmodecontroller.o(i._ZN4Anki5Cozmo18TestModeController7GetModeEv) refers to testmodecontroller.o(.data) for .data
    testmodecontroller.o(.ARM.exidx) refers to testmodecontroller.o(i._ZN4Anki5Cozmo18TestModeController7GetModeEv) for i._ZN4Anki5Cozmo18TestModeController7GetModeEv
    testmodecontroller.o(.ARM.exidx) refers to testmodecontroller.o(i._ZN4Anki5Cozmo18TestModeController5ResetEv) for i._ZN4Anki5Cozmo18TestModeController5ResetEv
    testmodecontroller.o(.ARM.exidx) refers to testmodecontroller.o(i._ZN4Anki5Cozmo18TestModeController5StartEhiii) for i._ZN4Anki5Cozmo18TestModeController5StartEhiii
    testmodecontroller.o(.ARM.exidx) refers to testmodecontroller.o(i._ZN4Anki5Cozmo18TestModeController6UpdateEv) for i._ZN4Anki5Cozmo18TestModeController6UpdateEv
    backpacklightcontroller.o(i._ZN4Anki5Cozmo23BackpackLightController10TurnOffAllEv) refers to backpacklightcontroller.o(i._ZN4Anki5Cozmo23BackpackLightController9SetParamsENS1_18BackpackLightLayerEhtthhhh) for Anki::Cozmo::BackpackLightController::SetParams(Anki::Cozmo::BackpackLightController::BackpackLightLayer, unsigned char, unsigned short, unsigned short, unsigned char, unsigned char, unsigned char, unsigned char)
    backpacklightcontroller.o(i._ZN4Anki5Cozmo23BackpackLightController10TurnOffAllEv) refers to backpacklightcontroller.o(i._ZN4Anki5Cozmo23BackpackLightController11EnableLayerENS1_18BackpackLightLayerEb) for Anki::Cozmo::BackpackLightController::EnableLayer(Anki::Cozmo::BackpackLightController::BackpackLightLayer, bool)
    backpacklightcontroller.o(i._ZN4Anki5Cozmo23BackpackLightController11EnableLayerENS1_18BackpackLightLayerEb) refers to messages.o(i._ZN4Anki5Cozmo14RobotInterface7SendLogEatthz) for Anki::Cozmo::RobotInterface::SendLog(signed char, unsigned short, unsigned short, unsigned char, ...)
    backpacklightcontroller.o(i._ZN4Anki5Cozmo23BackpackLightController11EnableLayerENS1_18BackpackLightLayerEb) refers to backpacklightcontroller.o(i._ZN4Anki5Cozmo23BackpackLightController9SetParamsERKNS0_14RobotInterface25BackpackLightsTurnSignalsE) for Anki::Cozmo::BackpackLightController::SetParams(const Anki::Cozmo::RobotInterface::BackpackLightsTurnSignals&)
    backpacklightcontroller.o(i._ZN4Anki5Cozmo23BackpackLightController11EnableLayerENS1_18BackpackLightLayerEb) refers to backpacklightcontroller.o(i._ZN4Anki5Cozmo23BackpackLightController9SetParamsERKNS0_14RobotInterface20BackpackLightsMiddleE) for Anki::Cozmo::BackpackLightController::SetParams(const Anki::Cozmo::RobotInterface::BackpackLightsMiddle&)
    backpacklightcontroller.o(i._ZN4Anki5Cozmo23BackpackLightController11EnableLayerENS1_18BackpackLightLayerEb) refers to backpacklightcontroller.o(.data) for .data
    backpacklightcontroller.o(i._ZN4Anki5Cozmo23BackpackLightController11EnableLayerENS1_18BackpackLightLayerEb) refers to backpacklightcontroller.o(.bss) for .bss
    backpacklightcontroller.o(i._ZN4Anki5Cozmo23BackpackLightController4InitEv) refers to memseta.o(.text) for __aeabi_memclr
    backpacklightcontroller.o(i._ZN4Anki5Cozmo23BackpackLightController4InitEv) refers to backpacklightcontroller.o(.bss) for .bss
    backpacklightcontroller.o(i._ZN4Anki5Cozmo23BackpackLightController4InitEv) refers to backpacklightcontroller.o(.data) for .data
    backpacklightcontroller.o(i._ZN4Anki5Cozmo23BackpackLightController6EnableEv) refers to backpacklightcontroller.o(.data) for .data
    backpacklightcontroller.o(i._ZN4Anki5Cozmo23BackpackLightController6UpdateEv) refers to backpacklightcontroller.o(.data) for .data
    backpacklightcontroller.o(i._ZN4Anki5Cozmo23BackpackLightController7DisableEv) refers to backpacklightcontroller.o(.data) for .data
    backpacklightcontroller.o(i._ZN4Anki5Cozmo23BackpackLightController9SetParamsENS1_18BackpackLightLayerEhtthhhh) refers to messages.o(i._ZN4Anki5Cozmo14RobotInterface7SendLogEatthz) for Anki::Cozmo::RobotInterface::SendLog(signed char, unsigned short, unsigned short, unsigned char, ...)
    backpacklightcontroller.o(i._ZN4Anki5Cozmo23BackpackLightController9SetParamsENS1_18BackpackLightLayerEhtthhhh) refers to backpacklightcontroller.o(.bss) for .bss
    backpacklightcontroller.o(i._ZN4Anki5Cozmo23BackpackLightController9SetParamsERKNS0_14RobotInterface20BackpackLightsMiddleE) refers to wifi.o(i._ZN4Anki5Cozmo3HAL16RadioSendMessageEPKvth) for Anki::Cozmo::HAL::RadioSendMessage(const void*, unsigned short, unsigned char)
    backpacklightcontroller.o(i._ZN4Anki5Cozmo23BackpackLightController9SetParamsERKNS0_14RobotInterface25BackpackLightsTurnSignalsE) refers to wifi.o(i._ZN4Anki5Cozmo3HAL16RadioSendMessageEPKvth) for Anki::Cozmo::HAL::RadioSendMessage(const void*, unsigned short, unsigned char)
    backpacklightcontroller.o(.ARM.exidx) refers to backpacklightcontroller.o(i._ZN4Anki5Cozmo23BackpackLightController9SetParamsERKNS0_14RobotInterface25BackpackLightsTurnSignalsE) for i._ZN4Anki5Cozmo23BackpackLightController9SetParamsERKNS0_14RobotInterface25BackpackLightsTurnSignalsE
    backpacklightcontroller.o(.ARM.exidx) refers to backpacklightcontroller.o(i._ZN4Anki5Cozmo23BackpackLightController9SetParamsERKNS0_14RobotInterface20BackpackLightsMiddleE) for i._ZN4Anki5Cozmo23BackpackLightController9SetParamsERKNS0_14RobotInterface20BackpackLightsMiddleE
    backpacklightcontroller.o(.ARM.exidx) refers to backpacklightcontroller.o(i._ZN4Anki5Cozmo23BackpackLightController11EnableLayerENS1_18BackpackLightLayerEb) for i._ZN4Anki5Cozmo23BackpackLightController11EnableLayerENS1_18BackpackLightLayerEb
    backpacklightcontroller.o(.ARM.exidx) refers to backpacklightcontroller.o(i._ZN4Anki5Cozmo23BackpackLightController6EnableEv) for i._ZN4Anki5Cozmo23BackpackLightController6EnableEv
    backpacklightcontroller.o(.ARM.exidx) refers to backpacklightcontroller.o(i._ZN4Anki5Cozmo23BackpackLightController7DisableEv) for i._ZN4Anki5Cozmo23BackpackLightController7DisableEv
    backpacklightcontroller.o(.ARM.exidx) refers to backpacklightcontroller.o(i._ZN4Anki5Cozmo23BackpackLightController4InitEv) for i._ZN4Anki5Cozmo23BackpackLightController4InitEv
    backpacklightcontroller.o(.ARM.exidx) refers to backpacklightcontroller.o(i._ZN4Anki5Cozmo23BackpackLightController6UpdateEv) for i._ZN4Anki5Cozmo23BackpackLightController6UpdateEv
    backpacklightcontroller.o(.ARM.exidx) refers to backpacklightcontroller.o(i._ZN4Anki5Cozmo23BackpackLightController9SetParamsENS1_18BackpackLightLayerEhtthhhh) for i._ZN4Anki5Cozmo23BackpackLightController9SetParamsENS1_18BackpackLightLayerEhtthhhh
    backpacklightcontroller.o(.ARM.exidx) refers to backpacklightcontroller.o(i._ZN4Anki5Cozmo23BackpackLightController10TurnOffAllEv) for i._ZN4Anki5Cozmo23BackpackLightController10TurnOffAllEv
    asinf.o(i.__hardfp_asinf) refers (Special) to iusefp.o(.text) for __I$use$fp
    asinf.o(i.__hardfp_asinf) refers to fpclassifyf.o(i.__ARM_fpclassifyf) for __ARM_fpclassifyf
    asinf.o(i.__hardfp_asinf) refers to funder.o(i.__mathlib_flt_underflow) for __mathlib_flt_underflow
    asinf.o(i.__hardfp_asinf) refers to errno.o(i.__set_errno) for __set_errno
    asinf.o(i.__hardfp_asinf) refers to sqrtf.o(i.sqrtf) for sqrtf
    asinf.o(i.__softfp_asinf) refers (Special) to iusefp.o(.text) for __I$use$fp
    asinf.o(i.__softfp_asinf) refers to asinf.o(i.__hardfp_asinf) for __hardfp_asinf
    asinf.o(i.asinf) refers (Special) to iusefp.o(.text) for __I$use$fp
    asinf.o(i.asinf) refers to asinf.o(i.__hardfp_asinf) for __hardfp_asinf
    asinf_x.o(i.____hardfp_asinf$lsc) refers (Special) to iusefp.o(.text) for __I$use$fp
    asinf_x.o(i.____hardfp_asinf$lsc) refers to errno.o(i.__set_errno) for __set_errno
    asinf_x.o(i.____hardfp_asinf$lsc) refers to sqrtf.o(i.sqrtf) for sqrtf
    asinf_x.o(i.____softfp_asinf$lsc) refers (Special) to iusefp.o(.text) for __I$use$fp
    asinf_x.o(i.____softfp_asinf$lsc) refers to asinf_x.o(i.____hardfp_asinf$lsc) for ____hardfp_asinf$lsc
    asinf_x.o(i.__asinf$lsc) refers (Special) to iusefp.o(.text) for __I$use$fp
    asinf_x.o(i.__asinf$lsc) refers to asinf_x.o(i.____hardfp_asinf$lsc) for ____hardfp_asinf$lsc
    atan2f.o(i.__hardfp_atan2f) refers (Special) to iusefp.o(.text) for __I$use$fp
    atan2f.o(i.__hardfp_atan2f) refers to fpclassifyf.o(i.__ARM_fpclassifyf) for __ARM_fpclassifyf
    atan2f.o(i.__hardfp_atan2f) refers to funder.o(i.__mathlib_flt_underflow) for __mathlib_flt_underflow
    atan2f.o(i.__softfp_atan2f) refers (Special) to iusefp.o(.text) for __I$use$fp
    atan2f.o(i.__softfp_atan2f) refers to atan2f.o(i.__hardfp_atan2f) for __hardfp_atan2f
    atan2f.o(i.atan2f) refers (Special) to iusefp.o(.text) for __I$use$fp
    atan2f.o(i.atan2f) refers to atan2f.o(i.__hardfp_atan2f) for __hardfp_atan2f
    atan2f_x.o(i.____hardfp_atan2f$lsc) refers (Special) to iusefp.o(.text) for __I$use$fp
    atan2f_x.o(i.____hardfp_atan2f$lsc) refers to errno.o(i.__set_errno) for __set_errno
    atan2f_x.o(i.____softfp_atan2f$lsc) refers (Special) to iusefp.o(.text) for __I$use$fp
    atan2f_x.o(i.____softfp_atan2f$lsc) refers to atan2f_x.o(i.____hardfp_atan2f$lsc) for ____hardfp_atan2f$lsc
    atan2f_x.o(i.__atan2f$lsc) refers (Special) to iusefp.o(.text) for __I$use$fp
    atan2f_x.o(i.__atan2f$lsc) refers to atan2f_x.o(i.____hardfp_atan2f$lsc) for ____hardfp_atan2f$lsc
    atanf.o(i.__hardfp_atanf) refers (Special) to iusefp.o(.text) for __I$use$fp
    atanf.o(i.__hardfp_atanf) refers to fpclassifyf.o(i.__ARM_fpclassifyf) for __ARM_fpclassifyf
    atanf.o(i.__hardfp_atanf) refers to funder.o(i.__mathlib_flt_underflow) for __mathlib_flt_underflow
    atanf.o(i.__softfp_atanf) refers (Special) to iusefp.o(.text) for __I$use$fp
    atanf.o(i.__softfp_atanf) refers to atanf.o(i.__hardfp_atanf) for __hardfp_atanf
    atanf.o(i.atanf) refers (Special) to iusefp.o(.text) for __I$use$fp
    atanf.o(i.atanf) refers to atanf.o(i.__hardfp_atanf) for __hardfp_atanf
    atanf_x.o(i.____hardfp_atanf$lsc) refers (Special) to iusefp.o(.text) for __I$use$fp
    atanf_x.o(i.____softfp_atanf$lsc) refers (Special) to iusefp.o(.text) for __I$use$fp
    atanf_x.o(i.____softfp_atanf$lsc) refers to atanf_x.o(i.____hardfp_atanf$lsc) for ____hardfp_atanf$lsc
    atanf_x.o(i.__atanf$lsc) refers (Special) to iusefp.o(.text) for __I$use$fp
    atanf_x.o(i.__atanf$lsc) refers to atanf_x.o(i.____hardfp_atanf$lsc) for ____hardfp_atanf$lsc
    ceilf.o(i.__hardfp_ceilf) refers (Special) to iusefp.o(.text) for __I$use$fp
    ceilf.o(i.__softfp_ceilf) refers (Special) to iusefp.o(.text) for __I$use$fp
    ceilf.o(i.ceilf) refers (Special) to iusefp.o(.text) for __I$use$fp
    cosf.o(i.__hardfp_cosf) refers (Special) to iusefp.o(.text) for __I$use$fp
    cosf.o(i.__hardfp_cosf) refers to rredf.o(i.__mathlib_rredf2) for __mathlib_rredf2
    cosf.o(i.__hardfp_cosf) refers to errno.o(i.__set_errno) for __set_errno
    cosf.o(i.__softfp_cosf) refers (Special) to iusefp.o(.text) for __I$use$fp
    cosf.o(i.__softfp_cosf) refers to cosf.o(i.__hardfp_cosf) for __hardfp_cosf
    cosf.o(i.cosf) refers (Special) to iusefp.o(.text) for __I$use$fp
    cosf.o(i.cosf) refers to cosf.o(i.__hardfp_cosf) for __hardfp_cosf
    cosf_x.o(i.____hardfp_cosf$lsc) refers (Special) to iusefp.o(.text) for __I$use$fp
    cosf_x.o(i.____hardfp_cosf$lsc) refers to rredf.o(i.__mathlib_rredf2) for __mathlib_rredf2
    cosf_x.o(i.____hardfp_cosf$lsc) refers to errno.o(i.__set_errno) for __set_errno
    cosf_x.o(i.____softfp_cosf$lsc) refers (Special) to iusefp.o(.text) for __I$use$fp
    cosf_x.o(i.____softfp_cosf$lsc) refers to cosf_x.o(i.____hardfp_cosf$lsc) for ____hardfp_cosf$lsc
    cosf_x.o(i.__cosf$lsc) refers (Special) to iusefp.o(.text) for __I$use$fp
    cosf_x.o(i.__cosf$lsc) refers to cosf_x.o(i.____hardfp_cosf$lsc) for ____hardfp_cosf$lsc
    sinf.o(i.__hardfp_sinf) refers (Special) to iusefp.o(.text) for __I$use$fp
    sinf.o(i.__hardfp_sinf) refers to rredf.o(i.__mathlib_rredf2) for __mathlib_rredf2
    sinf.o(i.__hardfp_sinf) refers to fpclassifyf.o(i.__ARM_fpclassifyf) for __ARM_fpclassifyf
    sinf.o(i.__hardfp_sinf) refers to funder.o(i.__mathlib_flt_underflow) for __mathlib_flt_underflow
    sinf.o(i.__hardfp_sinf) refers to errno.o(i.__set_errno) for __set_errno
    sinf.o(i.__softfp_sinf) refers (Special) to iusefp.o(.text) for __I$use$fp
    sinf.o(i.__softfp_sinf) refers to sinf.o(i.__hardfp_sinf) for __hardfp_sinf
    sinf.o(i.sinf) refers (Special) to iusefp.o(.text) for __I$use$fp
    sinf.o(i.sinf) refers to sinf.o(i.__hardfp_sinf) for __hardfp_sinf
    sinf_x.o(i.____hardfp_sinf$lsc) refers (Special) to iusefp.o(.text) for __I$use$fp
    sinf_x.o(i.____hardfp_sinf$lsc) refers to rredf.o(i.__mathlib_rredf2) for __mathlib_rredf2
    sinf_x.o(i.____hardfp_sinf$lsc) refers to errno.o(i.__set_errno) for __set_errno
    sinf_x.o(i.____softfp_sinf$lsc) refers (Special) to iusefp.o(.text) for __I$use$fp
    sinf_x.o(i.____softfp_sinf$lsc) refers to sinf_x.o(i.____hardfp_sinf$lsc) for ____hardfp_sinf$lsc
    sinf_x.o(i.__sinf$lsc) refers (Special) to iusefp.o(.text) for __I$use$fp
    sinf_x.o(i.__sinf$lsc) refers to sinf_x.o(i.____hardfp_sinf$lsc) for ____hardfp_sinf$lsc
    sqrtf.o(i.__hardfp_sqrtf) refers (Special) to iusefp.o(.text) for __I$use$fp
    sqrtf.o(i.__hardfp_sqrtf) refers to errno.o(i.__set_errno) for __set_errno
    sqrtf.o(i.__softfp_sqrtf) refers (Special) to iusefp.o(.text) for __I$use$fp
    sqrtf.o(i.__softfp_sqrtf) refers to errno.o(i.__set_errno) for __set_errno
    sqrtf.o(i.sqrtf) refers (Special) to iusefp.o(.text) for __I$use$fp
    sqrtf.o(i.sqrtf) refers to errno.o(i.__set_errno) for __set_errno
    sqrtf_x.o(i.____hardfp_sqrtf$lsc) refers (Special) to iusefp.o(.text) for __I$use$fp
    sqrtf_x.o(i.____hardfp_sqrtf$lsc) refers to errno.o(i.__set_errno) for __set_errno
    sqrtf_x.o(i.____softfp_sqrtf$lsc) refers (Special) to iusefp.o(.text) for __I$use$fp
    sqrtf_x.o(i.____softfp_sqrtf$lsc) refers to errno.o(i.__set_errno) for __set_errno
    sqrtf_x.o(i.__sqrtf$lsc) refers (Special) to iusefp.o(.text) for __I$use$fp
    sqrtf_x.o(i.__sqrtf$lsc) refers to errno.o(i.__set_errno) for __set_errno
    tanf.o(i.__hardfp_tanf) refers (Special) to iusefp.o(.text) for __I$use$fp
    tanf.o(i.__hardfp_tanf) refers to rredf.o(i.__mathlib_rredf2) for __mathlib_rredf2
    tanf.o(i.__hardfp_tanf) refers to fpclassifyf.o(i.__ARM_fpclassifyf) for __ARM_fpclassifyf
    tanf.o(i.__hardfp_tanf) refers to funder.o(i.__mathlib_flt_underflow) for __mathlib_flt_underflow
    tanf.o(i.__hardfp_tanf) refers to errno.o(i.__set_errno) for __set_errno
    tanf.o(i.__softfp_tanf) refers (Special) to iusefp.o(.text) for __I$use$fp
    tanf.o(i.__softfp_tanf) refers to tanf.o(i.__hardfp_tanf) for __hardfp_tanf
    tanf.o(i.tanf) refers (Special) to iusefp.o(.text) for __I$use$fp
    tanf.o(i.tanf) refers to tanf.o(i.__hardfp_tanf) for __hardfp_tanf
    tanf_x.o(i.____hardfp_tanf$lsc) refers (Special) to iusefp.o(.text) for __I$use$fp
    tanf_x.o(i.____hardfp_tanf$lsc) refers to rredf.o(i.__mathlib_rredf2) for __mathlib_rredf2
    tanf_x.o(i.____hardfp_tanf$lsc) refers to errno.o(i.__set_errno) for __set_errno
    tanf_x.o(i.____softfp_tanf$lsc) refers (Special) to iusefp.o(.text) for __I$use$fp
    tanf_x.o(i.____softfp_tanf$lsc) refers to tanf_x.o(i.____hardfp_tanf$lsc) for ____hardfp_tanf$lsc
    tanf_x.o(i.__tanf$lsc) refers (Special) to iusefp.o(.text) for __I$use$fp
    tanf_x.o(i.__tanf$lsc) refers to tanf_x.o(i.____hardfp_tanf$lsc) for ____hardfp_tanf$lsc
    entry.o(.ARM.Collect$$$$00000000) refers (Special) to entry10a.o(.ARM.Collect$$$$0000000D) for __rt_final_cpp
    entry.o(.ARM.Collect$$$$00000000) refers (Special) to entry11a.o(.ARM.Collect$$$$0000000F) for __rt_final_exit
    entry.o(.ARM.Collect$$$$00000000) refers (Special) to entry7b.o(.ARM.Collect$$$$00000008) for _main_clock
    entry.o(.ARM.Collect$$$$00000000) refers (Special) to entry8b.o(.ARM.Collect$$$$0000000A) for _main_cpp_init
    entry.o(.ARM.Collect$$$$00000000) refers (Special) to entry9a.o(.ARM.Collect$$$$0000000B) for _main_init
    entry.o(.ARM.Collect$$$$00000000) refers (Special) to entry5.o(.ARM.Collect$$$$00000004) for _main_scatterload
    entry.o(.ARM.Collect$$$$00000000) refers (Special) to entry2.o(.ARM.Collect$$$$00000001) for _main_stk
    printfa.o(i.__0fprintf) refers (Special) to iusefp.o(.text) for __I$use$fp
    printfa.o(i.__0fprintf) refers to printfa.o(i._printf_core) for _printf_core
    printfa.o(i.__0fprintf) refers to fputc.o(i.fputc) for fputc
    printfa.o(i.__0printf) refers (Special) to iusefp.o(.text) for __I$use$fp
    printfa.o(i.__0printf) refers to printfa.o(i._printf_core) for _printf_core
    printfa.o(i.__0printf) refers to fputc.o(i.fputc) for fputc
    printfa.o(i.__0printf) refers to stdout.o(.data) for __stdout
    printfa.o(i.__0snprintf) refers (Special) to iusefp.o(.text) for __I$use$fp
    printfa.o(i.__0snprintf) refers to printfa.o(i._printf_core) for _printf_core
    printfa.o(i.__0snprintf) refers to printfa.o(i._snputc) for _snputc
    printfa.o(i.__0sprintf) refers (Special) to iusefp.o(.text) for __I$use$fp
    printfa.o(i.__0sprintf) refers to printfa.o(i._printf_core) for _printf_core
    printfa.o(i.__0sprintf) refers to printfa.o(i._sputc) for _sputc
    printfa.o(i.__0vfprintf) refers (Special) to iusefp.o(.text) for __I$use$fp
    printfa.o(i.__0vfprintf) refers to printfa.o(i._printf_core) for _printf_core
    printfa.o(i.__0vfprintf) refers to fputc.o(i.fputc) for fputc
    printfa.o(i.__0vprintf) refers (Special) to iusefp.o(.text) for __I$use$fp
    printfa.o(i.__0vprintf) refers to printfa.o(i._printf_core) for _printf_core
    printfa.o(i.__0vprintf) refers to fputc.o(i.fputc) for fputc
    printfa.o(i.__0vprintf) refers to stdout.o(.data) for __stdout
    printfa.o(i.__0vsnprintf) refers (Special) to iusefp.o(.text) for __I$use$fp
    printfa.o(i.__0vsnprintf) refers to printfa.o(i._printf_core) for _printf_core
    printfa.o(i.__0vsnprintf) refers to printfa.o(i._snputc) for _snputc
    printfa.o(i.__0vsprintf) refers (Special) to iusefp.o(.text) for __I$use$fp
    printfa.o(i.__0vsprintf) refers to printfa.o(i._printf_core) for _printf_core
    printfa.o(i.__0vsprintf) refers to printfa.o(i._sputc) for _sputc
    printfa.o(i._fp_digits) refers (Special) to iusefp.o(.text) for __I$use$fp
    printfa.o(i._fp_digits) refers to dmul.o(.text) for __aeabi_dmul
    printfa.o(i._fp_digits) refers to ddiv.o(.text) for __aeabi_ddiv
    printfa.o(i._fp_digits) refers to cdrcmple.o(.text) for __aeabi_cdrcmple
    printfa.o(i._fp_digits) refers to dadd.o(.text) for __aeabi_dadd
    printfa.o(i._fp_digits) refers to dfixul.o(.text) for __aeabi_d2ulz
    printfa.o(i._fp_digits) refers to uldiv.o(.text) for __aeabi_uldivmod
    printfa.o(i._printf_core) refers (Special) to iusefp.o(.text) for __I$use$fp
    printfa.o(i._printf_core) refers to printfa.o(i._printf_pre_padding) for _printf_pre_padding
    printfa.o(i._printf_core) refers to uldiv.o(.text) for __aeabi_uldivmod
    printfa.o(i._printf_core) refers to printfa.o(i._printf_post_padding) for _printf_post_padding
    printfa.o(i._printf_core) refers to printfa.o(i._fp_digits) for _fp_digits
    printfa.o(i._printf_core) refers to uidiv.o(.text) for __aeabi_uidivmod
    printfa.o(i._printf_post_padding) refers (Special) to iusefp.o(.text) for __I$use$fp
    printfa.o(i._printf_pre_padding) refers (Special) to iusefp.o(.text) for __I$use$fp
    printfa.o(i._snputc) refers (Special) to iusefp.o(.text) for __I$use$fp
    printfa.o(i._sputc) refers (Special) to iusefp.o(.text) for __I$use$fp
    cpp_init.o(.emb_text) refers (Special) to entry8a.o(.ARM.Collect$$$$00000009) for _main_cpp_init$empty
    cpp_init.o(.init_array) refers (Special) to entry8a.o(.ARM.Collect$$$$00000009) for _main_cpp_init$empty
    cpp_init.o(.dummy_text) refers (Special) to entry8a.o(.ARM.Collect$$$$00000009) for _main_cpp_init$empty
    cpp_init.o(.text) refers (Special) to entry8a.o(.ARM.Collect$$$$00000009) for _main_cpp_init$empty
    dadd.o(.text) refers (Special) to iusefp.o(.text) for __I$use$fp
    dadd.o(.text) refers to llshl.o(.text) for __aeabi_llsl
    dadd.o(.text) refers to llsshr.o(.text) for __aeabi_lasr
    dadd.o(.text) refers to depilogue.o(.text) for _double_epilogue
    dmul.o(.text) refers (Special) to iusefp.o(.text) for __I$use$fp
    dmul.o(.text) refers to depilogue.o(.text) for _double_epilogue
    ddiv.o(.text) refers (Special) to iusefp.o(.text) for __I$use$fp
    ddiv.o(.text) refers to depilogue.o(.text) for _double_round
    dflti.o(.text) refers (Special) to iusefp.o(.text) for __I$use$fp
    dflti.o(.text) refers to depilogue.o(.text) for _double_epilogue
    dfixi.o(.text) refers (Special) to iusefp.o(.text) for __I$use$fp
    dfixi.o(.text) refers to llushr.o(.text) for __aeabi_llsr
    f2d.o(.text) refers (Special) to iusefp.o(.text) for __I$use$fp
    cdcmple.o(.text) refers (Special) to iusefp.o(.text) for __I$use$fp
    d2f.o(.text) refers (Special) to iusefp.o(.text) for __I$use$fp
    d2f.o(.text) refers to fepilogue.o(.text) for _float_round
    fpclassifyf.o(i.__ARM_fpclassifyf) refers (Special) to iusefp.o(.text) for __I$use$fp
    rredf.o(i.__mathlib_rredf2) refers (Special) to iusefp.o(.text) for __I$use$fp
    rredf.o(i.__mathlib_rredf2) refers to rredf.o(.constdata) for .constdata
    rredf.o(.constdata) refers (Special) to iusefp.o(.text) for __I$use$fp
    entry2.o(.ARM.Collect$$$$00000001) refers to entry2.o(.ARM.Collect$$$$00002712) for __lit__00000000
    entry2.o(__vectab_stack_and_reset_area) refers to entry.o(.ARM.Collect$$$$00000000) for __main
    entry5.o(.ARM.Collect$$$$00000004) refers to init.o(.text) for __scatterload
    entry8a.o(.ARM.Collect$$$$00000009) refers (Weak) to cpp_init.o(.text) for __cpp_initialize__aeabi_
    entry9a.o(.ARM.Collect$$$$0000000B) refers to main.o(i.main) for main
    entry9b.o(.ARM.Collect$$$$0000000C) refers to main.o(i.main) for main
    fputc.o(i.fputc) refers (Special) to iusesemip.o(.text) for __I$use$semihosting$fputc
    fputc.o(i.fputc) refers (Special) to semi.o(.text) for __semihosting_library_function
    uldiv.o(.text) refers to llushr.o(.text) for __aeabi_llsr
    uldiv.o(.text) refers to llshl.o(.text) for __aeabi_llsl
    errno.o(i.__aeabi_errno_addr) refers to errno.o(.data) for .data
    errno.o(i.__read_errno) refers to errno.o(.data) for .data
    errno.o(i.__set_errno) refers to errno.o(.data) for .data
    depilogue.o(.text) refers to llshl.o(.text) for __aeabi_llsl
    depilogue.o(.text) refers to llushr.o(.text) for __aeabi_llsr
    dfixul.o(.text) refers to llushr.o(.text) for __aeabi_llsr
    dfixul.o(.text) refers to llshl.o(.text) for __aeabi_llsl
    init.o(.text) refers to entry5.o(.ARM.Collect$$$$00000004) for __main_after_scatterload
    spi.o(.ARM.exidx) refers to spi.o(i._Z11WaitForBytev) for i._Z11WaitForBytev
    uart.o(i._Z13transmit_mode13TRANSFER_MODE) refers to spine.o(i._ZN4Anki5Cozmo3HAL5Spine7DequeueEPh) for Anki::Cozmo::HAL::Spine::Dequeue(unsigned char*)
    uart.o(i._Z13transmit_mode13TRANSFER_MODE) refers to memcpya.o(.text) for __aeabi_memcpy4
    uart.o(i._Z13transmit_mode13TRANSFER_MODE) refers to uart.o(.data) for .data
    uart.o(i._Z13transmit_mode13TRANSFER_MODE) refers to main.o(.bss) for g_dataToBody
    uart.o(i._Z13transmit_mode13TRANSFER_MODE) refers to uart.o(.bss) for .bss
    uart.o(.ARM.exidx) refers to uart.o(i._Z13transmit_mode13TRANSFER_MODE) for i._Z13transmit_mode13TRANSFER_MODE
    messages.o(.ARM.exidx) refers to messages.o(i._Z10trace_castIfEiT_) for i._Z10trace_castIfEiT_
    velocityprofilegenerator.o(.ARM.exidx) refers to velocityprofilegenerator.o(i._ZSt4fabsf) for i._ZSt4fabsf
    imufilter.o(i._ZN4Anki5Cozmo14RobotInterface11SendMessageERKNS1_10RobotPokedE) refers to wifi.o(i._ZN4Anki5Cozmo3HAL16RadioSendMessageEPKvth) for Anki::Cozmo::HAL::RadioSendMessage(const void*, unsigned short, unsigned char)
    imufilter.o(.ARM.exidx) refers to imufilter.o(i._ZN4Anki5Cozmo14RobotInterface11SendMessageERKNS1_10RobotPokedE) for i._ZN4Anki5Cozmo14RobotInterface11SendMessageERKNS1_10RobotPokedE
    dockingcontroller.o(i._ZN4Anki8Embedded6Pose2dC1Ev) refers to localization_geometry.o(i._ZN4Anki8Embedded7Point2fC1Eff) for Anki::Embedded::Point2f::Point2f(float, float)
    dockingcontroller.o(i._ZN4Anki8Embedded6Pose2dC1Ev) refers to radians.o(i._ZN4Anki7RadiansC1Ef) for Anki::Radians::Radians(float)
    dockingcontroller.o(i._ZN4Anki8Embedded6Pose2dC1Ev) refers to localization_geometry.o(i._ZN4Anki8Embedded10Rotation2dC1ENS_7RadiansE) for Anki::Embedded::Rotation2d::Rotation2d(Anki::Radians)
    dockingcontroller.o(.ARM.exidx) refers to dockingcontroller.o(i._ZN4Anki8Embedded6Pose2dC1Ev) for i._ZN4Anki8Embedded6Pose2dC1Ev
    dockingcontroller.o(i._ZNK4Anki8Embedded6Pose2d8GetAngleEv) refers to localization_geometry.o(i._ZNK4Anki8Embedded10Rotation2d8GetAngleEv) for Anki::Embedded::Rotation2d::GetAngle() const
    dockingcontroller.o(.ARM.exidx) refers to dockingcontroller.o(i._ZNK4Anki8Embedded6Pose2d8GetAngleEv) for i._ZNK4Anki8Embedded6Pose2d8GetAngleEv
    dockingcontroller.o(i._ZN4Anki8Embedded6Pose2daSERKS1_) refers to localization_geometry.o(i._ZN4Anki8Embedded7Point2faSERKS1_) for Anki::Embedded::Point2f::operator =(const Anki::Embedded::Point2f&)
    dockingcontroller.o(i._ZN4Anki8Embedded6Pose2daSERKS1_) refers to radians.o(i._ZN4Anki7RadiansaSERKS0_) for Anki::Radians::operator =(const Anki::Radians&)
    dockingcontroller.o(.ARM.exidx) refers to dockingcontroller.o(i._ZN4Anki8Embedded6Pose2daSERKS1_) for i._ZN4Anki8Embedded6Pose2daSERKS1_
    localization.o(i._ZN4Anki8Embedded6Pose2dC1EffNS_7RadiansE) refers to localization_geometry.o(i._ZN4Anki8Embedded7Point2fC1Eff) for Anki::Embedded::Point2f::Point2f(float, float)
    localization.o(i._ZN4Anki8Embedded6Pose2dC1EffNS_7RadiansE) refers to radians.o(i._ZN4Anki7RadiansC1ERKS0_) for Anki::Radians::Radians(const Anki::Radians&)
    localization.o(i._ZN4Anki8Embedded6Pose2dC1EffNS_7RadiansE) refers to localization_geometry.o(i._ZN4Anki8Embedded10Rotation2dC1ENS_7RadiansE) for Anki::Embedded::Rotation2d::Rotation2d(Anki::Radians)
    localization.o(.ARM.exidx) refers to localization.o(i._ZN4Anki8Embedded6Pose2dC1EffNS_7RadiansE) for i._ZN4Anki8Embedded6Pose2dC1EffNS_7RadiansE
    localization.o(i._ZN4Anki5Cozmo14RobotInterface11SendMessageERKNS0_17RampTraverseStartE) refers to wifi.o(i._ZN4Anki5Cozmo3HAL16RadioSendMessageEPKvth) for Anki::Cozmo::HAL::RadioSendMessage(const void*, unsigned short, unsigned char)
    localization.o(.ARM.exidx) refers to localization.o(i._ZN4Anki5Cozmo14RobotInterface11SendMessageERKNS0_17RampTraverseStartE) for i._ZN4Anki5Cozmo14RobotInterface11SendMessageERKNS0_17RampTraverseStartE
    localization.o(i._ZN4Anki5Cozmo14RobotInterface11SendMessageERKNS0_20RampTraverseCompleteE) refers to wifi.o(i._ZN4Anki5Cozmo3HAL16RadioSendMessageEPKvth) for Anki::Cozmo::HAL::RadioSendMessage(const void*, unsigned short, unsigned char)
    localization.o(.ARM.exidx) refers to localization.o(i._ZN4Anki5Cozmo14RobotInterface11SendMessageERKNS0_20RampTraverseCompleteE) for i._ZN4Anki5Cozmo14RobotInterface11SendMessageERKNS0_20RampTraverseCompleteE
    localization_geometry.o(i._ZN4Anki8Embedded6Pose2dC1ENS0_7Point2fENS0_10Rotation2dE) refers to localization_geometry.o(i._ZN4Anki8Embedded7Point2fC1ERKS1_) for Anki::Embedded::Point2f::Point2f(const Anki::Embedded::Point2f&)
    localization_geometry.o(i._ZN4Anki8Embedded6Pose2dC1ENS0_7Point2fENS0_10Rotation2dE) refers to radians.o(i._ZN4Anki7RadiansC1ERKS0_) for Anki::Radians::Radians(const Anki::Radians&)
    localization_geometry.o(.ARM.exidx) refers to localization_geometry.o(i._ZN4Anki8Embedded6Pose2dC1ENS0_7Point2fENS0_10Rotation2dE) for i._ZN4Anki8Embedded6Pose2dC1ENS0_7Point2fENS0_10Rotation2dE
    path.o(.ARM.exidx) refers to path.o(i.__ARM_signbitf) for i.__ARM_signbitf
    path.o(.ARM.exidx) refers to path.o(i._ZN4Anki8Planning11PathSegmentC1Ev) for i._ZN4Anki8Planning11PathSegmentC1Ev
    pathfollower.o(.ARM.exidx) refers to pathfollower.o(i._ZN4Anki8Planning4PathixEh) for i._ZN4Anki8Planning4PathixEh
    steeringcontroller.o(i._Z10trace_castIdEiT_) refers to d2f.o(.text) for __aeabi_d2f
    steeringcontroller.o(.ARM.exidx) refers to steeringcontroller.o(i._Z10trace_castIdEiT_) for i._Z10trace_castIdEiT_
    timeprofiler.o(i._ZN4Anki5Cozmo14RobotInterface11SendMessageERKNS1_15TimeProfileStatE) refers to clad.o(i._ZNK4Anki5Cozmo14RobotInterface15TimeProfileStat4SizeEv) for Anki::Cozmo::RobotInterface::TimeProfileStat::Size() const
    timeprofiler.o(i._ZN4Anki5Cozmo14RobotInterface11SendMessageERKNS1_15TimeProfileStatE) refers to wifi.o(i._ZN4Anki5Cozmo3HAL16RadioSendMessageEPKvth) for Anki::Cozmo::HAL::RadioSendMessage(const void*, unsigned short, unsigned char)
    timeprofiler.o(.ARM.exidx) refers to timeprofiler.o(i._ZN4Anki5Cozmo14RobotInterface11SendMessageERKNS1_15TimeProfileStatE) for i._ZN4Anki5Cozmo14RobotInterface11SendMessageERKNS1_15TimeProfileStatE
    proxsensors.o(i._ZN4Anki5Cozmo14RobotInterface11SendMessageERKNS0_10CliffEventE) refers to wifi.o(i._ZN4Anki5Cozmo3HAL16RadioSendMessageEPKvth) for Anki::Cozmo::HAL::RadioSendMessage(const void*, unsigned short, unsigned char)
    proxsensors.o(.ARM.exidx) refers to proxsensors.o(i._ZN4Anki5Cozmo14RobotInterface11SendMessageERKNS0_10CliffEventE) for i._ZN4Anki5Cozmo14RobotInterface11SendMessageERKNS0_10CliffEventE


==============================================================================

Removing Unused input sections from the image.

    Removing main.o(.rev16_text), (4 bytes).
    Removing main.o(.revsh_text), (4 bytes).
    Removing main.o(i._ZN4Anki5Cozmo3HAL5GetIDEv), (8 bytes).
    Removing main.o(.ARM.exidx), (8 bytes).
    Removing main.o(.ARM.exidx), (8 bytes).
    Removing main.o(.ARM.exidx), (8 bytes).
    Removing main.o(.ARM.exidx), (8 bytes).
    Removing main.o(.ARM.exidx), (8 bytes).
    Removing main.o(.ARM.exidx), (8 bytes).
    Removing main.o(.ARM.exidx), (8 bytes).
    Removing main.o(.ARM.exidx), (8 bytes).
    Removing main.o(.ARM.exidx), (8 bytes).
    Removing camera.o(.rev16_text), (4 bytes).
    Removing camera.o(.revsh_text), (4 bytes).
    Removing camera.o(i._ZN4Anki5Cozmo3HAL19CameraSetParametersEfb), (2 bytes).
    Removing camera.o(.ARM.exidx), (8 bytes).
    Removing camera.o(.ARM.exidx), (8 bytes).
    Removing camera.o(.ARM.exidx), (8 bytes).
    Removing camera.o(.ARM.exidx), (8 bytes).
    Removing camera.o(.ARM.exidx), (8 bytes).
    Removing camera.o(.ARM.exidx), (8 bytes).
    Removing camera.o(.ARM.exidx), (8 bytes).
    Removing camera.o(.ARM.exidx), (8 bytes).
    Removing camera.o(.ARM.exidx), (8 bytes).
    Removing camera.o(.ARM.exidx), (8 bytes).
    Removing camera.o(.ARM.exidx), (8 bytes).
    Removing camera.o(.ARM.exidx), (8 bytes).
    Removing camera.o(.ARM.exidx), (8 bytes).
    Removing camera.o(.data), (1 bytes).
    Removing camera.o(.data), (4 bytes).
    Removing i2c.o(.rev16_text), (4 bytes).
    Removing i2c.o(.revsh_text), (4 bytes).
    Removing i2c.o(i._ZN4Anki5Cozmo3HAL3I2C7DisableEv), (16 bytes).
    Removing i2c.o(i._ZN4Anki5Cozmo3HAL3I2C9ForceStopEv), (20 bytes).
    Removing i2c.o(.ARM.exidx), (8 bytes).
    Removing i2c.o(.ARM.exidx), (8 bytes).
    Removing i2c.o(.ARM.exidx), (8 bytes).
    Removing i2c.o(.ARM.exidx), (8 bytes).
    Removing i2c.o(.ARM.exidx), (8 bytes).
    Removing i2c.o(.ARM.exidx), (8 bytes).
    Removing i2c.o(.ARM.exidx), (8 bytes).
    Removing i2c.o(.ARM.exidx), (8 bytes).
    Removing i2c.o(.ARM.exidx), (8 bytes).
    Removing i2c.o(.ARM.exidx), (8 bytes).
    Removing i2c.o(.ARM.exidx), (8 bytes).
    Removing i2c.o(.ARM.exidx), (8 bytes).
    Removing i2c.o(.ARM.exidx), (8 bytes).
    Removing i2c.o(.ARM.exidx), (8 bytes).
    Removing i2c.o(.ARM.exidx), (8 bytes).
    Removing i2c.o(.ARM.exidx), (8 bytes).
    Removing timer.o(.rev16_text), (4 bytes).
    Removing timer.o(.revsh_text), (4 bytes).
    Removing timer.o(i._ZN4Anki5Cozmo3HAL4UART17DebugPrintProfileEi), (36 bytes).
    Removing timer.o(i._ZN4Anki5Cozmo3HAL9TimerInitEv), (20 bytes).
    Removing timer.o(.ARM.exidx), (8 bytes).
    Removing timer.o(.ARM.exidx), (8 bytes).
    Removing timer.o(.ARM.exidx), (8 bytes).
    Removing timer.o(.ARM.exidx), (8 bytes).
    Removing enjpeg.o(.rev16_text), (4 bytes).
    Removing enjpeg.o(.revsh_text), (4 bytes).
    Removing enjpeg.o(.ARM.exidx), (8 bytes).
    Removing enjpeg.o(.ARM.exidx), (8 bytes).
    Removing enjpeg.o(.ARM.exidx), (8 bytes).
    Removing enjpeg.o(.ARM.exidx), (8 bytes).
    Removing dac.o(.rev16_text), (4 bytes).
    Removing dac.o(.revsh_text), (4 bytes).
    Removing dac.o(.ARM.exidx), (8 bytes).
    Removing dac.o(.ARM.exidx), (8 bytes).
    Removing dac.o(.ARM.exidx), (8 bytes).
    Removing dac.o(.ARM.exidx), (8 bytes).
    Removing dac.o(.ARM.exidx), (8 bytes).
    Removing dac.o(.ARM.exidx), (8 bytes).
    Removing oled.o(.rev16_text), (4 bytes).
    Removing oled.o(.revsh_text), (4 bytes).
    Removing oled.o(i._ZN4Anki5Cozmo3HAL4OLED12DisplayDigitEiic), (96 bytes).
    Removing oled.o(.ARM.exidx), (8 bytes).
    Removing oled.o(.ARM.exidx), (8 bytes).
    Removing oled.o(.ARM.exidx), (8 bytes).
    Removing oled.o(.ARM.exidx), (8 bytes).
    Removing spi.o(.rev16_text), (4 bytes).
    Removing spi.o(.revsh_text), (4 bytes).
    Removing spi.o(.ARM.exidx), (8 bytes).
    Removing spi.o(.ARM.exidx), (8 bytes).
    Removing spi.o(.ARM.exidx), (8 bytes).
    Removing spi.o(.ARM.exidx), (8 bytes).
    Removing spi.o(.ARM.exidx), (8 bytes).
    Removing spi.o(.ARM.exidx), (8 bytes).
    Removing spi.o(.ARM.exidx), (8 bytes).
    Removing spi.o(.ARM.exidx), (8 bytes).
    Removing spi.o(.ARM.exidx), (8 bytes).
    Removing spi.o(.ARM.exidx), (8 bytes).
    Removing spi.o(.ARM.exidx), (8 bytes).
    Removing uart.o(.rev16_text), (4 bytes).
    Removing uart.o(.revsh_text), (4 bytes).
    Removing uart.o(.ARM.exidx), (8 bytes).
    Removing uart.o(.ARM.exidx), (8 bytes).
    Removing uart.o(.ARM.exidx), (8 bytes).
    Removing uart.o(.ARM.exidx), (8 bytes).
    Removing uart.o(.ARM.exidx), (8 bytes).
    Removing uart.o(.ARM.exidx), (8 bytes).
    Removing debug.o(.rev16_text), (4 bytes).
    Removing debug.o(.revsh_text), (4 bytes).
    Removing debug.o(i._ZN4Anki5Cozmo3HAL4UART11DebugPrintfEPKcz), (60 bytes).
    Removing debug.o(i._ZN4Anki5Cozmo3HAL4UART9DebugPutcEc), (16 bytes).
    Removing debug.o(.ARM.exidx), (8 bytes).
    Removing debug.o(.ARM.exidx), (8 bytes).
    Removing debug.o(.ARM.exidx), (8 bytes).
    Removing imu.o(.rev16_text), (4 bytes).
    Removing imu.o(.revsh_text), (4 bytes).
    Removing imu.o(.ARM.exidx), (8 bytes).
    Removing imu.o(.ARM.exidx), (8 bytes).
    Removing imu.o(.ARM.exidx), (8 bytes).
    Removing imu.o(.ARM.exidx), (8 bytes).
    Removing imu.o(.ARM.exidx), (8 bytes).
    Removing imu.o(.ARM.exidx), (8 bytes).
    Removing imu.o(.ARM.exidx), (8 bytes).
    Removing imu.o(.ARM.exidx), (8 bytes).
    Removing wifi.o(.rev16_text), (4 bytes).
    Removing wifi.o(.revsh_text), (4 bytes).
    Removing wifi.o(.ARM.exidx), (8 bytes).
    Removing wifi.o(.ARM.exidx), (8 bytes).
    Removing wifi.o(.ARM.exidx), (8 bytes).
    Removing wifi.o(.ARM.exidx), (8 bytes).
    Removing wifi.o(.ARM.exidx), (8 bytes).
    Removing wifi.o(.ARM.exidx), (8 bytes).
    Removing motors.o(i._ZN4Anki5Cozmo3HAL12MotorGetLoadEv), (4 bytes).
    Removing motors.o(.ARM.exidx), (8 bytes).
    Removing motors.o(.ARM.exidx), (8 bytes).
    Removing motors.o(.ARM.exidx), (8 bytes).
    Removing motors.o(.ARM.exidx), (8 bytes).
    Removing motors.o(.ARM.exidx), (8 bytes).
    Removing lights.o(i._ZN4Anki5Cozmo3HAL11GetBackpackEPt), (16 bytes).
    Removing lights.o(.ARM.exidx), (8 bytes).
    Removing lights.o(.ARM.exidx), (8 bytes).
    Removing lights.o(.ARM.exidx), (8 bytes).
    Removing cube.o(.ARM.exidx), (8 bytes).
    Removing cube.o(.ARM.exidx), (8 bytes).
    Removing spine.o(.ARM.exidx), (8 bytes).
    Removing spine.o(.ARM.exidx), (8 bytes).
    Removing spine.o(.ARM.exidx), (8 bytes).
    Removing watchdog.o(.rev16_text), (4 bytes).
    Removing watchdog.o(.revsh_text), (4 bytes).
    Removing watchdog.o(.ARM.exidx), (8 bytes).
    Removing watchdog.o(.ARM.exidx), (8 bytes).
    Removing watchdog.o(.ARM.exidx), (8 bytes).
    Removing watchdog.o(.ARM.exidx), (8 bytes).
    Removing watchdog.o(.ARM.exidx), (8 bytes).
    Removing power.o(.rev16_text), (4 bytes).
    Removing power.o(.revsh_text), (4 bytes).
    Removing power.o(i._ZN4Anki5Cozmo3HAL5Power16disableEspressifEv), (2 bytes).
    Removing power.o(.ARM.exidx), (8 bytes).
    Removing power.o(.ARM.exidx), (8 bytes).
    Removing power.o(.ARM.exidx), (8 bytes).
    Removing crashlogger.o(.rev16_text), (4 bytes).
    Removing crashlogger.o(.revsh_text), (4 bytes).
    Removing crashlogger.o(.ARM.exidx), (8 bytes).
    Removing startup.o(.rev16_text), (4 bytes).
    Removing startup.o(.revsh_text), (4 bytes).
    Removing startup.o(i.init_data_bss), (2 bytes).
    Removing clad.o(i._ZNK4Anki5Cozmo10ImageChunk4SizeEv), (6 bytes).
    Removing clad.o(i._ZNK4Anki5Cozmo10ImageChunk7IsValidEv), (16 bytes).
    Removing clad.o(i._ZNK4Anki5Cozmo12AnimKeyFrame9FaceImage7IsValidEv), (16 bytes).
    Removing clad.o(i._ZNK4Anki5Cozmo13BlockMessages16LightCubeMessage4SizeEv), (56 bytes).
    Removing clad.o(i._ZNK4Anki5Cozmo13BlockMessages16LightCubeMessage7IsValidEv), (12 bytes).
    Removing clad.o(i._ZNK4Anki5Cozmo14RobotInterface10PrintTrace7IsValidEv), (14 bytes).
    Removing clad.o(i._ZNK4Anki5Cozmo14RobotInterface11CrashReport4SizeEv), (10 bytes).
    Removing clad.o(i._ZNK4Anki5Cozmo14RobotInterface13EngineToRobot7IsValidEv), (760 bytes).
    Removing clad.o(i._ZNK4Anki5Cozmo14RobotInterface13RobotToEngine4SizeEv), (230 bytes).
    Removing clad.o(i._ZNK4Anki5Cozmo14RobotInterface13RobotToEngine7IsValidEv), (114 bytes).
    Removing clad.o(i._ZNK4Anki5Cozmo14RobotInterface15FirmwareVersion4SizeEv), (6 bytes).
    Removing clad.o(i._ZNK4Anki5Cozmo14RobotInterface15FirmwareVersion7IsValidEv), (16 bytes).
    Removing clad.o(i._ZNK4Anki5Cozmo14RobotInterface15TimeProfileStat4SizeEv), (6 bytes).
    Removing clad.o(i._ZNK4Anki5Cozmo14RobotInterface15TimeProfileStat7IsValidEv), (4 bytes).
    Removing clad.o(i._ZNK4Anki5Cozmo14RobotInterface18NVReadResultToBody7IsValidEv), (4 bytes).
    Removing clad.o(i._ZNK4Anki5Cozmo14RobotInterface20NVReadResultToEngine4SizeEv), (12 bytes).
    Removing clad.o(i._ZNK4Anki5Cozmo14RobotInterface20NVReadResultToEngine7IsValidEv), (6 bytes).
    Removing clad.o(i._ZNK4Anki5Cozmo14RobotInterface8DataDump4SizeEv), (6 bytes).
    Removing clad.o(i._ZNK4Anki5Cozmo14RobotInterface9PrintText4SizeEv), (6 bytes).
    Removing clad.o(i._ZNK4Anki5Cozmo14RobotInterface9PrintText7IsValidEv), (4 bytes).
    Removing clad.o(i._ZNK4Anki5Cozmo16AdvertisementMsg4SizeEv), (6 bytes).
    Removing clad.o(i._ZNK4Anki5Cozmo16AdvertisementMsg7IsValidEv), (4 bytes).
    Removing clad.o(i._ZNK4Anki5Cozmo16WriteBodyStorage7IsValidEv), (14 bytes).
    Removing clad.o(i._ZNK4Anki5Cozmo19BodyStorageContents7IsValidEv), (14 bytes).
    Removing clad.o(i._ZNK4Anki5Cozmo28AdvertisementRegistrationMsg4SizeEv), (6 bytes).
    Removing clad.o(i._ZNK4Anki5Cozmo28AdvertisementRegistrationMsg7IsValidEv), (4 bytes).
    Removing clad.o(i._ZNK4Anki5Cozmo9CubeSlots7IsValidEv), (14 bytes).
    Removing clad.o(i._ZNK4Anki5Cozmo9NVStorage13NVStorageBlob7IsValidEv), (16 bytes).
    Removing clad.o(i._ZNK4Anki5Cozmo9NVStorage14NVStorageWrite7IsValidEv), (6 bytes).
    Removing clad.o(i._ZNK4Anki5Cozmo9NVStorage9NVWipeAll7IsValidEv), (4 bytes).
    Removing clad.o(.ARM.exidx), (8 bytes).
    Removing clad.o(.ARM.exidx), (8 bytes).
    Removing clad.o(.ARM.exidx), (8 bytes).
    Removing clad.o(.ARM.exidx), (8 bytes).
    Removing clad.o(.ARM.exidx), (8 bytes).
    Removing clad.o(.ARM.exidx), (8 bytes).
    Removing clad.o(.ARM.exidx), (8 bytes).
    Removing clad.o(.ARM.exidx), (8 bytes).
    Removing clad.o(.ARM.exidx), (8 bytes).
    Removing clad.o(.ARM.exidx), (8 bytes).
    Removing clad.o(.ARM.exidx), (8 bytes).
    Removing clad.o(.ARM.exidx), (8 bytes).
    Removing clad.o(.ARM.exidx), (8 bytes).
    Removing clad.o(.ARM.exidx), (8 bytes).
    Removing clad.o(.ARM.exidx), (8 bytes).
    Removing clad.o(.ARM.exidx), (8 bytes).
    Removing clad.o(.ARM.exidx), (8 bytes).
    Removing clad.o(.ARM.exidx), (8 bytes).
    Removing clad.o(.ARM.exidx), (8 bytes).
    Removing clad.o(.ARM.exidx), (8 bytes).
    Removing clad.o(.ARM.exidx), (8 bytes).
    Removing clad.o(.ARM.exidx), (8 bytes).
    Removing clad.o(.ARM.exidx), (8 bytes).
    Removing clad.o(.ARM.exidx), (8 bytes).
    Removing clad.o(.ARM.exidx), (8 bytes).
    Removing clad.o(.ARM.exidx), (8 bytes).
    Removing clad.o(.ARM.exidx), (8 bytes).
    Removing clad.o(.ARM.exidx), (8 bytes).
    Removing clad.o(.ARM.exidx), (8 bytes).
    Removing clad.o(.ARM.exidx), (8 bytes).
    Removing clad.o(.ARM.exidx), (8 bytes).
    Removing clad.o(.ARM.exidx), (8 bytes).
    Removing clad.o(.ARM.exidx), (8 bytes).
    Removing clad.o(.ARM.exidx), (8 bytes).
    Removing clad.o(.ARM.exidx), (8 bytes).
    Removing clad.o(.ARM.exidx), (8 bytes).
    Removing clad.o(.ARM.exidx), (8 bytes).
    Removing clad.o(.ARM.exidx), (8 bytes).
    Removing clad.o(.ARM.exidx), (8 bytes).
    Removing clad.o(.ARM.exidx), (8 bytes).
    Removing cozmobot.o(i._ZN4Anki5Cozmo5Robot16SetOperationModeENS1_13OperationModeE), (12 bytes).
    Removing cozmobot.o(i._ZN4Anki5Cozmo5Robot18step_LongExecutionEv), (4 bytes).
    Removing cozmobot.o(.ARM.exidx), (8 bytes).
    Removing cozmobot.o(.ARM.exidx), (8 bytes).
    Removing cozmobot.o(.ARM.exidx), (8 bytes).
    Removing cozmobot.o(.ARM.exidx), (8 bytes).
    Removing cozmobot.o(.ARM.exidx), (8 bytes).
    Removing cozmobot.o(.ARM.exidx), (8 bytes).
    Removing messages.o(i._ZN4Anki5Cozmo3HAL13FlashBlockIDsEv), (2 bytes).
    Removing messages.o(i._ZN4Anki5Cozmo3HAL17BatteryIsChargingEv), (12 bytes).
    Removing messages.o(i._ZN4Anki5Cozmo8Messages12ReceivedInitEv), (12 bytes).
    Removing messages.o(i._ZN4Anki5Cozmo8Messages16GetRobotStateMsgEv), (8 bytes).
    Removing messages.o(i._ZN4Anki5Cozmo8Messages17Process_animEventERKNS0_12AnimKeyFrame5EventE), (2 bytes).
    Removing messages.o(i._ZN4Anki5Cozmo8Messages17StillLookingForIDEv), (64 bytes).
    Removing messages.o(i._ZN4Anki5Cozmo8Messages18Process_imuRequestERKNS0_14RobotInterface10ImuRequestE), (6 bytes).
    Removing messages.o(i._ZN4Anki5Cozmo8Messages20Process_abortDockingERKNS0_12AbortDockingE), (6 bytes).
    Removing messages.o(i._ZN4Anki5Cozmo8Messages21Process_animFaceImageERKNS0_12AnimKeyFrame9FaceImageE), (2 bytes).
    Removing messages.o(i._ZN4Anki5Cozmo8Messages21Process_setCarryStateERKNS0_16CarryStateUpdateE), (6 bytes).
    Removing messages.o(i._ZN4Anki5Cozmo8Messages22Process_abortAnimationERKNS0_14RobotInterface14AbortAnimationE), (2 bytes).
    Removing messages.o(i._ZN4Anki5Cozmo8Messages22Process_enterSleepModeERKNS0_14EnterSleepModeE), (4 bytes).
    Removing messages.o(i._ZN4Anki5Cozmo8Messages22Process_flashObjectIDsERKNS0_14FlashObjectIDsE), (2 bytes).
    Removing messages.o(i._ZN4Anki5Cozmo8Messages23Process_animAudioSampleERKNS0_12AnimKeyFrame11AudioSampleE), (2 bytes).
    Removing messages.o(i._ZN4Anki5Cozmo8Messages23Process_readBodyStorageERKNS0_15ReadBodyStorageE), (2 bytes).
    Removing messages.o(i._ZN4Anki5Cozmo8Messages24Process_animAudioSilenceERKNS0_12AnimKeyFrame12AudioSilenceE), (2 bytes).
    Removing messages.o(i._ZN4Anki5Cozmo8Messages24Process_enableAnimTracksERKNS0_12AnimKeyFrame16EnableAnimTracksE), (2 bytes).
    Removing messages.o(i._ZN4Anki5Cozmo8Messages24Process_writeBodyStorageERKNS0_16WriteBodyStorageE), (2 bytes).
    Removing messages.o(i._ZN4Anki5Cozmo8Messages25Process_disableAnimTracksERKNS0_12AnimKeyFrame17DisableAnimTracksE), (2 bytes).
    Removing messages.o(i._ZN4Anki5Cozmo8Messages25Process_enterRecoveryModeERKNS0_14RobotInterface3OTA17EnterRecoveryModeE), (2 bytes).
    Removing messages.o(i._ZN4Anki5Cozmo8Messages26Process_animEndOfAnimationERKNS0_12AnimKeyFrame14EndOfAnimationE), (8 bytes).
    Removing messages.o(i._ZN4Anki5Cozmo8Messages26Process_dockingErrorSignalERKNS0_18DockingErrorSignalE), (4 bytes).
    Removing messages.o(i._ZN4Anki5Cozmo8Messages27Process_bodyStorageContentsERKNS0_19BodyStorageContentsE), (2 bytes).
    Removing messages.o(i._ZN4Anki5Cozmo8Messages28Process_diffieHellmanResultsERKNS0_20DiffieHellmanResultsE), (2 bytes).
    Removing messages.o(i._ZN4Anki5Cozmo8Messages29Process_enablePickupParalysisERKNS0_14RobotInterface21EnablePickupParalysisE), (6 bytes).
    Removing messages.o(i._ZN4Anki5Cozmo8Messages29Process_setObjectBeingCarriedERKNS0_18ObjectBeingCarriedE), (2 bytes).
    Removing messages.o(i._ZN4Anki5Cozmo8Messages30Process_calculateDiffieHellmanERKNS0_22CalculateDiffieHellmanE), (2 bytes).
    Removing messages.o(i._ZN4Anki5Cozmo8Messages30Process_enableTestStateMessageERKNS0_14RobotInterface22EnableTestStateMessageE), (12 bytes).
    Removing messages.o(i._ZN4Anki5Cozmo8Messages37Process_forceDelocalizeSimulatedRobotERKNS0_14RobotInterface29ForceDelocalizeSimulatedRobotE), (2 bytes).
    Removing messages.o(i._ZN4Anki5Cozmo8Messages4InitEv), (4 bytes).
    Removing messages.o(i._ZN4Anki5Cozmo8Messages9LookForIDEh), (20 bytes).
    Removing messages.o(.ARM.exidx), (8 bytes).
    Removing messages.o(.ARM.exidx), (8 bytes).
    Removing messages.o(.ARM.exidx), (8 bytes).
    Removing messages.o(.ARM.exidx), (8 bytes).
    Removing messages.o(.ARM.exidx), (8 bytes).
    Removing messages.o(.ARM.exidx), (8 bytes).
    Removing messages.o(.ARM.exidx), (8 bytes).
    Removing messages.o(.ARM.exidx), (8 bytes).
    Removing messages.o(.ARM.exidx), (8 bytes).
    Removing messages.o(.ARM.exidx), (8 bytes).
    Removing messages.o(.ARM.exidx), (8 bytes).
    Removing messages.o(.ARM.exidx), (8 bytes).
    Removing messages.o(.ARM.exidx), (8 bytes).
    Removing messages.o(.ARM.exidx), (8 bytes).
    Removing messages.o(.ARM.exidx), (8 bytes).
    Removing messages.o(.ARM.exidx), (8 bytes).
    Removing messages.o(.ARM.exidx), (8 bytes).
    Removing messages.o(.ARM.exidx), (8 bytes).
    Removing messages.o(.ARM.exidx), (8 bytes).
    Removing messages.o(.ARM.exidx), (8 bytes).
    Removing messages.o(.ARM.exidx), (8 bytes).
    Removing messages.o(.ARM.exidx), (8 bytes).
    Removing messages.o(.ARM.exidx), (8 bytes).
    Removing messages.o(.ARM.exidx), (8 bytes).
    Removing messages.o(.ARM.exidx), (8 bytes).
    Removing messages.o(.ARM.exidx), (8 bytes).
    Removing messages.o(.ARM.exidx), (8 bytes).
    Removing messages.o(.ARM.exidx), (8 bytes).
    Removing messages.o(.ARM.exidx), (8 bytes).
    Removing messages.o(.ARM.exidx), (8 bytes).
    Removing messages.o(.ARM.exidx), (8 bytes).
    Removing messages.o(.ARM.exidx), (8 bytes).
    Removing messages.o(.ARM.exidx), (8 bytes).
    Removing messages.o(.ARM.exidx), (8 bytes).
    Removing messages.o(.ARM.exidx), (8 bytes).
    Removing messages.o(.ARM.exidx), (8 bytes).
    Removing messages.o(.ARM.exidx), (8 bytes).
    Removing messages.o(.ARM.exidx), (8 bytes).
    Removing messages.o(.ARM.exidx), (8 bytes).
    Removing messages.o(.ARM.exidx), (8 bytes).
    Removing messages.o(.ARM.exidx), (8 bytes).
    Removing messages.o(.ARM.exidx), (8 bytes).
    Removing messages.o(.ARM.exidx), (8 bytes).
    Removing messages.o(.ARM.exidx), (8 bytes).
    Removing messages.o(.ARM.exidx), (8 bytes).
    Removing messages.o(.ARM.exidx), (8 bytes).
    Removing messages.o(.ARM.exidx), (8 bytes).
    Removing messages.o(.ARM.exidx), (8 bytes).
    Removing messages.o(.ARM.exidx), (8 bytes).
    Removing messages.o(.ARM.exidx), (8 bytes).
    Removing messages.o(.ARM.exidx), (8 bytes).
    Removing messages.o(.ARM.exidx), (8 bytes).
    Removing messages.o(.ARM.exidx), (8 bytes).
    Removing messages.o(.ARM.exidx), (8 bytes).
    Removing messages.o(.ARM.exidx), (8 bytes).
    Removing messages.o(.ARM.exidx), (8 bytes).
    Removing messages.o(.ARM.exidx), (8 bytes).
    Removing messages.o(.ARM.exidx), (8 bytes).
    Removing messages.o(.ARM.exidx), (8 bytes).
    Removing messages.o(.ARM.exidx), (8 bytes).
    Removing messages.o(.ARM.exidx), (8 bytes).
    Removing messages.o(.ARM.exidx), (8 bytes).
    Removing messages.o(.ARM.exidx), (8 bytes).
    Removing messages.o(.ARM.exidx), (8 bytes).
    Removing messages.o(.ARM.exidx), (8 bytes).
    Removing messages.o(.ARM.exidx), (8 bytes).
    Removing messages.o(.ARM.exidx), (8 bytes).
    Removing messages.o(.ARM.exidx), (8 bytes).
    Removing messages.o(.ARM.exidx), (8 bytes).
    Removing messages.o(.ARM.exidx), (8 bytes).
    Removing messages.o(.ARM.exidx), (8 bytes).
    Removing messages.o(.ARM.exidx), (8 bytes).
    Removing messages.o(.ARM.exidx), (8 bytes).
    Removing messages.o(.ARM.exidx), (8 bytes).
    Removing messages.o(.ARM.exidx), (8 bytes).
    Removing messages.o(.ARM.exidx), (8 bytes).
    Removing messages.o(.ARM.exidx), (8 bytes).
    Removing messages.o(.ARM.exidx), (8 bytes).
    Removing messages.o(.ARM.exidx), (8 bytes).
    Removing liftcontroller.o(i._ZN4Anki5Cozmo14LiftController17SetLinearVelocityEf), (14 bytes).
    Removing liftcontroller.o(i._ZN4Anki5Cozmo14LiftController18GetAngularVelocityEv), (12 bytes).
    Removing liftcontroller.o(i._ZN4Anki5Cozmo14LiftController19GetMaxSpeedAndAccelERfS2_), (24 bytes).
    Removing liftcontroller.o(i._ZN4Anki5Cozmo14LiftController24GetLastCommandedHeightMMEv), (12 bytes).
    Removing liftcontroller.o(i._ZN4Anki5Cozmo14LiftController25SetMaxLinearSpeedAndAccelEff), (32 bytes).
    Removing liftcontroller.o(i._ZN4Anki5Cozmo14LiftController4StopEv), (12 bytes).
    Removing liftcontroller.o(.ARM.exidx), (8 bytes).
    Removing liftcontroller.o(.ARM.exidx), (8 bytes).
    Removing liftcontroller.o(.ARM.exidx), (8 bytes).
    Removing liftcontroller.o(.ARM.exidx), (8 bytes).
    Removing liftcontroller.o(.ARM.exidx), (8 bytes).
    Removing liftcontroller.o(.ARM.exidx), (8 bytes).
    Removing liftcontroller.o(.ARM.exidx), (8 bytes).
    Removing liftcontroller.o(.ARM.exidx), (8 bytes).
    Removing liftcontroller.o(.ARM.exidx), (8 bytes).
    Removing liftcontroller.o(.ARM.exidx), (8 bytes).
    Removing liftcontroller.o(.ARM.exidx), (8 bytes).
    Removing liftcontroller.o(.ARM.exidx), (8 bytes).
    Removing liftcontroller.o(.ARM.exidx), (8 bytes).
    Removing liftcontroller.o(.ARM.exidx), (8 bytes).
    Removing liftcontroller.o(.ARM.exidx), (8 bytes).
    Removing liftcontroller.o(.ARM.exidx), (8 bytes).
    Removing liftcontroller.o(.ARM.exidx), (8 bytes).
    Removing liftcontroller.o(.ARM.exidx), (8 bytes).
    Removing liftcontroller.o(.ARM.exidx), (8 bytes).
    Removing liftcontroller.o(.ARM.exidx), (8 bytes).
    Removing liftcontroller.o(.ARM.exidx), (8 bytes).
    Removing liftcontroller.o(.ARM.exidx), (8 bytes).
    Removing liftcontroller.o(.ARM.exidx), (8 bytes).
    Removing liftcontroller.o(.ARM.exidx), (8 bytes).
    Removing liftcontroller.o(.ARM.exidx), (8 bytes).
    Removing liftcontroller.o(.ARM.exidx), (8 bytes).
    Removing liftcontroller.o(.ARM.exidx), (8 bytes).
    Removing liftcontroller.o(.ARM.exidx), (8 bytes).
    Removing liftcontroller.o(.ARM.exidx), (8 bytes).
    Removing liftcontroller.o(.ARM.exidx), (8 bytes).
    Removing liftcontroller.o(.constdata), (12 bytes).
    Removing velocityprofilegenerator.o(i._ZN4Anki24VelocityProfileGenerator13TargetReachedEv), (6 bytes).
    Removing velocityprofilegenerator.o(i._ZN4Anki24VelocityProfileGenerator17DumpProfileToFileEPKc), (2 bytes).
    Removing velocityprofilegenerator.o(.ARM.exidx), (8 bytes).
    Removing velocityprofilegenerator.o(.ARM.exidx), (8 bytes).
    Removing velocityprofilegenerator.o(.ARM.exidx), (8 bytes).
    Removing velocityprofilegenerator.o(.ARM.exidx), (8 bytes).
    Removing velocityprofilegenerator.o(.ARM.exidx), (8 bytes).
    Removing velocityprofilegenerator.o(.ARM.exidx), (8 bytes).
    Removing velocityprofilegenerator.o(.ARM.exidx), (8 bytes).
    Removing radians.o(i._ZN4Anki17Radians_noRescale12makeNegativeEv), (36 bytes).
    Removing radians.o(i._ZN4Anki17Radians_noRescale12makePositiveEv), (36 bytes).
    Removing radians.o(i._ZN4Anki7Radians10setDegreesEf), (20 bytes).
    Removing radians.o(i._ZN4Anki7Radians16performRescalingEb), (4 bytes).
    Removing radians.o(i._ZN4Anki7RadiansdVEf), (28 bytes).
    Removing radians.o(i._ZN4Anki7RadiansmIERKS0_), (30 bytes).
    Removing radians.o(i._ZN4Anki7RadiansmIEf), (28 bytes).
    Removing radians.o(i._ZN4Anki7RadianspLERKS0_), (30 bytes).
    Removing radians.o(i._ZN4AnkidvERKNS_7RadiansEf), (112 bytes).
    Removing radians.o(i._ZN4AnkileERKNS_7RadiansES2_), (10 bytes).
    Removing radians.o(i._ZN4AnkiplEfRKNS_7RadiansE), (24 bytes).
    Removing radians.o(i._ZNK4Anki7Radians14getAbsoluteValEv), (22 bytes).
    Removing radians.o(i._ZNK4Anki7RadiansngEv), (42 bytes).
    Removing radians.o(.ARM.exidx), (8 bytes).
    Removing radians.o(.ARM.exidx), (8 bytes).
    Removing radians.o(.ARM.exidx), (8 bytes).
    Removing radians.o(.ARM.exidx), (8 bytes).
    Removing radians.o(.ARM.exidx), (8 bytes).
    Removing radians.o(.ARM.exidx), (8 bytes).
    Removing radians.o(.ARM.exidx), (8 bytes).
    Removing radians.o(.ARM.exidx), (8 bytes).
    Removing radians.o(.ARM.exidx), (8 bytes).
    Removing radians.o(.ARM.exidx), (8 bytes).
    Removing radians.o(.ARM.exidx), (8 bytes).
    Removing radians.o(.ARM.exidx), (8 bytes).
    Removing radians.o(.ARM.exidx), (8 bytes).
    Removing radians.o(.ARM.exidx), (8 bytes).
    Removing radians.o(.ARM.exidx), (8 bytes).
    Removing radians.o(.ARM.exidx), (8 bytes).
    Removing radians.o(.ARM.exidx), (8 bytes).
    Removing radians.o(.ARM.exidx), (8 bytes).
    Removing radians.o(.ARM.exidx), (8 bytes).
    Removing radians.o(.ARM.exidx), (8 bytes).
    Removing radians.o(.ARM.exidx), (8 bytes).
    Removing radians.o(.ARM.exidx), (8 bytes).
    Removing radians.o(.ARM.exidx), (8 bytes).
    Removing radians.o(.ARM.exidx), (8 bytes).
    Removing radians.o(.ARM.exidx), (8 bytes).
    Removing radians.o(.ARM.exidx), (8 bytes).
    Removing radians.o(.ARM.exidx), (8 bytes).
    Removing radians.o(.ARM.exidx), (8 bytes).
    Removing radians.o(.ARM.exidx), (8 bytes).
    Removing radians.o(.ARM.exidx), (8 bytes).
    Removing radians.o(.ARM.exidx), (8 bytes).
    Removing radians.o(.ARM.exidx), (8 bytes).
    Removing radians.o(.ARM.exidx), (8 bytes).
    Removing radians.o(.ARM.exidx), (8 bytes).
    Removing radians.o(.ARM.exidx), (8 bytes).
    Removing headcontroller.o(i._ZN4Anki5Cozmo14HeadController10GetCamPoseERfS2_S2_), (112 bytes).
    Removing headcontroller.o(i._ZN4Anki5Cozmo14HeadController18GetAngularVelocityEv), (12 bytes).
    Removing headcontroller.o(i._ZN4Anki5Cozmo14HeadController19GetMaxSpeedAndAccelERfS2_), (24 bytes).
    Removing headcontroller.o(i._ZN4Anki5Cozmo14HeadController21GetLastCommandedAngleEv), (12 bytes).
    Removing headcontroller.o(i._ZN4Anki5Cozmo14HeadController4StopEv), (12 bytes).
    Removing headcontroller.o(.ARM.exidx), (8 bytes).
    Removing headcontroller.o(.ARM.exidx), (8 bytes).
    Removing headcontroller.o(.ARM.exidx), (8 bytes).
    Removing headcontroller.o(.ARM.exidx), (8 bytes).
    Removing headcontroller.o(.ARM.exidx), (8 bytes).
    Removing headcontroller.o(.ARM.exidx), (8 bytes).
    Removing headcontroller.o(.ARM.exidx), (8 bytes).
    Removing headcontroller.o(.ARM.exidx), (8 bytes).
    Removing headcontroller.o(.ARM.exidx), (8 bytes).
    Removing headcontroller.o(.ARM.exidx), (8 bytes).
    Removing headcontroller.o(.ARM.exidx), (8 bytes).
    Removing headcontroller.o(.ARM.exidx), (8 bytes).
    Removing headcontroller.o(.ARM.exidx), (8 bytes).
    Removing headcontroller.o(.ARM.exidx), (8 bytes).
    Removing headcontroller.o(.ARM.exidx), (8 bytes).
    Removing headcontroller.o(.ARM.exidx), (8 bytes).
    Removing headcontroller.o(.ARM.exidx), (8 bytes).
    Removing headcontroller.o(.ARM.exidx), (8 bytes).
    Removing headcontroller.o(.ARM.exidx), (8 bytes).
    Removing headcontroller.o(.ARM.exidx), (8 bytes).
    Removing headcontroller.o(.ARM.exidx), (8 bytes).
    Removing headcontroller.o(.ARM.exidx), (8 bytes).
    Removing headcontroller.o(.ARM.exidx), (8 bytes).
    Removing headcontroller.o(.ARM.exidx), (8 bytes).
    Removing headcontroller.o(.ARM.exidx), (8 bytes).
    Removing headcontroller.o(.constdata), (12 bytes).
    Removing headcontroller.o(.constdata), (12 bytes).
    Removing imufilter.o(i._ZN4Anki5Cozmo9IMUFilter13StartLiftTestEv), (4 bytes).
    Removing imufilter.o(i._ZN4Anki5Cozmo9IMUFilter19StartPathFollowTestEv), (4 bytes).
    Removing imufilter.o(i._ZN4Anki5Cozmo9IMUFilter20TurnOnIndicatorLightEv), (10 bytes).
    Removing imufilter.o(i._ZN4Anki5Cozmo9IMUFilter21TurnOffIndicatorLightEv), (8 bytes).
    Removing imufilter.o(.ARM.exidx), (8 bytes).
    Removing imufilter.o(.ARM.exidx), (8 bytes).
    Removing imufilter.o(.ARM.exidx), (8 bytes).
    Removing imufilter.o(.ARM.exidx), (8 bytes).
    Removing imufilter.o(.ARM.exidx), (8 bytes).
    Removing imufilter.o(.ARM.exidx), (8 bytes).
    Removing imufilter.o(.ARM.exidx), (8 bytes).
    Removing imufilter.o(.ARM.exidx), (8 bytes).
    Removing imufilter.o(.ARM.exidx), (8 bytes).
    Removing imufilter.o(.ARM.exidx), (8 bytes).
    Removing imufilter.o(.ARM.exidx), (8 bytes).
    Removing imufilter.o(.ARM.exidx), (8 bytes).
    Removing imufilter.o(.ARM.exidx), (8 bytes).
    Removing imufilter.o(.ARM.exidx), (8 bytes).
    Removing imufilter.o(.ARM.exidx), (8 bytes).
    Removing imufilter.o(.ARM.exidx), (8 bytes).
    Removing imufilter.o(.ARM.exidx), (8 bytes).
    Removing imufilter.o(.ARM.exidx), (8 bytes).
    Removing imufilter.o(.ARM.exidx), (8 bytes).
    Removing imufilter.o(.ARM.exidx), (8 bytes).
    Removing imufilter.o(.ARM.exidx), (8 bytes).
    Removing imufilter.o(.ARM.exidx), (8 bytes).
    Removing imufilter.o(.ARM.exidx), (8 bytes).
    Removing imufilter.o(.ARM.exidx), (8 bytes).
    Removing imufilter.o(.ARM.exidx), (8 bytes).
    Removing imufilter.o(.ARM.exidx), (8 bytes).
    Removing imufilter.o(.ARM.exidx), (8 bytes).
    Removing imufilter.o(.ARM.exidx), (8 bytes).
    Removing trig_fast.o(i._Z9asin_fastf), (188 bytes).
    Removing trig_fast.o(.ARM.exidx), (8 bytes).
    Removing trig_fast.o(.ARM.exidx), (8 bytes).
    Removing trig_fast.o(.ARM.exidx), (8 bytes).
    Removing trig_fast.o(.ARM.exidx), (8 bytes).
    Removing trig_fast.o(.ARM.exidx), (8 bytes).
    Removing dockingcontroller.o(i._ZN4Anki5Cozmo17DockingController14GetVerticalFOVEv), (12 bytes).
    Removing dockingcontroller.o(i._ZN4Anki5Cozmo17DockingController16GetHorizontalFOVEv), (12 bytes).
    Removing dockingcontroller.o(i._ZN4Anki5Cozmo17DockingController20GetCamFOVLowerHeightEv), (144 bytes).
    Removing dockingcontroller.o(.ARM.exidx), (8 bytes).
    Removing dockingcontroller.o(.ARM.exidx), (8 bytes).
    Removing dockingcontroller.o(.ARM.exidx), (8 bytes).
    Removing dockingcontroller.o(.ARM.exidx), (8 bytes).
    Removing dockingcontroller.o(.ARM.exidx), (8 bytes).
    Removing dockingcontroller.o(.ARM.exidx), (8 bytes).
    Removing dockingcontroller.o(.ARM.exidx), (8 bytes).
    Removing dockingcontroller.o(.ARM.exidx), (8 bytes).
    Removing dockingcontroller.o(.ARM.exidx), (8 bytes).
    Removing dockingcontroller.o(.ARM.exidx), (8 bytes).
    Removing dockingcontroller.o(.ARM.exidx), (8 bytes).
    Removing dockingcontroller.o(.ARM.exidx), (8 bytes).
    Removing dockingcontroller.o(.ARM.exidx), (8 bytes).
    Removing dockingcontroller.o(.ARM.exidx), (8 bytes).
    Removing dockingcontroller.o(.ARM.exidx), (8 bytes).
    Removing dockingcontroller.o(.ARM.exidx), (8 bytes).
    Removing dockingcontroller.o(.ARM.exidx), (8 bytes).
    Removing dockingcontroller.o(.ARM.exidx), (8 bytes).
    Removing dockingcontroller.o(.ARM.exidx), (8 bytes).
    Removing dockingcontroller.o(.ARM.exidx), (8 bytes).
    Removing dockingcontroller.o(.ARM.exidx), (8 bytes).
    Removing dockingcontroller.o(.ARM.exidx), (8 bytes).
    Removing dockingcontroller.o(.ARM.exidx), (8 bytes).
    Removing dockingcontroller.o(.ARM.exidx), (8 bytes).
    Removing dockingcontroller.o(.ARM.exidx), (8 bytes).
    Removing dockingcontroller.o(.constdata), (12 bytes).
    Removing localization.o(i._ZN4Anki5Cozmo12Localization10IsOnBridgeEv), (12 bytes).
    Removing localization.o(i._ZN4Anki5Cozmo12Localization18SetDriveCenterPoseERKfS3_RKNS_7RadiansE), (116 bytes).
    Removing localization.o(i._ZN4Anki5Cozmo12Localization19ConvertToOriginPoseERKNS_8Embedded6Pose2dERS3_), (106 bytes).
    Removing localization.o(i._ZN4Anki5Cozmo12Localization24SendRampTraverseCompleteEb), (30 bytes).
    Removing localization.o(i._ZN4Anki5Cozmo12Localization28SendRampTraverseStartMessageEv), (24 bytes).
    Removing localization.o(i._ZN4Anki5Cozmo12Localization8IsOnRampEv), (12 bytes).
    Removing localization.o(.ARM.exidx), (8 bytes).
    Removing localization.o(.ARM.exidx), (8 bytes).
    Removing localization.o(.ARM.exidx), (8 bytes).
    Removing localization.o(.ARM.exidx), (8 bytes).
    Removing localization.o(.ARM.exidx), (8 bytes).
    Removing localization.o(.ARM.exidx), (8 bytes).
    Removing localization.o(.ARM.exidx), (8 bytes).
    Removing localization.o(.ARM.exidx), (8 bytes).
    Removing localization.o(.ARM.exidx), (8 bytes).
    Removing localization.o(.ARM.exidx), (8 bytes).
    Removing localization.o(.ARM.exidx), (8 bytes).
    Removing localization.o(.ARM.exidx), (8 bytes).
    Removing localization.o(.ARM.exidx), (8 bytes).
    Removing localization.o(.ARM.exidx), (8 bytes).
    Removing localization.o(.ARM.exidx), (8 bytes).
    Removing localization.o(.ARM.exidx), (8 bytes).
    Removing localization.o(.ARM.exidx), (8 bytes).
    Removing localization.o(.ARM.exidx), (8 bytes).
    Removing localization.o(.ARM.exidx), (8 bytes).
    Removing localization.o(.ARM.exidx), (8 bytes).
    Removing localization.o(.ARM.exidx), (8 bytes).
    Removing localization.o(.ARM.exidx), (8 bytes).
    Removing localization.o(.ARM.exidx), (8 bytes).
    Removing localization.o(.ARM.exidx), (8 bytes).
    Removing localization.o(.ARM.exidx), (8 bytes).
    Removing localization.o(.ARM.exidx), (8 bytes).
    Removing localization.o(.ARM.exidx), (8 bytes).
    Removing localization.o(.ARM.exidx), (8 bytes).
    Removing localization.o(.ARM.exidx), (8 bytes).
    Removing localization.o(.ARM.exidx), (8 bytes).
    Removing localization.o(.ARM.exidx), (8 bytes).
    Removing localization.o(.ARM.exidx), (8 bytes).
    Removing localization.o(.ARM.exidx), (8 bytes).
    Removing localization_geometry.o(i._ZN4Anki8Embedded10Rotation2dC1Ev), (12 bytes).
    Removing localization_geometry.o(i._ZN4Anki8Embedded7Point2fdVEf), (26 bytes).
    Removing localization_geometry.o(i._ZN4Anki8Embedded7Point2fmIERKS1_), (34 bytes).
    Removing localization_geometry.o(i._ZN4Anki8Embedded7Point2fmLEf), (26 bytes).
    Removing localization_geometry.o(i._ZNK4Anki8Embedded7Point2f6LengthEv), (20 bytes).
    Removing localization_geometry.o(i._ZNK4Anki8Embedded7Point2feqERKS1_), (44 bytes).
    Removing localization_geometry.o(i._ZNK4Anki8Embedded7Point2fplERKS1_), (28 bytes).
    Removing localization_geometry.o(.ARM.exidx), (8 bytes).
    Removing localization_geometry.o(.ARM.exidx), (8 bytes).
    Removing localization_geometry.o(.ARM.exidx), (8 bytes).
    Removing localization_geometry.o(.ARM.exidx), (8 bytes).
    Removing localization_geometry.o(.ARM.exidx), (8 bytes).
    Removing localization_geometry.o(.ARM.exidx), (8 bytes).
    Removing localization_geometry.o(.ARM.exidx), (8 bytes).
    Removing localization_geometry.o(.ARM.exidx), (8 bytes).
    Removing localization_geometry.o(.ARM.exidx), (8 bytes).
    Removing localization_geometry.o(.ARM.exidx), (8 bytes).
    Removing localization_geometry.o(.ARM.exidx), (8 bytes).
    Removing localization_geometry.o(.ARM.exidx), (8 bytes).
    Removing localization_geometry.o(.ARM.exidx), (8 bytes).
    Removing localization_geometry.o(.ARM.exidx), (8 bytes).
    Removing localization_geometry.o(.ARM.exidx), (8 bytes).
    Removing localization_geometry.o(.ARM.exidx), (8 bytes).
    Removing localization_geometry.o(.ARM.exidx), (8 bytes).
    Removing localization_geometry.o(.ARM.exidx), (8 bytes).
    Removing localization_geometry.o(.ARM.exidx), (8 bytes).
    Removing localization_geometry.o(.ARM.exidx), (8 bytes).
    Removing localization_geometry.o(.ARM.exidx), (8 bytes).
    Removing localization_geometry.o(.ARM.exidx), (8 bytes).
    Removing path.o(i._ZN4Anki8Planning11GetArcAngleEffffffb), (100 bytes).
    Removing path.o(i._ZN4Anki8Planning11PathSegment11OffsetStartEff), (146 bytes).
    Removing path.o(i._ZN4Anki8Planning16GenerateCSCCurveEfffffffffffNS0_14DubinsPathTypeEPNS0_11PathSegmentERf), (764 bytes).
    Removing path.o(i._ZN4Anki8Planning18GenerateDubinsPathERNS0_4PathEffffffffffffPf), (444 bytes).
    Removing path.o(i._ZN4Anki8Planning4Path13AppendSegmentERKNS0_11PathSegmentE), (104 bytes).
    Removing path.o(i._ZN4Anki8Planning4PathC1ERKS1_), (52 bytes).
    Removing path.o(i._ZN4Anki8Planning4PathaSERKS1_), (78 bytes).
    Removing path.o(i._ZNK4Anki8Planning11PathSegment9GetLengthEv), (152 bytes).
    Removing path.o(.ARM.exidx), (8 bytes).
    Removing path.o(.ARM.exidx), (8 bytes).
    Removing path.o(.ARM.exidx), (8 bytes).
    Removing path.o(.ARM.exidx), (8 bytes).
    Removing path.o(.ARM.exidx), (8 bytes).
    Removing path.o(.ARM.exidx), (8 bytes).
    Removing path.o(.ARM.exidx), (8 bytes).
    Removing path.o(.ARM.exidx), (8 bytes).
    Removing path.o(.ARM.exidx), (8 bytes).
    Removing path.o(.ARM.exidx), (8 bytes).
    Removing path.o(.ARM.exidx), (8 bytes).
    Removing path.o(.ARM.exidx), (8 bytes).
    Removing path.o(.ARM.exidx), (8 bytes).
    Removing path.o(.ARM.exidx), (8 bytes).
    Removing path.o(.ARM.exidx), (8 bytes).
    Removing path.o(.ARM.exidx), (8 bytes).
    Removing path.o(.ARM.exidx), (8 bytes).
    Removing path.o(.ARM.exidx), (8 bytes).
    Removing path.o(.ARM.exidx), (8 bytes).
    Removing path.o(.ARM.exidx), (8 bytes).
    Removing path.o(.ARM.exidx), (8 bytes).
    Removing path.o(.ARM.exidx), (8 bytes).
    Removing path.o(.ARM.exidx), (8 bytes).
    Removing path.o(.ARM.exidx), (8 bytes).
    Removing path.o(.ARM.exidx), (8 bytes).
    Removing path.o(.ARM.exidx), (8 bytes).
    Removing path.o(.ARM.exidx), (8 bytes).
    Removing path.o(.ARM.exidx), (8 bytes).
    Removing path.o(.ARM.exidx), (8 bytes).
    Removing path.o(.ARM.exidx), (8 bytes).
    Removing path.o(.ARM.exidx), (8 bytes).
    Removing pathfollower.o(i._ZN4Anki5Cozmo12PathFollower13DriveStraightEffff), (756 bytes).
    Removing pathfollower.o(i._ZN4Anki5Cozmo12PathFollower14DrivePointTurnEfffff), (572 bytes).
    Removing pathfollower.o(i._ZN4Anki5Cozmo12PathFollower16PrintPathSegmentEs), (12 bytes).
    Removing pathfollower.o(i._ZN4Anki5Cozmo12PathFollower17GetClosestSegmentEfff), (196 bytes).
    Removing pathfollower.o(i._ZN4Anki5Cozmo12PathFollower18GenerateDubinsPathEffffffffffffPf), (12 bytes).
    Removing pathfollower.o(i._ZN4Anki5Cozmo12PathFollower7GetPathEv), (8 bytes).
    Removing pathfollower.o(i._ZN4Anki5Cozmo12PathFollower8DriveArcEfffff), (772 bytes).
    Removing pathfollower.o(.ARM.exidx), (8 bytes).
    Removing pathfollower.o(.ARM.exidx), (8 bytes).
    Removing pathfollower.o(.ARM.exidx), (8 bytes).
    Removing pathfollower.o(.ARM.exidx), (8 bytes).
    Removing pathfollower.o(.ARM.exidx), (8 bytes).
    Removing pathfollower.o(.ARM.exidx), (8 bytes).
    Removing pathfollower.o(.ARM.exidx), (8 bytes).
    Removing pathfollower.o(.ARM.exidx), (8 bytes).
    Removing pathfollower.o(.ARM.exidx), (8 bytes).
    Removing pathfollower.o(.ARM.exidx), (8 bytes).
    Removing pathfollower.o(.ARM.exidx), (8 bytes).
    Removing pathfollower.o(.ARM.exidx), (8 bytes).
    Removing pathfollower.o(.ARM.exidx), (8 bytes).
    Removing pathfollower.o(.ARM.exidx), (8 bytes).
    Removing pathfollower.o(.ARM.exidx), (8 bytes).
    Removing pathfollower.o(.ARM.exidx), (8 bytes).
    Removing pathfollower.o(.ARM.exidx), (8 bytes).
    Removing pathfollower.o(.ARM.exidx), (8 bytes).
    Removing pathfollower.o(.ARM.exidx), (8 bytes).
    Removing pathfollower.o(.ARM.exidx), (8 bytes).
    Removing pathfollower.o(.ARM.exidx), (8 bytes).
    Removing pathfollower.o(.ARM.exidx), (8 bytes).
    Removing pathfollower.o(.ARM.exidx), (8 bytes).
    Removing pathfollower.o(.ARM.exidx), (8 bytes).
    Removing pathfollower.o(.ARM.exidx), (8 bytes).
    Removing pathfollower.o(.ARM.exidx), (8 bytes).
    Removing pathfollower.o(.ARM.exidx), (8 bytes).
    Removing pathfollower.o(.ARM.exidx), (8 bytes).
    Removing pickandplacecontroller.o(i._ZN4Anki5Cozmo22PickAndPlaceController13GetCarryStateEv), (12 bytes).
    Removing pickandplacecontroller.o(i._ZN4Anki5Cozmo22PickAndPlaceController20DidLastActionSucceedEv), (12 bytes).
    Removing pickandplacecontroller.o(i._ZN4Anki5Cozmo22PickAndPlaceController7GetModeEv), (12 bytes).
    Removing pickandplacecontroller.o(.ARM.exidx), (8 bytes).
    Removing pickandplacecontroller.o(.ARM.exidx), (8 bytes).
    Removing pickandplacecontroller.o(.ARM.exidx), (8 bytes).
    Removing pickandplacecontroller.o(.ARM.exidx), (8 bytes).
    Removing pickandplacecontroller.o(.ARM.exidx), (8 bytes).
    Removing pickandplacecontroller.o(.ARM.exidx), (8 bytes).
    Removing pickandplacecontroller.o(.ARM.exidx), (8 bytes).
    Removing pickandplacecontroller.o(.ARM.exidx), (8 bytes).
    Removing pickandplacecontroller.o(.ARM.exidx), (8 bytes).
    Removing pickandplacecontroller.o(.ARM.exidx), (8 bytes).
    Removing pickandplacecontroller.o(.ARM.exidx), (8 bytes).
    Removing pickandplacecontroller.o(.ARM.exidx), (8 bytes).
    Removing pickandplacecontroller.o(.ARM.exidx), (8 bytes).
    Removing pickandplacecontroller.o(.ARM.exidx), (8 bytes).
    Removing pickandplacecontroller.o(.ARM.exidx), (8 bytes).
    Removing pickandplacecontroller.o(.ARM.exidx), (8 bytes).
    Removing pickandplacecontroller.o(.ARM.exidx), (8 bytes).
    Removing pickandplacecontroller.o(.ARM.exidx), (8 bytes).
    Removing pickandplacecontroller.o(.ARM.exidx), (8 bytes).
    Removing pickandplacecontroller.o(.ARM.exidx), (8 bytes).
    Removing speedcontroller.o(i._ZN4Anki5Cozmo15SpeedController18ResetIntegralErrorEv), (12 bytes).
    Removing speedcontroller.o(i._ZN4Anki5Cozmo15SpeedController28GetUserCommandedAccelerationEv), (12 bytes).
    Removing speedcontroller.o(i._ZN4Anki5Cozmo15SpeedController33SetBothDesiredAndCurrentUserSpeedEs), (24 bytes).
    Removing speedcontroller.o(i._ZN4Anki5Cozmo15SpeedController34SetControllerCommandedVehicleSpeedEs), (12 bytes).
    Removing speedcontroller.o(i._ZN4Anki5Cozmo15SpeedController35SetUserCommandedCurrentVehicleSpeedEs), (20 bytes).
    Removing speedcontroller.o(i._ZN4Anki5Cozmo15SpeedController3RunEs), (12 bytes).
    Removing speedcontroller.o(.ARM.exidx), (8 bytes).
    Removing speedcontroller.o(.ARM.exidx), (8 bytes).
    Removing speedcontroller.o(.ARM.exidx), (8 bytes).
    Removing speedcontroller.o(.ARM.exidx), (8 bytes).
    Removing speedcontroller.o(.ARM.exidx), (8 bytes).
    Removing speedcontroller.o(.ARM.exidx), (8 bytes).
    Removing speedcontroller.o(.ARM.exidx), (8 bytes).
    Removing speedcontroller.o(.ARM.exidx), (8 bytes).
    Removing speedcontroller.o(.ARM.exidx), (8 bytes).
    Removing speedcontroller.o(.ARM.exidx), (8 bytes).
    Removing speedcontroller.o(.ARM.exidx), (8 bytes).
    Removing speedcontroller.o(.ARM.exidx), (8 bytes).
    Removing speedcontroller.o(.ARM.exidx), (8 bytes).
    Removing speedcontroller.o(.ARM.exidx), (8 bytes).
    Removing speedcontroller.o(.ARM.exidx), (8 bytes).
    Removing speedcontroller.o(.ARM.exidx), (8 bytes).
    Removing steeringcontroller.o(i._ZN4Anki5Cozmo18SteeringController21GetRotationSpeedLimitEv), (12 bytes).
    Removing steeringcontroller.o(i._ZN4Anki5Cozmo18SteeringController21SetRotationSpeedLimitEf), (24 bytes).
    Removing steeringcontroller.o(i._ZN4Anki5Cozmo18SteeringController25DisableRotationSpeedLimitEv), (20 bytes).
    Removing steeringcontroller.o(i._ZN4Anki5Cozmo18SteeringController6ReInitEv), (2 bytes).
    Removing steeringcontroller.o(.ARM.exidx), (8 bytes).
    Removing steeringcontroller.o(.ARM.exidx), (8 bytes).
    Removing steeringcontroller.o(.ARM.exidx), (8 bytes).
    Removing steeringcontroller.o(.ARM.exidx), (8 bytes).
    Removing steeringcontroller.o(.ARM.exidx), (8 bytes).
    Removing steeringcontroller.o(.ARM.exidx), (8 bytes).
    Removing steeringcontroller.o(.ARM.exidx), (8 bytes).
    Removing steeringcontroller.o(.ARM.exidx), (8 bytes).
    Removing steeringcontroller.o(.ARM.exidx), (8 bytes).
    Removing steeringcontroller.o(.ARM.exidx), (8 bytes).
    Removing steeringcontroller.o(.ARM.exidx), (8 bytes).
    Removing steeringcontroller.o(.ARM.exidx), (8 bytes).
    Removing steeringcontroller.o(.ARM.exidx), (8 bytes).
    Removing steeringcontroller.o(.ARM.exidx), (8 bytes).
    Removing steeringcontroller.o(.ARM.exidx), (8 bytes).
    Removing steeringcontroller.o(.ARM.exidx), (8 bytes).
    Removing steeringcontroller.o(.ARM.exidx), (8 bytes).
    Removing steeringcontroller.o(.ARM.exidx), (8 bytes).
    Removing steeringcontroller.o(.ARM.exidx), (8 bytes).
    Removing steeringcontroller.o(.ARM.exidx), (8 bytes).
    Removing steeringcontroller.o(.ARM.exidx), (8 bytes).
    Removing steeringcontroller.o(.ARM.exidx), (8 bytes).
    Removing steeringcontroller.o(.ARM.exidx), (8 bytes).
    Removing steeringcontroller.o(.ARM.exidx), (8 bytes).
    Removing steeringcontroller.o(.ARM.exidx), (8 bytes).
    Removing steeringcontroller.o(.ARM.exidx), (8 bytes).
    Removing timeprofiler.o(i._ZN4Anki5Cozmo12TimeProfiler10PrintStatsEv), (124 bytes).
    Removing timeprofiler.o(i._ZN4Anki5Cozmo12TimeProfiler11GetProfNameEj), (46 bytes).
    Removing timeprofiler.o(i._ZN4Anki5Cozmo12TimeProfiler12ComputeStatsEPPjS3_), (84 bytes).
    Removing timeprofiler.o(i._ZN4Anki5Cozmo12TimeProfiler12EndProfilingEv), (26 bytes).
    Removing timeprofiler.o(i._ZN4Anki5Cozmo12TimeProfiler14StartProfilingEPKc), (82 bytes).
    Removing timeprofiler.o(i._ZN4Anki5Cozmo12TimeProfiler15MarkNextProfileEPKc), (50 bytes).
    Removing timeprofiler.o(i._ZN4Anki5Cozmo12TimeProfiler24MarkNextProfile_InternalEv), (76 bytes).
    Removing timeprofiler.o(i._ZN4Anki5Cozmo12TimeProfiler5ResetEv), (48 bytes).
    Removing timeprofiler.o(i._ZN4Anki5Cozmo12TimeProfilerC1EPKc), (24 bytes).
    Removing timeprofiler.o(.ARM.exidx), (8 bytes).
    Removing timeprofiler.o(.ARM.exidx), (8 bytes).
    Removing timeprofiler.o(.ARM.exidx), (8 bytes).
    Removing timeprofiler.o(.ARM.exidx), (8 bytes).
    Removing timeprofiler.o(.ARM.exidx), (8 bytes).
    Removing timeprofiler.o(.ARM.exidx), (8 bytes).
    Removing timeprofiler.o(.ARM.exidx), (8 bytes).
    Removing timeprofiler.o(.ARM.exidx), (8 bytes).
    Removing timeprofiler.o(.ARM.exidx), (8 bytes).
    Removing wheelcontroller.o(i._ZN4Anki5Cozmo15WheelController26utilSetVehicleOLTrajectoryEtt), (110 bytes).
    Removing wheelcontroller.o(.ARM.exidx), (8 bytes).
    Removing wheelcontroller.o(.ARM.exidx), (8 bytes).
    Removing wheelcontroller.o(.ARM.exidx), (8 bytes).
    Removing wheelcontroller.o(.ARM.exidx), (8 bytes).
    Removing wheelcontroller.o(.ARM.exidx), (8 bytes).
    Removing wheelcontroller.o(.ARM.exidx), (8 bytes).
    Removing wheelcontroller.o(.ARM.exidx), (8 bytes).
    Removing wheelcontroller.o(.ARM.exidx), (8 bytes).
    Removing wheelcontroller.o(.ARM.exidx), (8 bytes).
    Removing wheelcontroller.o(.ARM.exidx), (8 bytes).
    Removing wheelcontroller.o(.ARM.exidx), (8 bytes).
    Removing wheelcontroller.o(.ARM.exidx), (8 bytes).
    Removing wheelcontroller.o(.ARM.exidx), (8 bytes).
    Removing wheelcontroller.o(.ARM.exidx), (8 bytes).
    Removing wheelcontroller.o(.ARM.exidx), (8 bytes).
    Removing wheelcontroller.o(.ARM.exidx), (8 bytes).
    Removing wheelcontroller.o(.data), (1 bytes).
    Removing proxsensors.o(.ARM.exidx), (8 bytes).
    Removing proxsensors.o(.ARM.exidx), (8 bytes).
    Removing proxsensors.o(.ARM.exidx), (8 bytes).
    Removing proxsensors.o(.ARM.exidx), (8 bytes).
    Removing proxsensors.o(.ARM.exidx), (8 bytes).
    Removing proxsensors.o(.ARM.exidx), (8 bytes).
    Removing testmodecontroller.o(.ARM.exidx), (8 bytes).
    Removing testmodecontroller.o(.ARM.exidx), (8 bytes).
    Removing testmodecontroller.o(.ARM.exidx), (8 bytes).
    Removing testmodecontroller.o(.ARM.exidx), (8 bytes).
    Removing backpacklightcontroller.o(i._ZN4Anki5Cozmo23BackpackLightController6EnableEv), (12 bytes).
    Removing backpacklightcontroller.o(i._ZN4Anki5Cozmo23BackpackLightController7DisableEv), (12 bytes).
    Removing backpacklightcontroller.o(.ARM.exidx), (8 bytes).
    Removing backpacklightcontroller.o(.ARM.exidx), (8 bytes).
    Removing backpacklightcontroller.o(.ARM.exidx), (8 bytes).
    Removing backpacklightcontroller.o(.ARM.exidx), (8 bytes).
    Removing backpacklightcontroller.o(.ARM.exidx), (8 bytes).
    Removing backpacklightcontroller.o(.ARM.exidx), (8 bytes).
    Removing backpacklightcontroller.o(.ARM.exidx), (8 bytes).
    Removing backpacklightcontroller.o(.ARM.exidx), (8 bytes).
    Removing backpacklightcontroller.o(.ARM.exidx), (8 bytes).
    Removing dfixul.o(.text), (48 bytes).
    Removing cdrcmple.o(.text), (40 bytes).
    Removing spi.o(.ARM.exidx), (8 bytes).
    Removing uart.o(.ARM.exidx), (8 bytes).
    Removing messages.o(.ARM.exidx), (8 bytes).
    Removing velocityprofilegenerator.o(.ARM.exidx), (8 bytes).
    Removing imufilter.o(.ARM.exidx), (8 bytes).
    Removing dockingcontroller.o(.ARM.exidx), (8 bytes).
    Removing dockingcontroller.o(.ARM.exidx), (8 bytes).
    Removing dockingcontroller.o(.ARM.exidx), (8 bytes).
    Removing localization.o(.ARM.exidx), (8 bytes).
    Removing localization.o(.ARM.exidx), (8 bytes).
    Removing localization.o(.ARM.exidx), (8 bytes).
    Removing localization_geometry.o(.ARM.exidx), (8 bytes).
    Removing path.o(.ARM.exidx), (8 bytes).
    Removing path.o(.ARM.exidx), (8 bytes).
    Removing pathfollower.o(.ARM.exidx), (8 bytes).
    Removing steeringcontroller.o(.ARM.exidx), (8 bytes).
    Removing timeprofiler.o(i._ZN4Anki5Cozmo14RobotInterface11SendMessageERKNS1_15TimeProfileStatE), (22 bytes).
    Removing timeprofiler.o(.ARM.exidx), (8 bytes).
    Removing proxsensors.o(.ARM.exidx), (8 bytes).

835 unused section(s) (total 13872 bytes) removed from the image.

==============================================================================

Adding Veneers to the image

    Adding TT veneer (10 bytes, Long) for call to 'Write_Handler()' from i2c.o(i._Z12Read_Handlerv).
    Adding TT veneer (10 bytes, Long) for call to 'inc_pointer(volatile int&)' from i2c.o(CODERAM).

2 Veneer(s) (total 20 bytes) added to the image.

==============================================================================

Image Symbol Table

    Local Symbols

    Symbol Name                              Value     Ov Type        Size  Object(Section)

    ../clib/../cmprslib/zerorunl2.c          0x00000000   Number         0  __dczerorl2.o ABSOLUTE
    ../clib/microlib/cpp/cpp_init.c          0x00000000   Number         0  cpp_init.o ABSOLUTE
    ../clib/microlib/cpp/cpp_init.c          0x00000000   Number         0  cpp_init.o ABSOLUTE
    ../clib/microlib/division.c              0x00000000   Number         0  uidiv.o ABSOLUTE
    ../clib/microlib/division.c              0x00000000   Number         0  uldiv.o ABSOLUTE
    ../clib/microlib/errno.c                 0x00000000   Number         0  errno.o ABSOLUTE
    ../clib/microlib/init/entry.s            0x00000000   Number         0  entry11b.o ABSOLUTE
    ../clib/microlib/init/entry.s            0x00000000   Number         0  entry2.o ABSOLUTE
    ../clib/microlib/init/entry.s            0x00000000   Number         0  entry5.o ABSOLUTE
    ../clib/microlib/init/entry.s            0x00000000   Number         0  entry7a.o ABSOLUTE
    ../clib/microlib/init/entry.s            0x00000000   Number         0  entry7b.o ABSOLUTE
    ../clib/microlib/init/entry.s            0x00000000   Number         0  entry8a.o ABSOLUTE
    ../clib/microlib/init/entry.s            0x00000000   Number         0  entry8b.o ABSOLUTE
    ../clib/microlib/init/entry.s            0x00000000   Number         0  entry9a.o ABSOLUTE
    ../clib/microlib/init/entry.s            0x00000000   Number         0  entry10a.o ABSOLUTE
    ../clib/microlib/init/entry.s            0x00000000   Number         0  entry9b.o ABSOLUTE
    ../clib/microlib/init/entry.s            0x00000000   Number         0  entry10b.o ABSOLUTE
    ../clib/microlib/init/entry.s            0x00000000   Number         0  entry11a.o ABSOLUTE
    ../clib/microlib/init/entry.s            0x00000000   Number         0  entry.o ABSOLUTE
    ../clib/microlib/longlong.c              0x00000000   Number         0  llsshr.o ABSOLUTE
    ../clib/microlib/longlong.c              0x00000000   Number         0  llshl.o ABSOLUTE
    ../clib/microlib/longlong.c              0x00000000   Number         0  llushr.o ABSOLUTE
    ../clib/microlib/printf/printf.c         0x00000000   Number         0  printfa.o ABSOLUTE
    ../clib/microlib/stdio/fputc.c           0x00000000   Number         0  fputc.o ABSOLUTE
    ../clib/microlib/stdio/semi.s            0x00000000   Number         0  semi.o ABSOLUTE
    ../clib/microlib/stdio/streams.c         0x00000000   Number         0  stdout.o ABSOLUTE
    ../clib/microlib/string/memcpy.c         0x00000000   Number         0  memcpya.o ABSOLUTE
    ../clib/microlib/string/memcpy.c         0x00000000   Number         0  memcpyb.o ABSOLUTE
    ../clib/microlib/string/memset.c         0x00000000   Number         0  memseta.o ABSOLUTE
    ../clib/microlib/string/strlen.c         0x00000000   Number         0  strlen.o ABSOLUTE
    ../clib/microlib/string/strncpy.c        0x00000000   Number         0  strncpy.o ABSOLUTE
    ../clib/microlib/stubs.s                 0x00000000   Number         0  iusesemip.o ABSOLUTE
    ../clib/microlib/stubs.s                 0x00000000   Number         0  iusefp.o ABSOLUTE
    ../fplib/microlib/d2f.c                  0x00000000   Number         0  d2f.o ABSOLUTE
    ../fplib/microlib/f2d.c                  0x00000000   Number         0  f2d.o ABSOLUTE
    ../fplib/microlib/fpadd.c                0x00000000   Number         0  dadd.o ABSOLUTE
    ../fplib/microlib/fpdiv.c                0x00000000   Number         0  ddiv.o ABSOLUTE
    ../fplib/microlib/fpepilogue.c           0x00000000   Number         0  fepilogue.o ABSOLUTE
    ../fplib/microlib/fpepilogue.c           0x00000000   Number         0  depilogue.o ABSOLUTE
    ../fplib/microlib/fpfix.c                0x00000000   Number         0  dfixi.o ABSOLUTE
    ../fplib/microlib/fpfix.c                0x00000000   Number         0  dfixul.o ABSOLUTE
    ../fplib/microlib/fpflt.c                0x00000000   Number         0  dflti.o ABSOLUTE
    ../fplib/microlib/fpmul.c                0x00000000   Number         0  dmul.o ABSOLUTE
    ../mathlib/asinf.c                       0x00000000   Number         0  asinf_x.o ABSOLUTE
    ../mathlib/asinf.c                       0x00000000   Number         0  asinf.o ABSOLUTE
    ../mathlib/atan2f.c                      0x00000000   Number         0  atan2f.o ABSOLUTE
    ../mathlib/atan2f.c                      0x00000000   Number         0  atan2f_x.o ABSOLUTE
    ../mathlib/atanf.c                       0x00000000   Number         0  atanf.o ABSOLUTE
    ../mathlib/atanf.c                       0x00000000   Number         0  atanf_x.o ABSOLUTE
    ../mathlib/ceilf.c                       0x00000000   Number         0  ceilf.o ABSOLUTE
    ../mathlib/cosf.c                        0x00000000   Number         0  cosf.o ABSOLUTE
    ../mathlib/cosf.c                        0x00000000   Number         0  cosf_x.o ABSOLUTE
    ../mathlib/fpclassifyf.c                 0x00000000   Number         0  fpclassifyf.o ABSOLUTE
    ../mathlib/funder.c                      0x00000000   Number         0  funder.o ABSOLUTE
    ../mathlib/rredf.c                       0x00000000   Number         0  rredf.o ABSOLUTE
    ../mathlib/sinf.c                        0x00000000   Number         0  sinf.o ABSOLUTE
    ../mathlib/sinf.c                        0x00000000   Number         0  sinf_x.o ABSOLUTE
    ../mathlib/sqrtf.c                       0x00000000   Number         0  sqrtf_x.o ABSOLUTE
    ../mathlib/sqrtf.c                       0x00000000   Number         0  sqrtf.o ABSOLUTE
    ../mathlib/tanf.c                        0x00000000   Number         0  tanf_x.o ABSOLUTE
    ../mathlib/tanf.c                        0x00000000   Number         0  tanf.o ABSOLUTE
    cdcmple.s                                0x00000000   Number         0  cdcmple.o ABSOLUTE
    cdrcmple.s                               0x00000000   Number         0  cdrcmple.o ABSOLUTE
    dc.s                                     0x00000000   Number         0  dc.o ABSOLUTE
    generated\clad\clad.cpp                  0x00000000   Number         0  clad.o ABSOLUTE
    handlers.s                               0x00000000   Number         0  handlers.o ABSOLUTE
    init.s                                   0x00000000   Number         0  init.o ABSOLUTE
    k02_hal/hal/main.cpp                     0x00000000   Number         0  main.o ABSOLUTE
    k02_hal/startup/startup.c                0x00000000   Number         0  startup.o ABSOLUTE
    k02_hal/startup/startup_MK02F12810.s     0x00000000   Number         0  startup_mk02f12810.o ABSOLUTE
    k02_hal\\hal\\camera.cpp                 0x00000000   Number         0  camera.o ABSOLUTE
    k02_hal\\hal\\crashlogger.cpp            0x00000000   Number         0  crashlogger.o ABSOLUTE
    k02_hal\\hal\\dac.cpp                    0x00000000   Number         0  dac.o ABSOLUTE
    k02_hal\\hal\\debug.cpp                  0x00000000   Number         0  debug.o ABSOLUTE
    k02_hal\\hal\\enjpeg.cpp                 0x00000000   Number         0  enjpeg.o ABSOLUTE
    k02_hal\\hal\\i2c.cpp                    0x00000000   Number         0  i2c.o ABSOLUTE
    k02_hal\\hal\\imu.cpp                    0x00000000   Number         0  imu.o ABSOLUTE
    k02_hal\\hal\\oled.cpp                   0x00000000   Number         0  oled.o ABSOLUTE
    k02_hal\\hal\\power.cpp                  0x00000000   Number         0  power.o ABSOLUTE
    k02_hal\\hal\\spi.cpp                    0x00000000   Number         0  spi.o ABSOLUTE
    k02_hal\\hal\\timer.cpp                  0x00000000   Number         0  timer.o ABSOLUTE
    k02_hal\\hal\\uart.cpp                   0x00000000   Number         0  uart.o ABSOLUTE
    k02_hal\\hal\\watchdog.cpp               0x00000000   Number         0  watchdog.o ABSOLUTE
    k02_hal\\hal\\wifi.cpp                   0x00000000   Number         0  wifi.o ABSOLUTE
    k02_hal\hal\camera.cpp                   0x00000000   Number         0  camera.o ABSOLUTE
    k02_hal\hal\crashlogger.cpp              0x00000000   Number         0  crashlogger.o ABSOLUTE
    k02_hal\hal\cube.cpp                     0x00000000   Number         0  cube.o ABSOLUTE
    k02_hal\hal\dac.cpp                      0x00000000   Number         0  dac.o ABSOLUTE
    k02_hal\hal\debug.cpp                    0x00000000   Number         0  debug.o ABSOLUTE
    k02_hal\hal\enjpeg.cpp                   0x00000000   Number         0  enjpeg.o ABSOLUTE
    k02_hal\hal\i2c.cpp                      0x00000000   Number         0  i2c.o ABSOLUTE
    k02_hal\hal\imu.cpp                      0x00000000   Number         0  imu.o ABSOLUTE
    k02_hal\hal\lights.cpp                   0x00000000   Number         0  lights.o ABSOLUTE
    k02_hal\hal\main.cpp                     0x00000000   Number         0  main.o ABSOLUTE
    k02_hal\hal\motors.cpp                   0x00000000   Number         0  motors.o ABSOLUTE
    k02_hal\hal\oled.cpp                     0x00000000   Number         0  oled.o ABSOLUTE
    k02_hal\hal\power.cpp                    0x00000000   Number         0  power.o ABSOLUTE
    k02_hal\hal\spi.cpp                      0x00000000   Number         0  spi.o ABSOLUTE
    k02_hal\hal\spine.cpp                    0x00000000   Number         0  spine.o ABSOLUTE
    k02_hal\hal\timer.cpp                    0x00000000   Number         0  timer.o ABSOLUTE
    k02_hal\hal\uart.cpp                     0x00000000   Number         0  uart.o ABSOLUTE
    k02_hal\hal\watchdog.cpp                 0x00000000   Number         0  watchdog.o ABSOLUTE
    k02_hal\hal\wifi.cpp                     0x00000000   Number         0  wifi.o ABSOLUTE
    k02_hal\startup\startup.c                0x00000000   Number         0  startup.o ABSOLUTE
    supervisor\src\backpackLightController.cpp 0x00000000   Number         0  backpacklightcontroller.o ABSOLUTE
    supervisor\src\cozmoBot.cpp              0x00000000   Number         0  cozmobot.o ABSOLUTE
    supervisor\src\dockingController.cpp     0x00000000   Number         0  dockingcontroller.o ABSOLUTE
    supervisor\src\headController.cpp        0x00000000   Number         0  headcontroller.o ABSOLUTE
    supervisor\src\imuFilter.cpp             0x00000000   Number         0  imufilter.o ABSOLUTE
    supervisor\src\liftController.cpp        0x00000000   Number         0  liftcontroller.o ABSOLUTE
    supervisor\src\localization.cpp          0x00000000   Number         0  localization.o ABSOLUTE
    supervisor\src\localization_geometry.cpp 0x00000000   Number         0  localization_geometry.o ABSOLUTE
    supervisor\src\messages.cpp              0x00000000   Number         0  messages.o ABSOLUTE
    supervisor\src\path.cpp                  0x00000000   Number         0  path.o ABSOLUTE
    supervisor\src\pathFollower.cpp          0x00000000   Number         0  pathfollower.o ABSOLUTE
    supervisor\src\pickAndPlaceController.cpp 0x00000000   Number         0  pickandplacecontroller.o ABSOLUTE
    supervisor\src\proxSensors.cpp           0x00000000   Number         0  proxsensors.o ABSOLUTE
    supervisor\src\radians.cpp               0x00000000   Number         0  radians.o ABSOLUTE
    supervisor\src\speedController.cpp       0x00000000   Number         0  speedcontroller.o ABSOLUTE
    supervisor\src\steeringController.cpp    0x00000000   Number         0  steeringcontroller.o ABSOLUTE
    supervisor\src\testModeController.cpp    0x00000000   Number         0  testmodecontroller.o ABSOLUTE
    supervisor\src\timeProfiler.cpp          0x00000000   Number         0  timeprofiler.o ABSOLUTE
    supervisor\src\trig_fast.cpp             0x00000000   Number         0  trig_fast.o ABSOLUTE
    supervisor\src\velocityProfileGenerator.cpp 0x00000000   Number         0  velocityprofilegenerator.o ABSOLUTE
    supervisor\src\wheelController.cpp       0x00000000   Number         0  wheelcontroller.o ABSOLUTE
    HEADER                                   0x00001000   Section       28  startup_mk02f12810.o(HEADER)
    .ARM.Collect$$$$00000000                 0x0000101c   Section        0  entry.o(.ARM.Collect$$$$00000000)
    .ARM.Collect$$$$00000001                 0x0000101c   Section        4  entry2.o(.ARM.Collect$$$$00000001)
    .ARM.Collect$$$$00000004                 0x00001020   Section        4  entry5.o(.ARM.Collect$$$$00000004)
    .ARM.Collect$$$$00000008                 0x00001024   Section        0  entry7b.o(.ARM.Collect$$$$00000008)
    .ARM.Collect$$$$00000009                 0x00001024   Section        4  entry8a.o(.ARM.Collect$$$$00000009)
    .ARM.Collect$$$$0000000A                 0x00001028   Section        0  entry8b.o(.ARM.Collect$$$$0000000A)
    .ARM.Collect$$$$0000000B                 0x00001028   Section        8  entry9a.o(.ARM.Collect$$$$0000000B)
    .ARM.Collect$$$$0000000D                 0x00001030   Section        0  entry10a.o(.ARM.Collect$$$$0000000D)
    .ARM.Collect$$$$0000000F                 0x00001030   Section        0  entry11a.o(.ARM.Collect$$$$0000000F)
    .ARM.Collect$$$$00002712                 0x00001030   Section        4  entry2.o(.ARM.Collect$$$$00002712)
    __lit__00000000                          0x00001030   Data           4  entry2.o(.ARM.Collect$$$$00002712)
    .text                                    0x00001034   Section       92  startup_mk02f12810.o(.text)
    $v0                                      0x00001034   Number         0  startup_mk02f12810.o(.text)
    HardFault_PreHandler                     0x00001059   Thumb Code    22  startup_mk02f12810.o(.text)
    .text                                    0x00001090   Section        0  memcpya.o(.text)
    .text                                    0x000010b4   Section        0  memseta.o(.text)
    .text                                    0x000010d8   Section        0  cpp_init.o(.text)
    .text                                    0x000010f8   Section        0  dadd.o(.text)
    .text                                    0x00001246   Section        0  dmul.o(.text)
    .text                                    0x0000132a   Section        0  ddiv.o(.text)
    .text                                    0x00001408   Section        0  dflti.o(.text)
    .text                                    0x0000142a   Section        0  dfixi.o(.text)
    .text                                    0x00001468   Section        0  f2d.o(.text)
    .text                                    0x00001490   Section       40  cdcmple.o(.text)
    .text                                    0x000014b8   Section        0  d2f.o(.text)
    .text                                    0x000014f0   Section        0  llshl.o(.text)
    .text                                    0x0000150e   Section        0  llushr.o(.text)
    .text                                    0x0000152e   Section        0  llsshr.o(.text)
    .text                                    0x00001552   Section        0  fepilogue.o(.text)
    .text                                    0x00001552   Section        0  iusefp.o(.text)
    .text                                    0x000015be   Section        0  depilogue.o(.text)
    .text                                    0x0000167c   Section       36  init.o(.text)
    .text                                    0x000016a0   Section        0  __dczerorl2.o(.text)
    Long Thumb to Thumb Veneer to Write_Handler() 0x000016fd   Thumb Code    10  anon$$obj.o(Veneer$$Code)
    i.DMA0_IRQHandler                        0x00001708   Section        0  camera.o(i.DMA0_IRQHandler)
    i.DMA2_IRQHandler                        0x00001774   Section        0  spi.o(i.DMA2_IRQHandler)
    i.FTM2_IRQHandler                        0x000017dc   Section        0  camera.o(i.FTM2_IRQHandler)
    i.GetTimeStamp                           0x0000186c   Section        0  main.o(i.GetTimeStamp)
    i.HardFault_Handler                      0x00001878   Section        0  crashlogger.o(i.HardFault_Handler)
    i.SetTimeStamp                           0x000018cc   Section        0  main.o(i.SetTimeStamp)
    i.WDOG_EWM_IRQHandler                    0x000018d8   Section        0  watchdog.o(i.WDOG_EWM_IRQHandler)
    i._Z10atan2_fastff                       0x000018f8   Section        0  trig_fast.o(i._Z10atan2_fastff)
    i._Z10trace_castIdEiT_                   0x000019e8   Section        0  steeringcontroller.o(i._Z10trace_castIdEiT_)
    i._Z10trace_castIfEiT_                   0x000019f0   Section        0  messages.o(i._Z10trace_castIfEiT_)
    i._Z11ProcessDropv                       0x000019f8   Section        0  spi.o(i._Z11ProcessDropv)
    ProcessDrop()                            0x000019f9   Thumb Code   126  spi.o(i._Z11ProcessDropv)
    i._Z11WaitForBytev                       0x00001a80   Section        0  spi.o(i._Z11WaitForBytev)
    i._Z11inc_pointerRVi                     0x00001a98   Section        0  i2c.o(i._Z11inc_pointerRVi)
    inc_pointer(volatile int&)               0x00001a99   Thumb Code    22  i2c.o(i._Z11inc_pointerRVi)
    i._Z11write_queuehh                      0x00001ab0   Section        0  i2c.o(i._Z11write_queuehh)
    write_queue(unsigned char, unsigned char) 0x00001ab1   Thumb Code    40  i2c.o(i._Z11write_queuehh)
    i._Z12Read_Handlerv                      0x00001ae0   Section        0  i2c.o(i._Z12Read_Handlerv)
    Read_Handler()                           0x00001ae1   Thumb Code   108  i2c.o(i._Z12Read_Handlerv)
    i._Z13state_updatedPKv                   0x00001b60   Section        0  imu.o(i._Z13state_updatedPKv)
    state_updated(const void*)               0x00001b61   Thumb Code    18  imu.o(i._Z13state_updatedPKv)
    i._Z13transmit_mode13TRANSFER_MODE       0x00001b7c   Section        0  uart.o(i._Z13transmit_mode13TRANSFER_MODE)
    i._Z14NVIC_EnableIRQ4IRQn                0x00001bd4   Section        0  camera.o(i._Z14NVIC_EnableIRQ4IRQn)
    NVIC_EnableIRQ(IRQn)                     0x00001bd5   Thumb Code    24  camera.o(i._Z14NVIC_EnableIRQ4IRQn)
    i._Z16NVIC_SystemResetv                  0x00001bec   Section        0  spi.o(i._Z16NVIC_SystemResetv)
    NVIC_SystemReset()                       0x00001bed   Thumb Code    24  spi.o(i._Z16NVIC_SystemResetv)
    i._Z7EnqueuehPKhih                       0x00001c0c   Section        0  i2c.o(i._Z7EnqueuehPKhih)
    Enqueue(unsigned char, const unsigned char*, int, unsigned char) 0x00001c0d   Thumb Code    70  i2c.o(i._Z7EnqueuehPKhih)
    i._Z7SyncSPIv                            0x00001c5c   Section        0  spi.o(i._Z7SyncSPIv)
    i._Z9atan2_accff                         0x00001cc0   Section        0  trig_fast.o(i._Z9atan2_accff)
    i._Z9atan_fastf                          0x00001d9c   Section        0  trig_fast.o(i._Z9atan_fastf)
    i._ZN4Anki24VelocityProfileGenerator12StartProfileEfffff 0x00001f44   Section        0  velocityprofilegenerator.o(i._ZN4Anki24VelocityProfileGenerator12StartProfileEfffff)
    i._ZN4Anki24VelocityProfileGenerator12StartProfileEfffffff 0x00001ff8   Section        0  velocityprofilegenerator.o(i._ZN4Anki24VelocityProfileGenerator12StartProfileEfffffff)
    i._ZN4Anki24VelocityProfileGenerator26StartProfile_fixedDurationEfffffffff 0x00002258   Section        0  velocityprofilegenerator.o(i._ZN4Anki24VelocityProfileGenerator26StartProfile_fixedDurationEfffffffff)
    i._ZN4Anki24VelocityProfileGenerator4StepERfS1_ 0x000025e0   Section        0  velocityprofilegenerator.o(i._ZN4Anki24VelocityProfileGenerator4StepERfS1_)
    i._ZN4Anki24VelocityProfileGeneratorC1Ev 0x000028f0   Section        0  velocityprofilegenerator.o(i._ZN4Anki24VelocityProfileGeneratorC1Ev)
    i._ZN4Anki5Cozmo11ProxSensors11UpdateCliffEv 0x000028f8   Section        0  proxsensors.o(i._ZN4Anki5Cozmo11ProxSensors11UpdateCliffEv)
    i._ZN4Anki5Cozmo11ProxSensors15QueueCliffEventEfff 0x000029fc   Section        0  proxsensors.o(i._ZN4Anki5Cozmo11ProxSensors15QueueCliffEventEfff)
    i._ZN4Anki5Cozmo11ProxSensors17EnableStopOnCliffEb 0x00002a3c   Section        0  proxsensors.o(i._ZN4Anki5Cozmo11ProxSensors17EnableStopOnCliffEb)
    i._ZN4Anki5Cozmo11ProxSensors17QueueUncliffEventEv 0x00002a48   Section        0  proxsensors.o(i._ZN4Anki5Cozmo11ProxSensors17QueueUncliffEventEv)
    i._ZN4Anki5Cozmo11ProxSensors19EnableCliffDetectorEb 0x00002a64   Section        0  proxsensors.o(i._ZN4Anki5Cozmo11ProxSensors19EnableCliffDetectorEb)
    i._ZN4Anki5Cozmo11ProxSensors6UpdateEv   0x00002a70   Section        0  proxsensors.o(i._ZN4Anki5Cozmo11ProxSensors6UpdateEv)
    i._ZN4Anki5Cozmo12Localization10GetHistIdxEjRt 0x00002a7c   Section        0  localization.o(i._ZN4Anki5Cozmo12Localization10GetHistIdxEjRt)
    i._ZN4Anki5Cozmo12Localization11GetCurrPoseEv 0x00002af0   Section        0  localization.o(i._ZN4Anki5Cozmo12Localization11GetCurrPoseEv)
    i._ZN4Anki5Cozmo12Localization11SetOnBridgeEb 0x00002b14   Section        0  localization.o(i._ZN4Anki5Cozmo12Localization11SetOnBridgeEb)
    i._ZN4Anki5Cozmo12Localization12ClearHistoryEv 0x00002b54   Section        0  localization.o(i._ZN4Anki5Cozmo12Localization12ClearHistoryEv)
    i._ZN4Anki5Cozmo12Localization13AddPoseToHistEv 0x00002b68   Section        0  localization.o(i._ZN4Anki5Cozmo12Localization13AddPoseToHistEv)
    i._ZN4Anki5Cozmo12Localization13GetCurrPose_xEv 0x00002bdc   Section        0  localization.o(i._ZN4Anki5Cozmo12Localization13GetCurrPose_xEv)
    i._ZN4Anki5Cozmo12Localization13GetCurrPose_yEv 0x00002be8   Section        0  localization.o(i._ZN4Anki5Cozmo12Localization13GetCurrPose_yEv)
    i._ZN4Anki5Cozmo12Localization14GetPoseFrameIdEv 0x00002bf4   Section        0  localization.o(i._ZN4Anki5Cozmo12Localization14GetPoseFrameIdEv)
    i._ZN4Anki5Cozmo12Localization14ResetPoseFrameEv 0x00002c00   Section        0  localization.o(i._ZN4Anki5Cozmo12Localization14ResetPoseFrameEv)
    i._ZN4Anki5Cozmo12Localization15GetPoseOriginIdEv 0x00002c10   Section        0  localization.o(i._ZN4Anki5Cozmo12Localization15GetPoseOriginIdEv)
    i._ZN4Anki5Cozmo12Localization15InterpolatePoseEiifi 0x00002c1c   Section        0  localization.o(i._ZN4Anki5Cozmo12Localization15InterpolatePoseEiifi)
    i._ZN4Anki5Cozmo12Localization17GetCurrPose_angleEv 0x00002d34   Section        0  localization.o(i._ZN4Anki5Cozmo12Localization17GetCurrPose_angleEv)
    i._ZN4Anki5Cozmo12Localization17GetCurrentMatPoseERfS2_RNS_7RadiansE 0x00002d40   Section        0  localization.o(i._ZN4Anki5Cozmo12Localization17GetCurrentMatPoseERfS2_RNS_7RadiansE)
    i._ZN4Anki5Cozmo12Localization17GetHistPoseAtTimeEjRNS_8Embedded6Pose2dE 0x00002d60   Section        0  localization.o(i._ZN4Anki5Cozmo12Localization17GetHistPoseAtTimeEjRNS_8Embedded6Pose2dE)
    i._ZN4Anki5Cozmo12Localization17SetCurrentMatPoseERKfS3_RKNS_7RadiansE 0x00002e28   Section        0  localization.o(i._ZN4Anki5Cozmo12Localization17SetCurrentMatPoseERKfS3_RKNS_7RadiansE)
    i._ZN4Anki5Cozmo12Localization18GetDriveCenterPoseERfS2_RNS_7RadiansE 0x00002e9c   Section        0  localization.o(i._ZN4Anki5Cozmo12Localization18GetDriveCenterPoseERfS2_RNS_7RadiansE)
    i._ZN4Anki5Cozmo12Localization18GetHistPoseAtIndexEtRNS_8Embedded6Pose2dE 0x00002ebc   Section        0  localization.o(i._ZN4Anki5Cozmo12Localization18GetHistPoseAtIndexEtRNS_8Embedded6Pose2dE)
    i._ZN4Anki5Cozmo12Localization20GetDriveCenterOffsetEv 0x00002ef4   Section        0  localization.o(i._ZN4Anki5Cozmo12Localization20GetDriveCenterOffsetEv)
    i._ZN4Anki5Cozmo12Localization20SetDriveCenterOffsetEf 0x00002f14   Section        0  localization.o(i._ZN4Anki5Cozmo12Localization20SetDriveCenterOffsetEf)
    i._ZN4Anki5Cozmo12Localization20SetMotionModelParamsEf 0x00002f20   Section        0  localization.o(i._ZN4Anki5Cozmo12Localization20SetMotionModelParamsEf)
    i._ZN4Anki5Cozmo12Localization22UpdatePoseWithKeyframeEjjjfff 0x00002f2c   Section        0  localization.o(i._ZN4Anki5Cozmo12Localization22UpdatePoseWithKeyframeEjjjfff)
    i._ZN4Anki5Cozmo12Localization24ConvertToDriveCenterPoseERKNS_8Embedded6Pose2dERS3_ 0x0000309c   Section        0  localization.o(i._ZN4Anki5Cozmo12Localization24ConvertToDriveCenterPoseERKNS_8Embedded6Pose2dERS3_)
    i._ZN4Anki5Cozmo12Localization4InitEv    0x00003108   Section        0  localization.o(i._ZN4Anki5Cozmo12Localization4InitEv)
    i._ZN4Anki5Cozmo12Localization6UpdateEv  0x0000316c   Section        0  localization.o(i._ZN4Anki5Cozmo12Localization6UpdateEv)
    i._ZN4Anki5Cozmo12Localization9GetDistToEff 0x0000342c   Section        0  localization.o(i._ZN4Anki5Cozmo12Localization9GetDistToEff)
    i._ZN4Anki5Cozmo12Localization9SetOnRampEb 0x00003450   Section        0  localization.o(i._ZN4Anki5Cozmo12Localization9SetOnRampEb)
    i._ZN4Anki5Cozmo12PathFollower12GetPathErrorERfS2_ 0x0000348c   Section        0  pathfollower.o(i._ZN4Anki5Cozmo12PathFollower12GetPathErrorERfS2_)
    i._ZN4Anki5Cozmo12PathFollower12PathCompleteEv 0x000034b4   Section        0  pathfollower.o(i._ZN4Anki5Cozmo12PathFollower12PathCompleteEv)
    i._ZN4Anki5Cozmo12PathFollower13GetLastPathIDEv 0x000034d4   Section        0  pathfollower.o(i._ZN4Anki5Cozmo12PathFollower13GetLastPathIDEv)
    i._ZN4Anki5Cozmo12PathFollower16IsTraversingPathEv 0x000034e0   Section        0  pathfollower.o(i._ZN4Anki5Cozmo12PathFollower16IsTraversingPathEv)
    i._ZN4Anki5Cozmo12PathFollower18GetCurrPathSegmentEv 0x000034f0   Section        0  pathfollower.o(i._ZN4Anki5Cozmo12PathFollower18GetCurrPathSegmentEv)
    i._ZN4Anki5Cozmo12PathFollower18ProcessPathSegmentERfS2_ 0x000034fc   Section        0  pathfollower.o(i._ZN4Anki5Cozmo12PathFollower18ProcessPathSegmentERfS2_)
    i._ZN4Anki5Cozmo12PathFollower18SetManualPathSpeedEfff 0x000036f8   Section        0  pathfollower.o(i._ZN4Anki5Cozmo12PathFollower18SetManualPathSpeedEfff)
    i._ZN4Anki5Cozmo12PathFollower18StartPathTraversalEtb 0x00003748   Section        0  pathfollower.o(i._ZN4Anki5Cozmo12PathFollower18StartPathTraversalEtb)
    i._ZN4Anki5Cozmo12PathFollower19IsInManualSpeedModeEv 0x00003820   Section        0  pathfollower.o(i._ZN4Anki5Cozmo12PathFollower19IsInManualSpeedModeEv)
    i._ZN4Anki5Cozmo12PathFollower21AppendPathSegment_ArcEjffffffff 0x0000382c   Section        0  pathfollower.o(i._ZN4Anki5Cozmo12PathFollower21AppendPathSegment_ArcEjffffffff)
    i._ZN4Anki5Cozmo12PathFollower22AppendPathSegment_LineEjfffffff 0x0000388c   Section        0  pathfollower.o(i._ZN4Anki5Cozmo12PathFollower22AppendPathSegment_LineEjfffffff)
    i._ZN4Anki5Cozmo12PathFollower22GetNumFreeSegmentSlotsEv 0x000038e4   Section        0  pathfollower.o(i._ZN4Anki5Cozmo12PathFollower22GetNumFreeSegmentSlotsEv)
    i._ZN4Anki5Cozmo12PathFollower27AppendPathSegment_PointTurnEjfffffffb 0x00003900   Section        0  pathfollower.o(i._ZN4Anki5Cozmo12PathFollower27AppendPathSegment_PointTurnEjfffffffb)
    i._ZN4Anki5Cozmo12PathFollower27ProcessPathSegmentPointTurnERfS2_ 0x0000395c   Section        0  pathfollower.o(i._ZN4Anki5Cozmo12PathFollower27ProcessPathSegmentPointTurnERfS2_)
    i._ZN4Anki5Cozmo12PathFollower4InitEv    0x000039d4   Section        0  pathfollower.o(i._ZN4Anki5Cozmo12PathFollower4InitEv)
    i._ZN4Anki5Cozmo12PathFollower6UpdateEv  0x000039e0   Section        0  pathfollower.o(i._ZN4Anki5Cozmo12PathFollower6UpdateEv)
    i._ZN4Anki5Cozmo12PathFollower8TrimPathEhh 0x00003b28   Section        0  pathfollower.o(i._ZN4Anki5Cozmo12PathFollower8TrimPathEhh)
    i._ZN4Anki5Cozmo12PathFollower8TrimPathEv 0x00003b58   Section        0  pathfollower.o(i._ZN4Anki5Cozmo12PathFollower8TrimPathEv)
    i._ZN4Anki5Cozmo12PathFollower9ClearPathEv 0x00003b70   Section        0  pathfollower.o(i._ZN4Anki5Cozmo12PathFollower9ClearPathEv)
    i._ZN4Anki5Cozmo12PathFollower9PrintPathEv 0x00003b9c   Section        0  pathfollower.o(i._ZN4Anki5Cozmo12PathFollower9PrintPathEv)
    i._ZN4Anki5Cozmo14HeadController11GetAngleRadEv 0x00003ba8   Section        0  headcontroller.o(i._ZN4Anki5Cozmo14HeadController11GetAngleRadEv)
    i._ZN4Anki5Cozmo14HeadController11SetAngleRadEf 0x00003bb4   Section        0  headcontroller.o(i._ZN4Anki5Cozmo14HeadController11SetAngleRadEf)
    i._ZN4Anki5Cozmo14HeadController12IsCalibratedEv 0x00003bc0   Section        0  headcontroller.o(i._ZN4Anki5Cozmo14HeadController12IsCalibratedEv)
    i._ZN4Anki5Cozmo14HeadController12IsInPositionEv 0x00003bcc   Section        0  headcontroller.o(i._ZN4Anki5Cozmo14HeadController12IsInPositionEv)
    i._ZN4Anki5Cozmo14HeadController15SetDesiredAngleEf 0x00003bd8   Section        0  headcontroller.o(i._ZN4Anki5Cozmo14HeadController15SetDesiredAngleEf)
    i._ZN4Anki5Cozmo14HeadController15SetDesiredAngleEffff 0x00003bf0   Section        0  headcontroller.o(i._ZN4Anki5Cozmo14HeadController15SetDesiredAngleEffff)
    i._ZN4Anki5Cozmo14HeadController17CalibrationUpdateEv 0x00003bf4   Section        0  headcontroller.o(i._ZN4Anki5Cozmo14HeadController17CalibrationUpdateEv)
    i._ZN4Anki5Cozmo14HeadController18SetAngularVelocityEf 0x00003c90   Section        0  headcontroller.o(i._ZN4Anki5Cozmo14HeadController18SetAngularVelocityEf)
    i._ZN4Anki5Cozmo14HeadController19SetMaxSpeedAndAccelEff 0x00003cfc   Section        0  headcontroller.o(i._ZN4Anki5Cozmo14HeadController19SetMaxSpeedAndAccelEff)
    i._ZN4Anki5Cozmo14HeadController21ResetLowAnglePositionEv 0x00003d18   Section        0  headcontroller.o(i._ZN4Anki5Cozmo14HeadController21ResetLowAnglePositionEv)
    i._ZN4Anki5Cozmo14HeadController22MotorBurnoutProtectionEv 0x00003d48   Section        0  headcontroller.o(i._ZN4Anki5Cozmo14HeadController22MotorBurnoutProtectionEv)
    i._ZN4Anki5Cozmo14HeadController23StartCalibrationRoutineEv 0x00003db0   Section        0  headcontroller.o(i._ZN4Anki5Cozmo14HeadController23StartCalibrationRoutineEv)
    i._ZN4Anki5Cozmo14HeadController24PoseAndSpeedFilterUpdateEv 0x00003ddc   Section        0  headcontroller.o(i._ZN4Anki5Cozmo14HeadController24PoseAndSpeedFilterUpdateEv)
