Component: ARM Compiler 5.06 update 2 (build 183) Tool: armlink [4d35b7]

==============================================================================

Section Cross References

    battery.o(i._Z10calcResulti) refers to uidiv.o(.text) for __aeabi_uidivmod
    battery.o(i._Z10calcResulti) refers to dfltui.o(.text) for __aeabi_ui2d
    battery.o(i._Z10calcResulti) refers to dscalb.o(.text) for __ARM_scalbn
    battery.o(i._Z10calcResulti) refers to dadd.o(.text) for __aeabi_dadd
    battery.o(i._Z10calcResulti) refers to dfixl.o(.text) for __aeabi_d2lz
    battery.o(i._Z10calcResulti) refers to dfltl.o(.text) for __aeabi_l2d
    battery.o(i._Z10calcResulti) refers to ddiv.o(.text) for __aeabi_ddiv
    battery.o(i._Z10calcResulti) refers to dfixi.o(.text) for __aeabi_d2iz
    battery.o(i._Z10calcResulti) refers to battery.o(i.__ARM_common_ll_mulss) for __ARM_common_ll_mulss
    battery.o(i._Z14startADCsample11AnalogInput) refers to battery.o(.data) for .data
    battery.o(i._ZN7Battery16setOperatingModeEa) refers to battery.o(.data) for .data
    battery.o(i._ZN7Battery19updateOperatingModeEv) refers to bluetooth.o(i._ZN9Bluetooth8shutdownEv) for Bluetooth::shutdown()
    battery.o(i._ZN7Battery19updateOperatingModeEv) refers to cubes.o(i._ZN5Radio8shutdownEv) for Radio::shutdown()
    battery.o(i._ZN7Battery19updateOperatingModeEv) refers to backpack.o(i._ZN8Backpack14defaultPatternE22DefaultBackpackPattern) for Backpack::defaultPattern(DefaultBackpackPattern)
    battery.o(i._ZN7Battery19updateOperatingModeEv) refers to motors.o(i._ZN6Motors7disableEb) for Motors::disable(bool)
    battery.o(i._ZN7Battery19updateOperatingModeEv) refers to head.o(i._ZN4Head17enterLowPowerModeEv) for Head::enterLowPowerMode()
    battery.o(i._ZN7Battery19updateOperatingModeEv) refers to timer.o(.emb_text) for MicroWait(unsigned)
    battery.o(i._ZN7Battery19updateOperatingModeEv) refers to bluetooth.o(i._ZN9Bluetooth9advertiseEv) for Bluetooth::advertise()
    battery.o(i._ZN7Battery19updateOperatingModeEv) refers to cubes.o(i._ZN5Radio9advertiseEv) for Radio::advertise()
    battery.o(i._ZN7Battery19updateOperatingModeEv) refers to battery.o(.data) for .data
    battery.o(i._ZN7Battery4initEv) refers to battery.o(i._Z14startADCsample11AnalogInput) for startADCsample(AnalogInput)
    battery.o(i._ZN7Battery4initEv) refers to battery.o(i._Z10calcResulti) for calcResult(int)
    battery.o(i._ZN7Battery4initEv) refers to battery.o(.data) for .data
    battery.o(i._ZN7Battery6manageEv) refers to timer.o(.emb_text) for MicroWait(unsigned)
    battery.o(i._ZN7Battery6manageEv) refers to battery.o(i._Z10calcResulti) for calcResult(int)
    battery.o(i._ZN7Battery6manageEv) refers to cxa_guard_acquire.o(i.__cxa_guard_acquire) for __cxa_guard_acquire
    battery.o(i._ZN7Battery6manageEv) refers to battery.o(i._Z14startADCsample11AnalogInput) for startADCsample(AnalogInput)
    battery.o(i._ZN7Battery6manageEv) refers to temp.o(i._ZN4Temp7getTempEv) for Temp::getTemp()
    battery.o(i._ZN7Battery6manageEv) refers to idiv.o(.text) for __aeabi_idivmod
    battery.o(i._ZN7Battery6manageEv) refers to messages.o(i._ZN4Anki5Cozmo3HAL16RadioSendMessageEPKvth) for Anki::Cozmo::HAL::RadioSendMessage(const void*, unsigned short, unsigned char)
    battery.o(i._ZN7Battery6manageEv) refers to battery.o(.data) for .data
    battery.o(i._ZN7Battery6manageEv) refers to head.o(.bss) for g_dataToHead
    battery.o(i._ZN7Battery7powerOnEv) refers to battery.o(.data) for .data
    battery.o(i._ZN7Battery8getLevelEv) refers to idiv.o(.text) for __aeabi_idivmod
    battery.o(i._ZN7Battery8getLevelEv) refers to battery.o(.data) for .data
    battery.o(i._ZN7Battery8powerOffEv) refers to timer.o(.emb_text) for MicroWait(unsigned)
    battery.o(i._ZN7Battery8powerOffEv) refers to battery.o(.data) for .data
    battery.o(.ARM.exidx) refers to battery.o(i._Z10calcResulti) for i._Z10calcResulti
    battery.o(.ARM.exidx) refers to battery.o(i._ZN7Battery8getLevelEv) for i._ZN7Battery8getLevelEv
    battery.o(.ARM.exidx) refers to battery.o(i._ZN7Battery4initEv) for i._ZN7Battery4initEv
    battery.o(.ARM.exidx) refers to battery.o(i._ZN7Battery12setHeadlightEb) for i._ZN7Battery12setHeadlightEb
    battery.o(.ARM.exidx) refers to battery.o(i._ZN7Battery16setOperatingModeEa) for i._ZN7Battery16setOperatingModeEa
    battery.o(.ARM.exidx) refers to battery.o(i._ZN7Battery7powerOnEv) for i._ZN7Battery7powerOnEv
    battery.o(.ARM.exidx) refers to battery.o(i._ZN7Battery8powerOffEv) for i._ZN7Battery8powerOffEv
    battery.o(.ARM.exidx) refers to battery.o(i._ZN7Battery19updateOperatingModeEv) for i._ZN7Battery19updateOperatingModeEv
    battery.o(.ARM.exidx) refers to battery.o(i._ZN7Battery6manageEv) for i._ZN7Battery6manageEv
    battery.o(.ARM.exidx) refers to battery.o(i._Z14startADCsample11AnalogInput) for i._Z14startADCsample11AnalogInput
    head.o(i.UART0_IRQHandler) refers to storage.o(i._ZN7Storage3setE10StorageKeyPKvi) for Storage::set(StorageKey, const void*, int)
    head.o(i.UART0_IRQHandler) refers to memcpya.o(.text) for __aeabi_memcpy4
    head.o(i.UART0_IRQHandler) refers to messages.o(i._ZN5Spine14processMessageEPv) for Spine::processMessage(void*)
    head.o(i.UART0_IRQHandler) refers to watchdog.o(i._ZN8Watchdog4kickEh) for Watchdog::kick(unsigned char)
    head.o(i.UART0_IRQHandler) refers to head.o(i._Z15setTransmitMode13TRANSMIT_MODE) for setTransmitMode(TRANSMIT_MODE)
    head.o(i.UART0_IRQHandler) refers to messages.o(i._ZN4Anki5Cozmo3HAL16RadioSendMessageEPKvth) for Anki::Cozmo::HAL::RadioSendMessage(const void*, unsigned short, unsigned char)
    head.o(i.UART0_IRQHandler) refers to head.o(.bss) for .bss
    head.o(i.UART0_IRQHandler) refers to head.o(.data) for .data
    head.o(i._Z15setTransmitMode13TRANSMIT_MODE) refers to head.o(.data) for .data
    head.o(i._ZN4Head17enterLowPowerModeEv) refers to messages.o(i._ZN4Anki5Cozmo3HAL16RadioSendMessageEPKvth) for Anki::Cozmo::HAL::RadioSendMessage(const void*, unsigned short, unsigned char)
    head.o(i._ZN4Head17enterLowPowerModeEv) refers to head.o(.data) for .data
    head.o(i._ZN4Head4initEv) refers to memseta.o(.text) for __aeabi_memclr4
    head.o(i._ZN4Head4initEv) refers to head.o(.bss) for .bss
    head.o(i._ZN4Head4initEv) refers to head.o(.data) for .data
    head.o(i._ZN4Head6manageEv) refers to timer.o(.emb_text) for MicroWait(unsigned)
    head.o(i._ZN4Head6manageEv) refers to head.o(i._Z15setTransmitMode13TRANSMIT_MODE) for setTransmitMode(TRANSMIT_MODE)
    head.o(i._ZN4Head6manageEv) refers to watchdog.o(i._ZN8Watchdog4kickEh) for Watchdog::kick(unsigned char)
    head.o(i._ZN4Head6manageEv) refers to messages.o(i._ZN5Spine7dequeueEP12CladBufferUp) for Spine::dequeue(CladBufferUp*)
    head.o(i._ZN4Head6manageEv) refers to memcpya.o(.text) for __aeabi_memcpy4
    head.o(i._ZN4Head6manageEv) refers to head.o(.data) for .data
    head.o(i._ZN4Head6manageEv) refers to head.o(.bss) for .bss
    head.o(.ARM.exidx) refers to head.o(i._Z15setTransmitMode13TRANSMIT_MODE) for i._Z15setTransmitMode13TRANSMIT_MODE
    head.o(.ARM.exidx) refers to head.o(i.UART0_IRQHandler) for i.UART0_IRQHandler
    head.o(.ARM.exidx) refers to head.o(i._ZN4Head4initEv) for i._ZN4Head4initEv
    head.o(.ARM.exidx) refers to head.o(i._ZN4Head17enterLowPowerModeEv) for i._ZN4Head17enterLowPowerModeEv
    head.o(.ARM.exidx) refers to head.o(i._ZN4Head17leaveLowPowerModeEv) for i._ZN4Head17leaveLowPowerModeEv
    head.o(.ARM.exidx) refers to head.o(i._ZN4Head6manageEv) for i._ZN4Head6manageEv
    main.o(i._Z14main_executionv) refers to motors.o(i._ZN6Motors6manageEv) for Motors::manage()
    main.o(i._Z14main_executionv) refers to head.o(i._ZN4Head6manageEv) for Head::manage()
    main.o(i._Z14main_executionv) refers to battery.o(i._ZN7Battery6manageEv) for Battery::manage()
    main.o(i._Z14main_executionv) refers to bluetooth.o(i._ZN9Bluetooth6manageEv) for Bluetooth::manage()
    main.o(i._Z14main_executionv) refers to watchdog.o(i._ZN8Watchdog4kickEh) for Watchdog::kick(unsigned char)
    main.o(i.main) refers to storage.o(i._ZN7Storage4initEv) for Storage::init()
    main.o(i.main) refers to watchdog.o(i._ZN8Watchdog4initEv) for Watchdog::init()
    main.o(i.main) refers to messages.o(i._ZN5Spine4initEv) for Spine::init()
    main.o(i.main) refers to bluetooth.o(i._ZN9Bluetooth4initEv) for Bluetooth::init()
    main.o(i.main) refers to tasks.o(i._ZN5Tasks4initEv) for Tasks::init()
    main.o(i.main) refers to lights.o(i._ZN6Lights4initEv) for Lights::init()
    main.o(i.main) refers to temp.o(i._ZN4Temp4initEv) for Temp::init()
    main.o(i.main) refers to motors.o(i._ZN6Motors4initEv) for Motors::init()
    main.o(i.main) refers to cubes.o(i._ZN5Radio4initEv) for Radio::init()
    main.o(i.main) refers to head.o(i._ZN4Head4initEv) for Head::init()
    main.o(i.main) refers to battery.o(i._ZN7Battery4initEv) for Battery::init()
    main.o(i.main) refers to backpack.o(i._ZN8Backpack4initEv) for Backpack::init()
    main.o(i.main) refers to timer.o(i._ZN5Timer4initEv) for Timer::init()
    main.o(i.main) refers to battery.o(i._ZN7Battery16setOperatingModeEa) for Battery::setOperatingMode(signed char)
    main.o(i.main) refers to battery.o(i._ZN7Battery19updateOperatingModeEv) for Battery::updateOperatingMode()
    main.o(i.main) refers to tasks.o(i._ZN5Tasks6manageEv) for Tasks::manage()
    main.o(i.main) refers to lights.o(i._ZN6Lights6manageEv) for Lights::manage()
    main.o(i.main) refers to backpack.o(i._ZN8Backpack6manageEv) for Backpack::manage()
    main.o(i.main) refers to temp.o(i._ZN4Temp6manageEv) for Temp::manage()
    main.o(.ARM.exidx) refers to main.o(i._Z14main_executionv) for i._Z14main_executionv
    main.o(.ARM.exidx) refers to main.o(i.main) for i.main
    motors.o(i.GPIOTE_IRQHandler) refers to motors.o(.data) for .data
    motors.o(i._Z13ConfigureTaskhPVj) refers to motors.o(.constdata) for .constdata
    motors.o(i._Z13ConfigureTaskhPVj) refers to motors.o(.data) for .data
    motors.o(i._ZN6Motors19debugWheelsGetTicksEh) refers to motors.o(.data) for .data
    motors.o(i._ZN6Motors4initEv) refers to motors.o(i._Z14ConfigureTimerP14NRF_TIMER_Typehh) for ConfigureTimer(NRF_TIMER_Type*, unsigned char, unsigned char)
    motors.o(i._ZN6Motors4initEv) refers to motors.o(.data) for .data
    motors.o(i._ZN6Motors4initEv) refers to motors.o(.constdata) for .constdata
    motors.o(i._ZN6Motors6manageEv) refers to idiv.o(.text) for __aeabi_idivmod
    motors.o(i._ZN6Motors6manageEv) refers to motors.o(i._Z13ConfigureTaskhPVj) for ConfigureTask(unsigned char, volatile unsigned*)
    motors.o(i._ZN6Motors6manageEv) refers to motors.o(i._ZN6Motors8getSpeedEh) for Motors::getSpeed(unsigned char)
    motors.o(i._ZN6Motors6manageEv) refers to battery.o(i.__ARM_common_ll_mulss) for __ARM_common_ll_mulss
    motors.o(i._ZN6Motors6manageEv) refers to head.o(.data) for Head::spokenTo
    motors.o(i._ZN6Motors6manageEv) refers to motors.o(.data) for .data
    motors.o(i._ZN6Motors6manageEv) refers to head.o(.bss) for g_dataToBody
    motors.o(i._ZN6Motors7disableEb) refers to messages.o(i._ZN4Anki5Cozmo3HAL16RadioSendMessageEPKvth) for Anki::Cozmo::HAL::RadioSendMessage(const void*, unsigned short, unsigned char)
    motors.o(i._ZN6Motors7disableEb) refers to motors.o(.data) for .data
    motors.o(i._ZN6Motors8getSpeedEh) refers to ldiv.o(.text) for __aeabi_ldivmod
    motors.o(i._ZN6Motors8getSpeedEh) refers to motors.o(.data) for .data
    motors.o(i._ZN6Motors8setPowerEhs) refers to idiv.o(.text) for __aeabi_idivmod
    motors.o(i._ZN6Motors8setPowerEhs) refers to motors.o(.data) for .data
    motors.o(i._ZN6Motors8teardownEv) refers to timer.o(.emb_text) for MicroWait(unsigned)
    motors.o(i._ZN6Motors8teardownEv) refers to motors.o(.constdata) for .constdata
    motors.o(.ARM.exidx) refers to motors.o(i._Z13ConfigureTaskhPVj) for i._Z13ConfigureTaskhPVj
    motors.o(.ARM.exidx) refers to motors.o(i.GPIOTE_IRQHandler) for i.GPIOTE_IRQHandler
    motors.o(.ARM.exidx) refers to motors.o(i._ZN6Motors7disableEb) for i._ZN6Motors7disableEb
    motors.o(.ARM.exidx) refers to motors.o(i._ZN6Motors8teardownEv) for i._ZN6Motors8teardownEv
    motors.o(.ARM.exidx) refers to motors.o(i._ZN6Motors4initEv) for i._ZN6Motors4initEv
    motors.o(.ARM.exidx) refers to motors.o(i._ZN6Motors8setPowerEhs) for i._ZN6Motors8setPowerEhs
    motors.o(.ARM.exidx) refers to motors.o(i._ZN6Motors8getSpeedEh) for i._ZN6Motors8getSpeedEh
    motors.o(.ARM.exidx) refers to motors.o(i._ZN6Motors6manageEv) for i._ZN6Motors6manageEv
    motors.o(.ARM.exidx) refers to motors.o(i._ZN6Motors19debugWheelsGetTicksEh) for i._ZN6Motors19debugWheelsGetTicksEh
    motors.o(.ARM.exidx) refers to motors.o(i._ZN6Motors12printEncoderEh) for i._ZN6Motors12printEncoderEh
    motors.o(.ARM.exidx) refers to motors.o(i._Z14ConfigureTimerP14NRF_TIMER_Typehh) for i._Z14ConfigureTimerP14NRF_TIMER_Typehh
    timer.o(i.RTC1_IRQHandler) refers to main.o(i._Z14main_executionv) for main_execution()
    timer.o(i.RTC1_IRQHandler) refers to backpack.o(i._ZN8Backpack6updateEi) for Backpack::update(int)
    timer.o(i.RTC1_IRQHandler) refers to timer.o(.data) for .data
    timer.o(.ARM.exidx) refers to timer.o(i.RTC1_IRQHandler) for i.RTC1_IRQHandler
    timer.o(.ARM.exidx) refers to timer.o(i._ZN5Timer4initEv) for i._ZN5Timer4initEv
    logging.o(i._ZN4Anki5Cozmo14RobotInterface7SendLogEatthz) refers to clad.o(i._ZNK4Anki5Cozmo14RobotInterface10PrintTrace4SizeEv) for Anki::Cozmo::RobotInterface::PrintTrace::Size() const
    logging.o(i._ZN4Anki5Cozmo14RobotInterface7SendLogEatthz) refers to messages.o(i._ZN4Anki5Cozmo3HAL16RadioSendMessageEPKvth) for Anki::Cozmo::HAL::RadioSendMessage(const void*, unsigned short, unsigned char)
    logging.o(i._ZN4Anki5Cozmo14RobotInterface7SendLogEatthz) refers to logging.o(.data) for .data
    logging.o(.ARM.exidx) refers to logging.o(i._ZN4Anki5Cozmo14RobotInterface7SendLogEatthz) for i._ZN4Anki5Cozmo14RobotInterface7SendLogEatthz
    backpack.o(i._ZN8Backpack14defaultPatternE22DefaultBackpackPattern) refers to lights.o(i._ZN6Lights6updateER11LightValuesPKN4Anki5Cozmo10LightStateE) for Lights::update(LightValues&, const Anki::Cozmo::LightState*)
    backpack.o(i._ZN8Backpack14defaultPatternE22DefaultBackpackPattern) refers to lights.o(.bss) for lightController
    backpack.o(i._ZN8Backpack14defaultPatternE22DefaultBackpackPattern) refers to backpack.o(.constdata) for .constdata
    backpack.o(i._ZN8Backpack4initEv) refers to backpack.o(i._ZN8Backpack14defaultPatternE22DefaultBackpackPattern) for Backpack::defaultPattern(DefaultBackpackPattern)
    backpack.o(i._ZN8Backpack4initEv) refers to backpack.o(i._ZN8Backpack6updateEi) for Backpack::update(int)
    backpack.o(i._ZN8Backpack5blinkEv) refers to timer.o(.emb_text) for MicroWait(unsigned)
    backpack.o(i._ZN8Backpack5blinkEv) refers to backpack.o(.constdata) for .constdata
    backpack.o(i._ZN8Backpack6manageEv) refers to backpack.o(.constdata) for .constdata
    backpack.o(i._ZN8Backpack6manageEv) refers to lights.o(.bss) for lightController
    backpack.o(i._ZN8Backpack6manageEv) refers to backpack.o(.bss) for .bss
    backpack.o(i._ZN8Backpack6manageEv) refers to backpack.o(.data) for .data
    backpack.o(i._ZN8Backpack6updateEi) refers to backpack.o(.data) for .data
    backpack.o(i._ZN8Backpack6updateEi) refers to backpack.o(.constdata) for .constdata
    backpack.o(i._ZN8Backpack6updateEi) refers to backpack.o(.bss) for .bss
    backpack.o(i._ZN8Backpack9setLightsEPKN4Anki5Cozmo10LightStateE) refers to lights.o(i._ZN6Lights6updateER11LightValuesPKN4Anki5Cozmo10LightStateE) for Lights::update(LightValues&, const Anki::Cozmo::LightState*)
    backpack.o(i._ZN8Backpack9setLightsEPKN4Anki5Cozmo10LightStateE) refers to lights.o(.bss) for lightController
    backpack.o(.ARM.exidx) refers to backpack.o(i._ZN8Backpack6updateEi) for i._ZN8Backpack6updateEi
    backpack.o(.ARM.exidx) refers to backpack.o(i._ZN8Backpack9setLightsEPKN4Anki5Cozmo10LightStateE) for i._ZN8Backpack9setLightsEPKN4Anki5Cozmo10LightStateE
    backpack.o(.ARM.exidx) refers to backpack.o(i._ZN8Backpack14defaultPatternE22DefaultBackpackPattern) for i._ZN8Backpack14defaultPatternE22DefaultBackpackPattern
    backpack.o(.ARM.exidx) refers to backpack.o(i._ZN8Backpack4initEv) for i._ZN8Backpack4initEv
    backpack.o(.ARM.exidx) refers to backpack.o(i._ZN8Backpack6manageEv) for i._ZN8Backpack6manageEv
    backpack.o(.ARM.exidx) refers to backpack.o(i._ZN8Backpack5blinkEv) for i._ZN8Backpack5blinkEv
    backpack.o(.data) refers to backpack.o(.constdata) for PinSet
    lights.o(i._ZN6Lights4initEv) refers to lights.o(.bss) for .bss
    lights.o(i._ZN6Lights6manageEv) refers to lights.o(.data) for .data
    lights.o(i._ZN6Lights6manageEv) refers to lights.o(.bss) for .bss
    lights.o(i._ZN6Lights6manageEv) refers to lights.o(.constdata) for .constdata
    lights.o(.ARM.exidx) refers to lights.o(i._ZN6Lights6updateER11LightValuesPKN4Anki5Cozmo10LightStateE) for i._ZN6Lights6updateER11LightValuesPKN4Anki5Cozmo10LightStateE
    lights.o(.ARM.exidx) refers to lights.o(i._ZN6Lights4initEv) for i._ZN6Lights4initEv
    lights.o(.ARM.exidx) refers to lights.o(i._ZN6Lights6manageEv) for i._ZN6Lights6manageEv
    storage.o(i._Z13setup_storagev) refers to storage.o(.bss) for .bss
    storage.o(i._Z13setup_storagev) refers to storage.o(.data) for .data
    storage.o(i._Z13storage_levelv) refers to memseta.o(.text) for __aeabi_memset
    storage.o(i._Z13storage_levelv) refers to memcpya.o(.text) for __aeabi_memcpy
    storage.o(i._Z13storage_levelv) refers to memcmp.o(.text) for memcmp
    storage.o(i._Z13storage_levelv) refers to storage.o(i._Z13setup_storagev) for setup_storage()
    storage.o(i._Z13storage_levelv) refers to storage.o(.bss) for .bss
    storage.o(i._Z9store_key10StorageKeyPKvi) refers to storage.o(i._Z18storage_write_wordPjj) for storage_write_word(unsigned*, unsigned)
    storage.o(i._Z9store_key10StorageKeyPKvi) refers to storage.o(.data) for .data
    storage.o(i._ZN7Storage3getE10StorageKey) refers to storage.o(.bss) for .bss
    storage.o(i._ZN7Storage3getE10StorageKeyRi) refers to storage.o(.bss) for .bss
    storage.o(i._ZN7Storage3setE10StorageKeyPKvi) refers to memcmp.o(.text) for memcmp
    storage.o(i._ZN7Storage3setE10StorageKeyPKvi) refers to storage.o(i._Z9store_key10StorageKeyPKvi) for store_key(StorageKey, const void*, int)
    storage.o(i._ZN7Storage3setE10StorageKeyPKvi) refers to storage.o(i._Z13storage_levelv) for storage_level()
    storage.o(i._ZN7Storage3setE10StorageKeyPKvi) refers to storage.o(.bss) for .bss
    storage.o(i._ZN7Storage4initEv) refers to storage.o(i._Z18storage_write_wordPjj) for storage_write_word(unsigned*, unsigned)
    storage.o(i._ZN7Storage4initEv) refers to storage.o(i._Z13setup_storagev) for setup_storage()
    storage.o(i._ZN7Storage4initEv) refers to storage.o(i._Z13storage_levelv) for storage_level()
    storage.o(.ARM.exidx) refers to storage.o(i._Z13setup_storagev) for i._Z13setup_storagev
    storage.o(.ARM.exidx) refers to storage.o(i._Z13storage_levelv) for i._Z13storage_levelv
    storage.o(.ARM.exidx) refers to storage.o(i._Z9store_key10StorageKeyPKvi) for i._Z9store_key10StorageKeyPKvi
    storage.o(.ARM.exidx) refers to storage.o(i._ZN7Storage4initEv) for i._ZN7Storage4initEv
    storage.o(.ARM.exidx) refers to storage.o(i._ZN7Storage3setE10StorageKeyPKvi) for i._ZN7Storage3setE10StorageKeyPKvi
    storage.o(.ARM.exidx) refers to storage.o(i._ZN7Storage3getE10StorageKeyRi) for i._ZN7Storage3getE10StorageKeyRi
    storage.o(.ARM.exidx) refers to storage.o(i._ZN7Storage3getE10StorageKey) for i._ZN7Storage3getE10StorageKey
    storage.o(.ARM.exidx) refers to storage.o(i._Z18storage_write_wordPjj) for i._Z18storage_write_wordPjj
    temp.o(i._ZN4Temp6manageEv) refers to bluetooth.o(i._ZN9Bluetooth7enabledEv) for Bluetooth::enabled()
    temp.o(i._ZN4Temp6manageEv) refers to temp.o(.data) for .data
    temp.o(i._ZN4Temp7getTempEv) refers to temp.o(.data) for .data
    temp.o(.ARM.exidx) refers to temp.o(i._ZN4Temp4initEv) for i._ZN4Temp4initEv
    temp.o(.ARM.exidx) refers to temp.o(i._ZN4Temp6manageEv) for i._ZN4Temp6manageEv
    temp.o(.ARM.exidx) refers to temp.o(i._ZN4Temp7getTempEv) for i._ZN4Temp7getTempEv
    watchdog.o(.ARM.exidx) refers to watchdog.o(i._ZN8Watchdog4initEv) for i._ZN8Watchdog4initEv
    watchdog.o(.ARM.exidx) refers to watchdog.o(i._ZN8Watchdog4kickEh) for i._ZN8Watchdog4kickEh
    tasks.o(i._ZN5Tasks4initEv) refers to storage.o(i._ZN7Storage3getE10StorageKey) for Storage::get(StorageKey)
    tasks.o(i._ZN5Tasks4initEv) refers to random.o(i._Z10gen_randomPvi) for gen_random(void*, int)
    tasks.o(i._ZN5Tasks4initEv) refers to storage.o(i._ZN7Storage3setE10StorageKeyPKvi) for Storage::set(StorageKey, const void*, int)
    tasks.o(i._ZN5Tasks4initEv) refers to tasks.o(.data) for .data
    tasks.o(i._ZN5Tasks4initEv) refers to tasks.o(.bss) for .bss
    tasks.o(i._ZN5Tasks6manageEv) refers to random.o(i._Z10gen_randomPvi) for gen_random(void*, int)
    tasks.o(i._ZN5Tasks6manageEv) refers to storage.o(i._ZN7Storage3getE10StorageKey) for Storage::get(StorageKey)
    tasks.o(i._ZN5Tasks6manageEv) refers to packet.o(i._Z18aes_message_decodePKhS0_iPhRi) for aes_message_decode(const unsigned char*, const unsigned char*, int, unsigned char*, int&)
    tasks.o(i._ZN5Tasks6manageEv) refers to packet.o(i._Z18aes_message_encodePKhS0_iPhRi) for aes_message_encode(const unsigned char*, const unsigned char*, int, unsigned char*, int&)
    tasks.o(i._ZN5Tasks6manageEv) refers to diffie.o(i._Z16dh_encode_randomPhiPKh) for dh_encode_random(unsigned char*, int, const unsigned char*)
    tasks.o(i._ZN5Tasks6manageEv) refers to aes.o(i._Z18AES128_ECB_encryptPKhS0_Ph) for AES128_ECB_encrypt(const unsigned char*, const unsigned char*, unsigned char*)
    tasks.o(i._ZN5Tasks6manageEv) refers to tasks.o(.data) for .data
    tasks.o(i._ZN5Tasks6manageEv) refers to tasks.o(.bss) for .bss
    tasks.o(i._ZN5Tasks7aes_keyEv) refers to storage.o(i._ZN7Storage3getE10StorageKey) for Storage::get(StorageKey)
    tasks.o(i._ZN5Tasks7executeEPK4Task) refers to tasks.o(.data) for .data
    tasks.o(i._ZN5Tasks7executeEPK4Task) refers to tasks.o(.bss) for .bss
    tasks.o(.ARM.exidx) refers to tasks.o(i._ZN5Tasks7aes_keyEv) for i._ZN5Tasks7aes_keyEv
    tasks.o(.ARM.exidx) refers to tasks.o(i._ZN5Tasks4initEv) for i._ZN5Tasks4initEv
    tasks.o(.ARM.exidx) refers to tasks.o(i._ZN5Tasks7executeEPK4Task) for i._ZN5Tasks7executeEPK4Task
    tasks.o(.ARM.exidx) refers to tasks.o(i._ZN5Tasks6manageEv) for i._ZN5Tasks6manageEv
    crashlogger.o(i.HardFault_Handler) refers to storage.o(i._ZN7Storage3setE10StorageKeyPKvi) for Storage::set(StorageKey, const void*, int)
    crashlogger.o(i.HardFault_Handler) refers to crashlogger.o(.data) for .data
    crashlogger.o(.ARM.exidx) refers to crashlogger.o(i.HardFault_Handler) for i.HardFault_Handler
    startup_nrf51.o(RESET) refers to startup_nrf51.o(.text) for Reset_Handler
    startup_nrf51.o(RESET) refers to startup_nrf51.o(STACK) for __initial_sp
    startup_nrf51.o(RESET) refers to micro_esb.o(i.RADIO_IRQHandler) for RADIO_IRQHandler
    startup_nrf51.o(RESET) refers to head.o(i.UART0_IRQHandler) for UART0_IRQHandler
    startup_nrf51.o(RESET) refers to motors.o(i.GPIOTE_IRQHandler) for GPIOTE_IRQHandler
    startup_nrf51.o(RESET) refers to cubes.o(i.TIMER0_IRQHandler) for TIMER0_IRQHandler
    startup_nrf51.o(RESET) refers to timer.o(i.RTC1_IRQHandler) for RTC1_IRQHandler
    startup_nrf51.o(RESET) refers to bluetooth.o(i.SWI2_IRQHandler) for SWI2_IRQHandler
    startup_nrf51.o(.text) refers to system_nrf51.o(i.SystemInit) for SystemInit
    startup_nrf51.o(.text) refers to entry.o(.ARM.Collect$$$$00000000) for __main
    startup_nrf51.o(.text) refers to crashlogger.o(.data) for CRASHLOG_POINTER
    startup_nrf51.o(.text) refers to crashlogger.o(i.HardFault_Handler) for HardFault_Handler
    system_nrf51.o(i.SystemCoreClockUpdate) refers to system_nrf51.o(.data) for .data
    bluetooth.o(i.SWI2_IRQHandler) refers to conn_params.o(i.ble_conn_params_on_ble_evt) for ble_conn_params_on_ble_evt
    bluetooth.o(i.SWI2_IRQHandler) refers to tasks.o(i._ZN5Tasks7executeEPK4Task) for Tasks::execute(const Task*)
    bluetooth.o(i.SWI2_IRQHandler) refers to messages.o(i._ZN4Anki5Cozmo3HAL16RadioSendMessageEPKvth) for Anki::Cozmo::HAL::RadioSendMessage(const void*, unsigned short, unsigned char)
    bluetooth.o(i.SWI2_IRQHandler) refers to memcpya.o(.text) for __aeabi_memcpy
    bluetooth.o(i.SWI2_IRQHandler) refers to cxa_guard_acquire.o(i.__cxa_guard_acquire) for __cxa_guard_acquire
    bluetooth.o(i.SWI2_IRQHandler) refers to bluetooth.o(i._Z19frame_data_receivedPKv) for frame_data_received(const void*)
    bluetooth.o(i.SWI2_IRQHandler) refers to bluetooth.o(.data) for .data
    bluetooth.o(i.SWI2_IRQHandler) refers to bluetooth.o(.bss) for .bss
    bluetooth.o(i.SWI2_IRQHandler) refers to settings.o(.constdata) for m_sec_params
    bluetooth.o(i.SWI2_IRQHandler) refers to bluetooth.o(.constdata) for .constdata
    bluetooth.o(i.SWI2_IRQHandler) refers to bluetooth.o(i._Z20send_welcome_messagePKv) for send_welcome_message(const void*)
    bluetooth.o(i.SWI2_IRQHandler) refers to settings.o(.constdata) for adv_params
    bluetooth.o(i._Z11dh_completePKv) refers to messages.o(i._ZN4Anki5Cozmo3HAL16RadioSendMessageEPKvth) for Anki::Cozmo::HAL::RadioSendMessage(const void*, unsigned short, unsigned char)
    bluetooth.o(i._Z19frame_data_receivedPKv) refers to messages.o(i._ZN4Anki5Cozmo3HAL16RadioSendMessageEPKvth) for Anki::Cozmo::HAL::RadioSendMessage(const void*, unsigned short, unsigned char)
    bluetooth.o(i._Z19frame_data_receivedPKv) refers to messages.o(i._ZN5Spine14processMessageEPv) for Spine::processMessage(void*)
    bluetooth.o(i._Z19frame_data_receivedPKv) refers to bluetooth.o(.data) for .data
    bluetooth.o(i._Z19frame_data_receivedPKv) refers to bluetooth.o(.bss) for .bss
    bluetooth.o(i._Z20send_welcome_messagePKv) refers to memcpya.o(.text) for __aeabi_memcpy
    bluetooth.o(i._Z20send_welcome_messagePKv) refers to messages.o(i._ZN4Anki5Cozmo3HAL16RadioSendMessageEPKvth) for Anki::Cozmo::HAL::RadioSendMessage(const void*, unsigned short, unsigned char)
    bluetooth.o(i._Z20send_welcome_messagePKv) refers to bluetooth.o(.bss) for .bss
    bluetooth.o(i._Z26start_message_transmissionPKv) refers to bluetooth.o(.bss) for .bss
    bluetooth.o(i._Z26start_message_transmissionPKv) refers to bluetooth.o(.data) for .data
    bluetooth.o(i._Z8dh_setupPKv) refers to messages.o(i._ZN4Anki5Cozmo3HAL16RadioSendMessageEPKvth) for Anki::Cozmo::HAL::RadioSendMessage(const void*, unsigned short, unsigned char)
    bluetooth.o(i._Z8dh_setupPKv) refers to bluetooth.o(.data) for .data
    bluetooth.o(i._ZN9Bluetooth12enterPairingERKN4Anki5Cozmo12EnterPairingE) refers to memcpya.o(.text) for __aeabi_memcpy
    bluetooth.o(i._ZN9Bluetooth12enterPairingERKN4Anki5Cozmo12EnterPairingE) refers to tasks.o(i._ZN5Tasks7executeEPK4Task) for Tasks::execute(const Task*)
    bluetooth.o(i._ZN9Bluetooth12enterPairingERKN4Anki5Cozmo12EnterPairingE) refers to bluetooth.o(.data) for .data
    bluetooth.o(i._ZN9Bluetooth12enterPairingERKN4Anki5Cozmo12EnterPairingE) refers to bluetooth.o(.bss) for .bss
    bluetooth.o(i._ZN9Bluetooth12enterPairingERKN4Anki5Cozmo12EnterPairingE) refers to bluetooth.o(i._Z8dh_setupPKv) for dh_setup(const void*)
    bluetooth.o(i._ZN9Bluetooth20diffieHellmanResultsERKN4Anki5Cozmo20DiffieHellmanResultsE) refers to memcpya.o(.text) for __aeabi_memcpy
    bluetooth.o(i._ZN9Bluetooth20diffieHellmanResultsERKN4Anki5Cozmo20DiffieHellmanResultsE) refers to tasks.o(i._ZN5Tasks7executeEPK4Task) for Tasks::execute(const Task*)
    bluetooth.o(i._ZN9Bluetooth20diffieHellmanResultsERKN4Anki5Cozmo20DiffieHellmanResultsE) refers to bluetooth.o(.data) for .data
    bluetooth.o(i._ZN9Bluetooth20diffieHellmanResultsERKN4Anki5Cozmo20DiffieHellmanResultsE) refers to bluetooth.o(.bss) for .bss
    bluetooth.o(i._ZN9Bluetooth20diffieHellmanResultsERKN4Anki5Cozmo20DiffieHellmanResultsE) refers to bluetooth.o(i._Z11dh_completePKv) for dh_complete(const void*)
    bluetooth.o(i._ZN9Bluetooth4initEv) refers to bluetooth.o(.data) for .data
    bluetooth.o(i._ZN9Bluetooth4initEv) refers to bluetooth.o(i._Z28softdevice_assertion_handlerjtPKh) for softdevice_assertion_handler(unsigned, unsigned short, const unsigned char*)
    bluetooth.o(i._ZN9Bluetooth6manageEv) refers to conn_params.o(i.ble_app_timer_manage) for ble_app_timer_manage
    bluetooth.o(i._ZN9Bluetooth6manageEv) refers to messages.o(i._ZN4Anki5Cozmo3HAL16RadioSendMessageEPKvth) for Anki::Cozmo::HAL::RadioSendMessage(const void*, unsigned short, unsigned char)
    bluetooth.o(i._ZN9Bluetooth6manageEv) refers to memcpya.o(.text) for __aeabi_memcpy
    bluetooth.o(i._ZN9Bluetooth6manageEv) refers to bluetooth.o(.data) for .data
    bluetooth.o(i._ZN9Bluetooth6manageEv) refers to bluetooth.o(.bss) for .bss
    bluetooth.o(i._ZN9Bluetooth7enabledEv) refers to bluetooth.o(.data) for .data
    bluetooth.o(i._ZN9Bluetooth8shutdownEv) refers to bluetooth.o(.data) for .data
    bluetooth.o(i._ZN9Bluetooth8transmitEPKhih) refers to memcpya.o(.text) for __aeabi_memcpy
    bluetooth.o(i._ZN9Bluetooth8transmitEPKhih) refers to cxa_guard_acquire.o(i.__cxa_guard_acquire) for __cxa_guard_acquire
    bluetooth.o(i._ZN9Bluetooth8transmitEPKhih) refers to tasks.o(i._ZN5Tasks7executeEPK4Task) for Tasks::execute(const Task*)
    bluetooth.o(i._ZN9Bluetooth8transmitEPKhih) refers to bluetooth.o(.data) for .data
    bluetooth.o(i._ZN9Bluetooth8transmitEPKhih) refers to bluetooth.o(.bss) for .bss
    bluetooth.o(i._ZN9Bluetooth8transmitEPKhih) refers to bluetooth.o(i._Z26start_message_transmissionPKv) for start_message_transmission(const void*)
    bluetooth.o(i._ZN9Bluetooth9advertiseEv) refers to ble_advdata.o(i.ble_advdata_set) for ble_advdata_set
    bluetooth.o(i._ZN9Bluetooth9advertiseEv) refers to conn_params.o(i.ble_conn_params_init) for ble_conn_params_init
    bluetooth.o(i._ZN9Bluetooth9advertiseEv) refers to bluetooth.o(.data) for .data
    bluetooth.o(i._ZN9Bluetooth9advertiseEv) refers to bluetooth.o(i._Z28softdevice_assertion_handlerjtPKh) for softdevice_assertion_handler(unsigned, unsigned short, const unsigned char*)
    bluetooth.o(i._ZN9Bluetooth9advertiseEv) refers to settings.o(.constdata) for DEVICE_NAME_LENGTH
    bluetooth.o(i._ZN9Bluetooth9advertiseEv) refers to settings.o(.constdata) for DEVICE_NAME
    bluetooth.o(i._ZN9Bluetooth9advertiseEv) refers to settings.o(.constdata) for gap_conn_params
    bluetooth.o(i._ZN9Bluetooth9advertiseEv) refers to settings.o(.constdata) for COZMO_UUID_BASE
    bluetooth.o(i._ZN9Bluetooth9advertiseEv) refers to settings.o(.constdata) for COZMO_UUID_SERVICE
    bluetooth.o(i._ZN9Bluetooth9advertiseEv) refers to settings.o(.constdata) for COZMO_UUID_RECEIVE_CHAR
    bluetooth.o(i._ZN9Bluetooth9advertiseEv) refers to bluetooth.o(.bss) for .bss
    bluetooth.o(i._ZN9Bluetooth9advertiseEv) refers to settings.o(.constdata) for COZMO_UUID_TRANSMIT_CHAR
    bluetooth.o(i._ZN9Bluetooth9advertiseEv) refers to settings.o(.data) for manif_data
    bluetooth.o(i._ZN9Bluetooth9advertiseEv) refers to settings.o(.constdata) for m_advdata
    bluetooth.o(i._ZN9Bluetooth9advertiseEv) refers to settings.o(.constdata) for cp_init
    bluetooth.o(i._ZN9Bluetooth9advertiseEv) refers to settings.o(.constdata) for adv_params
    bluetooth.o(i.on_conn_params_evt) refers to bluetooth.o(.data) for .data
    bluetooth.o(.ARM.exidx) refers to bluetooth.o(i.app_error_handler) for i.app_error_handler
    bluetooth.o(.ARM.exidx) refers to bluetooth.o(i.conn_params_error_handler) for i.conn_params_error_handler
    bluetooth.o(.ARM.exidx) refers to bluetooth.o(i._Z28softdevice_assertion_handlerjtPKh) for i._Z28softdevice_assertion_handlerjtPKh
    bluetooth.o(.ARM.exidx) refers to bluetooth.o(i._Z11dh_completePKv) for i._Z11dh_completePKv
    bluetooth.o(.ARM.exidx) refers to bluetooth.o(i._Z8dh_setupPKv) for i._Z8dh_setupPKv
    bluetooth.o(.ARM.exidx) refers to bluetooth.o(i._Z20send_welcome_messagePKv) for i._Z20send_welcome_messagePKv
    bluetooth.o(.ARM.exidx) refers to bluetooth.o(i._Z26start_message_transmissionPKv) for i._Z26start_message_transmissionPKv
    bluetooth.o(.ARM.exidx) refers to bluetooth.o(i.on_conn_params_evt) for i.on_conn_params_evt
    bluetooth.o(.ARM.exidx) refers to bluetooth.o(i.SWI2_IRQHandler) for i.SWI2_IRQHandler
    bluetooth.o(.ARM.exidx) refers to bluetooth.o(i._ZN9Bluetooth20diffieHellmanResultsERKN4Anki5Cozmo20DiffieHellmanResultsE) for i._ZN9Bluetooth20diffieHellmanResultsERKN4Anki5Cozmo20DiffieHellmanResultsE
    bluetooth.o(.ARM.exidx) refers to bluetooth.o(i._ZN9Bluetooth12enterPairingERKN4Anki5Cozmo12EnterPairingE) for i._ZN9Bluetooth12enterPairingERKN4Anki5Cozmo12EnterPairingE
    bluetooth.o(.ARM.exidx) refers to bluetooth.o(i._ZN9Bluetooth6manageEv) for i._ZN9Bluetooth6manageEv
    bluetooth.o(.ARM.exidx) refers to bluetooth.o(i._ZN9Bluetooth8transmitEPKhih) for i._ZN9Bluetooth8transmitEPKhih
    bluetooth.o(.ARM.exidx) refers to bluetooth.o(i._ZN9Bluetooth4initEv) for i._ZN9Bluetooth4initEv
    bluetooth.o(.ARM.exidx) refers to bluetooth.o(i._ZN9Bluetooth7enabledEv) for i._ZN9Bluetooth7enabledEv
    bluetooth.o(.ARM.exidx) refers to bluetooth.o(i._ZN9Bluetooth9advertiseEv) for i._ZN9Bluetooth9advertiseEv
    bluetooth.o(.ARM.exidx) refers to bluetooth.o(i._ZN9Bluetooth8shutdownEv) for i._ZN9Bluetooth8shutdownEv
    bluetooth.o(.ARM.exidx) refers to bluetooth.o(i._Z19frame_data_receivedPKv) for i._Z19frame_data_receivedPKv
    bluetooth.o(.constdata) refers to bluetooth.o(.bss) for m_nonce
    bluetooth.o(.data) refers to bluetooth.o(.bss) for rx_buffer
    ble_advdata.o(i.adv_data_encode) refers to ble_advdata.o(i.uuid_list_sized_encode) for uuid_list_sized_encode
    ble_advdata.o(i.adv_data_encode) refers to memcpya.o(.text) for __aeabi_memcpy
    ble_advdata.o(i.ble_advdata_set) refers to ble_advdata.o(i.adv_data_encode) for adv_data_encode
    settings.o(.constdata) refers to bluetooth.o(i.on_conn_params_evt) for on_conn_params_evt
    settings.o(.constdata) refers to bluetooth.o(i.conn_params_error_handler) for conn_params_error_handler
    settings.o(.constdata) refers to settings.o(.data) for manif_data
    settings.o(.constdata) refers to settings.o(.constdata) for m_manuf_data
    conn_params.o(i.ble_app_timer_manage) refers to conn_params.o(.data) for .data
    conn_params.o(i.ble_app_timer_manage) refers to conn_params.o(.bss) for .bss
    conn_params.o(i.ble_conn_params_change_conn_params) refers to conn_params.o(.data) for .data
    conn_params.o(i.ble_conn_params_change_conn_params) refers to conn_params.o(.bss) for .bss
    conn_params.o(i.ble_conn_params_init) refers to conn_params.o(.bss) for .bss
    conn_params.o(i.ble_conn_params_init) refers to conn_params.o(.data) for .data
    conn_params.o(i.ble_conn_params_on_ble_evt) refers to conn_params.o(i.conn_params_negotiation) for conn_params_negotiation
    conn_params.o(i.ble_conn_params_on_ble_evt) refers to conn_params.o(.data) for .data
    conn_params.o(i.ble_conn_params_on_ble_evt) refers to conn_params.o(.bss) for .bss
    conn_params.o(i.ble_conn_params_stop) refers to conn_params.o(.data) for .data
    conn_params.o(i.conn_params_negotiation) refers to conn_params.o(.data) for .data
    conn_params.o(i.conn_params_negotiation) refers to conn_params.o(.bss) for .bss
    messages.o(i._ZN4Anki5Cozmo3HAL16RadioSendMessageEPKvth) refers to bluetooth.o(i._ZN9Bluetooth8transmitEPKhih) for Bluetooth::transmit(const unsigned char*, int, unsigned char)
    messages.o(i._ZN4Anki5Cozmo3HAL16RadioSendMessageEPKvth) refers to logging.o(i._ZN4Anki5Cozmo14RobotInterface7SendLogEatthz) for Anki::Cozmo::RobotInterface::SendLog(signed char, unsigned short, unsigned short, unsigned char, ...)
    messages.o(i._ZN4Anki5Cozmo3HAL16RadioSendMessageEPKvth) refers to memcpya.o(.text) for __aeabi_memcpy
    messages.o(i._ZN4Anki5Cozmo3HAL16RadioSendMessageEPKvth) refers to messages.o(.data) for .data
    messages.o(i._ZN4Anki5Cozmo3HAL16RadioSendMessageEPKvth) refers to messages.o(.bss) for .bss
    messages.o(i._ZN5Spine14processMessageEPv) refers to logging.o(i._ZN4Anki5Cozmo14RobotInterface7SendLogEatthz) for Anki::Cozmo::RobotInterface::SendLog(signed char, unsigned short, unsigned short, unsigned char, ...)
    messages.o(i._ZN5Spine14processMessageEPv) refers to backpack.o(i._ZN8Backpack9setLightsEPKN4Anki5Cozmo10LightStateE) for Backpack::setLights(const Anki::Cozmo::LightState*)
    messages.o(i._ZN5Spine14processMessageEPv) refers to cubes.o(i._ZN5Radio13setPropLightsEjPKN4Anki5Cozmo10LightStateE) for Radio::setPropLights(unsigned, const Anki::Cozmo::LightState*)
    messages.o(i._ZN5Spine14processMessageEPv) refers to cubes.o(i._ZN5Radio10assignPropEjj) for Radio::assignProp(unsigned, unsigned)
    messages.o(i._ZN5Spine14processMessageEPv) refers to battery.o(i._ZN7Battery16setOperatingModeEa) for Battery::setOperatingMode(signed char)
    messages.o(i._ZN5Spine14processMessageEPv) refers to battery.o(i._ZN7Battery12setHeadlightEb) for Battery::setHeadlight(bool)
    messages.o(i._ZN5Spine14processMessageEPv) refers to cubes.o(i._ZN5Radio13setLightGammaEh) for Radio::setLightGamma(unsigned char)
    messages.o(i._ZN5Spine14processMessageEPv) refers to storage.o(i._ZN7Storage3getE10StorageKeyRi) for Storage::get(StorageKey, int&)
    messages.o(i._ZN5Spine14processMessageEPv) refers to memcpya.o(.text) for __aeabi_memcpy
    messages.o(i._ZN5Spine14processMessageEPv) refers to clad.o(i._ZNK4Anki5Cozmo19BodyStorageContents4SizeEv) for Anki::Cozmo::BodyStorageContents::Size() const
    messages.o(i._ZN5Spine14processMessageEPv) refers to messages.o(i._ZN4Anki5Cozmo3HAL16RadioSendMessageEPKvth) for Anki::Cozmo::HAL::RadioSendMessage(const void*, unsigned short, unsigned char)
    messages.o(i._ZN5Spine14processMessageEPv) refers to storage.o(i._ZN7Storage3setE10StorageKeyPKvi) for Storage::set(StorageKey, const void*, int)
    messages.o(i._ZN5Spine14processMessageEPv) refers to bluetooth.o(i._ZN9Bluetooth20diffieHellmanResultsERKN4Anki5Cozmo20DiffieHellmanResultsE) for Bluetooth::diffieHellmanResults(const Anki::Cozmo::DiffieHellmanResults&)
    messages.o(i._ZN5Spine14processMessageEPv) refers to bluetooth.o(i._ZN9Bluetooth12enterPairingERKN4Anki5Cozmo12EnterPairingE) for Bluetooth::enterPairing(const Anki::Cozmo::EnterPairing&)
    messages.o(i._ZN5Spine4initEv) refers to messages.o(.bss) for .bss
    messages.o(i._ZN5Spine7dequeueEP12CladBufferUp) refers to memcpya.o(.text) for __aeabi_memcpy
    messages.o(i._ZN5Spine7dequeueEP12CladBufferUp) refers to messages.o(.data) for .data
    messages.o(i._ZN5Spine7dequeueEP12CladBufferUp) refers to messages.o(.bss) for .bss
    messages.o(.ARM.exidx) refers to messages.o(i._ZN4Anki5Cozmo3HAL16RadioSendMessageEPKvth) for i._ZN4Anki5Cozmo3HAL16RadioSendMessageEPKvth
    messages.o(.ARM.exidx) refers to messages.o(i._ZN5Spine4initEv) for i._ZN5Spine4initEv
    messages.o(.ARM.exidx) refers to messages.o(i._ZN5Spine14processMessageEPv) for i._ZN5Spine14processMessageEPv
    messages.o(.ARM.exidx) refers to messages.o(i._ZN5Spine7dequeueEP12CladBufferUp) for i._ZN5Spine7dequeueEP12CladBufferUp
    clad.o(.ARM.exidx) refers to clad.o(i._ZNK4Anki5Cozmo10ImageChunk7IsValidEv) for i._ZNK4Anki5Cozmo10ImageChunk7IsValidEv
    clad.o(.ARM.exidx) refers to clad.o(i._ZNK4Anki5Cozmo10ImageChunk4SizeEv) for i._ZNK4Anki5Cozmo10ImageChunk4SizeEv
    clad.o(.ARM.exidx) refers to clad.o(i._ZNK4Anki5Cozmo9CubeSlots7IsValidEv) for i._ZNK4Anki5Cozmo9CubeSlots7IsValidEv
    clad.o(.ARM.exidx) refers to clad.o(i._ZNK4Anki5Cozmo9CubeSlots4SizeEv) for i._ZNK4Anki5Cozmo9CubeSlots4SizeEv
    clad.o(.ARM.exidx) refers to clad.o(i._ZNK4Anki5Cozmo16WriteBodyStorage7IsValidEv) for i._ZNK4Anki5Cozmo16WriteBodyStorage7IsValidEv
    clad.o(.ARM.exidx) refers to clad.o(i._ZNK4Anki5Cozmo16WriteBodyStorage4SizeEv) for i._ZNK4Anki5Cozmo16WriteBodyStorage4SizeEv
    clad.o(.ARM.exidx) refers to clad.o(i._ZNK4Anki5Cozmo19BodyStorageContents7IsValidEv) for i._ZNK4Anki5Cozmo19BodyStorageContents7IsValidEv
    clad.o(.ARM.exidx) refers to clad.o(i._ZNK4Anki5Cozmo19BodyStorageContents4SizeEv) for i._ZNK4Anki5Cozmo19BodyStorageContents4SizeEv
    clad.o(.ARM.exidx) refers to clad.o(i._ZNK4Anki5Cozmo28AdvertisementRegistrationMsg7IsValidEv) for i._ZNK4Anki5Cozmo28AdvertisementRegistrationMsg7IsValidEv
    clad.o(.ARM.exidx) refers to clad.o(i._ZNK4Anki5Cozmo28AdvertisementRegistrationMsg4SizeEv) for i._ZNK4Anki5Cozmo28AdvertisementRegistrationMsg4SizeEv
    clad.o(.ARM.exidx) refers to clad.o(i._ZNK4Anki5Cozmo16AdvertisementMsg7IsValidEv) for i._ZNK4Anki5Cozmo16AdvertisementMsg7IsValidEv
    clad.o(.ARM.exidx) refers to clad.o(i._ZNK4Anki5Cozmo16AdvertisementMsg4SizeEv) for i._ZNK4Anki5Cozmo16AdvertisementMsg4SizeEv
    clad.o(.ARM.exidx) refers to clad.o(i._ZNK4Anki5Cozmo14RobotInterface15FirmwareVersion7IsValidEv) for i._ZNK4Anki5Cozmo14RobotInterface15FirmwareVersion7IsValidEv
    clad.o(.ARM.exidx) refers to clad.o(i._ZNK4Anki5Cozmo14RobotInterface15FirmwareVersion4SizeEv) for i._ZNK4Anki5Cozmo14RobotInterface15FirmwareVersion4SizeEv
    clad.o(.ARM.exidx) refers to clad.o(i._ZNK4Anki5Cozmo9NVStorage13NVStorageBlob7IsValidEv) for i._ZNK4Anki5Cozmo9NVStorage13NVStorageBlob7IsValidEv
    clad.o(.ARM.exidx) refers to clad.o(i._ZNK4Anki5Cozmo14RobotInterface18NVReadResultToBody7IsValidEv) for i._ZNK4Anki5Cozmo14RobotInterface18NVReadResultToBody7IsValidEv
    clad.o(.ARM.exidx) refers to clad.o(i._ZNK4Anki5Cozmo9NVStorage13NVStorageBlob4SizeEv) for i._ZNK4Anki5Cozmo9NVStorage13NVStorageBlob4SizeEv
    clad.o(.ARM.exidx) refers to clad.o(i._ZNK4Anki5Cozmo14RobotInterface18NVReadResultToBody4SizeEv) for i._ZNK4Anki5Cozmo14RobotInterface18NVReadResultToBody4SizeEv
    clad.o(.ARM.exidx) refers to clad.o(i._ZNK4Anki5Cozmo12AnimKeyFrame9FaceImage7IsValidEv) for i._ZNK4Anki5Cozmo12AnimKeyFrame9FaceImage7IsValidEv
    clad.o(.ARM.exidx) refers to clad.o(i._ZNK4Anki5Cozmo9NVStorage9NVWipeAll7IsValidEv) for i._ZNK4Anki5Cozmo9NVStorage9NVWipeAll7IsValidEv
    clad.o(.ARM.exidx) refers to clad.o(i._ZNK4Anki5Cozmo9NVStorage14NVStorageWrite7IsValidEv) for i._ZNK4Anki5Cozmo9NVStorage14NVStorageWrite7IsValidEv
    clad.o(.ARM.exidx) refers to clad.o(i._ZNK4Anki5Cozmo14RobotInterface13EngineToRobot7IsValidEv) for i._ZNK4Anki5Cozmo14RobotInterface13EngineToRobot7IsValidEv
    clad.o(.ARM.exidx) refers to clad.o(i._ZNK4Anki5Cozmo12AnimKeyFrame9FaceImage4SizeEv) for i._ZNK4Anki5Cozmo12AnimKeyFrame9FaceImage4SizeEv
    clad.o(.ARM.exidx) refers to clad.o(i._ZNK4Anki5Cozmo9NVStorage9NVWipeAll4SizeEv) for i._ZNK4Anki5Cozmo9NVStorage9NVWipeAll4SizeEv
    clad.o(.ARM.exidx) refers to clad.o(i._ZNK4Anki5Cozmo9NVStorage14NVStorageWrite4SizeEv) for i._ZNK4Anki5Cozmo9NVStorage14NVStorageWrite4SizeEv
    clad.o(.ARM.exidx) refers to clad.o(i._ZNK4Anki5Cozmo14RobotInterface13EngineToRobot4SizeEv) for i._ZNK4Anki5Cozmo14RobotInterface13EngineToRobot4SizeEv
    clad.o(.ARM.exidx) refers to clad.o(i._ZNK4Anki5Cozmo14RobotInterface10PrintTrace7IsValidEv) for i._ZNK4Anki5Cozmo14RobotInterface10PrintTrace7IsValidEv
    clad.o(.ARM.exidx) refers to clad.o(i._ZNK4Anki5Cozmo14RobotInterface10PrintTrace4SizeEv) for i._ZNK4Anki5Cozmo14RobotInterface10PrintTrace4SizeEv
    clad.o(.ARM.exidx) refers to clad.o(i._ZNK4Anki5Cozmo14RobotInterface15TimeProfileStat7IsValidEv) for i._ZNK4Anki5Cozmo14RobotInterface15TimeProfileStat7IsValidEv
    clad.o(.ARM.exidx) refers to clad.o(i._ZNK4Anki5Cozmo14RobotInterface15TimeProfileStat4SizeEv) for i._ZNK4Anki5Cozmo14RobotInterface15TimeProfileStat4SizeEv
    clad.o(.ARM.exidx) refers to clad.o(i._ZNK4Anki5Cozmo14RobotInterface8DataDump4SizeEv) for i._ZNK4Anki5Cozmo14RobotInterface8DataDump4SizeEv
    clad.o(.ARM.exidx) refers to clad.o(i._ZNK4Anki5Cozmo14RobotInterface9PrintText7IsValidEv) for i._ZNK4Anki5Cozmo14RobotInterface9PrintText7IsValidEv
    clad.o(.ARM.exidx) refers to clad.o(i._ZNK4Anki5Cozmo14RobotInterface9PrintText4SizeEv) for i._ZNK4Anki5Cozmo14RobotInterface9PrintText4SizeEv
    clad.o(.ARM.exidx) refers to clad.o(i._ZNK4Anki5Cozmo14RobotInterface20NVReadResultToEngine7IsValidEv) for i._ZNK4Anki5Cozmo14RobotInterface20NVReadResultToEngine7IsValidEv
    clad.o(.ARM.exidx) refers to clad.o(i._ZNK4Anki5Cozmo14RobotInterface20NVReadResultToEngine4SizeEv) for i._ZNK4Anki5Cozmo14RobotInterface20NVReadResultToEngine4SizeEv
    clad.o(.ARM.exidx) refers to clad.o(i._ZNK4Anki5Cozmo14RobotInterface11CrashReport4SizeEv) for i._ZNK4Anki5Cozmo14RobotInterface11CrashReport4SizeEv
    clad.o(.ARM.exidx) refers to clad.o(i._ZNK4Anki5Cozmo14RobotInterface13RobotToEngine7IsValidEv) for i._ZNK4Anki5Cozmo14RobotInterface13RobotToEngine7IsValidEv
    clad.o(.ARM.exidx) refers to clad.o(i._ZNK4Anki5Cozmo14RobotInterface13RobotToEngine4SizeEv) for i._ZNK4Anki5Cozmo14RobotInterface13RobotToEngine4SizeEv
    clad.o(.ARM.exidx) refers to clad.o(i._ZNK4Anki5Cozmo13BlockMessages16LightCubeMessage7IsValidEv) for i._ZNK4Anki5Cozmo13BlockMessages16LightCubeMessage7IsValidEv
    clad.o(.ARM.exidx) refers to clad.o(i._ZNK4Anki5Cozmo13BlockMessages16LightCubeMessage4SizeEv) for i._ZNK4Anki5Cozmo13BlockMessages16LightCubeMessage4SizeEv
    aes.o(i._Z11AddRoundKeyh) refers to aes.o(.data) for .data
    aes.o(i._Z11AddRoundKeyh) refers to aes.o(.bss) for .bss
    aes.o(i._Z12InvShiftRowsv) refers to aes.o(.data) for .data
    aes.o(i._Z12KeyExpansionv) refers to aes.o(.data) for .data
    aes.o(i._Z12KeyExpansionv) refers to aes.o(.bss) for .bss
    aes.o(i._Z12KeyExpansionv) refers to aes.o(.constdata) for .constdata
    aes.o(i._Z13InvMixColumnsv) refers to aes.o(.data) for .data
    aes.o(i._Z13aes_fix_blockPhRi) refers to random.o(i._Z10gen_randomPvi) for gen_random(void*, int)
    aes.o(i._Z14aes_cfb_decodePKvS0_PKhPhiPv) refers to memcpya.o(.text) for __aeabi_memcpy
    aes.o(i._Z14aes_cfb_decodePKvS0_PKhPhiPv) refers to aes.o(i._Z12KeyExpansionv) for KeyExpansion()
    aes.o(i._Z14aes_cfb_decodePKvS0_PKhPhiPv) refers to aes.o(i._Z6Cipherv) for Cipher()
    aes.o(i._Z14aes_cfb_decodePKvS0_PKhPhiPv) refers to aes.o(.data) for .data
    aes.o(i._Z14aes_cfb_encodePKvPvPKhPhi) refers to random.o(i._Z10gen_randomPvi) for gen_random(void*, int)
    aes.o(i._Z14aes_cfb_encodePKvPvPKhPhi) refers to memcpya.o(.text) for __aeabi_memcpy
    aes.o(i._Z14aes_cfb_encodePKvPvPKhPhi) refers to aes.o(i._Z12KeyExpansionv) for KeyExpansion()
    aes.o(i._Z14aes_cfb_encodePKvPvPKhPhi) refers to aes.o(i._Z6Cipherv) for Cipher()
    aes.o(i._Z14aes_cfb_encodePKvPvPKhPhi) refers to aes.o(.data) for .data
    aes.o(i._Z18AES128_ECB_decryptPKhS0_Ph) refers to memcpya.o(.text) for __aeabi_memcpy
    aes.o(i._Z18AES128_ECB_decryptPKhS0_Ph) refers to aes.o(i._Z12KeyExpansionv) for KeyExpansion()
    aes.o(i._Z18AES128_ECB_decryptPKhS0_Ph) refers to aes.o(i._Z11AddRoundKeyh) for AddRoundKey(unsigned char)
    aes.o(i._Z18AES128_ECB_decryptPKhS0_Ph) refers to aes.o(i._Z12InvShiftRowsv) for InvShiftRows()
    aes.o(i._Z18AES128_ECB_decryptPKhS0_Ph) refers to aes.o(i._Z13InvMixColumnsv) for InvMixColumns()
    aes.o(i._Z18AES128_ECB_decryptPKhS0_Ph) refers to aes.o(.data) for .data
    aes.o(i._Z18AES128_ECB_decryptPKhS0_Ph) refers to aes.o(.constdata) for .constdata
    aes.o(i._Z18AES128_ECB_encryptPKhS0_Ph) refers to memcpya.o(.text) for __aeabi_memcpy
    aes.o(i._Z18AES128_ECB_encryptPKhS0_Ph) refers to aes.o(i._Z12KeyExpansionv) for KeyExpansion()
    aes.o(i._Z18AES128_ECB_encryptPKhS0_Ph) refers to aes.o(i._Z6Cipherv) for Cipher()
    aes.o(i._Z18AES128_ECB_encryptPKhS0_Ph) refers to aes.o(.data) for .data
    aes.o(i._Z6Cipherv) refers to aes.o(i._Z11AddRoundKeyh) for AddRoundKey(unsigned char)
    aes.o(i._Z6Cipherv) refers to aes.o(i._Z9ShiftRowsv) for ShiftRows()
    aes.o(i._Z6Cipherv) refers to aes.o(.data) for .data
    aes.o(i._Z6Cipherv) refers to aes.o(.constdata) for .constdata
    aes.o(i._Z9ShiftRowsv) refers to aes.o(.data) for .data
    aes.o(.ARM.exidx) refers to aes.o(i._Z12KeyExpansionv) for i._Z12KeyExpansionv
    aes.o(.ARM.exidx) refers to aes.o(i._Z11AddRoundKeyh) for i._Z11AddRoundKeyh
    aes.o(.ARM.exidx) refers to aes.o(i._Z9ShiftRowsv) for i._Z9ShiftRowsv
    aes.o(.ARM.exidx) refers to aes.o(i._Z13InvMixColumnsv) for i._Z13InvMixColumnsv
    aes.o(.ARM.exidx) refers to aes.o(i._Z12InvShiftRowsv) for i._Z12InvShiftRowsv
    aes.o(.ARM.exidx) refers to aes.o(i._Z18AES128_ECB_encryptPKhS0_Ph) for i._Z18AES128_ECB_encryptPKhS0_Ph
    aes.o(.ARM.exidx) refers to aes.o(i._Z18AES128_ECB_decryptPKhS0_Ph) for i._Z18AES128_ECB_decryptPKhS0_Ph
    aes.o(.ARM.exidx) refers to aes.o(i._Z13aes_fix_blockPhRi) for i._Z13aes_fix_blockPhRi
    aes.o(.ARM.exidx) refers to aes.o(i._Z14aes_cfb_encodePKvPvPKhPhi) for i._Z14aes_cfb_encodePKvPvPKhPhi
    aes.o(.ARM.exidx) refers to aes.o(i._Z14aes_cfb_decodePKvS0_PKhPhiPv) for i._Z14aes_cfb_decodePKvS0_PKhPhiPv
    aes.o(.ARM.exidx) refers to aes.o(i._Z6Cipherv) for i._Z6Cipherv
    bignum.o(i._Z10big_divideR9big_num_tS0_RKS_S2_) refers to memseta.o(.text) for __aeabi_memclr4
    bignum.o(i._Z10big_divideR9big_num_tS0_RKS_S2_) refers to memcpya.o(.text) for __aeabi_memcpy4
    bignum.o(i._Z10big_divideR9big_num_tS0_RKS_S2_) refers to bignum.o(i._Z7big_msbRK9big_num_t) for big_msb(const big_num_t&)
    bignum.o(i._Z10big_divideR9big_num_tS0_RKS_S2_) refers to bignum.o(i._Z7big_shlR9big_num_tRKS_i) for big_shl(big_num_t&, const big_num_t&, int)
    bignum.o(i._Z10big_divideR9big_num_tS0_RKS_S2_) refers to bignum.o(i._Z20big_unsigned_compareRK9big_num_tS1_) for big_unsigned_compare(const big_num_t&, const big_num_t&)
    bignum.o(i._Z10big_divideR9big_num_tS0_RKS_S2_) refers to bignum.o(i._Z21big_unsigned_subtractR9big_num_tRKS_S2_) for big_unsigned_subtract(big_num_t&, const big_num_t&, const big_num_t&)
    bignum.o(i._Z10big_divideR9big_num_tS0_RKS_S2_) refers to bignum.o(i._Z7big_shrR9big_num_tRKS_i) for big_shr(big_num_t&, const big_num_t&, int)
    bignum.o(i._Z10big_moduloR9big_num_tRKS_S2_) refers to memcpya.o(.text) for __aeabi_memcpy4
    bignum.o(i._Z10big_moduloR9big_num_tRKS_S2_) refers to bignum.o(i._Z7big_msbRK9big_num_t) for big_msb(const big_num_t&)
    bignum.o(i._Z10big_moduloR9big_num_tRKS_S2_) refers to bignum.o(i._Z7big_shlR9big_num_tRKS_i) for big_shl(big_num_t&, const big_num_t&, int)
    bignum.o(i._Z10big_moduloR9big_num_tRKS_S2_) refers to bignum.o(i._Z20big_unsigned_compareRK9big_num_tS1_) for big_unsigned_compare(const big_num_t&, const big_num_t&)
    bignum.o(i._Z10big_moduloR9big_num_tRKS_S2_) refers to bignum.o(i._Z21big_unsigned_subtractR9big_num_tRKS_S2_) for big_unsigned_subtract(big_num_t&, const big_num_t&, const big_num_t&)
    bignum.o(i._Z10big_moduloR9big_num_tRKS_S2_) refers to bignum.o(i._Z7big_shrR9big_num_tRKS_i) for big_shr(big_num_t&, const big_num_t&, int)
    bignum.o(i._Z10mont_powerRK10big_mont_tR9big_num_tRKS2_S5_) refers to bignum.o(i._Z7big_msbRK9big_num_t) for big_msb(const big_num_t&)
    bignum.o(i._Z10mont_powerRK10big_mont_tR9big_num_tRKS2_S5_) refers to memcpya.o(.text) for __aeabi_memcpy4
    bignum.o(i._Z10mont_powerRK10big_mont_tR9big_num_tRKS2_S5_) refers to bignum.o(i._Z13mont_multiplyRK10big_mont_tR9big_num_tRKS2_S5_) for mont_multiply(const big_mont_t&, big_num_t&, const big_num_t&, const big_num_t&)
    bignum.o(i._Z10mont_powerRK10big_mont_tR9big_num_tRKS2_S5_) refers to bignum.o(i._Z11big_bit_getRK9big_num_ti) for big_bit_get(const big_num_t&, int)
    bignum.o(i._Z11big_add_subR9big_num_tRKS_S2_b) refers to bignum.o(i._Z16big_unsigned_addR9big_num_tRKS_S2_) for big_unsigned_add(big_num_t&, const big_num_t&, const big_num_t&)
    bignum.o(i._Z11big_add_subR9big_num_tRKS_S2_b) refers to bignum.o(i._Z20big_unsigned_compareRK9big_num_tS1_) for big_unsigned_compare(const big_num_t&, const big_num_t&)
    bignum.o(i._Z11big_add_subR9big_num_tRKS_S2_b) refers to bignum.o(i._Z21big_unsigned_subtractR9big_num_tRKS_S2_) for big_unsigned_subtract(big_num_t&, const big_num_t&, const big_num_t&)
    bignum.o(i._Z11big_compareRK9big_num_tS1_) refers to bignum.o(i._Z20big_unsigned_compareRK9big_num_tS1_) for big_unsigned_compare(const big_num_t&, const big_num_t&)
    bignum.o(i._Z12big_subtractR9big_num_tRKS_S2_) refers to bignum.o(i._Z11big_add_subR9big_num_tRKS_S2_b) for big_add_sub(big_num_t&, const big_num_t&, const big_num_t&, bool)
    bignum.o(i._Z13mont_multiplyRK10big_mont_tR9big_num_tRKS2_S5_) refers to memcpya.o(.text) for __aeabi_memcpy4
    bignum.o(i._Z13mont_multiplyRK10big_mont_tR9big_num_tRKS2_S5_) refers to bignum.o(i._Z12big_multiplyR9big_num_tRKS_S2_) for big_multiply(big_num_t&, const big_num_t&, const big_num_t&)
    bignum.o(i._Z13mont_multiplyRK10big_mont_tR9big_num_tRKS2_S5_) refers to bignum.o(i._Z12big_subtractR9big_num_tRKS_S2_) for big_subtract(big_num_t&, const big_num_t&, const big_num_t&)
    bignum.o(i._Z13mont_multiplyRK10big_mont_tR9big_num_tRKS2_S5_) refers to bignum.o(i._Z7big_shrR9big_num_tRKS_i) for big_shr(big_num_t&, const big_num_t&, int)
    bignum.o(i._Z13mont_multiplyRK10big_mont_tR9big_num_tRKS2_S5_) refers to bignum.o(i._Z11big_compareRK9big_num_tS1_) for big_compare(const big_num_t&, const big_num_t&)
    bignum.o(i._Z13mont_multiplyRK10big_mont_tR9big_num_tRKS2_S5_) refers to bignum.o(i._Z11big_add_subR9big_num_tRKS_S2_b) for big_add_sub(big_num_t&, const big_num_t&, const big_num_t&, bool)
    bignum.o(i._Z13mont_multiplyRK10big_mont_tR9big_num_tRKS2_S5_) refers to bignum.o(.constdata) for .constdata
    bignum.o(i._Z16big_modulo_asyncR12big_modulo_t) refers to bignum.o(i._Z20big_unsigned_compareRK9big_num_tS1_) for big_unsigned_compare(const big_num_t&, const big_num_t&)
    bignum.o(i._Z16big_modulo_asyncR12big_modulo_t) refers to bignum.o(i._Z21big_unsigned_subtractR9big_num_tRKS_S2_) for big_unsigned_subtract(big_num_t&, const big_num_t&, const big_num_t&)
    bignum.o(i._Z16big_modulo_asyncR12big_modulo_t) refers to bignum.o(i._Z7big_shrR9big_num_tRKS_i) for big_shr(big_num_t&, const big_num_t&, int)
    bignum.o(i._Z16mont_power_asyncRK10big_mont_tR14big_mont_pow_t) refers to bignum.o(i._Z13mont_multiplyRK10big_mont_tR9big_num_tRKS2_S5_) for mont_multiply(const big_mont_t&, big_num_t&, const big_num_t&, const big_num_t&)
    bignum.o(i._Z16mont_power_asyncRK10big_mont_tR14big_mont_pow_t) refers to memcpya.o(.text) for __aeabi_memcpy4
    bignum.o(i._Z16mont_power_asyncRK10big_mont_tR14big_mont_pow_t) refers to bignum.o(i._Z11big_bit_getRK9big_num_ti) for big_bit_get(const big_num_t&, int)
    bignum.o(i._Z21big_modulo_async_initR12big_modulo_tRK9big_num_tS3_) refers to memcpya.o(.text) for __aeabi_memcpy4
    bignum.o(i._Z21big_modulo_async_initR12big_modulo_tRK9big_num_tS3_) refers to bignum.o(i._Z7big_msbRK9big_num_t) for big_msb(const big_num_t&)
    bignum.o(i._Z21big_modulo_async_initR12big_modulo_tRK9big_num_tS3_) refers to bignum.o(i._Z7big_shlR9big_num_tRKS_i) for big_shl(big_num_t&, const big_num_t&, int)
    bignum.o(i._Z21mont_power_async_initRK10big_mont_tR14big_mont_pow_tRK9big_num_tS6_) refers to memcpya.o(.text) for __aeabi_memcpy4
    bignum.o(i._Z21mont_power_async_initRK10big_mont_tR14big_mont_pow_tRK9big_num_tS6_) refers to bignum.o(i._Z7big_msbRK9big_num_t) for big_msb(const big_num_t&)
    bignum.o(i._Z21mont_power_async_initRK10big_mont_tR14big_mont_pow_tRK9big_num_tS6_) refers to bignum.o(i._Z11big_bit_getRK9big_num_ti) for big_bit_get(const big_num_t&, int)
    bignum.o(i._Z7big_addR9big_num_tRKS_S2_) refers to bignum.o(i._Z11big_add_subR9big_num_tRKS_S2_b) for big_add_sub(big_num_t&, const big_num_t&, const big_num_t&, bool)
    bignum.o(i._Z7big_shlR9big_num_tRKS_i) refers to memcpya.o(.text) for __aeabi_memcpy4
    bignum.o(i._Z7big_shlR9big_num_tRKS_i) refers to memseta.o(.text) for __aeabi_memclr4
    bignum.o(i._Z7mont_toRK10big_mont_tR9big_num_tRKS2_) refers to bignum.o(i._Z7big_shlR9big_num_tRKS_i) for big_shl(big_num_t&, const big_num_t&, int)
    bignum.o(i._Z7mont_toRK10big_mont_tR9big_num_tRKS2_) refers to bignum.o(i._Z10big_moduloR9big_num_tRKS_S2_) for big_modulo(big_num_t&, const big_num_t&, const big_num_t&)
    bignum.o(i._Z8big_invmR9big_num_tRKS_S2_) refers to memcpya.o(.text) for __aeabi_memcpy4
    bignum.o(i._Z8big_invmR9big_num_tRKS_S2_) refers to bignum.o(i._Z10big_moduloR9big_num_tRKS_S2_) for big_modulo(big_num_t&, const big_num_t&, const big_num_t&)
    bignum.o(i._Z8big_invmR9big_num_tRKS_S2_) refers to bignum.o(i._Z7big_shrR9big_num_tRKS_i) for big_shr(big_num_t&, const big_num_t&, int)
    bignum.o(i._Z8big_invmR9big_num_tRKS_S2_) refers to bignum.o(i._Z11big_bit_getRK9big_num_ti) for big_bit_get(const big_num_t&, int)
    bignum.o(i._Z8big_invmR9big_num_tRKS_S2_) refers to bignum.o(i._Z11big_add_subR9big_num_tRKS_S2_b) for big_add_sub(big_num_t&, const big_num_t&, const big_num_t&, bool)
    bignum.o(i._Z8big_invmR9big_num_tRKS_S2_) refers to bignum.o(i._Z11big_compareRK9big_num_tS1_) for big_compare(const big_num_t&, const big_num_t&)
    bignum.o(i._Z8big_invmR9big_num_tRKS_S2_) refers to bignum.o(.constdata) for .constdata
    bignum.o(i._Z9big_powerR9big_num_tRKS_S2_) refers to bignum.o(i._Z7big_msbRK9big_num_t) for big_msb(const big_num_t&)
    bignum.o(i._Z9big_powerR9big_num_tRKS_S2_) refers to memcpya.o(.text) for __aeabi_memcpy4
    bignum.o(i._Z9big_powerR9big_num_tRKS_S2_) refers to bignum.o(i._Z12big_multiplyR9big_num_tRKS_S2_) for big_multiply(big_num_t&, const big_num_t&, const big_num_t&)
    bignum.o(i._Z9big_powerR9big_num_tRKS_S2_) refers to bignum.o(i._Z11big_bit_getRK9big_num_ti) for big_bit_get(const big_num_t&, int)
    bignum.o(i._Z9big_powerR9big_num_tRKS_S2_) refers to bignum.o(.constdata) for .constdata
    bignum.o(i._Z9mont_fromRK10big_mont_tR9big_num_tRKS2_) refers to memcpya.o(.text) for __aeabi_memcpy4
    bignum.o(i._Z9mont_fromRK10big_mont_tR9big_num_tRKS2_) refers to bignum.o(i._Z12big_multiplyR9big_num_tRKS_S2_) for big_multiply(big_num_t&, const big_num_t&, const big_num_t&)
    bignum.o(i._Z9mont_fromRK10big_mont_tR9big_num_tRKS2_) refers to bignum.o(i._Z10big_moduloR9big_num_tRKS_S2_) for big_modulo(big_num_t&, const big_num_t&, const big_num_t&)
    bignum.o(i._Z9mont_initR10big_mont_tRK9big_num_t) refers to memcpya.o(.text) for __aeabi_memcpy4
    bignum.o(i._Z9mont_initR10big_mont_tRK9big_num_t) refers to bignum.o(i._Z7big_msbRK9big_num_t) for big_msb(const big_num_t&)
    bignum.o(i._Z9mont_initR10big_mont_tRK9big_num_t) refers to bignum.o(i._Z11big_bit_setR9big_num_ti) for big_bit_set(big_num_t&, int)
    bignum.o(i._Z9mont_initR10big_mont_tRK9big_num_t) refers to bignum.o(i._Z12big_multiplyR9big_num_tRKS_S2_) for big_multiply(big_num_t&, const big_num_t&, const big_num_t&)
    bignum.o(i._Z9mont_initR10big_mont_tRK9big_num_t) refers to bignum.o(i._Z10big_moduloR9big_num_tRKS_S2_) for big_modulo(big_num_t&, const big_num_t&, const big_num_t&)
    bignum.o(i._Z9mont_initR10big_mont_tRK9big_num_t) refers to bignum.o(i._Z8big_invmR9big_num_tRKS_S2_) for big_invm(big_num_t&, const big_num_t&, const big_num_t&)
    bignum.o(i._Z9mont_initR10big_mont_tRK9big_num_t) refers to bignum.o(i._Z12big_subtractR9big_num_tRKS_S2_) for big_subtract(big_num_t&, const big_num_t&, const big_num_t&)
    bignum.o(i._Z9mont_initR10big_mont_tRK9big_num_t) refers to bignum.o(i._Z10big_divideR9big_num_tS0_RKS_S2_) for big_divide(big_num_t&, big_num_t&, const big_num_t&, const big_num_t&)
    bignum.o(i._Z9mont_initR10big_mont_tRK9big_num_t) refers to bignum.o(i._Z7big_shlR9big_num_tRKS_i) for big_shl(big_num_t&, const big_num_t&, int)
    bignum.o(i._Z9mont_initR10big_mont_tRK9big_num_t) refers to bignum.o(.constdata) for .constdata
    bignum.o(.ARM.exidx) refers to bignum.o(i._Z8big_initR9big_num_t) for i._Z8big_initR9big_num_t
    bignum.o(.ARM.exidx) refers to bignum.o(i._Z20big_unsigned_compareRK9big_num_tS1_) for i._Z20big_unsigned_compareRK9big_num_tS1_
    bignum.o(.ARM.exidx) refers to bignum.o(i._Z11big_compareRK9big_num_tS1_) for i._Z11big_compareRK9big_num_tS1_
    bignum.o(.ARM.exidx) refers to bignum.o(i._Z8big_zeroRK9big_num_t) for i._Z8big_zeroRK9big_num_t
    bignum.o(.ARM.exidx) refers to bignum.o(i._Z11big_bit_getRK9big_num_ti) for i._Z11big_bit_getRK9big_num_ti
    bignum.o(.ARM.exidx) refers to bignum.o(i._Z11big_bit_setR9big_num_ti) for i._Z11big_bit_setR9big_num_ti
    bignum.o(.ARM.exidx) refers to bignum.o(i._Z7big_msbRK9big_num_t) for i._Z7big_msbRK9big_num_t
    bignum.o(.ARM.exidx) refers to bignum.o(i._Z7big_lsbRK9big_num_t) for i._Z7big_lsbRK9big_num_t
    bignum.o(.ARM.exidx) refers to bignum.o(i._Z7big_shrR9big_num_tRKS_i) for i._Z7big_shrR9big_num_tRKS_i
    bignum.o(.ARM.exidx) refers to bignum.o(i._Z7big_shlR9big_num_tRKS_i) for i._Z7big_shlR9big_num_tRKS_i
    bignum.o(.ARM.exidx) refers to bignum.o(i._Z16big_unsigned_addR9big_num_tRKS_S2_) for i._Z16big_unsigned_addR9big_num_tRKS_S2_
    bignum.o(.ARM.exidx) refers to bignum.o(i._Z21big_unsigned_subtractR9big_num_tRKS_S2_) for i._Z21big_unsigned_subtractR9big_num_tRKS_S2_
    bignum.o(.ARM.exidx) refers to bignum.o(i._Z7big_addR9big_num_tRKS_S2_) for i._Z7big_addR9big_num_tRKS_S2_
    bignum.o(.ARM.exidx) refers to bignum.o(i._Z12big_subtractR9big_num_tRKS_S2_) for i._Z12big_subtractR9big_num_tRKS_S2_
    bignum.o(.ARM.exidx) refers to bignum.o(i._Z12big_multiplyR9big_num_tRKS_S2_) for i._Z12big_multiplyR9big_num_tRKS_S2_
    bignum.o(.ARM.exidx) refers to bignum.o(i._Z9big_powerR9big_num_tRKS_S2_) for i._Z9big_powerR9big_num_tRKS_S2_
    bignum.o(.ARM.exidx) refers to bignum.o(i._Z10big_divideR9big_num_tS0_RKS_S2_) for i._Z10big_divideR9big_num_tS0_RKS_S2_
    bignum.o(.ARM.exidx) refers to bignum.o(i._Z10big_moduloR9big_num_tRKS_S2_) for i._Z10big_moduloR9big_num_tRKS_S2_
    bignum.o(.ARM.exidx) refers to bignum.o(i._Z21big_modulo_async_initR12big_modulo_tRK9big_num_tS3_) for i._Z21big_modulo_async_initR12big_modulo_tRK9big_num_tS3_
    bignum.o(.ARM.exidx) refers to bignum.o(i._Z16big_modulo_asyncR12big_modulo_t) for i._Z16big_modulo_asyncR12big_modulo_t
    bignum.o(.ARM.exidx) refers to bignum.o(i._Z8big_invmR9big_num_tRKS_S2_) for i._Z8big_invmR9big_num_tRKS_S2_
    bignum.o(.ARM.exidx) refers to bignum.o(i._Z7mont_toRK10big_mont_tR9big_num_tRKS2_) for i._Z7mont_toRK10big_mont_tR9big_num_tRKS2_
    bignum.o(.ARM.exidx) refers to bignum.o(i._Z9mont_initR10big_mont_tRK9big_num_t) for i._Z9mont_initR10big_mont_tRK9big_num_t
    bignum.o(.ARM.exidx) refers to bignum.o(i._Z9mont_fromRK10big_mont_tR9big_num_tRKS2_) for i._Z9mont_fromRK10big_mont_tR9big_num_tRKS2_
    bignum.o(.ARM.exidx) refers to bignum.o(i._Z13mont_multiplyRK10big_mont_tR9big_num_tRKS2_S5_) for i._Z13mont_multiplyRK10big_mont_tR9big_num_tRKS2_S5_
    bignum.o(.ARM.exidx) refers to bignum.o(i._Z10mont_powerRK10big_mont_tR9big_num_tRKS2_S5_) for i._Z10mont_powerRK10big_mont_tR9big_num_tRKS2_S5_
    bignum.o(.ARM.exidx) refers to bignum.o(i._Z21mont_power_async_initRK10big_mont_tR14big_mont_pow_tRK9big_num_tS6_) for i._Z21mont_power_async_initRK10big_mont_tR14big_mont_pow_tRK9big_num_tS6_
    bignum.o(.ARM.exidx) refers to bignum.o(i._Z16mont_power_asyncRK10big_mont_tR14big_mont_pow_t) for i._Z16mont_power_asyncRK10big_mont_tR14big_mont_pow_t
    bignum.o(.ARM.exidx) refers to bignum.o(i._Z11big_add_subR9big_num_tRKS_S2_b) for i._Z11big_add_subR9big_num_tRKS_S2_b
    crc32.o(.ARM.exidx) refers to crc32.o(i._Z10calc_crc32PKhi) for i._Z10calc_crc32PKhi
    diffie.o(i._Z10dh_reversePKhS0_iPh) refers to sha1.o(i._Z9sha1_initP8SHA1_CTX) for sha1_init(SHA1_CTX*)
    diffie.o(i._Z10dh_reversePKhS0_iPh) refers to sha1.o(i._Z11sha1_updateP8SHA1_CTXPKhj) for sha1_update(SHA1_CTX*, const unsigned char*, unsigned)
    diffie.o(i._Z10dh_reversePKhS0_iPh) refers to sha1.o(i._Z10sha1_finalP8SHA1_CTXPh) for sha1_final(SHA1_CTX*, unsigned char*)
    diffie.o(i._Z10dh_reversePKhS0_iPh) refers to aes.o(i._Z18AES128_ECB_encryptPKhS0_Ph) for AES128_ECB_encrypt(const unsigned char*, const unsigned char*, unsigned char*)
    diffie.o(i._Z10dh_reversePKhS0_iPh) refers to memcpya.o(.text) for __aeabi_memcpy
    diffie.o(i._Z10dh_reversePKhS0_iPh) refers to bignum.o(i._Z10mont_powerRK10big_mont_tR9big_num_tRKS2_S5_) for mont_power(const big_mont_t&, big_num_t&, const big_num_t&, const big_num_t&)
    diffie.o(i._Z10dh_reversePKhS0_iPh) refers to bignum.o(i._Z9mont_fromRK10big_mont_tR9big_num_tRKS2_) for mont_from(const big_mont_t&, big_num_t&, const big_num_t&)
    diffie.o(i._Z10dh_reversePKhS0_iPh) refers to aes.o(i._Z18AES128_ECB_decryptPKhS0_Ph) for AES128_ECB_decrypt(const unsigned char*, const unsigned char*, unsigned char*)
    diffie.o(i._Z10dh_reversePKhS0_iPh) refers to diffie.o(.constdata) for .constdata
    diffie.o(i._Z16dh_encode_randomPhiPKh) refers to sha1.o(i._Z9sha1_initP8SHA1_CTX) for sha1_init(SHA1_CTX*)
    diffie.o(i._Z16dh_encode_randomPhiPKh) refers to sha1.o(i._Z11sha1_updateP8SHA1_CTXPKhj) for sha1_update(SHA1_CTX*, const unsigned char*, unsigned)
    diffie.o(i._Z16dh_encode_randomPhiPKh) refers to sha1.o(i._Z10sha1_finalP8SHA1_CTXPh) for sha1_final(SHA1_CTX*, unsigned char*)
    diffie.o(i._Z16dh_encode_randomPhiPKh) refers to aes.o(i._Z18AES128_ECB_encryptPKhS0_Ph) for AES128_ECB_encrypt(const unsigned char*, const unsigned char*, unsigned char*)
    diffie.o(.ARM.exidx) refers to diffie.o(i._Z16dh_encode_randomPhiPKh) for i._Z16dh_encode_randomPhiPKh
    diffie.o(.ARM.exidx) refers to diffie.o(i._Z10dh_reversePKhS0_iPh) for i._Z10dh_reversePKhS0_iPh
    random.o(.ARM.exidx) refers to random.o(i._Z10gen_randomPvi) for i._Z10gen_randomPvi
    sha1.o(i._Z10sha1_finalP8SHA1_CTXPh) refers to sha1.o(i._Z14sha1_transformP8SHA1_CTXPKh) for sha1_transform(SHA1_CTX*, const unsigned char*)
    sha1.o(i._Z10sha1_finalP8SHA1_CTXPh) refers to memseta.o(.text) for __aeabi_memclr4
    sha1.o(i._Z11sha1_updateP8SHA1_CTXPKhj) refers to sha1.o(i._Z14sha1_transformP8SHA1_CTXPKh) for sha1_transform(SHA1_CTX*, const unsigned char*)
    sha1.o(.ARM.exidx) refers to sha1.o(i._Z14sha1_transformP8SHA1_CTXPKh) for i._Z14sha1_transformP8SHA1_CTXPKh
    sha1.o(.ARM.exidx) refers to sha1.o(i._Z9sha1_initP8SHA1_CTX) for i._Z9sha1_initP8SHA1_CTX
    sha1.o(.ARM.exidx) refers to sha1.o(i._Z11sha1_updateP8SHA1_CTXPKhj) for i._Z11sha1_updateP8SHA1_CTXPKhj
    sha1.o(.ARM.exidx) refers to sha1.o(i._Z10sha1_finalP8SHA1_CTXPh) for i._Z10sha1_finalP8SHA1_CTXPh
    md5.o(i._Z10MD5_UpdateP7MD5_CTXPKvm) refers to memcpya.o(.text) for __aeabi_memcpy
    md5.o(i._Z10MD5_UpdateP7MD5_CTXPKvm) refers to md5.o(i._Z4bodyP7MD5_CTXPKvm) for body(MD5_CTX*, const void*, unsigned long)
    md5.o(i._Z9MD5_FinalPhP7MD5_CTX) refers to memseta.o(.text) for __aeabi_memclr
    md5.o(i._Z9MD5_FinalPhP7MD5_CTX) refers to md5.o(i._Z4bodyP7MD5_CTXPKvm) for body(MD5_CTX*, const void*, unsigned long)
    md5.o(.ARM.exidx) refers to md5.o(i._Z4bodyP7MD5_CTXPKvm) for i._Z4bodyP7MD5_CTXPKvm
    md5.o(.ARM.exidx) refers to md5.o(i._Z8MD5_InitP7MD5_CTX) for i._Z8MD5_InitP7MD5_CTX
    md5.o(.ARM.exidx) refers to md5.o(i._Z10MD5_UpdateP7MD5_CTXPKvm) for i._Z10MD5_UpdateP7MD5_CTXPKvm
    md5.o(.ARM.exidx) refers to md5.o(i._Z9MD5_FinalPhP7MD5_CTX) for i._Z9MD5_FinalPhP7MD5_CTX
    hmac.o(i._Z11create_hmacPhPKhiS1_i) refers to memseta.o(.text) for __aeabi_memset
    hmac.o(i._Z11create_hmacPhPKhiS1_i) refers to md5.o(i._Z8MD5_InitP7MD5_CTX) for MD5_Init(MD5_CTX*)
    hmac.o(i._Z11create_hmacPhPKhiS1_i) refers to md5.o(i._Z10MD5_UpdateP7MD5_CTXPKvm) for MD5_Update(MD5_CTX*, const void*, unsigned long)
    hmac.o(i._Z11create_hmacPhPKhiS1_i) refers to md5.o(i._Z9MD5_FinalPhP7MD5_CTX) for MD5_Final(unsigned char*, MD5_CTX*)
    hmac.o(i._Z9test_hmacPKhS0_iS0_i) refers to hmac.o(i._Z11create_hmacPhPKhiS1_i) for create_hmac(unsigned char*, const unsigned char*, int, const unsigned char*, int)
    hmac.o(i._Z9test_hmacPKhS0_iS0_i) refers to memcmp.o(.text) for memcmp
    hmac.o(.ARM.exidx) refers to hmac.o(i._Z11create_hmacPhPKhiS1_i) for i._Z11create_hmacPhPKhiS1_i
    hmac.o(.ARM.exidx) refers to hmac.o(i._Z9test_hmacPKhS0_iS0_i) for i._Z9test_hmacPKhS0_iS0_i
    packet.o(i._Z18aes_message_decodePKhS0_iPhRi) refers to aes.o(i._Z14aes_cfb_decodePKvS0_PKhPhiPv) for aes_cfb_decode(const void*, const void*, const unsigned char*, unsigned char*, int, void*)
    packet.o(i._Z18aes_message_decodePKhS0_iPhRi) refers to hmac.o(i._Z9test_hmacPKhS0_iS0_i) for test_hmac(const unsigned char*, const unsigned char*, int, const unsigned char*, int)
    packet.o(i._Z18aes_message_encodePKhS0_iPhRi) refers to aes.o(i._Z13aes_fix_blockPhRi) for aes_fix_block(unsigned char*, int&)
    packet.o(i._Z18aes_message_encodePKhS0_iPhRi) refers to hmac.o(i._Z11create_hmacPhPKhiS1_i) for create_hmac(unsigned char*, const unsigned char*, int, const unsigned char*, int)
    packet.o(i._Z18aes_message_encodePKhS0_iPhRi) refers to aes.o(i._Z14aes_cfb_encodePKvPvPKhPhi) for aes_cfb_encode(const void*, void*, const unsigned char*, unsigned char*, int)
    packet.o(.ARM.exidx) refers to packet.o(i._Z18aes_message_encodePKhS0_iPhRi) for i._Z18aes_message_encodePKhS0_iPhRi
    packet.o(.ARM.exidx) refers to packet.o(i._Z18aes_message_decodePKhS0_iPhRi) for i._Z18aes_message_decodePKhS0_iPhRi
    micro_esb.o(i.RADIO_IRQHandler) refers to cubes.o(i._Z18uesb_event_handlerj) for uesb_event_handler(unsigned)
    micro_esb.o(i.RADIO_IRQHandler) refers to micro_esb.o(i._Z10uesb_startv) for uesb_start()
    micro_esb.o(i.RADIO_IRQHandler) refers to micro_esb.o(.data) for .data
    micro_esb.o(i.RADIO_IRQHandler) refers to micro_esb.o(.bss) for .bss
    micro_esb.o(i._Z10uesb_startv) refers to micro_esb.o(i._Z19configure_addressesPK19uesb_address_desc_t) for configure_addresses(const uesb_address_desc_t*)
    micro_esb.o(i._Z10uesb_startv) refers to micro_esb.o(.data) for .data
    micro_esb.o(i._Z10uesb_startv) refers to micro_esb.o(.bss) for .bss
    micro_esb.o(i._Z12uesb_disablev) refers to micro_esb.o(.data) for .data
    micro_esb.o(i._Z19uesb_set_rx_addressPK19uesb_address_desc_t) refers to micro_esb.o(.bss) for .bss
    micro_esb.o(i._Z20uesb_read_rx_payloadP14uesb_payload_t) refers to memcpya.o(.text) for __aeabi_memcpy4
    micro_esb.o(i._Z20uesb_read_rx_payloadP14uesb_payload_t) refers to micro_esb.o(i._Z10uesb_startv) for uesb_start()
    micro_esb.o(i._Z20uesb_read_rx_payloadP14uesb_payload_t) refers to micro_esb.o(.data) for .data
    micro_esb.o(i._Z20uesb_read_rx_payloadP14uesb_payload_t) refers to micro_esb.o(.bss) for .bss
    micro_esb.o(i._Z21uesb_write_tx_payloadPK19uesb_address_desc_tPKvh) refers to micro_esb.o(i._Z23uesb_prepare_tx_payloadPK19uesb_address_desc_tPKvh) for uesb_prepare_tx_payload(const uesb_address_desc_t*, const void*, unsigned char)
    micro_esb.o(i._Z21uesb_write_tx_payloadPK19uesb_address_desc_tPKvh) refers to micro_esb.o(i._Z10uesb_startv) for uesb_start()
    micro_esb.o(i._Z23uesb_prepare_tx_payloadPK19uesb_address_desc_tPKvh) refers to memcpya.o(.text) for __aeabi_memcpy
    micro_esb.o(i._Z23uesb_prepare_tx_payloadPK19uesb_address_desc_tPKvh) refers to micro_esb.o(i._Z9uesb_stopv) for uesb_stop()
    micro_esb.o(i._Z23uesb_prepare_tx_payloadPK19uesb_address_desc_tPKvh) refers to micro_esb.o(.data) for .data
    micro_esb.o(i._Z23uesb_prepare_tx_payloadPK19uesb_address_desc_tPKvh) refers to micro_esb.o(.bss) for .bss
    micro_esb.o(i._Z9uesb_initPK13uesb_config_t) refers to memseta.o(.text) for __aeabi_memclr4
    micro_esb.o(i._Z9uesb_initPK13uesb_config_t) refers to micro_esb.o(.data) for .data
    micro_esb.o(i._Z9uesb_initPK13uesb_config_t) refers to micro_esb.o(.bss) for .bss
    micro_esb.o(i._Z9uesb_stopv) refers to micro_esb.o(.data) for .data
    micro_esb.o(.ARM.exidx) refers to micro_esb.o(i._Z9uesb_initPK13uesb_config_t) for i._Z9uesb_initPK13uesb_config_t
    micro_esb.o(.ARM.exidx) refers to micro_esb.o(i._Z9uesb_stopv) for i._Z9uesb_stopv
    micro_esb.o(.ARM.exidx) refers to micro_esb.o(i._Z12uesb_disablev) for i._Z12uesb_disablev
    micro_esb.o(.ARM.exidx) refers to micro_esb.o(i._Z23uesb_prepare_tx_payloadPK19uesb_address_desc_tPKvh) for i._Z23uesb_prepare_tx_payloadPK19uesb_address_desc_tPKvh
    micro_esb.o(.ARM.exidx) refers to micro_esb.o(i._Z10uesb_startv) for i._Z10uesb_startv
    micro_esb.o(.ARM.exidx) refers to micro_esb.o(i._Z21uesb_write_tx_payloadPK19uesb_address_desc_tPKvh) for i._Z21uesb_write_tx_payloadPK19uesb_address_desc_tPKvh
    micro_esb.o(.ARM.exidx) refers to micro_esb.o(i._Z20uesb_read_rx_payloadP14uesb_payload_t) for i._Z20uesb_read_rx_payloadP14uesb_payload_t
    micro_esb.o(.ARM.exidx) refers to micro_esb.o(i._Z19uesb_set_rx_addressPK19uesb_address_desc_t) for i._Z19uesb_set_rx_addressPK19uesb_address_desc_t
    micro_esb.o(.ARM.exidx) refers to micro_esb.o(i.RADIO_IRQHandler) for i.RADIO_IRQHandler
    micro_esb.o(.ARM.exidx) refers to micro_esb.o(i._Z19configure_addressesPK19uesb_address_desc_t) for i._Z19configure_addressesPK19uesb_address_desc_t
    cubes.o(i.TIMER0_IRQHandler) refers to micro_esb.o(i._Z9uesb_stopv) for uesb_stop()
    cubes.o(i.TIMER0_IRQHandler) refers to memseta.o(.text) for __aeabi_memclr
    cubes.o(i.TIMER0_IRQHandler) refers to cubes.o(i._Z19ota_send_next_blockv) for ota_send_next_block()
    cubes.o(i.TIMER0_IRQHandler) refers to cubes.o(i._Z10EnterState10RadioState) for EnterState(RadioState)
    cubes.o(i.TIMER0_IRQHandler) refers to micro_esb.o(i._Z23uesb_prepare_tx_payloadPK19uesb_address_desc_tPKvh) for uesb_prepare_tx_payload(const uesb_address_desc_t*, const void*, unsigned char)
    cubes.o(i.TIMER0_IRQHandler) refers to cubes.o(i._Z25SendObjectConnectionStatei) for SendObjectConnectionState(int)
    cubes.o(i.TIMER0_IRQHandler) refers to micro_esb.o(i._Z10uesb_startv) for uesb_start()
    cubes.o(i.TIMER0_IRQHandler) refers to micro_esb.o(.data) for m_uesb_mainstate
    cubes.o(i.TIMER0_IRQHandler) refers to cubes.o(.data) for .data
    cubes.o(i.TIMER0_IRQHandler) refers to cubes.o(.bss) for .bss
    cubes.o(i.TIMER0_IRQHandler) refers to lights.o(.bss) for lightController
    cubes.o(i.TIMER0_IRQHandler) refers to cubes.o(.constdata) for .constdata
    cubes.o(i._Z10EnterState10RadioState) refers to micro_esb.o(i._Z19uesb_set_rx_addressPK19uesb_address_desc_t) for uesb_set_rx_address(const uesb_address_desc_t*)
    cubes.o(i._Z10EnterState10RadioState) refers to cubes.o(.data) for .data
    cubes.o(i._Z10EnterState10RadioState) refers to cubes.o(.constdata) for .constdata
    cubes.o(i._Z10EnterState10RadioState) refers to cubes.o(.bss) for .bss
    cubes.o(i._Z18uesb_event_handlerj) refers to micro_esb.o(i._Z20uesb_read_rx_payloadP14uesb_payload_t) for uesb_read_rx_payload(uesb_payload_t*)
    cubes.o(i._Z18uesb_event_handlerj) refers to cubes.o(i._Z10EnterState10RadioState) for EnterState(RadioState)
    cubes.o(i._Z18uesb_event_handlerj) refers to memcpya.o(.text) for __aeabi_memcpy
    cubes.o(i._Z18uesb_event_handlerj) refers to messages.o(i._ZN4Anki5Cozmo3HAL16RadioSendMessageEPKvth) for Anki::Cozmo::HAL::RadioSendMessage(const void*, unsigned short, unsigned char)
    cubes.o(i._Z18uesb_event_handlerj) refers to micro_esb.o(i._Z21uesb_write_tx_payloadPK19uesb_address_desc_tPKvh) for uesb_write_tx_payload(const uesb_address_desc_t*, const void*, unsigned char)
    cubes.o(i._Z18uesb_event_handlerj) refers to cubes.o(i._Z19ota_send_next_blockv) for ota_send_next_block()
    cubes.o(i._Z18uesb_event_handlerj) refers to cubes.o(i._Z25SendObjectConnectionStatei) for SendObjectConnectionState(int)
    cubes.o(i._Z18uesb_event_handlerj) refers to cubes.o(.data) for .data
    cubes.o(i._Z18uesb_event_handlerj) refers to cubes.o(.bss) for .bss
    cubes.o(i._Z18uesb_event_handlerj) refers to cubes.o(.constdata) for .constdata
    cubes.o(i._Z19ota_send_next_blockv) refers to memcpya.o(.text) for __aeabi_memcpy
    cubes.o(i._Z19ota_send_next_blockv) refers to micro_esb.o(i._Z21uesb_write_tx_payloadPK19uesb_address_desc_tPKvh) for uesb_write_tx_payload(const uesb_address_desc_t*, const void*, unsigned char)
    cubes.o(i._Z19ota_send_next_blockv) refers to cubes.o(.data) for .data
    cubes.o(i._Z25SendObjectConnectionStatei) refers to messages.o(i._ZN4Anki5Cozmo3HAL16RadioSendMessageEPKvth) for Anki::Cozmo::HAL::RadioSendMessage(const void*, unsigned short, unsigned char)
    cubes.o(i._Z25SendObjectConnectionStatei) refers to cubes.o(.bss) for .bss
    cubes.o(i._ZN5Radio10assignPropEjj) refers to cubes.o(i._Z25SendObjectConnectionStatei) for SendObjectConnectionState(int)
    cubes.o(i._ZN5Radio10assignPropEjj) refers to cubes.o(.bss) for .bss
    cubes.o(i._ZN5Radio13setLightGammaEh) refers to cubes.o(.data) for .data
    cubes.o(i._ZN5Radio13setPropLightsEjPKN4Anki5Cozmo10LightStateE) refers to lights.o(i._ZN6Lights6updateER11LightValuesPKN4Anki5Cozmo10LightStateE) for Lights::update(LightValues&, const Anki::Cozmo::LightState*)
    cubes.o(i._ZN5Radio13setPropLightsEjPKN4Anki5Cozmo10LightStateE) refers to lights.o(.bss) for lightController
    cubes.o(i._ZN5Radio4initEv) refers to cubes.o(.data) for .data
    cubes.o(i._ZN5Radio8shutdownEv) refers to micro_esb.o(i._Z12uesb_disablev) for uesb_disable()
    cubes.o(i._ZN5Radio9advertiseEv) refers to memseta.o(.text) for __aeabi_memclr4
    cubes.o(i._ZN5Radio9advertiseEv) refers to lights.o(i._ZN6Lights6updateER11LightValuesPKN4Anki5Cozmo10LightStateE) for Lights::update(LightValues&, const Anki::Cozmo::LightState*)
    cubes.o(i._ZN5Radio9advertiseEv) refers to micro_esb.o(i._Z9uesb_initPK13uesb_config_t) for uesb_init(const uesb_config_t*)
    cubes.o(i._ZN5Radio9advertiseEv) refers to cubes.o(.constdata) for .constdata
    cubes.o(i._ZN5Radio9advertiseEv) refers to cubes.o(.bss) for .bss
    cubes.o(i._ZN5Radio9advertiseEv) refers to cubes.o(.data) for .data
    cubes.o(i._ZN5Radio9advertiseEv) refers to lights.o(.bss) for lightController
    cubes.o(.ARM.exidx) refers to cubes.o(i._Z10EnterState10RadioState) for i._Z10EnterState10RadioState
    cubes.o(.ARM.exidx) refers to cubes.o(i._Z18uesb_event_handlerj) for i._Z18uesb_event_handlerj
    cubes.o(.ARM.exidx) refers to cubes.o(i.TIMER0_IRQHandler) for i.TIMER0_IRQHandler
    cubes.o(.ARM.exidx) refers to cubes.o(i._ZN5Radio4initEv) for i._ZN5Radio4initEv
    cubes.o(.ARM.exidx) refers to cubes.o(i._ZN5Radio13setPropLightsEjPKN4Anki5Cozmo10LightStateE) for i._ZN5Radio13setPropLightsEjPKN4Anki5Cozmo10LightStateE
    cubes.o(.ARM.exidx) refers to cubes.o(i._ZN5Radio9advertiseEv) for i._ZN5Radio9advertiseEv
    cubes.o(.ARM.exidx) refers to cubes.o(i._ZN5Radio13setLightGammaEh) for i._ZN5Radio13setLightGammaEh
    cubes.o(.ARM.exidx) refers to cubes.o(i._ZN5Radio8shutdownEv) for i._ZN5Radio8shutdownEv
    cubes.o(.ARM.exidx) refers to cubes.o(i._ZN5Radio10assignPropEjj) for i._ZN5Radio10assignPropEjj
    cubes.o(.ARM.exidx) refers to cubes.o(i._Z25SendObjectConnectionStatei) for i._Z25SendObjectConnectionStatei
    cubes.o(.ARM.exidx) refers to cubes.o(i._Z19ota_send_next_blockv) for i._Z19ota_send_next_blockv
    cubes.o(.data) refers to firmware.o(.text) for __CUBE_XS
    cxa_guard_acquire.o(.ARM.exidx) refers to cxa_guard_acquire.o(i.__cxa_guard_acquire) for i.__cxa_guard_acquire
    cxa_guard_release.o(.ARM.exidx) refers to cxa_guard_release.o(i.__cxa_guard_release) for i.__cxa_guard_release
    entry.o(.ARM.Collect$$$$00000000) refers (Special) to entry10a.o(.ARM.Collect$$$$0000000D) for __rt_final_cpp
    entry.o(.ARM.Collect$$$$00000000) refers (Special) to entry11a.o(.ARM.Collect$$$$0000000F) for __rt_final_exit
    entry.o(.ARM.Collect$$$$00000000) refers (Special) to entry7b.o(.ARM.Collect$$$$00000008) for _main_clock
    entry.o(.ARM.Collect$$$$00000000) refers (Special) to entry8b.o(.ARM.Collect$$$$0000000A) for _main_cpp_init
    entry.o(.ARM.Collect$$$$00000000) refers (Special) to entry9a.o(.ARM.Collect$$$$0000000B) for _main_init
    entry.o(.ARM.Collect$$$$00000000) refers (Special) to entry5.o(.ARM.Collect$$$$00000004) for _main_scatterload
    entry.o(.ARM.Collect$$$$00000000) refers (Special) to entry2.o(.ARM.Collect$$$$00000001) for _main_stk
    idiv.o(.text) refers to uidiv.o(.text) for __aeabi_uidivmod
    ldiv.o(.text) refers to uldiv.o(.text) for __aeabi_uldivmod
    dadd.o(.text) refers (Special) to iusefp.o(.text) for __I$use$fp
    dadd.o(.text) refers to llshl.o(.text) for __aeabi_llsl
    dadd.o(.text) refers to llsshr.o(.text) for __aeabi_lasr
    dadd.o(.text) refers to depilogue.o(.text) for _double_epilogue
    ddiv.o(.text) refers (Special) to iusefp.o(.text) for __I$use$fp
    ddiv.o(.text) refers to depilogue.o(.text) for _double_round
    dscalb.o(.text) refers (Special) to iusefp.o(.text) for __I$use$fp
    dfltui.o(.text) refers (Special) to iusefp.o(.text) for __I$use$fp
    dfltui.o(.text) refers to depilogue.o(.text) for _double_epilogue
    dfltl.o(.text) refers (Special) to iusefp.o(.text) for __I$use$fp
    dfltl.o(.text) refers to depilogue.o(.text) for _double_epilogue
    dfixi.o(.text) refers (Special) to iusefp.o(.text) for __I$use$fp
    dfixi.o(.text) refers to llushr.o(.text) for __aeabi_llsr
    dfixl.o(.text) refers (Special) to iusefp.o(.text) for __I$use$fp
    dfixl.o(.text) refers to llushr.o(.text) for __aeabi_llsr
    dfixl.o(.text) refers to llshl.o(.text) for __aeabi_llsl
    entry2.o(.ARM.Collect$$$$00000001) refers to entry2.o(.ARM.Collect$$$$00002712) for __lit__00000000
    entry2.o(.ARM.Collect$$$$00002712) refers to startup_nrf51.o(STACK) for __initial_sp
    entry2.o(__vectab_stack_and_reset_area) refers to startup_nrf51.o(STACK) for __initial_sp
    entry2.o(__vectab_stack_and_reset_area) refers to entry.o(.ARM.Collect$$$$00000000) for __main
    entry5.o(.ARM.Collect$$$$00000004) refers to init.o(.text) for __scatterload
    entry9a.o(.ARM.Collect$$$$0000000B) refers to main.o(i.main) for main
    entry9b.o(.ARM.Collect$$$$0000000C) refers to main.o(i.main) for main
    uldiv.o(.text) refers to llushr.o(.text) for __aeabi_llsr
    uldiv.o(.text) refers to llshl.o(.text) for __aeabi_llsl
    depilogue.o(.text) refers to depilogue.o(i.__ARM_clz) for __ARM_clz
    depilogue.o(.text) refers to llshl.o(.text) for __aeabi_llsl
    depilogue.o(.text) refers to llushr.o(.text) for __aeabi_llsr
    init.o(.text) refers to entry5.o(.ARM.Collect$$$$00000004) for __main_after_scatterload
    battery.o(.ARM.exidx) refers to battery.o(i.__ARM_common_ll_mulss) for i.__ARM_common_ll_mulss


==============================================================================

Removing Unused input sections from the image.

    Removing battery.o(.rev16_text), (4 bytes).
    Removing battery.o(.revsh_text), (4 bytes).
    Removing battery.o(i._ZN7Battery7powerOnEv), (24 bytes).
    Removing battery.o(i._ZN7Battery8getLevelEv), (36 bytes).
    Removing battery.o(i._ZN7Battery8powerOffEv), (36 bytes).
    Removing battery.o(.ARM.exidx), (8 bytes).
    Removing battery.o(.ARM.exidx), (8 bytes).
    Removing battery.o(.ARM.exidx), (8 bytes).
    Removing battery.o(.ARM.exidx), (8 bytes).
    Removing battery.o(.ARM.exidx), (8 bytes).
    Removing battery.o(.ARM.exidx), (8 bytes).
    Removing battery.o(.ARM.exidx), (8 bytes).
    Removing battery.o(.ARM.exidx), (8 bytes).
    Removing battery.o(.ARM.exidx), (8 bytes).
    Removing battery.o(.ARM.exidx), (8 bytes).
    Removing head.o(.rev16_text), (4 bytes).
    Removing head.o(.revsh_text), (4 bytes).
    Removing head.o(i._ZN4Head17leaveLowPowerModeEv), (2 bytes).
    Removing head.o(.ARM.exidx), (8 bytes).
    Removing head.o(.ARM.exidx), (8 bytes).
    Removing head.o(.ARM.exidx), (8 bytes).
    Removing head.o(.ARM.exidx), (8 bytes).
    Removing head.o(.ARM.exidx), (8 bytes).
    Removing head.o(.ARM.exidx), (8 bytes).
    Removing main.o(.rev16_text), (4 bytes).
    Removing main.o(.revsh_text), (4 bytes).
    Removing main.o(.ARM.exidx), (8 bytes).
    Removing main.o(.ARM.exidx), (8 bytes).
    Removing motors.o(.rev16_text), (4 bytes).
    Removing motors.o(.revsh_text), (4 bytes).
    Removing motors.o(i._ZN6Motors12printEncoderEh), (2 bytes).
    Removing motors.o(i._ZN6Motors19debugWheelsGetTicksEh), (16 bytes).
    Removing motors.o(i._ZN6Motors8setPowerEhs), (60 bytes).
    Removing motors.o(i._ZN6Motors8teardownEv), (140 bytes).
    Removing motors.o(.ARM.exidx), (8 bytes).
    Removing motors.o(.ARM.exidx), (8 bytes).
    Removing motors.o(.ARM.exidx), (8 bytes).
    Removing motors.o(.ARM.exidx), (8 bytes).
    Removing motors.o(.ARM.exidx), (8 bytes).
    Removing motors.o(.ARM.exidx), (8 bytes).
    Removing motors.o(.ARM.exidx), (8 bytes).
    Removing motors.o(.ARM.exidx), (8 bytes).
    Removing motors.o(.ARM.exidx), (8 bytes).
    Removing motors.o(.ARM.exidx), (8 bytes).
    Removing motors.o(.ARM.exidx), (8 bytes).
    Removing timer.o(.rev16_text), (4 bytes).
    Removing timer.o(.revsh_text), (4 bytes).
    Removing timer.o(.ARM.exidx), (8 bytes).
    Removing timer.o(.ARM.exidx), (8 bytes).
    Removing logging.o(.ARM.exidx), (8 bytes).
    Removing backpack.o(.rev16_text), (4 bytes).
    Removing backpack.o(.revsh_text), (4 bytes).
    Removing backpack.o(i._ZN8Backpack5blinkEv), (136 bytes).
    Removing backpack.o(.ARM.exidx), (8 bytes).
    Removing backpack.o(.ARM.exidx), (8 bytes).
    Removing backpack.o(.ARM.exidx), (8 bytes).
    Removing backpack.o(.ARM.exidx), (8 bytes).
    Removing backpack.o(.ARM.exidx), (8 bytes).
    Removing backpack.o(.ARM.exidx), (8 bytes).
    Removing lights.o(.rev16_text), (4 bytes).
    Removing lights.o(.revsh_text), (4 bytes).
    Removing lights.o(.ARM.exidx), (8 bytes).
    Removing lights.o(.ARM.exidx), (8 bytes).
    Removing lights.o(.ARM.exidx), (8 bytes).
    Removing storage.o(.rev16_text), (4 bytes).
    Removing storage.o(.revsh_text), (4 bytes).
    Removing storage.o(.ARM.exidx), (8 bytes).
    Removing storage.o(.ARM.exidx), (8 bytes).
    Removing storage.o(.ARM.exidx), (8 bytes).
    Removing storage.o(.ARM.exidx), (8 bytes).
    Removing storage.o(.ARM.exidx), (8 bytes).
    Removing storage.o(.ARM.exidx), (8 bytes).
    Removing storage.o(.ARM.exidx), (8 bytes).
    Removing storage.o(.ARM.exidx), (8 bytes).
    Removing temp.o(.rev16_text), (4 bytes).
    Removing temp.o(.revsh_text), (4 bytes).
    Removing temp.o(.ARM.exidx), (8 bytes).
    Removing temp.o(.ARM.exidx), (8 bytes).
    Removing temp.o(.ARM.exidx), (8 bytes).
    Removing watchdog.o(.rev16_text), (4 bytes).
    Removing watchdog.o(.revsh_text), (4 bytes).
    Removing watchdog.o(.ARM.exidx), (8 bytes).
    Removing watchdog.o(.ARM.exidx), (8 bytes).
    Removing tasks.o(.rev16_text), (4 bytes).
    Removing tasks.o(.revsh_text), (4 bytes).
    Removing tasks.o(i._ZN5Tasks7aes_keyEv), (10 bytes).
    Removing tasks.o(.ARM.exidx), (8 bytes).
    Removing tasks.o(.ARM.exidx), (8 bytes).
    Removing tasks.o(.ARM.exidx), (8 bytes).
    Removing tasks.o(.ARM.exidx), (8 bytes).
    Removing crashlogger.o(.rev16_text), (4 bytes).
    Removing crashlogger.o(.revsh_text), (4 bytes).
    Removing crashlogger.o(.ARM.exidx), (8 bytes).
    Removing startup_nrf51.o(HEAP), (2048 bytes).
    Removing system_nrf51.o(.rev16_text), (4 bytes).
    Removing system_nrf51.o(.revsh_text), (4 bytes).
    Removing system_nrf51.o(i.SystemCoreClockUpdate), (16 bytes).
    Removing bluetooth.o(.rev16_text), (4 bytes).
    Removing bluetooth.o(.revsh_text), (4 bytes).
    Removing bluetooth.o(i.app_error_handler), (28 bytes).
    Removing bluetooth.o(.ARM.exidx), (8 bytes).
    Removing bluetooth.o(.ARM.exidx), (8 bytes).
    Removing bluetooth.o(.ARM.exidx), (8 bytes).
    Removing bluetooth.o(.ARM.exidx), (8 bytes).
    Removing bluetooth.o(.ARM.exidx), (8 bytes).
    Removing bluetooth.o(.ARM.exidx), (8 bytes).
    Removing bluetooth.o(.ARM.exidx), (8 bytes).
    Removing bluetooth.o(.ARM.exidx), (8 bytes).
    Removing bluetooth.o(.ARM.exidx), (8 bytes).
    Removing bluetooth.o(.ARM.exidx), (8 bytes).
    Removing bluetooth.o(.ARM.exidx), (8 bytes).
    Removing bluetooth.o(.ARM.exidx), (8 bytes).
    Removing bluetooth.o(.ARM.exidx), (8 bytes).
    Removing bluetooth.o(.ARM.exidx), (8 bytes).
    Removing bluetooth.o(.ARM.exidx), (8 bytes).
    Removing bluetooth.o(.ARM.exidx), (8 bytes).
    Removing bluetooth.o(.ARM.exidx), (8 bytes).
    Removing bluetooth.o(.ARM.exidx), (8 bytes).
    Removing settings.o(.rev16_text), (4 bytes).
    Removing settings.o(.revsh_text), (4 bytes).
    Removing conn_params.o(.rev16_text), (4 bytes).
    Removing conn_params.o(.revsh_text), (4 bytes).
    Removing conn_params.o(i.ble_conn_params_change_conn_params), (100 bytes).
    Removing conn_params.o(i.ble_conn_params_stop), (12 bytes).
    Removing messages.o(.rev16_text), (4 bytes).
    Removing messages.o(.revsh_text), (4 bytes).
    Removing messages.o(.ARM.exidx), (8 bytes).
    Removing messages.o(.ARM.exidx), (8 bytes).
    Removing messages.o(.ARM.exidx), (8 bytes).
    Removing messages.o(.ARM.exidx), (8 bytes).
    Removing clad.o(i._ZNK4Anki5Cozmo10ImageChunk4SizeEv), (6 bytes).
    Removing clad.o(i._ZNK4Anki5Cozmo10ImageChunk7IsValidEv), (18 bytes).
    Removing clad.o(i._ZNK4Anki5Cozmo12AnimKeyFrame9FaceImage4SizeEv), (6 bytes).
    Removing clad.o(i._ZNK4Anki5Cozmo12AnimKeyFrame9FaceImage7IsValidEv), (18 bytes).
    Removing clad.o(i._ZNK4Anki5Cozmo13BlockMessages16LightCubeMessage4SizeEv), (56 bytes).
    Removing clad.o(i._ZNK4Anki5Cozmo13BlockMessages16LightCubeMessage7IsValidEv), (12 bytes).
    Removing clad.o(i._ZNK4Anki5Cozmo14RobotInterface10PrintTrace7IsValidEv), (14 bytes).
    Removing clad.o(i._ZNK4Anki5Cozmo14RobotInterface11CrashReport4SizeEv), (8 bytes).
    Removing clad.o(i._ZNK4Anki5Cozmo14RobotInterface13EngineToRobot4SizeEv), (880 bytes).
    Removing clad.o(i._ZNK4Anki5Cozmo14RobotInterface13EngineToRobot7IsValidEv), (782 bytes).
    Removing clad.o(i._ZNK4Anki5Cozmo14RobotInterface13RobotToEngine4SizeEv), (204 bytes).
    Removing clad.o(i._ZNK4Anki5Cozmo14RobotInterface13RobotToEngine7IsValidEv), (138 bytes).
    Removing clad.o(i._ZNK4Anki5Cozmo14RobotInterface15FirmwareVersion4SizeEv), (6 bytes).
    Removing clad.o(i._ZNK4Anki5Cozmo14RobotInterface15FirmwareVersion7IsValidEv), (18 bytes).
    Removing clad.o(i._ZNK4Anki5Cozmo14RobotInterface15TimeProfileStat4SizeEv), (6 bytes).
    Removing clad.o(i._ZNK4Anki5Cozmo14RobotInterface15TimeProfileStat7IsValidEv), (4 bytes).
    Removing clad.o(i._ZNK4Anki5Cozmo14RobotInterface18NVReadResultToBody4SizeEv), (6 bytes).
    Removing clad.o(i._ZNK4Anki5Cozmo14RobotInterface18NVReadResultToBody7IsValidEv), (18 bytes).
    Removing clad.o(i._ZNK4Anki5Cozmo14RobotInterface20NVReadResultToEngine4SizeEv), (6 bytes).
    Removing clad.o(i._ZNK4Anki5Cozmo14RobotInterface20NVReadResultToEngine7IsValidEv), (18 bytes).
    Removing clad.o(i._ZNK4Anki5Cozmo14RobotInterface8DataDump4SizeEv), (6 bytes).
    Removing clad.o(i._ZNK4Anki5Cozmo14RobotInterface9PrintText4SizeEv), (6 bytes).
    Removing clad.o(i._ZNK4Anki5Cozmo14RobotInterface9PrintText7IsValidEv), (4 bytes).
    Removing clad.o(i._ZNK4Anki5Cozmo16AdvertisementMsg4SizeEv), (6 bytes).
    Removing clad.o(i._ZNK4Anki5Cozmo16AdvertisementMsg7IsValidEv), (4 bytes).
    Removing clad.o(i._ZNK4Anki5Cozmo16WriteBodyStorage4SizeEv), (6 bytes).
    Removing clad.o(i._ZNK4Anki5Cozmo16WriteBodyStorage7IsValidEv), (14 bytes).
    Removing clad.o(i._ZNK4Anki5Cozmo19BodyStorageContents7IsValidEv), (14 bytes).
    Removing clad.o(i._ZNK4Anki5Cozmo28AdvertisementRegistrationMsg4SizeEv), (6 bytes).
    Removing clad.o(i._ZNK4Anki5Cozmo28AdvertisementRegistrationMsg7IsValidEv), (4 bytes).
    Removing clad.o(i._ZNK4Anki5Cozmo9CubeSlots4SizeEv), (8 bytes).
    Removing clad.o(i._ZNK4Anki5Cozmo9CubeSlots7IsValidEv), (14 bytes).
    Removing clad.o(i._ZNK4Anki5Cozmo9NVStorage13NVStorageBlob4SizeEv), (6 bytes).
    Removing clad.o(i._ZNK4Anki5Cozmo9NVStorage13NVStorageBlob7IsValidEv), (18 bytes).
    Removing clad.o(i._ZNK4Anki5Cozmo9NVStorage14NVStorageWrite4SizeEv), (6 bytes).
    Removing clad.o(i._ZNK4Anki5Cozmo9NVStorage14NVStorageWrite7IsValidEv), (18 bytes).
    Removing clad.o(i._ZNK4Anki5Cozmo9NVStorage9NVWipeAll4SizeEv), (6 bytes).
    Removing clad.o(i._ZNK4Anki5Cozmo9NVStorage9NVWipeAll7IsValidEv), (4 bytes).
    Removing clad.o(.ARM.exidx), (8 bytes).
    Removing clad.o(.ARM.exidx), (8 bytes).
    Removing clad.o(.ARM.exidx), (8 bytes).
    Removing clad.o(.ARM.exidx), (8 bytes).
    Removing clad.o(.ARM.exidx), (8 bytes).
    Removing clad.o(.ARM.exidx), (8 bytes).
    Removing clad.o(.ARM.exidx), (8 bytes).
    Removing clad.o(.ARM.exidx), (8 bytes).
    Removing clad.o(.ARM.exidx), (8 bytes).
    Removing clad.o(.ARM.exidx), (8 bytes).
    Removing clad.o(.ARM.exidx), (8 bytes).
    Removing clad.o(.ARM.exidx), (8 bytes).
    Removing clad.o(.ARM.exidx), (8 bytes).
    Removing clad.o(.ARM.exidx), (8 bytes).
    Removing clad.o(.ARM.exidx), (8 bytes).
    Removing clad.o(.ARM.exidx), (8 bytes).
    Removing clad.o(.ARM.exidx), (8 bytes).
    Removing clad.o(.ARM.exidx), (8 bytes).
    Removing clad.o(.ARM.exidx), (8 bytes).
    Removing clad.o(.ARM.exidx), (8 bytes).
    Removing clad.o(.ARM.exidx), (8 bytes).
    Removing clad.o(.ARM.exidx), (8 bytes).
    Removing clad.o(.ARM.exidx), (8 bytes).
    Removing clad.o(.ARM.exidx), (8 bytes).
    Removing clad.o(.ARM.exidx), (8 bytes).
    Removing clad.o(.ARM.exidx), (8 bytes).
    Removing clad.o(.ARM.exidx), (8 bytes).
    Removing clad.o(.ARM.exidx), (8 bytes).
    Removing clad.o(.ARM.exidx), (8 bytes).
    Removing clad.o(.ARM.exidx), (8 bytes).
    Removing clad.o(.ARM.exidx), (8 bytes).
    Removing clad.o(.ARM.exidx), (8 bytes).
    Removing clad.o(.ARM.exidx), (8 bytes).
    Removing clad.o(.ARM.exidx), (8 bytes).
    Removing clad.o(.ARM.exidx), (8 bytes).
    Removing clad.o(.ARM.exidx), (8 bytes).
    Removing clad.o(.ARM.exidx), (8 bytes).
    Removing clad.o(.ARM.exidx), (8 bytes).
    Removing clad.o(.ARM.exidx), (8 bytes).
    Removing clad.o(.ARM.exidx), (8 bytes).
    Removing aes.o(i._Z12InvShiftRowsv), (60 bytes).
    Removing aes.o(i._Z13InvMixColumnsv), (400 bytes).
    Removing aes.o(i._Z18AES128_ECB_decryptPKhS0_Ph), (144 bytes).
    Removing aes.o(.ARM.exidx), (8 bytes).
    Removing aes.o(.ARM.exidx), (8 bytes).
    Removing aes.o(.ARM.exidx), (8 bytes).
    Removing aes.o(.ARM.exidx), (8 bytes).
    Removing aes.o(.ARM.exidx), (8 bytes).
    Removing aes.o(.ARM.exidx), (8 bytes).
    Removing aes.o(.ARM.exidx), (8 bytes).
    Removing aes.o(.ARM.exidx), (8 bytes).
    Removing aes.o(.ARM.exidx), (8 bytes).
    Removing aes.o(.ARM.exidx), (8 bytes).
    Removing aes.o(.ARM.exidx), (8 bytes).
    Removing bignum.o(i._Z10big_divideR9big_num_tS0_RKS_S2_), (234 bytes).
    Removing bignum.o(i._Z10big_moduloR9big_num_tRKS_S2_), (124 bytes).
    Removing bignum.o(i._Z10mont_powerRK10big_mont_tR9big_num_tRKS2_S5_), (264 bytes).
    Removing bignum.o(i._Z11big_add_subR9big_num_tRKS_S2_b), (88 bytes).
    Removing bignum.o(i._Z11big_bit_getRK9big_num_ti), (42 bytes).
    Removing bignum.o(i._Z11big_bit_setR9big_num_ti), (74 bytes).
    Removing bignum.o(i._Z11big_compareRK9big_num_tS1_), (54 bytes).
    Removing bignum.o(i._Z12big_multiplyR9big_num_tRKS_S2_), (180 bytes).
    Removing bignum.o(i._Z12big_subtractR9big_num_tRKS_S2_), (20 bytes).
    Removing bignum.o(i._Z13mont_multiplyRK10big_mont_tR9big_num_tRKS2_S5_), (280 bytes).
    Removing bignum.o(i._Z16big_modulo_asyncR12big_modulo_t), (88 bytes).
    Removing bignum.o(i._Z16big_unsigned_addR9big_num_tRKS_S2_), (120 bytes).
    Removing bignum.o(i._Z16mont_power_asyncRK10big_mont_tR14big_mont_pow_t), (160 bytes).
    Removing bignum.o(i._Z20big_unsigned_compareRK9big_num_tS1_), (48 bytes).
    Removing bignum.o(i._Z21big_modulo_async_initR12big_modulo_tRK9big_num_tS3_), (56 bytes).
    Removing bignum.o(i._Z21big_unsigned_subtractR9big_num_tRKS_S2_), (114 bytes).
    Removing bignum.o(i._Z21mont_power_async_initRK10big_mont_tR14big_mont_pow_tRK9big_num_tS6_), (98 bytes).
    Removing bignum.o(i._Z7big_addR9big_num_tRKS_S2_), (10 bytes).
    Removing bignum.o(i._Z7big_lsbRK9big_num_t), (60 bytes).
    Removing bignum.o(i._Z7big_msbRK9big_num_t), (50 bytes).
    Removing bignum.o(i._Z7big_shlR9big_num_tRKS_i), (154 bytes).
    Removing bignum.o(i._Z7big_shrR9big_num_tRKS_i), (114 bytes).
    Removing bignum.o(i._Z7mont_toRK10big_mont_tR9big_num_tRKS2_), (44 bytes).
    Removing bignum.o(i._Z8big_initR9big_num_t), (8 bytes).
    Removing bignum.o(i._Z8big_invmR9big_num_tRKS_S2_), (640 bytes).
    Removing bignum.o(i._Z8big_zeroRK9big_num_t), (14 bytes).
    Removing bignum.o(i._Z9big_powerR9big_num_tRKS_S2_), (200 bytes).
    Removing bignum.o(i._Z9mont_fromRK10big_mont_tR9big_num_tRKS2_), (96 bytes).
    Removing bignum.o(i._Z9mont_initR10big_mont_tRK9big_num_t), (240 bytes).
    Removing bignum.o(.ARM.exidx), (8 bytes).
    Removing bignum.o(.ARM.exidx), (8 bytes).
    Removing bignum.o(.ARM.exidx), (8 bytes).
    Removing bignum.o(.ARM.exidx), (8 bytes).
    Removing bignum.o(.ARM.exidx), (8 bytes).
    Removing bignum.o(.ARM.exidx), (8 bytes).
    Removing bignum.o(.ARM.exidx), (8 bytes).
    Removing bignum.o(.ARM.exidx), (8 bytes).
    Removing bignum.o(.ARM.exidx), (8 bytes).
    Removing bignum.o(.ARM.exidx), (8 bytes).
    Removing bignum.o(.ARM.exidx), (8 bytes).
    Removing bignum.o(.ARM.exidx), (8 bytes).
    Removing bignum.o(.ARM.exidx), (8 bytes).
    Removing bignum.o(.ARM.exidx), (8 bytes).
    Removing bignum.o(.ARM.exidx), (8 bytes).
    Removing bignum.o(.ARM.exidx), (8 bytes).
    Removing bignum.o(.ARM.exidx), (8 bytes).
    Removing bignum.o(.ARM.exidx), (8 bytes).
    Removing bignum.o(.ARM.exidx), (8 bytes).
    Removing bignum.o(.ARM.exidx), (8 bytes).
    Removing bignum.o(.ARM.exidx), (8 bytes).
    Removing bignum.o(.ARM.exidx), (8 bytes).
    Removing bignum.o(.ARM.exidx), (8 bytes).
    Removing bignum.o(.ARM.exidx), (8 bytes).
    Removing bignum.o(.ARM.exidx), (8 bytes).
    Removing bignum.o(.ARM.exidx), (8 bytes).
    Removing bignum.o(.ARM.exidx), (8 bytes).
    Removing bignum.o(.ARM.exidx), (8 bytes).
    Removing bignum.o(.ARM.exidx), (8 bytes).
    Removing bignum.o(.constdata), (1048 bytes).
    Removing crc32.o(i._Z10calc_crc32PKhi), (56 bytes).
    Removing crc32.o(.ARM.exidx), (8 bytes).
    Removing diffie.o(i._Z10dh_reversePKhS0_iPh), (228 bytes).
    Removing diffie.o(.ARM.exidx), (8 bytes).
    Removing diffie.o(.ARM.exidx), (8 bytes).
    Removing diffie.o(.constdata), (3148 bytes).
    Removing random.o(.rev16_text), (4 bytes).
    Removing random.o(.revsh_text), (4 bytes).
    Removing random.o(.ARM.exidx), (8 bytes).
    Removing sha1.o(.ARM.exidx), (8 bytes).
    Removing sha1.o(.ARM.exidx), (8 bytes).
    Removing sha1.o(.ARM.exidx), (8 bytes).
    Removing sha1.o(.ARM.exidx), (8 bytes).
    Removing md5.o(.ARM.exidx), (8 bytes).
    Removing md5.o(.ARM.exidx), (8 bytes).
    Removing md5.o(.ARM.exidx), (8 bytes).
    Removing md5.o(.ARM.exidx), (8 bytes).
    Removing hmac.o(.ARM.exidx), (8 bytes).
    Removing hmac.o(.ARM.exidx), (8 bytes).
    Removing packet.o(.ARM.exidx), (8 bytes).
    Removing packet.o(.ARM.exidx), (8 bytes).
    Removing micro_esb.o(.rev16_text), (4 bytes).
    Removing micro_esb.o(.revsh_text), (4 bytes).
    Removing micro_esb.o(.ARM.exidx), (8 bytes).
    Removing micro_esb.o(.ARM.exidx), (8 bytes).
    Removing micro_esb.o(.ARM.exidx), (8 bytes).
    Removing micro_esb.o(.ARM.exidx), (8 bytes).
    Removing micro_esb.o(.ARM.exidx), (8 bytes).
    Removing micro_esb.o(.ARM.exidx), (8 bytes).
    Removing micro_esb.o(.ARM.exidx), (8 bytes).
    Removing micro_esb.o(.ARM.exidx), (8 bytes).
    Removing micro_esb.o(.ARM.exidx), (8 bytes).
    Removing micro_esb.o(.ARM.exidx), (8 bytes).
    Removing cubes.o(.rev16_text), (4 bytes).
    Removing cubes.o(.revsh_text), (4 bytes).
    Removing cubes.o(.ARM.exidx), (8 bytes).
    Removing cubes.o(.ARM.exidx), (8 bytes).
    Removing cubes.o(.ARM.exidx), (8 bytes).
    Removing cubes.o(.ARM.exidx), (8 bytes).
    Removing cubes.o(.ARM.exidx), (8 bytes).
    Removing cubes.o(.ARM.exidx), (8 bytes).
    Removing cubes.o(.ARM.exidx), (8 bytes).
    Removing cubes.o(.ARM.exidx), (8 bytes).
    Removing cubes.o(.ARM.exidx), (8 bytes).
    Removing cubes.o(.ARM.exidx), (8 bytes).
    Removing cubes.o(.ARM.exidx), (8 bytes).
    Removing battery.o(.ARM.exidx), (8 bytes).

328 unused section(s) (total 15550 bytes) removed from the image.

==============================================================================

Image Symbol Table

    Local Symbols

    Symbol Name                              Value     Ov Type        Size  Object(Section)

    ../../../edgfe/lib_src/guard.c           0x00000000   Number         0  cxa_guard_acquire.o ABSOLUTE
    ../../../edgfe/lib_src/guard.c           0x00000000   Number         0  cxa_guard_release.o ABSOLUTE
    ../clib/../cmprslib/zerorunl2.c          0x00000000   Number         0  __dczerorl2.o ABSOLUTE
    ../clib/microlib/division.c              0x00000000   Number         0  uidiv.o ABSOLUTE
    ../clib/microlib/division.c              0x00000000   Number         0  ldiv.o ABSOLUTE
    ../clib/microlib/division.c              0x00000000   Number         0  idiv.o ABSOLUTE
    ../clib/microlib/division.c              0x00000000   Number         0  uldiv.o ABSOLUTE
    ../clib/microlib/init/entry.s            0x00000000   Number         0  entry10a.o ABSOLUTE
    ../clib/microlib/init/entry.s            0x00000000   Number         0  entry11b.o ABSOLUTE
    ../clib/microlib/init/entry.s            0x00000000   Number         0  entry10b.o ABSOLUTE
    ../clib/microlib/init/entry.s            0x00000000   Number         0  entry11a.o ABSOLUTE
    ../clib/microlib/init/entry.s            0x00000000   Number         0  entry8a.o ABSOLUTE
    ../clib/microlib/init/entry.s            0x00000000   Number         0  entry8b.o ABSOLUTE
    ../clib/microlib/init/entry.s            0x00000000   Number         0  entry2.o ABSOLUTE
    ../clib/microlib/init/entry.s            0x00000000   Number         0  entry9a.o ABSOLUTE
    ../clib/microlib/init/entry.s            0x00000000   Number         0  entry5.o ABSOLUTE
    ../clib/microlib/init/entry.s            0x00000000   Number         0  entry9b.o ABSOLUTE
    ../clib/microlib/init/entry.s            0x00000000   Number         0  entry.o ABSOLUTE
    ../clib/microlib/init/entry.s            0x00000000   Number         0  entry7a.o ABSOLUTE
    ../clib/microlib/init/entry.s            0x00000000   Number         0  entry7b.o ABSOLUTE
    ../clib/microlib/longlong.c              0x00000000   Number         0  llshl.o ABSOLUTE
    ../clib/microlib/longlong.c              0x00000000   Number         0  llushr.o ABSOLUTE
    ../clib/microlib/longlong.c              0x00000000   Number         0  llsshr.o ABSOLUTE
    ../clib/microlib/string/memcmp.c         0x00000000   Number         0  memcmp.o ABSOLUTE
    ../clib/microlib/string/memcpy.c         0x00000000   Number         0  memcpya.o ABSOLUTE
    ../clib/microlib/string/memcpy.c         0x00000000   Number         0  memcpyb.o ABSOLUTE
    ../clib/microlib/string/memset.c         0x00000000   Number         0  memseta.o ABSOLUTE
    ../clib/microlib/stubs.s                 0x00000000   Number         0  iusefp.o ABSOLUTE
    ../fplib/microlib/fpadd.c                0x00000000   Number         0  dadd.o ABSOLUTE
    ../fplib/microlib/fpdiv.c                0x00000000   Number         0  ddiv.o ABSOLUTE
    ../fplib/microlib/fpepilogue.c           0x00000000   Number         0  depilogue.o ABSOLUTE
    ../fplib/microlib/fpfix.c                0x00000000   Number         0  dfixi.o ABSOLUTE
    ../fplib/microlib/fpfix.c                0x00000000   Number         0  dfixl.o ABSOLUTE
    ../fplib/microlib/fpflt.c                0x00000000   Number         0  dfltl.o ABSOLUTE
    ../fplib/microlib/fpflt.c                0x00000000   Number         0  dfltui.o ABSOLUTE
    ../fplib/microlib/fpscalb.c              0x00000000   Number         0  dscalb.o ABSOLUTE
    ..\..\crypto\aes.cpp                     0x00000000   Number         0  aes.o ABSOLUTE
    ..\..\crypto\bignum.cpp                  0x00000000   Number         0  bignum.o ABSOLUTE
    ..\..\crypto\crc32.cpp                   0x00000000   Number         0  crc32.o ABSOLUTE
    ..\..\crypto\diffie.cpp                  0x00000000   Number         0  diffie.o ABSOLUTE
    ..\..\crypto\hmac.cpp                    0x00000000   Number         0  hmac.o ABSOLUTE
    ..\..\crypto\md5.cpp                     0x00000000   Number         0  md5.o ABSOLUTE
    ..\..\crypto\packet.cpp                  0x00000000   Number         0  packet.o ABSOLUTE
    ..\..\crypto\random.cpp                  0x00000000   Number         0  random.o ABSOLUTE
    ..\..\crypto\sha1.cpp                    0x00000000   Number         0  sha1.o ABSOLUTE
    ..\\..\\crypto\\random.cpp               0x00000000   Number         0  random.o ABSOLUTE
    ..\generated\clad\clad.cpp               0x00000000   Number         0  clad.o ABSOLUTE
    components\ble\common\ble_advdata.c      0x00000000   Number         0  ble_advdata.o ABSOLUTE
    cubes\\cubes.cpp                         0x00000000   Number         0  cubes.o ABSOLUTE
    cubes\\micro_esb.cpp                     0x00000000   Number         0  micro_esb.o ABSOLUTE
    cubes\cubes.cpp                          0x00000000   Number         0  cubes.o ABSOLUTE
    cubes\firmware.s                         0x00000000   Number         0  firmware.o ABSOLUTE
    cubes\micro_esb.cpp                      0x00000000   Number         0  micro_esb.o ABSOLUTE
    dc.s                                     0x00000000   Number         0  dc.o ABSOLUTE
    hal\\backpack.cpp                        0x00000000   Number         0  backpack.o ABSOLUTE
    hal\\battery.cpp                         0x00000000   Number         0  battery.o ABSOLUTE
    hal\\bluetooth.cpp                       0x00000000   Number         0  bluetooth.o ABSOLUTE
    hal\\conn_params.c                       0x00000000   Number         0  conn_params.o ABSOLUTE
    hal\\crashlogger.cpp                     0x00000000   Number         0  crashlogger.o ABSOLUTE
    hal\\head.cpp                            0x00000000   Number         0  head.o ABSOLUTE
    hal\\lights.cpp                          0x00000000   Number         0  lights.o ABSOLUTE
    hal\\main.cpp                            0x00000000   Number         0  main.o ABSOLUTE
    hal\\messages.cpp                        0x00000000   Number         0  messages.o ABSOLUTE
    hal\\motors.cpp                          0x00000000   Number         0  motors.o ABSOLUTE
    hal\\settings.c                          0x00000000   Number         0  settings.o ABSOLUTE
    hal\\storage.cpp                         0x00000000   Number         0  storage.o ABSOLUTE
    hal\\tasks.cpp                           0x00000000   Number         0  tasks.o ABSOLUTE
    hal\\temp.cpp                            0x00000000   Number         0  temp.o ABSOLUTE
    hal\\timer.cpp                           0x00000000   Number         0  timer.o ABSOLUTE
    hal\\watchdog.cpp                        0x00000000   Number         0  watchdog.o ABSOLUTE
    hal\backpack.cpp                         0x00000000   Number         0  backpack.o ABSOLUTE
    hal\battery.cpp                          0x00000000   Number         0  battery.o ABSOLUTE
    hal\bluetooth.cpp                        0x00000000   Number         0  bluetooth.o ABSOLUTE
    hal\conn_params.c                        0x00000000   Number         0  conn_params.o ABSOLUTE
    hal\crashlogger.cpp                      0x00000000   Number         0  crashlogger.o ABSOLUTE
    hal\head.cpp                             0x00000000   Number         0  head.o ABSOLUTE
    hal\lights.cpp                           0x00000000   Number         0  lights.o ABSOLUTE
    hal\logging.cpp                          0x00000000   Number         0  logging.o ABSOLUTE
    hal\main.cpp                             0x00000000   Number         0  main.o ABSOLUTE
    hal\messages.cpp                         0x00000000   Number         0  messages.o ABSOLUTE
    hal\motors.cpp                           0x00000000   Number         0  motors.o ABSOLUTE
    hal\settings.c                           0x00000000   Number         0  settings.o ABSOLUTE
    hal\startup_nrf51.s                      0x00000000   Number         0  startup_nrf51.o ABSOLUTE
    hal\storage.cpp                          0x00000000   Number         0  storage.o ABSOLUTE
    hal\tasks.cpp                            0x00000000   Number         0  tasks.o ABSOLUTE
    hal\temp.cpp                             0x00000000   Number         0  temp.o ABSOLUTE
    hal\timer.cpp                            0x00000000   Number         0  timer.o ABSOLUTE
    hal\watchdog.cpp                         0x00000000   Number         0  watchdog.o ABSOLUTE
    handlers.s                               0x00000000   Number         0  handlers.o ABSOLUTE
    init.s                                   0x00000000   Number         0  init.o ABSOLUTE
    lib\\system_nrf51.c                      0x00000000   Number         0  system_nrf51.o ABSOLUTE
    lib\system_nrf51.c                       0x00000000   Number         0  system_nrf51.o ABSOLUTE
    RESET                                    0x00018000   Section      220  startup_nrf51.o(RESET)
    .ARM.Collect$$$$00000000                 0x000180dc   Section        0  entry.o(.ARM.Collect$$$$00000000)
    .ARM.Collect$$$$00000001                 0x000180dc   Section        4  entry2.o(.ARM.Collect$$$$00000001)
    .ARM.Collect$$$$00000004                 0x000180e0   Section        4  entry5.o(.ARM.Collect$$$$00000004)
    .ARM.Collect$$$$00000008                 0x000180e4   Section        0  entry7b.o(.ARM.Collect$$$$00000008)
    .ARM.Collect$$$$0000000A                 0x000180e4   Section        0  entry8b.o(.ARM.Collect$$$$0000000A)
    .ARM.Collect$$$$0000000B                 0x000180e4   Section        8  entry9a.o(.ARM.Collect$$$$0000000B)
    .ARM.Collect$$$$0000000D                 0x000180ec   Section        0  entry10a.o(.ARM.Collect$$$$0000000D)
    .ARM.Collect$$$$0000000F                 0x000180ec   Section        0  entry11a.o(.ARM.Collect$$$$0000000F)
    .ARM.Collect$$$$00002712                 0x000180ec   Section        4  entry2.o(.ARM.Collect$$$$00002712)
    __lit__00000000                          0x000180ec   Data           4  entry2.o(.ARM.Collect$$$$00002712)
    .emb_text                                0x000180f0   Section       30  timer.o(.emb_text)
    .text                                    0x00018110   Section       76  startup_nrf51.o(.text)
    HardFault_PreHandler                     0x0001812d   Thumb Code    22  startup_nrf51.o(.text)
    .text                                    0x0001815c   Section        0  uidiv.o(.text)
    .text                                    0x00018188   Section        0  idiv.o(.text)
    .text                                    0x000181b0   Section        0  ldiv.o(.text)
    .text                                    0x000181fc   Section        0  memcpya.o(.text)
    .text                                    0x00018220   Section        0  memseta.o(.text)
    .text                                    0x00018244   Section        0  memcmp.o(.text)
    .text                                    0x00018260   Section        0  dadd.o(.text)
    .text                                    0x000183c4   Section        0  ddiv.o(.text)
    .text                                    0x000184b4   Section        0  dscalb.o(.text)
    .text                                    0x000184e0   Section        0  dfltui.o(.text)
    .text                                    0x000184fc   Section        0  dfltl.o(.text)
    .text                                    0x00018528   Section        0  dfixi.o(.text)
    .text                                    0x00018570   Section        0  dfixl.o(.text)
    .text                                    0x000185c0   Section        0  uldiv.o(.text)
    .text                                    0x00018620   Section        0  llshl.o(.text)
    .text                                    0x00018640   Section        0  llushr.o(.text)
    .text                                    0x00018662   Section        0  llsshr.o(.text)
    .text                                    0x00018688   Section        0  depilogue.o(.text)
    .text                                    0x00018688   Section        0  iusefp.o(.text)
    .text                                    0x00018748   Section       36  init.o(.text)
    .text                                    0x0001876c   Section        0  __dczerorl2.o(.text)
    i.GPIOTE_IRQHandler                      0x000187c4   Section        0  motors.o(i.GPIOTE_IRQHandler)
    i.HardFault_Handler                      0x000188b4   Section        0  crashlogger.o(i.HardFault_Handler)
    i.RADIO_IRQHandler                       0x000188e0   Section        0  micro_esb.o(i.RADIO_IRQHandler)
    i.RTC1_IRQHandler                        0x000189b8   Section        0  timer.o(i.RTC1_IRQHandler)
    i.SWI2_IRQHandler                        0x00018a0c   Section        0  bluetooth.o(i.SWI2_IRQHandler)
    i.SystemInit                             0x00018c74   Section        0  system_nrf51.o(i.SystemInit)
    i.TIMER0_IRQHandler                      0x00018cf4   Section        0  cubes.o(i.TIMER0_IRQHandler)
    i.UART0_IRQHandler                       0x00018e74   Section        0  head.o(i.UART0_IRQHandler)
    i._Z10EnterState10RadioState             0x00018fcc   Section        0  cubes.o(i._Z10EnterState10RadioState)
    EnterState(RadioState)                   0x00018fcd   Thumb Code    52  cubes.o(i._Z10EnterState10RadioState)
    i._Z10MD5_UpdateP7MD5_CTXPKvm            0x00019010   Section        0  md5.o(i._Z10MD5_UpdateP7MD5_CTXPKvm)
    i._Z10calcResulti                        0x00019090   Section        0  battery.o(i._Z10calcResulti)
    calcResult(int)                          0x00019091   Thumb Code    82  battery.o(i._Z10calcResulti)
    i._Z10gen_randomPvi                      0x000190f4   Section        0  random.o(i._Z10gen_randomPvi)
    i._Z10sha1_finalP8SHA1_CTXPh             0x00019178   Section        0  sha1.o(i._Z10sha1_finalP8SHA1_CTXPh)
    i._Z10uesb_startv                        0x00019230   Section        0  micro_esb.o(i._Z10uesb_startv)
    i._Z11AddRoundKeyh                       0x00019338   Section        0  aes.o(i._Z11AddRoundKeyh)
    AddRoundKey(unsigned char)               0x00019339   Thumb Code    56  aes.o(i._Z11AddRoundKeyh)
    i._Z11create_hmacPhPKhiS1_i              0x00019378   Section        0  hmac.o(i._Z11create_hmacPhPKhiS1_i)
    i._Z11dh_completePKv                     0x00019408   Section        0  bluetooth.o(i._Z11dh_completePKv)
    dh_complete(const void*)                 0x00019409   Thumb Code    38  bluetooth.o(i._Z11dh_completePKv)
    i._Z11sha1_updateP8SHA1_CTXPKhj          0x0001942e   Section        0  sha1.o(i._Z11sha1_updateP8SHA1_CTXPKhj)
    i._Z12KeyExpansionv                      0x00019470   Section        0  aes.o(i._Z12KeyExpansionv)
    KeyExpansion()                           0x00019471   Thumb Code   158  aes.o(i._Z12KeyExpansionv)
    i._Z12uesb_disablev                      0x00019520   Section        0  micro_esb.o(i._Z12uesb_disablev)
    i._Z13ConfigureTaskhPVj                  0x000195a0   Section        0  motors.o(i._Z13ConfigureTaskhPVj)
    ConfigureTask(unsigned char, volatile unsigned*) 0x000195a1   Thumb Code   322  motors.o(i._Z13ConfigureTaskhPVj)
    i._Z13aes_fix_blockPhRi                  0x000196f8   Section        0  aes.o(i._Z13aes_fix_blockPhRi)
    i._Z13setup_storagev                     0x00019720   Section        0  storage.o(i._Z13setup_storagev)
    setup_storage()                          0x00019721   Thumb Code   108  storage.o(i._Z13setup_storagev)
    i._Z13storage_levelv                     0x00019794   Section        0  storage.o(i._Z13storage_levelv)
    storage_level()                          0x00019795   Thumb Code   242  storage.o(i._Z13storage_levelv)
    i._Z14ConfigureTimerP14NRF_TIMER_Typehh  0x00019898   Section        0  motors.o(i._Z14ConfigureTimerP14NRF_TIMER_Typehh)
    ConfigureTimer(NRF_TIMER_Type*, unsigned char, unsigned char) 0x00019899   Thumb Code   112  motors.o(i._Z14ConfigureTimerP14NRF_TIMER_Typehh)
    i._Z14aes_cfb_decodePKvS0_PKhPhiPv       0x00019914   Section        0  aes.o(i._Z14aes_cfb_decodePKvS0_PKhPhiPv)
    i._Z14aes_cfb_encodePKvPvPKhPhi          0x00019980   Section        0  aes.o(i._Z14aes_cfb_encodePKvPvPKhPhi)
    i._Z14main_executionv                    0x000199f8   Section        0  main.o(i._Z14main_executionv)
    i._Z14sha1_transformP8SHA1_CTXPKh        0x00019a12   Section        0  sha1.o(i._Z14sha1_transformP8SHA1_CTXPKh)
    i._Z14startADCsample11AnalogInput        0x00019b9c   Section        0  battery.o(i._Z14startADCsample11AnalogInput)
    startADCsample(AnalogInput)              0x00019b9d   Thumb Code    38  battery.o(i._Z14startADCsample11AnalogInput)
    i._Z15setTransmitMode13TRANSMIT_MODE     0x00019bd4   Section        0  head.o(i._Z15setTransmitMode13TRANSMIT_MODE)
    setTransmitMode(TRANSMIT_MODE)           0x00019bd5   Thumb Code    96  head.o(i._Z15setTransmitMode13TRANSMIT_MODE)
    i._Z16dh_encode_randomPhiPKh             0x00019c54   Section        0  diffie.o(i._Z16dh_encode_randomPhiPKh)
    i._Z18AES128_ECB_encryptPKhS0_Ph         0x00019c84   Section        0  aes.o(i._Z18AES128_ECB_encryptPKhS0_Ph)
    i._Z18aes_message_decodePKhS0_iPhRi      0x00019ca8   Section        0  packet.o(i._Z18aes_message_decodePKhS0_iPhRi)
    i._Z18aes_message_encodePKhS0_iPhRi      0x00019ce2   Section        0  packet.o(i._Z18aes_message_encodePKhS0_iPhRi)
    i._Z18storage_write_wordPjj              0x00019d28   Section        0  storage.o(i._Z18storage_write_wordPjj)
    storage_write_word(unsigned*, unsigned)  0x00019d29   Thumb Code    76  storage.o(i._Z18storage_write_wordPjj)
    i._Z18uesb_event_handlerj                0x00019d7c   Section        0  cubes.o(i._Z18uesb_event_handlerj)
    i._Z19configure_addressesPK19uesb_address_desc_t 0x00019fb8   Section        0  micro_esb.o(i._Z19configure_addressesPK19uesb_address_desc_t)
    configure_addresses(const uesb_address_desc_t*) 0x00019fb9   Thumb Code    90  micro_esb.o(i._Z19configure_addressesPK19uesb_address_desc_t)
    i._Z19frame_data_receivedPKv             0x0001a024   Section        0  bluetooth.o(i._Z19frame_data_receivedPKv)
    frame_data_received(const void*)         0x0001a025   Thumb Code    60  bluetooth.o(i._Z19frame_data_receivedPKv)
    i._Z19ota_send_next_blockv               0x0001a068   Section        0  cubes.o(i._Z19ota_send_next_blockv)
    ota_send_next_block()                    0x0001a069   Thumb Code    56  cubes.o(i._Z19ota_send_next_blockv)
    i._Z19uesb_set_rx_addressPK19uesb_address_desc_t 0x0001a0a8   Section        0  micro_esb.o(i._Z19uesb_set_rx_addressPK19uesb_address_desc_t)
    i._Z20send_welcome_messagePKv            0x0001a0c0   Section        0  bluetooth.o(i._Z20send_welcome_messagePKv)
    send_welcome_message(const void*)        0x0001a0c1   Thumb Code    28  bluetooth.o(i._Z20send_welcome_messagePKv)
    i._Z20uesb_read_rx_payloadP14uesb_payload_t 0x0001a0e0   Section        0  micro_esb.o(i._Z20uesb_read_rx_payloadP14uesb_payload_t)
    i._Z21uesb_write_tx_payloadPK19uesb_address_desc_tPKvh 0x0001a14c   Section        0  micro_esb.o(i._Z21uesb_write_tx_payloadPK19uesb_address_desc_tPKvh)
    i._Z23uesb_prepare_tx_payloadPK19uesb_address_desc_tPKvh 0x0001a15c   Section        0  micro_esb.o(i._Z23uesb_prepare_tx_payloadPK19uesb_address_desc_tPKvh)
    i._Z25SendObjectConnectionStatei         0x0001a1e4   Section        0  cubes.o(i._Z25SendObjectConnectionStatei)
    SendObjectConnectionState(int)           0x0001a1e5   Thumb Code    42  cubes.o(i._Z25SendObjectConnectionStatei)
    i._Z26start_message_transmissionPKv      0x0001a214   Section        0  bluetooth.o(i._Z26start_message_transmissionPKv)
    start_message_transmission(const void*)  0x0001a215   Thumb Code    14  bluetooth.o(i._Z26start_message_transmissionPKv)
    i._Z28softdevice_assertion_handlerjtPKh  0x0001a22c   Section        0  bluetooth.o(i._Z28softdevice_assertion_handlerjtPKh)
    softdevice_assertion_handler(unsigned, unsigned short, const unsigned char*) 0x0001a22d   Thumb Code    18  bluetooth.o(i._Z28softdevice_assertion_handlerjtPKh)
    i._Z4bodyP7MD5_CTXPKvm                   0x0001a248   Section        0  md5.o(i._Z4bodyP7MD5_CTXPKvm)
    body(MD5_CTX*, const void*, unsigned long) 0x0001a249   Thumb Code  2506  md5.o(i._Z4bodyP7MD5_CTXPKvm)
    i._Z6Cipherv                             0x0001ac20   Section        0  aes.o(i._Z6Cipherv)
    Cipher()                                 0x0001ac21   Thumb Code   246  aes.o(i._Z6Cipherv)
    i._Z8MD5_InitP7MD5_CTX                   0x0001ad20   Section        0  md5.o(i._Z8MD5_InitP7MD5_CTX)
    i._Z8dh_setupPKv                         0x0001ad48   Section        0  bluetooth.o(i._Z8dh_setupPKv)
    dh_setup(const void*)                    0x0001ad49   Thumb Code   100  bluetooth.o(i._Z8dh_setupPKv)
    i._Z9MD5_FinalPhP7MD5_CTX                0x0001adb4   Section        0  md5.o(i._Z9MD5_FinalPhP7MD5_CTX)
    i._Z9ShiftRowsv                          0x0001ae88   Section        0  aes.o(i._Z9ShiftRowsv)
    ShiftRows()                              0x0001ae89   Thumb Code    54  aes.o(i._Z9ShiftRowsv)
    i._Z9sha1_initP8SHA1_CTX                 0x0001aec4   Section        0  sha1.o(i._Z9sha1_initP8SHA1_CTX)
    i._Z9store_key10StorageKeyPKvi           0x0001af18   Section        0  storage.o(i._Z9store_key10StorageKeyPKvi)
    store_key(StorageKey, const void*, int)  0x0001af19   Thumb Code   234  storage.o(i._Z9store_key10StorageKeyPKvi)
    i._Z9test_hmacPKhS0_iS0_i                0x0001b014   Section        0  hmac.o(i._Z9test_hmacPKhS0_iS0_i)
    i._Z9uesb_initPK13uesb_config_t          0x0001b040   Section        0  micro_esb.o(i._Z9uesb_initPK13uesb_config_t)
    i._Z9uesb_stopv                          0x0001b0cc   Section        0  micro_esb.o(i._Z9uesb_stopv)
    i._ZN4Anki5Cozmo14RobotInterface7SendLogEatthz 0x0001b104   Section        0  logging.o(i._ZN4Anki5Cozmo14RobotInterface7SendLogEatthz)
    i._ZN4Anki5Cozmo3HAL16RadioSendMessageEPKvth 0x0001b184   Section        0  messages.o(i._ZN4Anki5Cozmo3HAL16RadioSendMessageEPKvth)
    i._ZN4Head17enterLowPowerModeEv          0x0001b220   Section        0  head.o(i._ZN4Head17enterLowPowerModeEv)
    i._ZN4Head4initEv                        0x0001b238   Section        0  head.o(i._ZN4Head4initEv)
    i._ZN4Head6manageEv                      0x0001b2b0   Section        0  head.o(i._ZN4Head6manageEv)
    i._ZN4Temp4initEv                        0x0001b350   Section        0  temp.o(i._ZN4Temp4initEv)
    i._ZN4Temp6manageEv                      0x0001b364   Section        0  temp.o(i._ZN4Temp6manageEv)
    i._ZN4Temp7getTempEv                     0x0001b3a0   Section        0  temp.o(i._ZN4Temp7getTempEv)
    i._ZN5Radio10assignPropEjj               0x0001b3ac   Section        0  cubes.o(i._ZN5Radio10assignPropEjj)
    i._ZN5Radio13setLightGammaEh             0x0001b3f0   Section        0  cubes.o(i._ZN5Radio13setLightGammaEh)
    i._ZN5Radio13setPropLightsEjPKN4Anki5Cozmo10LightStateE 0x0001b3fc   Section        0  cubes.o(i._ZN5Radio13setPropLightsEjPKN4Anki5Cozmo10LightStateE)
    i._ZN5Radio4initEv                       0x0001b42c   Section        0  cubes.o(i._ZN5Radio4initEv)
    i._ZN5Radio8shutdownEv                   0x0001b43c   Section        0  cubes.o(i._ZN5Radio8shutdownEv)
    i._ZN5Radio9advertiseEv                  0x0001b458   Section        0  cubes.o(i._ZN5Radio9advertiseEv)
    i._ZN5Spine14processMessageEPv           0x0001b550   Section        0  messages.o(i._ZN5Spine14processMessageEPv)
    i._ZN5Spine4initEv                       0x0001b6c8   Section        0  messages.o(i._ZN5Spine4initEv)
    i._ZN5Spine7dequeueEP12CladBufferUp      0x0001b6e4   Section        0  messages.o(i._ZN5Spine7dequeueEP12CladBufferUp)
    i._ZN5Tasks4initEv                       0x0001b72c   Section        0  tasks.o(i._ZN5Tasks4initEv)
    i._ZN5Tasks6manageEv                     0x0001b77c   Section        0  tasks.o(i._ZN5Tasks6manageEv)
    i._ZN5Tasks7executeEPK4Task              0x0001b87c   Section        0  tasks.o(i._ZN5Tasks7executeEPK4Task)
    i._ZN5Timer4initEv                       0x0001b8c8   Section        0  timer.o(i._ZN5Timer4initEv)
    i._ZN6Lights4initEv                      0x0001b924   Section        0  lights.o(i._ZN6Lights4initEv)
    i._ZN6Lights6manageEv                    0x0001b9d8   Section        0  lights.o(i._ZN6Lights6manageEv)
    i._ZN6Lights6updateER11LightValuesPKN4Anki5Cozmo10LightStateE 0x0001bb78   Section        0  lights.o(i._ZN6Lights6updateER11LightValuesPKN4Anki5Cozmo10LightStateE)
    i._ZN6Motors4initEv                      0x0001bc30   Section        0  motors.o(i._ZN6Motors4initEv)
    i._ZN6Motors6manageEv                    0x0001bd28   Section        0  motors.o(i._ZN6Motors6manageEv)
    i._ZN6Motors7disableEb                   0x0001be88   Section        0  motors.o(i._ZN6Motors7disableEb)
    i._ZN6Motors8getSpeedEh                  0x0001beb4   Section        0  motors.o(i._ZN6Motors8getSpeedEh)
    i._ZN7Battery12setHeadlightEb            0x0001bf24   Section        0  battery.o(i._ZN7Battery12setHeadlightEb)
    i._ZN7Battery16setOperatingModeEa        0x0001bf3c   Section        0  battery.o(i._ZN7Battery16setOperatingModeEa)
    i._ZN7Battery19updateOperatingModeEv     0x0001bf48   Section        0  battery.o(i._ZN7Battery19updateOperatingModeEv)
    i._ZN7Battery4initEv                     0x0001bffc   Section        0  battery.o(i._ZN7Battery4initEv)
    i._ZN7Battery6manageEv                   0x0001c0cc   Section        0  battery.o(i._ZN7Battery6manageEv)
    i._ZN7Storage3getE10StorageKey           0x0001c2c0   Section        0  storage.o(i._ZN7Storage3getE10StorageKey)
    i._ZN7Storage3getE10StorageKeyRi         0x0001c2cc   Section        0  storage.o(i._ZN7Storage3getE10StorageKeyRi)
    i._ZN7Storage3setE10StorageKeyPKvi       0x0001c2e0   Section        0  storage.o(i._ZN7Storage3setE10StorageKeyPKvi)
    i._ZN7Storage4initEv                     0x0001c32c   Section        0  storage.o(i._ZN7Storage4initEv)
    i._ZN8Backpack14defaultPatternE22DefaultBackpackPattern 0x0001c388   Section        0  backpack.o(i._ZN8Backpack14defaultPatternE22DefaultBackpackPattern)
    i._ZN8Backpack4initEv                    0x0001c3dc   Section        0  backpack.o(i._ZN8Backpack4initEv)
    i._ZN8Backpack6manageEv                  0x0001c3ec   Section        0  backpack.o(i._ZN8Backpack6manageEv)
    i._ZN8Backpack6updateEi                  0x0001c47c   Section        0  backpack.o(i._ZN8Backpack6updateEi)
    i._ZN8Backpack9setLightsEPKN4Anki5Cozmo10LightStateE 0x0001c560   Section        0  backpack.o(i._ZN8Backpack9setLightsEPKN4Anki5Cozmo10LightStateE)
    i._ZN8Watchdog4initEv                    0x0001c588   Section        0  watchdog.o(i._ZN8Watchdog4initEv)
    i._ZN8Watchdog4kickEh                    0x0001c5a8   Section        0  watchdog.o(i._ZN8Watchdog4kickEh)
    i._ZN9Bluetooth12enterPairingERKN4Anki5Cozmo12EnterPairingE 0x0001c5bc   Section        0  bluetooth.o(i._ZN9Bluetooth12enterPairingERKN4Anki5Cozmo12EnterPairingE)
    i._ZN9Bluetooth20diffieHellmanResultsERKN4Anki5Cozmo20DiffieHellmanResultsE 0x0001c5fc   Section        0  bluetooth.o(i._ZN9Bluetooth20diffieHellmanResultsERKN4Anki5Cozmo20DiffieHellmanResultsE)
    i._ZN9Bluetooth4initEv                   0x0001c63c   Section        0  bluetooth.o(i._ZN9Bluetooth4initEv)
    i._ZN9Bluetooth6manageEv                 0x0001c684   Section        0  bluetooth.o(i._ZN9Bluetooth6manageEv)
    i._ZN9Bluetooth7enabledEv                0x0001c748   Section        0  bluetooth.o(i._ZN9Bluetooth7enabledEv)
    i._ZN9Bluetooth8shutdownEv               0x0001c754   Section        0  bluetooth.o(i._ZN9Bluetooth8shutdownEv)
    i._ZN9Bluetooth8transmitEPKhih           0x0001c770   Section        0  bluetooth.o(i._ZN9Bluetooth8transmitEPKhih)
    i._ZN9Bluetooth9advertiseEv              0x0001c818   Section        0  bluetooth.o(i._ZN9Bluetooth9advertiseEv)
    i._ZNK4Anki5Cozmo14RobotInterface10PrintTrace4SizeEv 0x0001cb08   Section        0  clad.o(i._ZNK4Anki5Cozmo14RobotInterface10PrintTrace4SizeEv)
    i._ZNK4Anki5Cozmo19BodyStorageContents4SizeEv 0x0001cb10   Section        0  clad.o(i._ZNK4Anki5Cozmo19BodyStorageContents4SizeEv)
    i.__ARM_clz                              0x0001cb16   Section        0  depilogue.o(i.__ARM_clz)
    i.__ARM_common_ll_mulss                  0x0001cb44   Section        0  battery.o(i.__ARM_common_ll_mulss)
    i.__cxa_guard_acquire                    0x0001cb76   Section        0  cxa_guard_acquire.o(i.__cxa_guard_acquire)
    i.__scatterload_copy                     0x0001cb88   Section       14  handlers.o(i.__scatterload_copy)
    i.__scatterload_null                     0x0001cb96   Section        2  handlers.o(i.__scatterload_null)
    i.__scatterload_zeroinit                 0x0001cb98   Section       14  handlers.o(i.__scatterload_zeroinit)
    i.adv_data_encode                        0x0001cba8   Section        0  ble_advdata.o(i.adv_data_encode)
    adv_data_encode                          0x0001cba9   Thumb Code   826  ble_advdata.o(i.adv_data_encode)
    i.ble_advdata_set                        0x0001cee8   Section        0  ble_advdata.o(i.ble_advdata_set)
    i.ble_app_timer_manage                   0x0001cf54   Section        0  conn_params.o(i.ble_app_timer_manage)
    i.ble_conn_params_init                   0x0001cfd8   Section        0  conn_params.o(i.ble_conn_params_init)
    i.ble_conn_params_on_ble_evt             0x0001d038   Section        0  conn_params.o(i.ble_conn_params_on_ble_evt)
    i.conn_params_error_handler              0x0001d0c4   Section        0  bluetooth.o(i.conn_params_error_handler)
    i.conn_params_negotiation                0x0001d0e0   Section        0  conn_params.o(i.conn_params_negotiation)
    conn_params_negotiation                  0x0001d0e1   Thumb Code    90  conn_params.o(i.conn_params_negotiation)
    i.main                                   0x0001d150   Section        0  main.o(i.main)
    i.on_conn_params_evt                     0x0001d1a0   Section        0  bluetooth.o(i.on_conn_params_evt)
    i.uuid_list_sized_encode                 0x0001d1d4   Section        0  ble_advdata.o(i.uuid_list_sized_encode)
    uuid_list_sized_encode                   0x0001d1d5   Thumb Code   166  ble_advdata.o(i.uuid_list_sized_encode)
    .constdata                               0x0001d27a   Section       24  motors.o(.constdata)
    m_config                                 0x0001d27a   Data          24  motors.o(.constdata)
    .constdata                               0x0001d294   Section      168  backpack.o(.constdata)
    PinSet                                   0x0001d294   Data          16  backpack.o(.constdata)
    lights                                   0x0001d2a4   Data          40  backpack.o(.constdata)
    lights                                   0x0001d2cc   Data          40  backpack.o(.constdata)
    setting                                  0x0001d2f4   Data          55  backpack.o(.constdata)
    pins                                     0x0001d32c   Data          16  backpack.o(.constdata)
    .constdata                               0x0001d33c   Section      512  lights.o(.constdata)
    DivTable                                 0x0001d33c   Data         512  lights.o(.constdata)
    .constdata                               0x0001d53c   Section        8  bluetooth.o(.constdata)
    random                                   0x0001d53c   Data           8  bluetooth.o(.constdata)
    .constdata                               0x0001d544   Section       16  settings.o(.constdata)
    .constdata                               0x0001d554   Section        2  settings.o(.constdata)
    .constdata                               0x0001d556   Section        2  settings.o(.constdata)
    .constdata                               0x0001d558   Section        2  settings.o(.constdata)
    .constdata                               0x0001d55a   Section        8  settings.o(.constdata)
    .constdata                               0x0001d564   Section       24  settings.o(.constdata)
    .constdata                               0x0001d57c   Section       28  settings.o(.constdata)
    .constdata                               0x0001d598   Section        5  settings.o(.constdata)
    .constdata                               0x0001d59d   Section        6  settings.o(.constdata)
    .constdata                               0x0001d5a4   Section        4  settings.o(.constdata)
    .constdata                               0x0001d5a8   Section       12  settings.o(.constdata)
    .constdata                               0x0001d5b4   Section       48  settings.o(.constdata)
    .constdata                               0x0001d5e4   Section      767  aes.o(.constdata)
    sbox                                     0x0001d5e4   Data         256  aes.o(.constdata)
    rsbox                                    0x0001d6e4   Data         256  aes.o(.constdata)
    Rcon                                     0x0001d7e4   Data         255  aes.o(.constdata)
    .constdata                               0x0001d8e4   Section       80  cubes.o(.constdata)
    PairingAddress                           0x0001d8e4   Data          12  cubes.o(.constdata)
    channel_order                            0x0001d908   Data          16  cubes.o(.constdata)
    .text                                    0x0001d934   Section     1824  firmware.o(.text)
    .data                                    0x20002000   Section       40  battery.o(.data)
    isCharging                               0x20002000   Data           1  battery.o(.data)
    disableCharge                            0x20002001   Data           1  battery.o(.data)
    current_operating_mode                   0x20002002   Data           1  battery.o(.data)
    active_operating_mode                    0x20002003   Data           1  battery.o(.data)
    ContactTime                              0x20002008   Data           4  battery.o(.data)
    resultLedOn                              0x2000200c   Data           4  battery.o(.data)
    resultLedOff                             0x20002010   Data           4  battery.o(.data)
    _ZGVlowBatTimer                          0x20002014   Data           4  battery.o(.data)
    lowBatTimer                              0x20002018   Data           4  battery.o(.data)
    ground_short                             0x2000201c   Data           4  battery.o(.data)
    vBat                                     0x20002020   Data           4  battery.o(.data)
    vExt                                     0x20002024   Data           4  battery.o(.data)
    .data                                    0x20002028   Section       16  head.o(.data)
    uart_mode                                0x20002028   Data           1  head.o(.data)
    header_shift                             0x2000202c   Data           4  head.o(.data)
    fixture_data                             0x20002030   Data           4  head.o(.data)
    txRxIndex                                0x20002034   Data           4  head.o(.data)
    .data                                    0x20002038   Section      124  motors.o(.data)
    motorDisable                             0x20002038   Data           1  motors.o(.data)
    m_motors                                 0x20002044   Data         112  motors.o(.data)
    .data                                    0x200020b4   Section        4  timer.o(.data)
    target                                   0x200020b4   Data           4  timer.o(.data)
    .data                                    0x200020b8   Section        4  logging.o(.data)
    missedMessages                           0x200020b8   Data           4  logging.o(.data)
    .data                                    0x200020bc   Section       20  backpack.o(.data)
    active                                   0x200020bc   Data           3  backpack.o(.data)
    active_channel                           0x200020c0   Data           4  backpack.o(.data)
    currentChannel                           0x200020c4   Data           4  backpack.o(.data)
    total_active                             0x200020c8   Data           4  backpack.o(.data)
    off_time                                 0x200020cc   Data           4  backpack.o(.data)
    .data                                    0x200020d0   Section       12  lights.o(.data)
    last_counter                             0x200020d0   Data           4  lights.o(.data)
    frame_time                               0x200020d4   Data           4  lights.o(.data)
    accumulator                              0x200020d8   Data           4  lights.o(.data)
    .data                                    0x200020dc   Section       12  storage.o(.data)
    words_left                               0x200020dc   Data           4  storage.o(.data)
    end_of_data                              0x200020e0   Data           4  storage.o(.data)
    end_of_toc                               0x200020e4   Data           4  storage.o(.data)
    .data                                    0x200020e8   Section        4  temp.o(.data)
    .data                                    0x200020ec   Section       12  tasks.o(.data)
    fifoHead                                 0x200020ec   Data           4  tasks.o(.data)
    fifoTail                                 0x200020f0   Data           4  tasks.o(.data)
    fifoActive                               0x200020f4   Data           4  tasks.o(.data)
    .data                                    0x200020f8   Section        4  crashlogger.o(.data)
    .data                                    0x200020fc   Section        4  system_nrf51.o(.data)
    __tagsym$$used                           0x200020fc   Number         0  system_nrf51.o(.data)
    .data                                    0x20002100   Section       80  bluetooth.o(.data)
    m_sd_enabled                             0x20002100   Data           1  bluetooth.o(.data)
    m_task_enabled                           0x20002101   Data           1  bluetooth.o(.data)
    dh_started                               0x20002102   Data           1  bluetooth.o(.data)
    tx_pending                               0x20002103   Data           1  bluetooth.o(.data)
    tx_buffered                              0x20002104   Data           1  bluetooth.o(.data)
    _ZGV_ZZ13frame_receiveR10CozmoFrameE5state 0x2000210c   Data           4  bluetooth.o(.data)
    _ZGV_ZZN9Bluetooth8transmitEPKhihE5state 0x20002110   Data           4  bluetooth.o(.data)
    dh_timeout                               0x20002114   Data           4  bluetooth.o(.data)
    frame_receive(CozmoFrame&)::state        0x20002128   Data          20  bluetooth.o(.data)
    Bluetooth::transmit(const unsigned char*, int, unsigned char)::state 0x2000213c   Data          20  bluetooth.o(.data)
    .data                                    0x20002150   Section        8  settings.o(.data)
    .data                                    0x20002158   Section       22  conn_params.o(.data)
    m_timeout_active                         0x20002158   Data           1  conn_params.o(.data)
    m_change_param                           0x20002159   Data           1  conn_params.o(.data)
    m_update_count                           0x2000215a   Data           1  conn_params.o(.data)
    m_timeout_clock                          0x2000215b   Data           1  conn_params.o(.data)
    m_conn_handle                            0x2000215c   Data           2  conn_params.o(.data)
    m_preferred_conn_params                  0x2000215e   Data           8  conn_params.o(.data)
    m_current_conn_params                    0x20002166   Data           8  conn_params.o(.data)
    .data                                    0x20002170   Section        8  messages.o(.data)
    queue_enter                              0x20002170   Data           4  messages.o(.data)
    queue_exit                               0x20002174   Data           4  messages.o(.data)
    .data                                    0x20002178   Section        8  aes.o(.data)
    state                                    0x20002178   Data           4  aes.o(.data)
    Key                                      0x2000217c   Data           4  aes.o(.data)
    .data                                    0x20002180   Section        1  micro_esb.o(.data)
    .data                                    0x20002184   Section       52  cubes.o(.data)
    _tapTime                                 0x20002184   Data           1  cubes.o(.data)
    c                                        0x20002185   Data           1  cubes.o(.data)
    ota_pending                              0x20002186   Data           1  cubes.o(.data)
    currentAccessory                         0x20002187   Data           1  cubes.o(.data)
    radioState                               0x20002188   Data           1  cubes.o(.data)
    ota_device                               0x2000218c   Data           4  cubes.o(.data)
    ota_block_index                          0x20002190   Data           4  cubes.o(.data)
    ack_timeouts                             0x20002194   Data           4  cubes.o(.data)
    light_gamma                              0x20002198   Data           4  cubes.o(.data)
    ota_timeout_countdown                    0x2000219c   Data           4  cubes.o(.data)
    ValidPerfs                               0x200021a0   Data          12  cubes.o(.data)
    OTAAddress                               0x200021ac   Data          12  cubes.o(.data)
    .bss                                     0x200021b8   Section      220  head.o(.bss)
    .bss                                     0x20002294   Section       12  backpack.o(.bss)
    drive_value                              0x20002294   Data          12  backpack.o(.bss)
    .bss                                     0x200022a0   Section      924  lights.o(.bss)
    .bss                                     0x2000263c   Section       24  storage.o(.bss)
    toc                                      0x2000263c   Data          24  storage.o(.bss)
    .bss                                     0x20002654   Section       48  tasks.o(.bss)
    fifoQueue                                0x20002654   Data          48  tasks.o(.bss)
    .bss                                     0x20002684   Section      748  bluetooth.o(.bss)
    p_master_id                              0x20002684   Data          10  bluetooth.o(.bss)
    keys_exchanged                           0x20002690   Data          24  bluetooth.o(.bss)
    value                                    0x200026a8   Data          17  bluetooth.o(.bss)
    value                                    0x200026b9   Data          17  bluetooth.o(.bss)
    m_nonce                                  0x200026ca   Data          32  bluetooth.o(.bss)
    dh_state                                 0x200026ec   Data         100  bluetooth.o(.bss)
    rx_buffer                                0x20002750   Data         272  bluetooth.o(.bss)
    tx_buffer                                0x20002860   Data         272  bluetooth.o(.bss)
    .bss                                     0x20002970   Section       28  conn_params.o(.bss)
    m_conn_params_config                     0x20002970   Data          28  conn_params.o(.bss)
    .bss                                     0x2000298c   Section      152  messages.o(.bss)
    queue                                    0x2000298c   Data         152  messages.o(.bss)
    .bss                                     0x20002a24   Section      176  aes.o(.bss)
    RoundKey                                 0x20002a24   Data         176  aes.o(.bss)
    .bss                                     0x20002ad4   Section      884  micro_esb.o(.bss)
    m_config_local                           0x20002ad4   Data          28  micro_esb.o(.bss)
    m_tx_fifo                                0x20002af0   Data         428  micro_esb.o(.bss)
    m_rx_fifo                                0x20002c9c   Data         428  micro_esb.o(.bss)
    .bss                                     0x20002e48   Section      252  cubes.o(.bss)
    accessories                              0x20002e48   Data         252  cubes.o(.bss)
    STACK                                    0x20002f48   Section     3072  startup_nrf51.o(STACK)

    Global Symbols

    Symbol Name                              Value     Ov Type        Size  Object(Section)

    BuildAttributes$$THM_ISAv3M$S$PE$A:L22$X:L11$S22$IEEE1$IW$USESV6$~STKCKD$USESV7$~SHL$OTIME$ROPI$EBA8$UX$MICROLIB$REQ8$PRES8$EABIv2 0x00000000   Number         0  anon$$obj.o ABSOLUTE
    __ARM_use_no_argv                        0x00000000   Number         0  main.o ABSOLUTE
    __cpp_initialize__aeabi_                  - Undefined Weak Reference
    __cxa_finalize                            - Undefined Weak Reference
    _clock_init                               - Undefined Weak Reference
    _microlib_exit                            - Undefined Weak Reference
    __Vectors_Size                           0x000000c0   Number         0  startup_nrf51.o ABSOLUTE
    __Vectors                                0x0001801c   Data           4  startup_nrf51.o(RESET)
    __Vectors_End                            0x000180dc   Data           0  startup_nrf51.o(RESET)
    __main                                   0x000180dd   Thumb Code     0  entry.o(.ARM.Collect$$$$00000000)
    _main_stk                                0x000180dd   Thumb Code     0  entry2.o(.ARM.Collect$$$$00000001)
    _main_scatterload                        0x000180e1   Thumb Code     0  entry5.o(.ARM.Collect$$$$00000004)
    __main_after_scatterload                 0x000180e5   Thumb Code     0  entry5.o(.ARM.Collect$$$$00000004)
    _main_clock                              0x000180e5   Thumb Code     0  entry7b.o(.ARM.Collect$$$$00000008)
    _main_cpp_init                           0x000180e5   Thumb Code     0  entry8b.o(.ARM.Collect$$$$0000000A)
    _main_init                               0x000180e5   Thumb Code     0  entry9a.o(.ARM.Collect$$$$0000000B)
    __rt_final_cpp                           0x000180ed   Thumb Code     0  entry10a.o(.ARM.Collect$$$$0000000D)
    __rt_final_exit                          0x000180ed   Thumb Code     0  entry11a.o(.ARM.Collect$$$$0000000F)
    MicroWait(unsigned)                      0x000180f1   Thumb Code    30  timer.o(.emb_text)
    Reset_Handler                            0x00018111   Thumb Code    28  startup_nrf51.o(.text)
    ADC_IRQHandler                           0x00018143   Thumb Code     0  startup_nrf51.o(.text)
    CCM_AAR_IRQHandler                       0x00018143   Thumb Code     0  startup_nrf51.o(.text)
    ECB_IRQHandler                           0x00018143   Thumb Code     0  startup_nrf51.o(.text)
    LPCOMP_IRQHandler                        0x00018143   Thumb Code     0  startup_nrf51.o(.text)
    NMI_Handler                              0x00018143   Thumb Code     0  startup_nrf51.o(.text)
    POWER_CLOCK_IRQHandler                   0x00018143   Thumb Code     0  startup_nrf51.o(.text)
    PendSV_Handler                           0x00018143   Thumb Code     0  startup_nrf51.o(.text)
    QDEC_IRQHandler                          0x00018143   Thumb Code     0  startup_nrf51.o(.text)
    RNG_IRQHandler                           0x00018143   Thumb Code     0  startup_nrf51.o(.text)
    RTC0_IRQHandler                          0x00018143   Thumb Code     0  startup_nrf51.o(.text)
    SPI0_TWI0_IRQHandler                     0x00018143   Thumb Code     0  startup_nrf51.o(.text)
    SPI1_TWI1_IRQHandler                     0x00018143   Thumb Code     0  startup_nrf51.o(.text)
    SVC_Handler                              0x00018143   Thumb Code     0  startup_nrf51.o(.text)
    SWI0_IRQHandler                          0x00018143   Thumb Code     0  startup_nrf51.o(.text)
    SWI1_IRQHandler                          0x00018143   Thumb Code     0  startup_nrf51.o(.text)
    SWI3_IRQHandler                          0x00018143   Thumb Code     0  startup_nrf51.o(.text)
    SWI4_IRQHandler                          0x00018143   Thumb Code     0  startup_nrf51.o(.text)
    SWI5_IRQHandler                          0x00018143   Thumb Code     0  startup_nrf51.o(.text)
    SysTick_Handler                          0x00018143   Thumb Code     0  startup_nrf51.o(.text)
    TEMP_IRQHandler                          0x00018143   Thumb Code     0  startup_nrf51.o(.text)
    TIMER1_IRQHandler                        0x00018143   Thumb Code     0  startup_nrf51.o(.text)
    TIMER2_IRQHandler                        0x00018143   Thumb Code     0  startup_nrf51.o(.text)
    WDT_IRQHandler                           0x00018143   Thumb Code     0  startup_nrf51.o(.text)
    __aeabi_uidiv                            0x0001815d   Thumb Code     0  uidiv.o(.text)
    __aeabi_uidivmod                         0x0001815d   Thumb Code    44  uidiv.o(.text)
    __aeabi_idiv                             0x00018189   Thumb Code     0  idiv.o(.text)
    __aeabi_idivmod                          0x00018189   Thumb Code    40  idiv.o(.text)
    __aeabi_ldivmod                          0x000181b1   Thumb Code    76  ldiv.o(.text)
    __aeabi_memcpy                           0x000181fd   Thumb Code    36  memcpya.o(.text)
    __aeabi_memcpy4                          0x000181fd   Thumb Code     0  memcpya.o(.text)
    __aeabi_memcpy8                          0x000181fd   Thumb Code     0  memcpya.o(.text)
    __aeabi_memset                           0x00018221   Thumb Code    14  memseta.o(.text)
    __aeabi_memset4                          0x00018221   Thumb Code     0  memseta.o(.text)
    __aeabi_memset8                          0x00018221   Thumb Code     0  memseta.o(.text)
    __aeabi_memclr                           0x0001822f   Thumb Code     4  memseta.o(.text)
    __aeabi_memclr4                          0x0001822f   Thumb Code     0  memseta.o(.text)
    __aeabi_memclr8                          0x0001822f   Thumb Code     0  memseta.o(.text)
    _memset$wrapper                          0x00018233   Thumb Code    18  memseta.o(.text)
    memcmp                                   0x00018245   Thumb Code    26  memcmp.o(.text)
    __aeabi_dadd                             0x00018261   Thumb Code   328  dadd.o(.text)
    __aeabi_dsub                             0x000183a9   Thumb Code    12  dadd.o(.text)
    __aeabi_drsub                            0x000183b5   Thumb Code    12  dadd.o(.text)
    __aeabi_ddiv                             0x000183c5   Thumb Code   234  ddiv.o(.text)
    __ARM_scalbn                             0x000184b5   Thumb Code    44  dscalb.o(.text)
    scalbn                                   0x000184b5   Thumb Code     0  dscalb.o(.text)
    __aeabi_ui2d                             0x000184e1   Thumb Code    24  dfltui.o(.text)
    __aeabi_l2d                              0x000184fd   Thumb Code    38  dfltl.o(.text)
    __aeabi_d2iz                             0x00018529   Thumb Code    62  dfixi.o(.text)
    __aeabi_d2lz                             0x00018571   Thumb Code    72  dfixl.o(.text)
    __aeabi_uldivmod                         0x000185c1   Thumb Code    96  uldiv.o(.text)
    __aeabi_llsl                             0x00018621   Thumb Code    32  llshl.o(.text)
    _ll_shift_l                              0x00018621   Thumb Code     0  llshl.o(.text)
    __aeabi_llsr                             0x00018641   Thumb Code    34  llushr.o(.text)
    _ll_ushift_r                             0x00018641   Thumb Code     0  llushr.o(.text)
    __aeabi_lasr                             0x00018663   Thumb Code    38  llsshr.o(.text)
    _ll_sshift_r                             0x00018663   Thumb Code     0  llsshr.o(.text)
    __I$use$fp                               0x00018689   Thumb Code     0  iusefp.o(.text)
    _double_round                            0x00018689   Thumb Code    26  depilogue.o(.text)
    _double_epilogue                         0x000186a3   Thumb Code   164  depilogue.o(.text)
    __scatterload                            0x00018749   Thumb Code    28  init.o(.text)
    __scatterload_rt2                        0x00018749   Thumb Code     0  init.o(.text)
    __decompress                             0x0001876d   Thumb Code     0  __dczerorl2.o(.text)
    __decompress1                            0x0001876d   Thumb Code    86  __dczerorl2.o(.text)
    GPIOTE_IRQHandler                        0x000187c5   Thumb Code   214  motors.o(i.GPIOTE_IRQHandler)
    HardFault_Handler                        0x000188b5   Thumb Code    30  crashlogger.o(i.HardFault_Handler)
    RADIO_IRQHandler                         0x000188e1   Thumb Code   166  micro_esb.o(i.RADIO_IRQHandler)
    RTC1_IRQHandler                          0x000189b9   Thumb Code    68  timer.o(i.RTC1_IRQHandler)
    SWI2_IRQHandler                          0x00018a0d   Thumb Code   552  bluetooth.o(i.SWI2_IRQHandler)
    SystemInit                               0x00018c75   Thumb Code   108  system_nrf51.o(i.SystemInit)
    TIMER0_IRQHandler                        0x00018cf5   Thumb Code   356  cubes.o(i.TIMER0_IRQHandler)
    UART0_IRQHandler                         0x00018e75   Thumb Code   282  head.o(i.UART0_IRQHandler)
    MD5_Update(MD5_CTX*, const void*, unsigned long) 0x00019011   Thumb Code   126  md5.o(i._Z10MD5_UpdateP7MD5_CTXPKvm)
    gen_random(void*, int)                   0x000190f5   Thumb Code   118  random.o(i._Z10gen_randomPvi)
    sha1_final(SHA1_CTX*, unsigned char*)    0x00019179   Thumb Code   182  sha1.o(i._Z10sha1_finalP8SHA1_CTXPh)
    uesb_start()                             0x00019231   Thumb Code   206  micro_esb.o(i._Z10uesb_startv)
    create_hmac(unsigned char*, const unsigned char*, int, const unsigned char*, int) 0x00019379   Thumb Code   144  hmac.o(i._Z11create_hmacPhPKhiS1_i)
    sha1_update(SHA1_CTX*, const unsigned char*, unsigned) 0x0001942f   Thumb Code    66  sha1.o(i._Z11sha1_updateP8SHA1_CTXPKhj)
    uesb_disable()                           0x00019521   Thumb Code    96  micro_esb.o(i._Z12uesb_disablev)
    aes_fix_block(unsigned char*, int&)      0x000196f9   Thumb Code    40  aes.o(i._Z13aes_fix_blockPhRi)
    aes_cfb_decode(const void*, const void*, const unsigned char*, unsigned char*, int, void*) 0x00019915   Thumb Code   104  aes.o(i._Z14aes_cfb_decodePKvS0_PKhPhiPv)
    aes_cfb_encode(const void*, void*, const unsigned char*, unsigned char*, int) 0x00019981   Thumb Code   116  aes.o(i._Z14aes_cfb_encodePKvPvPKhPhi)
    main_execution()                         0x000199f9   Thumb Code    26  main.o(i._Z14main_executionv)
    sha1_transform(SHA1_CTX*, const unsigned char*) 0x00019a13   Thumb Code   394  sha1.o(i._Z14sha1_transformP8SHA1_CTXPKh)
    dh_encode_random(unsigned char*, int, const unsigned char*) 0x00019c55   Thumb Code    46  diffie.o(i._Z16dh_encode_randomPhiPKh)
    AES128_ECB_encrypt(const unsigned char*, const unsigned char*, unsigned char*) 0x00019c85   Thumb Code    32  aes.o(i._Z18AES128_ECB_encryptPKhS0_Ph)
    aes_message_decode(const unsigned char*, const unsigned char*, int, unsigned char*, int&) 0x00019ca9   Thumb Code    58  packet.o(i._Z18aes_message_decodePKhS0_iPhRi)
    aes_message_encode(const unsigned char*, const unsigned char*, int, unsigned char*, int&) 0x00019ce3   Thumb Code    68  packet.o(i._Z18aes_message_encodePKhS0_iPhRi)
    uesb_event_handler(unsigned)             0x00019d7d   Thumb Code   548  cubes.o(i._Z18uesb_event_handlerj)
    uesb_set_rx_address(const uesb_address_desc_t*) 0x0001a0a9   Thumb Code    18  micro_esb.o(i._Z19uesb_set_rx_addressPK19uesb_address_desc_t)
    uesb_read_rx_payload(uesb_payload_t*)    0x0001a0e1   Thumb Code    82  micro_esb.o(i._Z20uesb_read_rx_payloadP14uesb_payload_t)
    uesb_write_tx_payload(const uesb_address_desc_t*, const void*, unsigned char) 0x0001a14d   Thumb Code    16  micro_esb.o(i._Z21uesb_write_tx_payloadPK19uesb_address_desc_tPKvh)
    uesb_prepare_tx_payload(const uesb_address_desc_t*, const void*, unsigned char) 0x0001a15d   Thumb Code   112  micro_esb.o(i._Z23uesb_prepare_tx_payloadPK19uesb_address_desc_tPKvh)
    MD5_Init(MD5_CTX*)                       0x0001ad21   Thumb Code    24  md5.o(i._Z8MD5_InitP7MD5_CTX)
    MD5_Final(unsigned char*, MD5_CTX*)      0x0001adb5   Thumb Code   212  md5.o(i._Z9MD5_FinalPhP7MD5_CTX)
    sha1_init(SHA1_CTX*)                     0x0001aec5   Thumb Code    46  sha1.o(i._Z9sha1_initP8SHA1_CTX)
    test_hmac(const unsigned char*, const unsigned char*, int, const unsigned char*, int) 0x0001b015   Thumb Code    42  hmac.o(i._Z9test_hmacPKhS0_iS0_i)
    uesb_init(const uesb_config_t*)          0x0001b041   Thumb Code   108  micro_esb.o(i._Z9uesb_initPK13uesb_config_t)
    uesb_stop()                              0x0001b0cd   Thumb Code    36  micro_esb.o(i._Z9uesb_stopv)
    Anki::Cozmo::RobotInterface::SendLog(signed char, unsigned short, unsigned short, unsigned char, ...) 0x0001b105   Thumb Code   124  logging.o(i._ZN4Anki5Cozmo14RobotInterface7SendLogEatthz)
    Anki::Cozmo::HAL::RadioSendMessage(const void*, unsigned short, unsigned char) 0x0001b185   Thumb Code   148  messages.o(i._ZN4Anki5Cozmo3HAL16RadioSendMessageEPKvth)
    Head::enterLowPowerMode()                0x0001b221   Thumb Code    20  head.o(i._ZN4Head17enterLowPowerModeEv)
    Head::init()                             0x0001b239   Thumb Code    76  head.o(i._ZN4Head4initEv)
    Head::manage()                           0x0001b2b1   Thumb Code   112  head.o(i._ZN4Head6manageEv)
    Temp::init()                             0x0001b351   Thumb Code    12  temp.o(i._ZN4Temp4initEv)
    Temp::manage()                           0x0001b365   Thumb Code    44  temp.o(i._ZN4Temp6manageEv)
    Temp::getTemp()                          0x0001b3a1   Thumb Code     6  temp.o(i._ZN4Temp7getTempEv)
    Radio::assignProp(unsigned, unsigned)    0x0001b3ad   Thumb Code    64  cubes.o(i._ZN5Radio10assignPropEjj)
    Radio::setLightGamma(unsigned char)      0x0001b3f1   Thumb Code     8  cubes.o(i._ZN5Radio13setLightGammaEh)
    Radio::setPropLights(unsigned, const Anki::Cozmo::LightState*) 0x0001b3fd   Thumb Code    42  cubes.o(i._ZN5Radio13setPropLightsEjPKN4Anki5Cozmo10LightStateE)
    Radio::init()                            0x0001b42d   Thumb Code    10  cubes.o(i._ZN5Radio4initEv)
    Radio::shutdown()                        0x0001b43d   Thumb Code    20  cubes.o(i._ZN5Radio8shutdownEv)
    Radio::advertise()                       0x0001b459   Thumb Code   194  cubes.o(i._ZN5Radio9advertiseEv)
    Spine::processMessage(void*)             0x0001b551   Thumb Code   360  messages.o(i._ZN5Spine14processMessageEPv)
    Spine::init()                            0x0001b6c9   Thumb Code    24  messages.o(i._ZN5Spine4initEv)
    Spine::dequeue(CladBufferUp*)            0x0001b6e5   Thumb Code    62  messages.o(i._ZN5Spine7dequeueEP12CladBufferUp)
    Tasks::init()                            0x0001b72d   Thumb Code    70  tasks.o(i._ZN5Tasks4initEv)
    Tasks::manage()                          0x0001b77d   Thumb Code   242  tasks.o(i._ZN5Tasks6manageEv)
    Tasks::execute(const Task*)              0x0001b87d   Thumb Code    62  tasks.o(i._ZN5Tasks7executeEPK4Task)
    Timer::init()                            0x0001b8c9   Thumb Code    60  timer.o(i._ZN5Timer4initEv)
    Lights::init()                           0x0001b925   Thumb Code   176  lights.o(i._ZN6Lights4initEv)
    Lights::manage()                         0x0001b9d9   Thumb Code   400  lights.o(i._ZN6Lights6manageEv)
    Lights::update(LightValues&, const Anki::Cozmo::LightState*) 0x0001bb79   Thumb Code   182  lights.o(i._ZN6Lights6updateER11LightValuesPKN4Anki5Cozmo10LightStateE)
    Motors::init()                           0x0001bc31   Thumb Code   214  motors.o(i._ZN6Motors4initEv)
    Motors::manage()                         0x0001bd29   Thumb Code   290  motors.o(i._ZN6Motors6manageEv)
    Motors::disable(bool)                    0x0001be89   Thumb Code    38  motors.o(i._ZN6Motors7disableEb)
    Motors::getSpeed(unsigned char)          0x0001beb5   Thumb Code   100  motors.o(i._ZN6Motors8getSpeedEh)
    Battery::setHeadlight(bool)              0x0001bf25   Thumb Code    18  battery.o(i._ZN7Battery12setHeadlightEb)
    Battery::setOperatingMode(signed char)   0x0001bf3d   Thumb Code     6  battery.o(i._ZN7Battery16setOperatingModeEa)
    Battery::updateOperatingMode()           0x0001bf49   Thumb Code   160  battery.o(i._ZN7Battery19updateOperatingModeEv)
    Battery::init()                          0x0001bffd   Thumb Code   156  battery.o(i._ZN7Battery4initEv)
    Battery::manage()                        0x0001c0cd   Thumb Code   438  battery.o(i._ZN7Battery6manageEv)
    Storage::get(StorageKey)                 0x0001c2c1   Thumb Code     8  storage.o(i._ZN7Storage3getE10StorageKey)
    Storage::get(StorageKey, int&)           0x0001c2cd   Thumb Code    14  storage.o(i._ZN7Storage3getE10StorageKeyRi)
    Storage::set(StorageKey, const void*, int) 0x0001c2e1   Thumb Code    72  storage.o(i._ZN7Storage3setE10StorageKeyPKvi)
    Storage::init()                          0x0001c32d   Thumb Code    80  storage.o(i._ZN7Storage4initEv)
    Backpack::defaultPattern(DefaultBackpackPattern) 0x0001c389   Thumb Code    72  backpack.o(i._ZN8Backpack14defaultPatternE22DefaultBackpackPattern)
    Backpack::init()                         0x0001c3dd   Thumb Code    16  backpack.o(i._ZN8Backpack4initEv)
    Backpack::manage()                       0x0001c3ed   Thumb Code   120  backpack.o(i._ZN8Backpack6manageEv)
    Backpack::update(int)                    0x0001c47d   Thumb Code   200  backpack.o(i._ZN8Backpack6updateEi)
    Backpack::setLights(const Anki::Cozmo::LightState*) 0x0001c561   Thumb Code    36  backpack.o(i._ZN8Backpack9setLightsEPKN4Anki5Cozmo10LightStateE)
    Watchdog::init()                         0x0001c589   Thumb Code    22  watchdog.o(i._ZN8Watchdog4initEv)
    Watchdog::kick(unsigned char)            0x0001c5a9   Thumb Code    12  watchdog.o(i._ZN8Watchdog4kickEh)
    Bluetooth::enterPairing(const Anki::Cozmo::EnterPairing&) 0x0001c5bd   Thumb Code    48  bluetooth.o(i._ZN9Bluetooth12enterPairingERKN4Anki5Cozmo12EnterPairingE)
    Bluetooth::diffieHellmanResults(const Anki::Cozmo::DiffieHellmanResults&) 0x0001c5fd   Thumb Code    48  bluetooth.o(i._ZN9Bluetooth20diffieHellmanResultsERKN4Anki5Cozmo20DiffieHellmanResultsE)
    Bluetooth::init()                        0x0001c63d   Thumb Code    54  bluetooth.o(i._ZN9Bluetooth4initEv)
    Bluetooth::manage()                      0x0001c685   Thumb Code   174  bluetooth.o(i._ZN9Bluetooth6manageEv)
    Bluetooth::enabled()                     0x0001c749   Thumb Code     6  bluetooth.o(i._ZN9Bluetooth7enabledEv)
    Bluetooth::shutdown()                    0x0001c755   Thumb Code    22  bluetooth.o(i._ZN9Bluetooth8shutdownEv)
    Bluetooth::transmit(const unsigned char*, int, unsigned char) 0x0001c771   Thumb Code   144  bluetooth.o(i._ZN9Bluetooth8transmitEPKhih)
    Bluetooth::advertise()                   0x0001c819   Thumb Code   668  bluetooth.o(i._ZN9Bluetooth9advertiseEv)
    Anki::Cozmo::RobotInterface::PrintTrace::Size() const 0x0001cb09   Thumb Code     8  clad.o(i._ZNK4Anki5Cozmo14RobotInterface10PrintTrace4SizeEv)
    Anki::Cozmo::BodyStorageContents::Size() const 0x0001cb11   Thumb Code     6  clad.o(i._ZNK4Anki5Cozmo19BodyStorageContents4SizeEv)
    __ARM_clz                                0x0001cb17   Thumb Code    46  depilogue.o(i.__ARM_clz)
    __ARM_common_ll_mulss                    0x0001cb45   Thumb Code    50  battery.o(i.__ARM_common_ll_mulss)
    __cxa_guard_acquire                      0x0001cb77   Thumb Code    18  cxa_guard_acquire.o(i.__cxa_guard_acquire)
    __scatterload_copy                       0x0001cb89   Thumb Code    14  handlers.o(i.__scatterload_copy)
    __scatterload_null                       0x0001cb97   Thumb Code     2  handlers.o(i.__scatterload_null)
    __scatterload_zeroinit                   0x0001cb99   Thumb Code    14  handlers.o(i.__scatterload_zeroinit)
    ble_advdata_set                          0x0001cee9   Thumb Code   106  ble_advdata.o(i.ble_advdata_set)
    ble_app_timer_manage                     0x0001cf55   Thumb Code   110  conn_params.o(i.ble_app_timer_manage)
    ble_conn_params_init                     0x0001cfd9   Thumb Code    84  conn_params.o(i.ble_conn_params_init)
    ble_conn_params_on_ble_evt               0x0001d039   Thumb Code   132  conn_params.o(i.ble_conn_params_on_ble_evt)
    conn_params_error_handler                0x0001d0c5   Thumb Code    18  bluetooth.o(i.conn_params_error_handler)
    main                                     0x0001d151   Thumb Code    80  main.o(i.main)
    on_conn_params_evt                       0x0001d1a1   Thumb Code    38  bluetooth.o(i.on_conn_params_evt)
    COZMO_UUID_BASE                          0x0001d544   Data          16  settings.o(.constdata)
    COZMO_UUID_SERVICE                       0x0001d554   Data           2  settings.o(.constdata)
    COZMO_UUID_RECEIVE_CHAR                  0x0001d556   Data           2  settings.o(.constdata)
    COZMO_UUID_TRANSMIT_CHAR                 0x0001d558   Data           2  settings.o(.constdata)
    gap_conn_params                          0x0001d55a   Data           8  settings.o(.constdata)
    adv_params                               0x0001d564   Data          24  settings.o(.constdata)
    cp_init                                  0x0001d57c   Data          28  settings.o(.constdata)
    m_sec_params                             0x0001d598   Data           5  settings.o(.constdata)
    DEVICE_NAME                              0x0001d59d   Data           6  settings.o(.constdata)
    DEVICE_NAME_LENGTH                       0x0001d5a4   Data           4  settings.o(.constdata)
    m_manuf_data                             0x0001d5a8   Data          12  settings.o(.constdata)
    m_advdata                                0x0001d5b4   Data          48  settings.o(.constdata)
    __CUBE_XS                                0x0001d934   Data           0  firmware.o(.text)
    __CUBE_XS6                               0x0001dd44   Data           0  firmware.o(.text)
    Region$$Table$$Base                      0x0001e054   Number         0  anon$$obj.o(Region$$Table)
    Region$$Table$$Limit                     0x0001e074   Number         0  anon$$obj.o(Region$$Table)
    Battery::onContacts                      0x20002004   Data           1  battery.o(.data)
    m_pinIndex                               0x20002005   Data           1  battery.o(.data)
    lowPowerMode                             0x20002029   Data           1  head.o(.data)
    Head::spokenTo                           0x2000202a   Data           1  head.o(.data)
    m_lastState                              0x2000203c   Data           4  motors.o(.data)
    g_radiansPerHeadTick                     0x20002040   Data           4  motors.o(.data)
    temperature                              0x200020e8   Data           4  temp.o(.data)
    CRASHLOG_POINTER                         0x200020f8   Data           4  crashlogger.o(.data)
    SystemCoreClock                          0x200020fc   Data           4  system_nrf51.o(.data)
    Bluetooth::service_handle                0x20002106   Data           2  bluetooth.o(.data)
    Bluetooth::conn_handle                   0x20002108   Data           2  bluetooth.o(.data)
    Bluetooth::receive_handles               0x20002118   Data           8  bluetooth.o(.data)
    Bluetooth::transmit_handles              0x20002120   Data           8  bluetooth.o(.data)
    manif_data                               0x20002150   Data           8  settings.o(.data)
    m_uesb_mainstate                         0x20002180   Data           1  micro_esb.o(.data)
    txRxBuffer                               0x200021b8   Data          88  head.o(.bss)
    g_dataToHead                             0x20002210   Data          76  head.o(.bss)
    g_dataToBody                             0x2000225c   Data          56  head.o(.bss)
    lightController                          0x200022a0   Data         924  lights.o(.bss)
    __initial_sp                             0x20003b48   Data           0  startup_nrf51.o(STACK)



==============================================================================

Memory Map of the image

  Image Entry point : 0x000180dd

  Load Region LR_IROM1 (Base: 0x00018000, Size: 0x0000622c, Max: 0x00006c00, ABSOLUTE, COMPRESSED[0x000060b8])

    Execution Region ER_IROM1 (Base: 0x00018000, Size: 0x00006074, Max: 0x00006c00, ABSOLUTE)

    Base Addr    Size         Type   Attr      Idx    E Section Name        Object

    0x00018000   0x000000dc   Data   RO         1495    RESET               startup_nrf51.o
    0x000180dc   0x00000000   Code   RO         3779  * .ARM.Collect$$$$00000000  mc_p.l(entry.o)
    0x000180dc   0x00000004   Code   RO         3810    .ARM.Collect$$$$00000001  mc_p.l(entry2.o)
    0x000180e0   0x00000004   Code   RO         3813    .ARM.Collect$$$$00000004  mc_p.l(entry5.o)
    0x000180e4   0x00000000   Code   RO         3815    .ARM.Collect$$$$00000008  mc_p.l(entry7b.o)
    0x000180e4   0x00000000   Code   RO         3817    .ARM.Collect$$$$0000000A  mc_p.l(entry8b.o)
    0x000180e4   0x00000008   Code   RO         3818    .ARM.Collect$$$$0000000B  mc_p.l(entry9a.o)
    0x000180ec   0x00000000   Code   RO         3820    .ARM.Collect$$$$0000000D  mc_p.l(entry10a.o)
    0x000180ec   0x00000000   Code   RO         3822    .ARM.Collect$$$$0000000F  mc_p.l(entry11a.o)
    0x000180ec   0x00000004   Code   RO         3811    .ARM.Collect$$$$00002712  mc_p.l(entry2.o)
    0x000180f0   0x0000001e   Code   RO          968    .emb_text           timer.o
    0x0001810e   0x00000002   PAD
    0x00018110   0x0000004c   Code   RO         1496    .text               startup_nrf51.o
    0x0001815c   0x0000002c   Code   RO         3782    .text               mc_p.l(uidiv.o)
    0x00018188   0x00000028   Code   RO         3784    .text               mc_p.l(idiv.o)
    0x000181b0   0x0000004c   Code   RO         3786    .text               mc_p.l(ldiv.o)
    0x000181fc   0x00000024   Code   RO         3788    .text               mc_p.l(memcpya.o)
    0x00018220   0x00000024   Code   RO         3790    .text               mc_p.l(memseta.o)
    0x00018244   0x0000001a   Code   RO         3792    .text               mc_p.l(memcmp.o)
    0x0001825e   0x00000002   PAD
    0x00018260   0x00000164   Code   RO         3796    .text               mf_p.l(dadd.o)
    0x000183c4   0x000000f0   Code   RO         3798    .text               mf_p.l(ddiv.o)
    0x000184b4   0x0000002c   Code   RO         3800    .text               mf_p.l(dscalb.o)
    0x000184e0   0x0000001c   Code   RO         3802    .text               mf_p.l(dfltui.o)
    0x000184fc   0x0000002c   Code   RO         3804    .text               mf_p.l(dfltl.o)
    0x00018528   0x00000048   Code   RO         3806    .text               mf_p.l(dfixi.o)
    0x00018570   0x00000050   Code   RO         3808    .text               mf_p.l(dfixl.o)
    0x000185c0   0x00000060   Code   RO         3824    .text               mc_p.l(uldiv.o)
    0x00018620   0x00000020   Code   RO         3826    .text               mc_p.l(llshl.o)
    0x00018640   0x00000022   Code   RO         3828    .text               mc_p.l(llushr.o)
    0x00018662   0x00000026   Code   RO         3830    .text               mc_p.l(llsshr.o)
    0x00018688   0x00000000   Code   RO         3832    .text               mc_p.l(iusefp.o)
    0x00018688   0x000000be   Code   RO         3833    .text               mf_p.l(depilogue.o)
    0x00018746   0x00000002   PAD
    0x00018748   0x00000024   Code   RO         3837    .text               mc_p.l(init.o)
    0x0001876c   0x00000056   Code   RO         3847    .text               mc_p.l(__dczerorl2.o)
    0x000187c2   0x00000002   PAD
    0x000187c4   0x000000f0   Code   RO          776    i.GPIOTE_IRQHandler  motors.o
    0x000188b4   0x0000002c   Code   RO         1465    i.HardFault_Handler  crashlogger.o
    0x000188e0   0x000000d8   Code   RO         3497    i.RADIO_IRQHandler  micro_esb.o
    0x000189b8   0x00000054   Code   RO          969    i.RTC1_IRQHandler   timer.o
    0x00018a0c   0x00000268   Code   RO         1568    i.SWI2_IRQHandler   bluetooth.o
    0x00018c74   0x00000080   Code   RO         1503    i.SystemInit        system_nrf51.o
    0x00018cf4   0x00000180   Code   RO         3602    i.TIMER0_IRQHandler  cubes.o
    0x00018e74   0x00000158   Code   RO          327    i.UART0_IRQHandler  head.o
    0x00018fcc   0x00000044   Code   RO         3603    i._Z10EnterState10RadioState  cubes.o
    0x00019010   0x0000007e   Code   RO         3415    i._Z10MD5_UpdateP7MD5_CTXPKvm  md5.o
    0x0001908e   0x00000002   PAD
    0x00019090   0x00000064   Code   RO            3    i._Z10calcResulti   battery.o
    0x000190f4   0x00000084   Code   RO         3356    i._Z10gen_randomPvi  random.o
    0x00019178   0x000000b6   Code   RO         3375    i._Z10sha1_finalP8SHA1_CTXPh  sha1.o
    0x0001922e   0x00000002   PAD
    0x00019230   0x00000108   Code   RO         3498    i._Z10uesb_startv   micro_esb.o
    0x00019338   0x00000040   Code   RO         3001    i._Z11AddRoundKeyh  aes.o
    0x00019378   0x00000090   Code   RO         3451    i._Z11create_hmacPhPKhiS1_i  hmac.o
    0x00019408   0x00000026   Code   RO         1569    i._Z11dh_completePKv  bluetooth.o
    0x0001942e   0x00000042   Code   RO         3376    i._Z11sha1_updateP8SHA1_CTXPKhj  sha1.o
    0x00019470   0x000000b0   Code   RO         3003    i._Z12KeyExpansionv  aes.o
    0x00019520   0x00000080   Code   RO         3499    i._Z12uesb_disablev  micro_esb.o
    0x000195a0   0x00000158   Code   RO          777    i._Z13ConfigureTaskhPVj  motors.o
    0x000196f8   0x00000028   Code   RO         3005    i._Z13aes_fix_blockPhRi  aes.o
    0x00019720   0x00000074   Code   RO         1249    i._Z13setup_storagev  storage.o
    0x00019794   0x00000104   Code   RO         1250    i._Z13storage_levelv  storage.o
    0x00019898   0x0000007c   Code   RO          778    i._Z14ConfigureTimerP14NRF_TIMER_Typehh  motors.o
    0x00019914   0x0000006c   Code   RO         3006    i._Z14aes_cfb_decodePKvS0_PKhPhiPv  aes.o
    0x00019980   0x00000078   Code   RO         3007    i._Z14aes_cfb_encodePKvPvPKhPhi  aes.o
    0x000199f8   0x0000001a   Code   RO          580    i._Z14main_executionv  main.o
    0x00019a12   0x0000018a   Code   RO         3377    i._Z14sha1_transformP8SHA1_CTXPKh  sha1.o
    0x00019b9c   0x00000038   Code   RO            4    i._Z14startADCsample11AnalogInput  battery.o
    0x00019bd4   0x00000080   Code   RO          328    i._Z15setTransmitMode13TRANSMIT_MODE  head.o
    0x00019c54   0x0000002e   Code   RO         3318    i._Z16dh_encode_randomPhiPKh  diffie.o
    0x00019c82   0x00000002   PAD
    0x00019c84   0x00000024   Code   RO         3009    i._Z18AES128_ECB_encryptPKhS0_Ph  aes.o
    0x00019ca8   0x0000003a   Code   RO         3474    i._Z18aes_message_decodePKhS0_iPhRi  packet.o
    0x00019ce2   0x00000044   Code   RO         3475    i._Z18aes_message_encodePKhS0_iPhRi  packet.o
    0x00019d26   0x00000002   PAD
    0x00019d28   0x00000054   Code   RO         1251    i._Z18storage_write_wordPjj  storage.o
    0x00019d7c   0x0000023c   Code   RO         3604    i._Z18uesb_event_handlerj  cubes.o
    0x00019fb8   0x0000006c   Code   RO         3500    i._Z19configure_addressesPK19uesb_address_desc_t  micro_esb.o
    0x0001a024   0x00000044   Code   RO         1570    i._Z19frame_data_receivedPKv  bluetooth.o
    0x0001a068   0x00000040   Code   RO         3605    i._Z19ota_send_next_blockv  cubes.o
    0x0001a0a8   0x00000018   Code   RO         3501    i._Z19uesb_set_rx_addressPK19uesb_address_desc_t  micro_esb.o
    0x0001a0c0   0x00000020   Code   RO         1571    i._Z20send_welcome_messagePKv  bluetooth.o
    0x0001a0e0   0x0000006c   Code   RO         3502    i._Z20uesb_read_rx_payloadP14uesb_payload_t  micro_esb.o
    0x0001a14c   0x00000010   Code   RO         3503    i._Z21uesb_write_tx_payloadPK19uesb_address_desc_tPKvh  micro_esb.o
    0x0001a15c   0x00000088   Code   RO         3504    i._Z23uesb_prepare_tx_payloadPK19uesb_address_desc_tPKvh  micro_esb.o
    0x0001a1e4   0x00000030   Code   RO         3606    i._Z25SendObjectConnectionStatei  cubes.o
    0x0001a214   0x00000018   Code   RO         1572    i._Z26start_message_transmissionPKv  bluetooth.o
    0x0001a22c   0x0000001c   Code   RO         1573    i._Z28softdevice_assertion_handlerjtPKh  bluetooth.o
    0x0001a248   0x000009d8   Code   RO         3416    i._Z4bodyP7MD5_CTXPKvm  md5.o
    0x0001ac20   0x00000100   Code   RO         3010    i._Z6Cipherv        aes.o
    0x0001ad20   0x00000028   Code   RO         3417    i._Z8MD5_InitP7MD5_CTX  md5.o
    0x0001ad48   0x0000006c   Code   RO         1574    i._Z8dh_setupPKv    bluetooth.o
    0x0001adb4   0x000000d4   Code   RO         3418    i._Z9MD5_FinalPhP7MD5_CTX  md5.o
    0x0001ae88   0x0000003c   Code   RO         3011    i._Z9ShiftRowsv     aes.o
    0x0001aec4   0x00000054   Code   RO         3378    i._Z9sha1_initP8SHA1_CTX  sha1.o
    0x0001af18   0x000000fc   Code   RO         1252    i._Z9store_key10StorageKeyPKvi  storage.o
    0x0001b014   0x0000002a   Code   RO         3452    i._Z9test_hmacPKhS0_iS0_i  hmac.o
    0x0001b03e   0x00000002   PAD
    0x0001b040   0x0000008c   Code   RO         3505    i._Z9uesb_initPK13uesb_config_t  micro_esb.o
    0x0001b0cc   0x00000038   Code   RO         3506    i._Z9uesb_stopv     micro_esb.o
    0x0001b104   0x00000080   Code   RO         1011    i._ZN4Anki5Cozmo14RobotInterface7SendLogEatthz  logging.o
    0x0001b184   0x0000009c   Code   RO         2001    i._ZN4Anki5Cozmo3HAL16RadioSendMessageEPKvth  messages.o
    0x0001b220   0x00000018   Code   RO          329    i._ZN4Head17enterLowPowerModeEv  head.o
    0x0001b238   0x00000078   Code   RO          331    i._ZN4Head4initEv   head.o
    0x0001b2b0   0x000000a0   Code   RO          332    i._ZN4Head6manageEv  head.o
    0x0001b350   0x00000014   Code   RO         1317    i._ZN4Temp4initEv   temp.o
    0x0001b364   0x0000003c   Code   RO         1318    i._ZN4Temp6manageEv  temp.o
    0x0001b3a0   0x0000000c   Code   RO         1319    i._ZN4Temp7getTempEv  temp.o
    0x0001b3ac   0x00000044   Code   RO         3607    i._ZN5Radio10assignPropEjj  cubes.o
    0x0001b3f0   0x0000000c   Code   RO         3608    i._ZN5Radio13setLightGammaEh  cubes.o
    0x0001b3fc   0x00000030   Code   RO         3609    i._ZN5Radio13setPropLightsEjPKN4Anki5Cozmo10LightStateE  cubes.o
    0x0001b42c   0x00000010   Code   RO         3610    i._ZN5Radio4initEv  cubes.o
    0x0001b43c   0x0000001c   Code   RO         3611    i._ZN5Radio8shutdownEv  cubes.o
    0x0001b458   0x000000f8   Code   RO         3612    i._ZN5Radio9advertiseEv  cubes.o
    0x0001b550   0x00000178   Code   RO         2002    i._ZN5Spine14processMessageEPv  messages.o
    0x0001b6c8   0x0000001c   Code   RO         2003    i._ZN5Spine4initEv  messages.o
    0x0001b6e4   0x00000048   Code   RO         2004    i._ZN5Spine7dequeueEP12CladBufferUp  messages.o
    0x0001b72c   0x00000050   Code   RO         1401    i._ZN5Tasks4initEv  tasks.o
    0x0001b77c   0x00000100   Code   RO         1402    i._ZN5Tasks6manageEv  tasks.o
    0x0001b87c   0x0000004c   Code   RO         1404    i._ZN5Tasks7executeEPK4Task  tasks.o
    0x0001b8c8   0x0000005c   Code   RO          970    i._ZN5Timer4initEv  timer.o
    0x0001b924   0x000000b4   Code   RO         1202    i._ZN6Lights4initEv  lights.o
    0x0001b9d8   0x000001a0   Code   RO         1203    i._ZN6Lights6manageEv  lights.o
    0x0001bb78   0x000000b6   Code   RO         1204    i._ZN6Lights6updateER11LightValuesPKN4Anki5Cozmo10LightStateE  lights.o
    0x0001bc2e   0x00000002   PAD
    0x0001bc30   0x000000f8   Code   RO          781    i._ZN6Motors4initEv  motors.o
    0x0001bd28   0x00000160   Code   RO          782    i._ZN6Motors6manageEv  motors.o
    0x0001be88   0x0000002c   Code   RO          783    i._ZN6Motors7disableEb  motors.o
    0x0001beb4   0x00000070   Code   RO          784    i._ZN6Motors8getSpeedEh  motors.o
    0x0001bf24   0x00000018   Code   RO            5    i._ZN7Battery12setHeadlightEb  battery.o
    0x0001bf3c   0x0000000c   Code   RO            6    i._ZN7Battery16setOperatingModeEa  battery.o
    0x0001bf48   0x000000b4   Code   RO            7    i._ZN7Battery19updateOperatingModeEv  battery.o
    0x0001bffc   0x000000d0   Code   RO            8    i._ZN7Battery4initEv  battery.o
    0x0001c0cc   0x000001f4   Code   RO            9    i._ZN7Battery6manageEv  battery.o
    0x0001c2c0   0x0000000c   Code   RO         1253    i._ZN7Storage3getE10StorageKey  storage.o
    0x0001c2cc   0x00000014   Code   RO         1254    i._ZN7Storage3getE10StorageKeyRi  storage.o
    0x0001c2e0   0x0000004c   Code   RO         1255    i._ZN7Storage3setE10StorageKeyPKvi  storage.o
    0x0001c32c   0x0000005c   Code   RO         1256    i._ZN7Storage4initEv  storage.o
    0x0001c388   0x00000054   Code   RO         1097    i._ZN8Backpack14defaultPatternE22DefaultBackpackPattern  backpack.o
    0x0001c3dc   0x00000010   Code   RO         1098    i._ZN8Backpack4initEv  backpack.o
    0x0001c3ec   0x00000090   Code   RO         1100    i._ZN8Backpack6manageEv  backpack.o
    0x0001c47c   0x000000e4   Code   RO         1101    i._ZN8Backpack6updateEi  backpack.o
    0x0001c560   0x00000028   Code   RO         1102    i._ZN8Backpack9setLightsEPKN4Anki5Cozmo10LightStateE  backpack.o
    0x0001c588   0x00000020   Code   RO         1355    i._ZN8Watchdog4initEv  watchdog.o
    0x0001c5a8   0x00000014   Code   RO         1356    i._ZN8Watchdog4kickEh  watchdog.o
    0x0001c5bc   0x00000040   Code   RO         1575    i._ZN9Bluetooth12enterPairingERKN4Anki5Cozmo12EnterPairingE  bluetooth.o
    0x0001c5fc   0x00000040   Code   RO         1576    i._ZN9Bluetooth20diffieHellmanResultsERKN4Anki5Cozmo20DiffieHellmanResultsE  bluetooth.o
    0x0001c63c   0x00000048   Code   RO         1577    i._ZN9Bluetooth4initEv  bluetooth.o
    0x0001c684   0x000000c4   Code   RO         1578    i._ZN9Bluetooth6manageEv  bluetooth.o
    0x0001c748   0x0000000c   Code   RO         1579    i._ZN9Bluetooth7enabledEv  bluetooth.o
    0x0001c754   0x0000001c   Code   RO         1580    i._ZN9Bluetooth8shutdownEv  bluetooth.o
    0x0001c770   0x000000a8   Code   RO         1581    i._ZN9Bluetooth8transmitEPKhih  bluetooth.o
    0x0001c818   0x000002f0   Code   RO         1582    i._ZN9Bluetooth9advertiseEv  bluetooth.o
    0x0001cb08   0x00000008   Code   RO         2098    i._ZNK4Anki5Cozmo14RobotInterface10PrintTrace4SizeEv  clad.o
    0x0001cb10   0x00000006   Code   RO         2120    i._ZNK4Anki5Cozmo19BodyStorageContents4SizeEv  clad.o
    0x0001cb16   0x0000002e   Code   RO         3835    i.__ARM_clz         mf_p.l(depilogue.o)
    0x0001cb44   0x00000032   Code   RO           76    i.__ARM_common_ll_mulss  battery.o
    0x0001cb76   0x00000012   Code   RO         3773    i.__cxa_guard_acquire  cpprt_p.l(cxa_guard_acquire.o)
    0x0001cb88   0x0000000e   Code   RO         3841    i.__scatterload_copy  mc_p.l(handlers.o)
    0x0001cb96   0x00000002   Code   RO         3842    i.__scatterload_null  mc_p.l(handlers.o)
    0x0001cb98   0x0000000e   Code   RO         3843    i.__scatterload_zeroinit  mc_p.l(handlers.o)
    0x0001cba6   0x00000002   PAD
    0x0001cba8   0x00000340   Code   RO         1783    i.adv_data_encode   ble_advdata.o
    0x0001cee8   0x0000006a   Code   RO         1784    i.ble_advdata_set   ble_advdata.o
    0x0001cf52   0x00000002   PAD
    0x0001cf54   0x00000084   Code   RO         1937    i.ble_app_timer_manage  conn_params.o
    0x0001cfd8   0x00000060   Code   RO         1939    i.ble_conn_params_init  conn_params.o
    0x0001d038   0x0000008c   Code   RO         1940    i.ble_conn_params_on_ble_evt  conn_params.o
    0x0001d0c4   0x0000001c   Code   RO         1584    i.conn_params_error_handler  bluetooth.o
    0x0001d0e0   0x00000070   Code   RO         1942    i.conn_params_negotiation  conn_params.o
    0x0001d150   0x00000050   Code   RO          581    i.main              main.o
    0x0001d1a0   0x00000034   Code   RO         1585    i.on_conn_params_evt  bluetooth.o
    0x0001d1d4   0x000000a6   Code   RO         1785    i.uuid_list_sized_encode  ble_advdata.o
    0x0001d27a   0x00000018   Data   RO          798    .constdata          motors.o
    0x0001d292   0x00000002   PAD
    0x0001d294   0x000000a8   Data   RO         1110    .constdata          backpack.o
    0x0001d33c   0x00000200   Data   RO         1209    .constdata          lights.o
    0x0001d53c   0x00000008   Data   RO         1605    .constdata          bluetooth.o
    0x0001d544   0x00000010   Data   RO         1858    .constdata          settings.o
    0x0001d554   0x00000002   Data   RO         1859    .constdata          settings.o
    0x0001d556   0x00000002   Data   RO         1860    .constdata          settings.o
    0x0001d558   0x00000002   Data   RO         1861    .constdata          settings.o
    0x0001d55a   0x00000008   Data   RO         1862    .constdata          settings.o
    0x0001d562   0x00000002   PAD
    0x0001d564   0x00000018   Data   RO         1863    .constdata          settings.o
    0x0001d57c   0x0000001c   Data   RO         1864    .constdata          settings.o
    0x0001d598   0x00000005   Data   RO         1865    .constdata          settings.o
    0x0001d59d   0x00000006   Data   RO         1866    .constdata          settings.o
    0x0001d5a3   0x00000001   PAD
    0x0001d5a4   0x00000004   Data   RO         1867    .constdata          settings.o
    0x0001d5a8   0x0000000c   Data   RO         1868    .constdata          settings.o
    0x0001d5b4   0x00000030   Data   RO         1869    .constdata          settings.o
    0x0001d5e4   0x000002ff   Data   RO         3024    .constdata          aes.o
    0x0001d8e3   0x00000001   PAD
    0x0001d8e4   0x00000050   Data   RO         3625    .constdata          cubes.o
    0x0001d934   0x00000720   Data   RO         3494    .text               firmware.o
    0x0001e054   0x00000020   Data   RO         3839    Region$$Table       anon$$obj.o


    Execution Region RW_IRAM1 (Base: 0x20002000, Size: 0x00001b48, Max: 0x00001ffc, ABSOLUTE, COMPRESSED[0x00000044])

    Base Addr    Size         Type   Attr      Idx    E Section Name        Object

    0x20002000   0x00000028   Data   RW           23    .data               battery.o
    0x20002028   0x00000010   Data   RW          340    .data               head.o
    0x20002038   0x0000007c   Data   RW          799    .data               motors.o
    0x200020b4   0x00000004   Data   RW          973    .data               timer.o
    0x200020b8   0x00000004   Data   RW         1013    .data               logging.o
    0x200020bc   0x00000014   Data   RW         1111    .data               backpack.o
    0x200020d0   0x0000000c   Data   RW         1210    .data               lights.o
    0x200020dc   0x0000000c   Data   RW         1266    .data               storage.o
    0x200020e8   0x00000004   Data   RW         1323    .data               temp.o
    0x200020ec   0x0000000c   Data   RW         1410    .data               tasks.o
    0x200020f8   0x00000004   Data   RW         1467    .data               crashlogger.o
    0x200020fc   0x00000004   Data   RW         1504    .data               system_nrf51.o
    0x20002100   0x00000050   Data   RW         1606    .data               bluetooth.o
    0x20002150   0x00000008   Data   RW         1870    .data               settings.o
    0x20002158   0x00000016   Data   RW         1944    .data               conn_params.o
    0x2000216e   0x00000002   PAD
    0x20002170   0x00000008   Data   RW         2010    .data               messages.o
    0x20002178   0x00000008   Data   RW         3025    .data               aes.o
    0x20002180   0x00000001   Data   RW         3518    .data               micro_esb.o
    0x20002181   0x00000003   PAD
    0x20002184   0x00000034   Data   RW         3626    .data               cubes.o
    0x200021b8   0x000000dc   Zero   RW          339    .bss                head.o
    0x20002294   0x0000000c   Zero   RW         1109    .bss                backpack.o
    0x200022a0   0x0000039c   Zero   RW         1208    .bss                lights.o
    0x2000263c   0x00000018   Zero   RW         1265    .bss                storage.o
    0x20002654   0x00000030   Zero   RW         1409    .bss                tasks.o
    0x20002684   0x000002ec   Zero   RW         1604    .bss                bluetooth.o
    0x20002970   0x0000001c   Zero   RW         1943    .bss                conn_params.o
    0x2000298c   0x00000098   Zero   RW         2009    .bss                messages.o
    0x20002a24   0x000000b0   Zero   RW         3023    .bss                aes.o
    0x20002ad4   0x00000374   Zero   RW         3517    .bss                micro_esb.o
    0x20002e48   0x000000fc   Zero   RW         3624    .bss                cubes.o
    0x20002f44   0x00000004   PAD
    0x20002f48   0x00000c00   Zero   RW         1493    STACK               startup_nrf51.o


==============================================================================

Image component sizes


      Code (inc. data)   RO Data    RW Data    ZI Data      Debug   Object Name

       860         54        767          8        176       9155   aes.o
       512         68        168         20         12      13568   backpack.o
      1130        182          0         40          0     115944   battery.o
      1104          6          0          0          0      39150   ble_advdata.o
      2350        320          8         80        748      75885   bluetooth.o
        14          0          0          0          0      66404   clad.o
       480         64          0         22         28      11586   conn_params.o
        44         14          0          4          0       9267   crashlogger.o
      1556        164         80         52        252      79885   cubes.o
        46          0          0          0          0       3871   diffie.o
         0          0       1824          0          0          0   firmware.o
       776        190          0         16        220     109219   head.o
       186          0          0          0          0       2290   hmac.o
       778         20        512         12        924       5799   lights.o
       128          4          0          4          0      46810   logging.o
       106          0          0          0          0      84756   main.o
      2898        274          0          0          0       5112   md5.o
       632         48          0          8        152      48057   messages.o
      1196        266          0          1        884      34199   micro_esb.o
      1464        174         24        124          0     107582   motors.o
       126          0          0          0          0       1974   packet.o
       132         14          0          0          0       1537   random.o
         0          0        157          8          0      10541   settings.o
       726         38          0          0          0       5360   sha1.o
        76         24        220          0       3072        432   startup_nrf51.o
       912         78          0         12         24       7352   storage.o
       128         20          0          4          0       5871   system_nrf51.o
       412         44          0         12         48       5612   tasks.o
        92         30          0          4          0       1286   temp.o
       206         48          0          4          0       9329   timer.o
        52         18          0          0          0      18907   watchdog.o

    ----------------------------------------------------------------------
     19138       2162       3798        440       6544     936740   Object Totals
         0          0         32          0          0          0   (incl. Generated)
        16          0          6          5          4          0   (incl. Padding)

    ----------------------------------------------------------------------

      Code (inc. data)   RO Data    RW Data    ZI Data      Debug   Library Member Name

        18          0          0          0          0         60   cxa_guard_acquire.o
        86          0          0          0          0          0   __dczerorl2.o
         0          0          0          0          0          0   entry.o
         0          0          0          0          0          0   entry10a.o
         0          0          0          0          0          0   entry11a.o
         8          4          0          0          0          0   entry2.o
         4          0          0          0          0          0   entry5.o
         0          0          0          0          0          0   entry7b.o
         0          0          0          0          0          0   entry8b.o
         8          4          0          0          0          0   entry9a.o
        30          0          0          0          0          0   handlers.o
        40          0          0          0          0         72   idiv.o
        36          8          0          0          0         68   init.o
         0          0          0          0          0          0   iusefp.o
        76          0          0          0          0         76   ldiv.o
        32          0          0          0          0         68   llshl.o
        38          0          0          0          0         68   llsshr.o
        34          0          0          0          0         68   llushr.o
        26          0          0          0          0         72   memcmp.o
        36          0          0          0          0         60   memcpya.o
        36          0          0          0          0        100   memseta.o
        44          0          0          0          0         72   uidiv.o
        96          0          0          0          0         84   uldiv.o
       356          4          0          0          0        140   dadd.o
       240          6          0          0          0         84   ddiv.o
       236          0          0          0          0        216   depilogue.o
        72         10          0          0          0         72   dfixi.o
        80          8          0          0          0         72   dfixl.o
        44          6          0          0          0         72   dfltl.o
        28          4          0          0          0         68   dfltui.o
        44          0          0          0          0         72   dscalb.o

    ----------------------------------------------------------------------
      1756         54          0          0          0       1664   Library Totals
         8          0          0          0          0          0   (incl. Padding)

    ----------------------------------------------------------------------

      Code (inc. data)   RO Data    RW Data    ZI Data      Debug   Library Name

        18          0          0          0          0         60   cpprt_p.l
       630         16          0          0          0        808   mc_p.l
      1100         38          0          0          0        796   mf_p.l

    ----------------------------------------------------------------------
      1756         54          0          0          0       1664   Library Totals

    ----------------------------------------------------------------------

==============================================================================


      Code (inc. data)   RO Data    RW Data    ZI Data      Debug   

     20894       2216       3798        440       6544     932416   Grand Totals
     20894       2216       3798         68       6544     932416   ELF Image Totals (compressed)
     20894       2216       3798         68          0          0   ROM Totals

==============================================================================

    Total RO  Size (Code + RO Data)                24692 (  24.11kB)
    Total RW  Size (RW Data + ZI Data)              6984 (   6.82kB)
    Total ROM Size (Code + RO Data + RW Data)      24760 (  24.18kB)

==============================================================================

