MODULE mac x86_64 8FBDB7504EA93950A069A7866238C1690 crash
FUNC 1350 1a 0 <name omitted>
FUNC 1370 1a 0 google_breakpad::MinidumpFileWriter::MinidumpFileWriter()
FUNC 1390 36 0 <name omitted>
FUNC 13d0 33 0 google_breakpad::MinidumpFileWriter::Close()
FUNC 1410 36 0 google_breakpad::MinidumpFileWriter::~MinidumpFileWriter()
FUNC 1450 49 0 google_breakpad::MinidumpFileWriter::Open(char const*)
FUNC 14a0 2d 0 google_breakpad::MinidumpFileWriter::SetFile(int)
FUNC 14d0 150 0 google_breakpad::MinidumpFileWriter::CopyStringToMDString(wchar_t const*, unsigned int, google_breakpad::TypedMDRVA<MDString>*)
FUNC 1620 147 0 google_breakpad::MinidumpFileWriter::CopyStringToMDString(char const*, unsigned int, google_breakpad::TypedMDRVA<MDString>*)
FUNC 1770 5 0 google_breakpad::MinidumpFileWriter::WriteString(wchar_t const*, unsigned int, MDLocationDescriptor*)
FUNC 1780 2cb 0 bool google_breakpad::MinidumpFileWriter::WriteStringCore<wchar_t>(wchar_t const*, unsigned int, MDLocationDescriptor*)
FUNC 1a50 5 0 google_breakpad::MinidumpFileWriter::WriteString(char const*, unsigned int, MDLocationDescriptor*)
FUNC 1a60 2cb 0 bool google_breakpad::MinidumpFileWriter::WriteStringCore<char>(char const*, unsigned int, MDLocationDescriptor*)
FUNC 1d30 c2 0 google_breakpad::MinidumpFileWriter::WriteMemory(void const*, unsigned long, MDMemoryDescriptor*)
FUNC 1e00 104 0 google_breakpad::UntypedMDRVA::Allocate(unsigned long)
FUNC 1f10 b4 0 google_breakpad::MinidumpFileWriter::Allocate(unsigned long)
FUNC 1fd0 c8 0 google_breakpad::MinidumpFileWriter::Copy(unsigned int, void const*, long)
FUNC 20a0 f3 0 google_breakpad::UntypedMDRVA::Copy(unsigned int, void const*, unsigned long)
FUNC 21a0 19c 0 google_breakpad::CrashGenerationClient::RequestDumpForException(int, int, int, unsigned int)
FUNC 2340 b5 0 google_breakpad::ReadTaskMemory(unsigned int, unsigned long long, unsigned long, std::__1::vector<unsigned char, std::__1::allocator<unsigned char> >&)
FUNC 2400 1ba 0 google_breakpad::DynamicImage::CalculateMemoryAndVersionInfo()
FUNC 25c0 7 0 <name omitted>
FUNC 25d0 9e 0 google_breakpad::DynamicImages::DynamicImages(unsigned int)
FUNC 2670 d6 0 google_breakpad::DynamicImages::DetermineTaskCPUType(unsigned int)
FUNC 2750 56 0 google_breakpad::DynamicImages::ReadImageInfoForTask()
FUNC 27b0 5 0 google_breakpad::DynamicImages::DynamicImages(unsigned int)
FUNC 27c0 34 0 google_breakpad::DynamicImages::GetDyldAllImageInfosPointer()
FUNC 2800 582 0 void google_breakpad::ReadImageInfo<google_breakpad::MachO64>(google_breakpad::DynamicImages&, unsigned long long)
FUNC 2d90 582 0 void google_breakpad::ReadImageInfo<google_breakpad::MachO32>(google_breakpad::DynamicImages&, unsigned long long)
FUNC 3320 4a 0 google_breakpad::DynamicImages::GetExecutableImage()
FUNC 3370 39 0 google_breakpad::DynamicImages::GetExecutableImageIndex()
FUNC 33b0 1d7 0 std::__1::vector<unsigned char, std::__1::allocator<unsigned char> >::__append(unsigned long)
FUNC 3590 182 0 std::__1::vector<google_breakpad::DynamicImageRef, std::__1::allocator<google_breakpad::DynamicImageRef> >::reserve(unsigned long)
FUNC 3720 22a 0 google_breakpad::ReadTaskString(unsigned int, unsigned long long)
FUNC 3950 121 0 google_breakpad::DynamicImage::DynamicImage(unsigned char*, unsigned long, unsigned long long, std::__1::basic_string<char, std::__1::char_traits<char>, std::__1::allocator<char> >, unsigned long, unsigned int, int)
FUNC 3a80 1c9 0 void std::__1::vector<google_breakpad::DynamicImageRef, std::__1::allocator<google_breakpad::DynamicImageRef> >::__push_back_slow_path<google_breakpad::DynamicImageRef>(google_breakpad::DynamicImageRef&&)
FUNC 3c50 605 0 void std::__1::__sort<std::__1::__less<google_breakpad::DynamicImageRef, google_breakpad::DynamicImageRef>&, google_breakpad::DynamicImageRef*>(google_breakpad::DynamicImageRef*, google_breakpad::DynamicImageRef*, std::__1::__less<google_breakpad::DynamicImageRef, google_breakpad::DynamicImageRef>&)
FUNC 4270 148 0 unsigned int std::__1::__sort5<std::__1::__less<google_breakpad::DynamicImageRef, google_breakpad::DynamicImageRef>&, google_breakpad::DynamicImageRef*>(google_breakpad::DynamicImageRef*, google_breakpad::DynamicImageRef*, google_breakpad::DynamicImageRef*, google_breakpad::DynamicImageRef*, google_breakpad::DynamicImageRef*, std::__1::__less<google_breakpad::DynamicImageRef, google_breakpad::DynamicImageRef>&)
FUNC 43c0 2cb 0 bool std::__1::__insertion_sort_incomplete<std::__1::__less<google_breakpad::DynamicImageRef, google_breakpad::DynamicImageRef>&, google_breakpad::DynamicImageRef*>(google_breakpad::DynamicImageRef*, google_breakpad::DynamicImageRef*, std::__1::__less<google_breakpad::DynamicImageRef, google_breakpad::DynamicImageRef>&)
FUNC 46b0 5 0 <name omitted>
FUNC 46c0 20 0 google_breakpad::catch_exception_raise
FUNC 46e0 fb 0 google_breakpad::ForwardException(unsigned int, unsigned int, int, int*, unsigned int)
FUNC 47e0 24d 0 google_breakpad::ExceptionHandler::ExceptionHandler(std::__1::basic_string<char, std::__1::char_traits<char>, std::__1::allocator<char> > const&, bool (*)(void*), bool (*)(char const*, char const*, void*, bool), void*, bool, char const*)
FUNC 4a30 116 0 google_breakpad::ExceptionHandler::Setup(bool)
FUNC 4b50 e 0 google_breakpad::scoped_ptr<google_breakpad::CrashGenerationClient>::~scoped_ptr()
FUNC 4b60 e 0 google_breakpad::scoped_ptr<sigaction>::~scoped_ptr()
FUNC 4b70 9 0 <name omitted>
FUNC 4b80 151 0 google_breakpad::ExceptionHandler::ExceptionHandler(bool (*)(void*, int, int, int, unsigned int), void*, bool)
FUNC 4ce0 8 0 google_breakpad::ExceptionHandler::ExceptionHandler(bool (*)(void*, int, int, int, unsigned int), void*, bool)
FUNC 4cf0 182 0 google_breakpad::ExceptionHandler::~ExceptionHandler()
FUNC 4e80 f8 0 google_breakpad::ExceptionHandler::Teardown()
FUNC 4f90 5 0 <name omitted>
FUNC 4fa0 1a4 0 google_breakpad::ExceptionHandler::WriteMinidump(bool)
FUNC 5150 ae 0 google_breakpad::ExceptionHandler::SendMessageToHandlerThread(google_breakpad::HandlerThreadMessage)
FUNC 5200 a6 0 google_breakpad::ExceptionHandler::UpdateNextID()
FUNC 52b0 96 0 google_breakpad::ExceptionHandler::WriteMinidump(std::__1::basic_string<char, std::__1::char_traits<char>, std::__1::allocator<char> > const&, bool, bool (*)(char const*, char const*, void*, bool), void*)
FUNC 5350 157 0 google_breakpad::ExceptionHandler::WriteMinidumpForChild(unsigned int, unsigned int, std::__1::basic_string<char, std::__1::char_traits<char>, std::__1::allocator<char> > const&, bool (*)(char const*, char const*, void*, bool), void*)
FUNC 54b0 22b 0 google_breakpad::ExceptionHandler::WriteMinidumpWithException(int, int, int, __darwin_ucontext*, unsigned int, bool, bool)
FUNC 56e0 2dc 0 google_breakpad::ExceptionHandler::WaitForMessage(void*)
FUNC 59c0 6e 0 google_breakpad::ExceptionHandler::SuspendThreads()
FUNC 5a30 6e 0 google_breakpad::ExceptionHandler::ResumeThreads()
FUNC 5aa0 e4 0 google_breakpad::ExceptionHandler::UninstallHandler(bool)
FUNC 5b90 47 0 google_breakpad::ExceptionHandler::SignalHandler(int, __siginfo*, void*)
FUNC 5be0 160 0 google_breakpad::ExceptionHandler::InstallHandler()
FUNC 5d40 2eb 0 google_breakpad::MinidumpGenerator::MinidumpGenerator()
FUNC 6030 28f 0 google_breakpad::MinidumpGenerator::GatherSystemInformation()
FUNC 62c0 5 0 google_breakpad::MinidumpGenerator::MinidumpGenerator()
FUNC 62d0 328 0 google_breakpad::MinidumpGenerator::MinidumpGenerator(unsigned int, unsigned int)
FUNC 6600 5 0 google_breakpad::MinidumpGenerator::MinidumpGenerator(unsigned int, unsigned int)
FUNC 6610 74 0 <name omitted>
FUNC 6690 74 0 <name omitted>
FUNC 6710 79 0 google_breakpad::MinidumpGenerator::~MinidumpGenerator()
FUNC 6790 5 0 google_breakpad::MinidumpGenerator::SetTaskContext(__darwin_ucontext*)
FUNC 67a0 140 0 google_breakpad::MinidumpGenerator::UniqueNameInDirectory(std::__1::basic_string<char, std::__1::char_traits<char>, std::__1::allocator<char> > const&, std::__1::basic_string<char, std::__1::char_traits<char>, std::__1::allocator<char> >*)
FUNC 68e0 2bd 0 google_breakpad::MinidumpGenerator::Write(char const*)
FUNC 6ba0 24b 0 google_breakpad::MinidumpGenerator::WriteThreadListStream(MDRawDirectory*)
FUNC 6df0 527 0 google_breakpad::MinidumpGenerator::WriteMemoryListStream(MDRawDirectory*)
FUNC 7320 278 0 google_breakpad::MinidumpGenerator::WriteSystemInfoStream(MDRawDirectory*)
FUNC 75a0 2a0 0 google_breakpad::MinidumpGenerator::WriteModuleListStream(MDRawDirectory*)
FUNC 7840 294 0 google_breakpad::MinidumpGenerator::WriteMiscInfoStream(MDRawDirectory*)
FUNC 7ae0 100 0 google_breakpad::MinidumpGenerator::WriteBreakpadInfoStream(MDRawDirectory*)
FUNC 7be0 113 0 google_breakpad::MinidumpGenerator::CalculateStackSize(unsigned long long)
FUNC 7d00 16b 0 google_breakpad::MinidumpGenerator::WriteStackFromStartAddress(unsigned long long, MDMemoryDescriptor*)
FUNC 7e70 23 0 <name omitted>
FUNC 7ea0 8 0 google_breakpad::MinidumpGenerator::WriteStackX86(unsigned int*, MDMemoryDescriptor*)
FUNC 7eb0 9 0 google_breakpad::MinidumpGenerator::WriteStackX86_64(unsigned int*, MDMemoryDescriptor*)
FUNC 7ec0 1c 0 <name omitted>
FUNC 7ee0 1b1 0 google_breakpad::MinidumpGenerator::WriteContextX86(unsigned int*, MDLocationDescriptor*)
FUNC 80a0 1ca 0 google_breakpad::MinidumpGenerator::WriteContextX86_64(unsigned int*, MDLocationDescriptor*)
FUNC 8270 3d 0 google_breakpad::MinidumpGenerator::CurrentPCForStack(unsigned int*)
FUNC 82b0 4 0 google_breakpad::MinidumpGenerator::CurrentPCForStackX86(unsigned int*)
FUNC 82c0 8 0 google_breakpad::MinidumpGenerator::CurrentPCForStackX86_64(unsigned int*)
FUNC 82d0 aa 0 google_breakpad::MinidumpGenerator::GetThreadState(unsigned int, unsigned int*, unsigned int*)
FUNC 8380 1a1 0 google_breakpad::MinidumpGenerator::WriteThreadStream(unsigned int, MDRawThread*)
FUNC 8530 2a5 0 google_breakpad::MinidumpGenerator::WriteExceptionStream(MDRawDirectory*)
FUNC 87e0 3a3 0 google_breakpad::MinidumpGenerator::WriteModuleStream(unsigned int, MDRawModule*)
FUNC 8b90 4e 0 google_breakpad::MinidumpGenerator::FindExecutableModule()
FUNC 8be0 3a5 0 google_breakpad::MinidumpGenerator::WriteCVRecord(MDRawModule*, int, char const*, bool)
FUNC 8f90 97 0 google_breakpad::DynamicImages::~DynamicImages()
FUNC 9030 150 0 std::__1::__split_buffer<MDMemoryDescriptor, google_breakpad::PageStdAllocator<MDMemoryDescriptor>&>::__split_buffer(unsigned long, unsigned long, google_breakpad::PageStdAllocator<MDMemoryDescriptor>&)
FUNC 9180 26a 0 void std::__1::vector<MDMemoryDescriptor, google_breakpad::PageStdAllocator<MDMemoryDescriptor> >::__push_back_slow_path<MDMemoryDescriptor const&>(MDMemoryDescriptor const&&&)
FUNC 93f0 1d9 0 ConvertUTF32toUTF16
FUNC 95d0 11f 0 ConvertUTF16toUTF32
FUNC 96f0 2b7 0 ConvertUTF16toUTF8
FUNC 99d0 27 0 isLegalUTF8Sequence
FUNC 9a00 d6 0 isLegalUTF8
FUNC 9b40 3cc 0 ConvertUTF8toUTF16
FUNC 9f40 24a 0 ConvertUTF32toUTF8
FUNC a1b0 319 0 ConvertUTF8toUTF32
FUNC a500 13 0 google_breakpad::MD5Init(google_breakpad::MD5Context*)
FUNC a520 132 0 google_breakpad::MD5Update(google_breakpad::MD5Context*, unsigned char const*, unsigned long)
FUNC a660 6f3 0 google_breakpad::MD5Transform(unsigned int*, unsigned int const*)
FUNC ad60 108 0 google_breakpad::MD5Final(unsigned char*, google_breakpad::MD5Context*)
FUNC ae70 b8 0 google_breakpad::UTF8ToUTF16(char const*, std::__1::vector<unsigned short, std::__1::allocator<unsigned short> >*)
FUNC af30 7ea 0 std::__1::vector<unsigned short, std::__1::allocator<unsigned short> >::insert(std::__1::__wrap_iter<unsigned short const*>, unsigned long, unsigned short const&)
FUNC b720 9f 0 google_breakpad::UTF8ToUTF16Char(char const*, int, unsigned short*)
FUNC b7c0 b8 0 google_breakpad::UTF32ToUTF16(wchar_t const*, std::__1::vector<unsigned short, std::__1::allocator<unsigned short> >*)
FUNC b880 4c 0 google_breakpad::UTF32ToUTF16Char(wchar_t, unsigned short*)
FUNC b8d0 32a 0 google_breakpad::UTF16ToUTF8(std::__1::vector<unsigned short, std::__1::allocator<unsigned short> > const&, bool)
FUNC bc00 162 0 std::__1::vector<unsigned short, std::__1::allocator<unsigned short> >::__append(unsigned long)
FUNC bd70 5 0 breakpad::BootstrapRegister(unsigned int, char*, unsigned int)
FUNC bd80 16 0 <name omitted>
FUNC bda0 16 0 google_breakpad::FileID::FileID(char const*)
FUNC bdc0 c6 0 google_breakpad::FileID::FileIdentifier(unsigned char*)
FUNC be90 a4 0 google_breakpad::FileID::MachoIdentifier(int, int, unsigned char*)
FUNC bf40 92 0 google_breakpad::FileID::ConvertIdentifierToString(unsigned char const*, char*, int)
FUNC bfe0 c5 0 <name omitted>
FUNC c0b0 c5 0 MacFileUtilities::MachoID::MachoID(char const*)
FUNC c180 c0 0 <name omitted>
FUNC c240 c0 0 MacFileUtilities::MachoID::MachoID(char const*, void*, unsigned long)
FUNC c300 1 0 MacFileUtilities::MachoID::~MachoID()
FUNC c310 1 0 MacFileUtilities::MachoID::~MachoID()
FUNC c320 280 0 MacFileUtilities::MachoID::UpdateCRC(unsigned char*, unsigned long)
FUNC c5a0 e 0 MacFileUtilities::MachoID::UpdateMD5(unsigned char*, unsigned long)
FUNC c5b0 e2 0 <name omitted>
FUNC c6a0 6a 0 MacFileUtilities::MachoID::UUIDCommand(int, int, unsigned char*)
FUNC c710 87 0 MacFileUtilities::MachoID::WalkHeader(int, int, bool (*)(MacFileUtilities::MachoWalker*, load_command*, long long, bool, void*), void*)
FUNC c7a0 3d 0 MacFileUtilities::MachoID::UUIDWalkerCB(MacFileUtilities::MachoWalker*, load_command*, long long, bool, void*)
FUNC c7e0 e4 0 MacFileUtilities::MachoID::IDCommand(int, int, unsigned char*)
FUNC c8d0 3d 0 MacFileUtilities::MachoID::IDWalkerCB(MacFileUtilities::MachoWalker*, load_command*, long long, bool, void*)
FUNC c910 41 0 MacFileUtilities::MachoID::Adler32(int, int)
FUNC c960 5d7 0 MacFileUtilities::MachoID::WalkerCB(MacFileUtilities::MachoWalker*, load_command*, long long, bool, void*)
FUNC cf40 6d 0 MacFileUtilities::MachoID::MD5(int, int, unsigned char*)
FUNC cfb0 f 0 breakpad_swap_uuid_command(breakpad_uuid_command*)
FUNC cfc0 f 0 breakpad_swap_load_command(load_command*)
FUNC cfd0 22 0 breakpad_swap_dylib_command(dylib_command*)
FUNC d000 35 0 breakpad_swap_segment_command(segment_command*)
FUNC d040 48 0 breakpad_swap_segment_command_64(segment_command_64*)
FUNC d090 f 0 breakpad_swap_fat_header(fat_header*)
FUNC d0a0 90 0 breakpad_swap_fat_arch(fat_arch*, unsigned int)
FUNC d130 2a 0 breakpad_swap_mach_header(mach_header*)
FUNC d160 25 0 breakpad_swap_mach_header_64(mach_header_64*)
FUNC d190 d8 0 breakpad_swap_section(section*, unsigned int)
FUNC d270 5e 0 breakpad_swap_section_64(section_64*, unsigned int)
FUNC d2d0 4d 0 <name omitted>
FUNC d320 4d 0 MacFileUtilities::MachoWalker::MachoWalker(char const*, bool (*)(MacFileUtilities::MachoWalker*, load_command*, long long, bool, void*), void*)
FUNC d370 2f 0 <name omitted>
FUNC d3a0 2f 0 MacFileUtilities::MachoWalker::MachoWalker(void*, unsigned long, bool (*)(MacFileUtilities::MachoWalker*, load_command*, long long, bool, void*), void*)
FUNC d3d0 17 0 <name omitted>
FUNC d3f0 17 0 MacFileUtilities::MachoWalker::~MachoWalker()
FUNC d410 264 0 MacFileUtilities::MachoWalker::WalkHeader(int, int)
FUNC d680 353 0 MacFileUtilities::MachoWalker::FindHeader(int, int, long long&)
FUNC d9e0 e5 0 MacFileUtilities::MachoWalker::WalkHeader64AtOffset(long long)
FUNC dad0 113 0 MacFileUtilities::MachoWalker::WalkHeaderAtOffset(long long)
FUNC dbf0 5f 0 MacFileUtilities::MachoWalker::ReadBytes(void*, unsigned long, long long)
FUNC dc50 34 0 MacFileUtilities::MachoWalker::CurrentHeader(mach_header_64*, long long*)
FUNC dc90 16d 0 MacFileUtilities::MachoWalker::WalkHeaderCore(long long, unsigned int, bool)
FUNC de00 11f 0 MacStringUtils::ConvertToString(__CFString const*)
FUNC df20 31d 0 MacStringUtils::IntegerValueAtIndex(std::__1::basic_string<char, std::__1::char_traits<char>, std::__1::allocator<char> >&, unsigned int)
FUNC e240 44 0 <name omitted>
FUNC e290 1a 0 <name omitted>
FUNC e2b0 6d 0 google_breakpad::MachMessage::SetData(void*, int)
FUNC e320 34 0 google_breakpad::MachSendMessage::MachSendMessage(int)
FUNC e360 1c 0 google_breakpad::MachMessage::CalculateSize()
FUNC e380 e 0 google_breakpad::MachMessage::GetDataPacket()
FUNC e390 17 0 <name omitted>
FUNC e3b0 a7 0 google_breakpad::MachMessage::AddDescriptor(google_breakpad::MachMsgPortDescriptor const&)
FUNC e460 16 0 <name omitted>
FUNC e480 13 0 google_breakpad::MachMessage::GetTranslatedPort(int)
FUNC e4a0 83 0 <name omitted>
FUNC e530 83 0 google_breakpad::ReceivePort::ReceivePort(char const*)
FUNC e5c0 3f 0 <name omitted>
FUNC e600 3f 0 google_breakpad::ReceivePort::ReceivePort()
FUNC e640 a 0 <name omitted>
FUNC e650 a 0 google_breakpad::ReceivePort::ReceivePort(unsigned int)
FUNC e660 23 0 <name omitted>
FUNC e690 23 0 google_breakpad::ReceivePort::~ReceivePort()
FUNC e6c0 5f 0 google_breakpad::ReceivePort::WaitForMessage(google_breakpad::MachReceiveMessage*, unsigned int)
FUNC e720 4b 0 <name omitted>
FUNC e770 4b 0 google_breakpad::MachPortSender::MachPortSender(char const*)
FUNC e7c0 a 0 <name omitted>
FUNC e7d0 a 0 google_breakpad::MachPortSender::MachPortSender(unsigned int)
FUNC e7e0 40 0 google_breakpad::MachPortSender::SendMessage(google_breakpad::MachSendMessage&, unsigned int)
FUNC e820 c6 0 main
FUNC e8f0 35 0 (anonymous namespace)::callback(char const*, char const*, void*, bool)
PUBLIC 0 0 _mh_execute_header
PUBLIC 4f80 0 __clang_call_terminate
PUBLIC f030 0 GCC_except_table2
PUBLIC f048 0 GCC_except_table5
PUBLIC f060 0 GCC_except_table11
PUBLIC f0f0 0 GCC_except_table13
PUBLIC f180 0 GCC_except_table0
PUBLIC f218 0 GCC_except_table3
PUBLIC f244 0 GCC_except_table8
PUBLIC f2fc 0 GCC_except_table9
PUBLIC f3b4 0 GCC_except_table14
PUBLIC f3e0 0 GCC_except_table15
PUBLIC f440 0 GCC_except_table16
PUBLIC f494 0 GCC_except_table17
PUBLIC f4c0 0 GCC_except_table3
PUBLIC f51c 0 GCC_except_table8
PUBLIC f53c 0 GCC_except_table10
PUBLIC f57c 0 GCC_except_table14
PUBLIC f5b0 0 GCC_except_table16
PUBLIC f5d8 0 GCC_except_table17
PUBLIC f604 0 GCC_except_table18
PUBLIC f66c 0 GCC_except_table19
PUBLIC f6b4 0 GCC_except_table25
PUBLIC f6f4 0 GCC_except_table0
PUBLIC f750 0 GCC_except_table1
PUBLIC f78c 0 GCC_except_table3
PUBLIC f7f4 0 GCC_except_table5
PUBLIC f80c 0 GCC_except_table6
PUBLIC f824 0 GCC_except_table7
PUBLIC f83c 0 GCC_except_table9
PUBLIC f878 0 GCC_except_table10
PUBLIC f914 0 GCC_except_table11
PUBLIC f97c 0 GCC_except_table12
PUBLIC fa74 0 GCC_except_table13
PUBLIC fadc 0 GCC_except_table14
PUBLIC fb88 0 GCC_except_table15
PUBLIC fc18 0 GCC_except_table16
PUBLIC fc58 0 GCC_except_table18
PUBLIC fca0 0 GCC_except_table23
PUBLIC fcfc 0 GCC_except_table24
PUBLIC fd58 0 GCC_except_table30
PUBLIC fdf4 0 GCC_except_table31
PUBLIC fe54 0 GCC_except_table33
PUBLIC fee4 0 GCC_except_table1
PUBLIC ff10 0 GCC_except_table5
PUBLIC ff70 0 GCC_except_table6
PUBLIC ff9c 0 GCC_except_table3
PUBLIC ffc8 0 GCC_except_table10
PUBLIC 10010 0 GCC_except_table4
PUBLIC 10028 0 GCC_except_table6
PUBLIC 10040 0 GCC_except_table0
PUBLIC 10088 0 GCC_except_table1
PUBLIC 100bc 0 GCC_except_table16
PUBLIC 100d4 0 GCC_except_table18
PUBLIC 100ec 0 GCC_except_table0
PUBLIC 105b0 0 google_breakpad::MinidumpFileWriter::kInvalidMDRVA
PUBLIC 105e0 0 typeinfo name for google_breakpad::MinidumpGenerator
PUBLIC 10610 0 firstByteMark
PUBLIC 10620 0 trailingBytesForUTF8
PUBLIC 10720 0 offsetsFromUTF8
PUBLIC 123f0 0 vtable for google_breakpad::MinidumpGenerator
PUBLIC 12490 0 typeinfo for google_breakpad::MinidumpGenerator
PUBLIC 12508 0 google_breakpad::s_exception_mask
PUBLIC 12510 0 google_breakpad::gProtectedData (.0)
PUBLIC 12520 0 google_breakpad::MinidumpGenerator::build_string_
PUBLIC 12530 0 google_breakpad::MinidumpGenerator::os_major_version_
PUBLIC 12534 0 google_breakpad::MinidumpGenerator::os_minor_version_
PUBLIC 12538 0 google_breakpad::MinidumpGenerator::os_build_number_
STACK CFI INIT 1350 1a .cfa: $rsp 8 + .ra: .cfa -8 + ^
STACK CFI INIT 1370 1a .cfa: $rsp 8 + .ra: .cfa -8 + ^
STACK CFI INIT 14a0 2d .cfa: $rsp 8 + .ra: .cfa -8 + ^
STACK CFI 14a1 .cfa: $rsp 16 +
STACK CFI INIT 1770 5 .cfa: $rsp 8 + .ra: .cfa -8 + ^
STACK CFI INIT 1a50 5 .cfa: $rsp 8 + .ra: .cfa -8 + ^
STACK CFI INIT 1e00 104 .cfa: $rsp 8 + .ra: .cfa -8 + ^
STACK CFI 1e01 .cfa: $rsp 16 +
STACK CFI 1e03 .cfa: $rsp 24 +
STACK CFI 1e05 .cfa: $rsp 32 +
STACK CFI 1e07 .cfa: $rsp 40 +
STACK CFI 1e09 .cfa: $rsp 48 +
STACK CFI 1e0a .cfa: $rsp 56 +
STACK CFI 1e0b $r12: .cfa -48 + ^ $r13: .cfa -40 + ^ $r14: .cfa -32 + ^ $r15: .cfa -24 + ^ $rbp: .cfa -16 + ^ $rbx: .cfa -56 + ^ .cfa: $rsp 64 +
STACK CFI INIT 1fd0 c8 .cfa: $rsp 8 + .ra: .cfa -8 + ^
STACK CFI 1fd2 .cfa: $rsp 16 +
STACK CFI 1fd4 .cfa: $rsp 24 +
STACK CFI 1fd6 .cfa: $rsp 32 +
STACK CFI 1fd7 .cfa: $rsp 40 +
STACK CFI 1fd8 $r12: .cfa -32 + ^ $r14: .cfa -24 + ^ $r15: .cfa -16 + ^ $rbx: .cfa -40 + ^ .cfa: $rsp 48 +
STACK CFI INIT 20a0 f3 .cfa: $rsp 8 + .ra: .cfa -8 + ^
STACK CFI 20a2 .cfa: $rsp 16 +
STACK CFI 20a4 .cfa: $rsp 24 +
STACK CFI 20a6 .cfa: $rsp 32 +
STACK CFI 20a7 .cfa: $rsp 40 +
STACK CFI 20a8 $r12: .cfa -32 + ^ $r14: .cfa -24 + ^ $r15: .cfa -16 + ^ $rbx: .cfa -40 + ^ .cfa: $rsp 48 +
STACK CFI INIT 2400 1ba .cfa: $rsp 8 + .ra: .cfa -8 + ^
STACK CFI 2401 .cfa: $rsp 16 +
STACK CFI 2403 .cfa: $rsp 24 +
STACK CFI 2405 .cfa: $rsp 32 +
STACK CFI 2407 .cfa: $rsp 40 +
STACK CFI 2409 .cfa: $rsp 48 +
STACK CFI 240a .cfa: $rsp 56 +
STACK CFI 240b $r12: .cfa -48 + ^ $r13: .cfa -40 + ^ $r14: .cfa -32 + ^ $r15: .cfa -24 + ^ $rbp: .cfa -16 + ^ $rbx: .cfa -56 + ^ .cfa: $rsp 64 +
STACK CFI INIT 25c0 7 .cfa: $rsp 8 + .ra: .cfa -8 + ^
STACK CFI INIT 27b0 5 .cfa: $rsp 8 + .ra: .cfa -8 + ^
STACK CFI INIT 3320 4a .cfa: $rsp 8 + .ra: .cfa -8 + ^
STACK CFI INIT 3370 39 .cfa: $rsp 8 + .ra: .cfa -8 + ^
STACK CFI INIT 33b0 1d7 .cfa: $rsp 8 + .ra: .cfa -8 + ^
STACK CFI 33b1 .cfa: $rsp 16 +
STACK CFI 33b3 .cfa: $rsp 24 +
STACK CFI 33b5 .cfa: $rsp 32 +
STACK CFI 33b7 .cfa: $rsp 40 +
STACK CFI 33b9 .cfa: $rsp 48 +
STACK CFI 33ba .cfa: $rsp 56 +
STACK CFI 33bb $r12: .cfa -48 + ^ $r13: .cfa -40 + ^ $r14: .cfa -32 + ^ $r15: .cfa -24 + ^ $rbp: .cfa -16 + ^ $rbx: .cfa -56 + ^ .cfa: $rsp 64 +
STACK CFI INIT 3950 121 .cfa: $rsp 8 + .ra: .cfa -8 + ^
STACK CFI 3951 .cfa: $rsp 16 +
STACK CFI 3953 .cfa: $rsp 24 +
STACK CFI 3955 .cfa: $rsp 32 +
STACK CFI 3957 .cfa: $rsp 40 +
STACK CFI 3959 .cfa: $rsp 48 +
STACK CFI 395a .cfa: $rsp 56 +
STACK CFI 395b $r12: .cfa -48 + ^ $r13: .cfa -40 + ^ $r14: .cfa -32 + ^ $r15: .cfa -24 + ^ $rbp: .cfa -16 + ^ $rbx: .cfa -56 + ^ .cfa: $rsp 64 +
STACK CFI INIT 3a80 1c9 .cfa: $rsp 8 + .ra: .cfa -8 + ^
STACK CFI 3a81 .cfa: $rsp 16 +
STACK CFI 3a83 .cfa: $rsp 24 +
STACK CFI 3a85 .cfa: $rsp 32 +
STACK CFI 3a87 .cfa: $rsp 40 +
STACK CFI 3a89 .cfa: $rsp 48 +
STACK CFI 3a8a .cfa: $rsp 56 +
STACK CFI 3a8b $r12: .cfa -48 + ^ $r13: .cfa -40 + ^ $r14: .cfa -32 + ^ $r15: .cfa -24 + ^ $rbp: .cfa -16 + ^ $rbx: .cfa -56 + ^ .cfa: $rsp 64 +
STACK CFI INIT 43c0 2cb .cfa: $rsp 8 + .ra: .cfa -8 + ^
STACK CFI 43c2 .cfa: $rsp 16 +
STACK CFI 43c3 .cfa: $rsp 24 +
STACK CFI 43c4 $r14: .cfa -16 + ^ $rbx: .cfa -24 + ^ .cfa: $rsp 32 +
STACK CFI INIT 46b0 5 .cfa: $rsp 8 + .ra: .cfa -8 + ^
STACK CFI INIT 46c0 20 .cfa: $rsp 8 + .ra: .cfa -8 + ^
STACK CFI INIT 4b50 e .cfa: $rsp 8 + .ra: .cfa -8 + ^
STACK CFI INIT 4b60 e .cfa: $rsp 8 + .ra: .cfa -8 + ^
STACK CFI INIT 4b70 9 .cfa: $rsp 8 + .ra: .cfa -8 + ^
STACK CFI INIT 4b80 151 .cfa: $rsp 8 + .ra: .cfa -8 + ^
STACK CFI 4b81 .cfa: $rsp 16 +
STACK CFI 4b83 .cfa: $rsp 24 +
STACK CFI 4b85 .cfa: $rsp 32 +
STACK CFI 4b86 .cfa: $rsp 40 +
STACK CFI 4b87 $r14: .cfa -32 + ^ $r15: .cfa -24 + ^ $rbp: .cfa -16 + ^ $rbx: .cfa -40 + ^ .cfa: $rsp 48 +
STACK CFI INIT 4ce0 8 .cfa: $rsp 8 + .ra: .cfa -8 + ^
STACK CFI INIT 4f80 b .cfa: $rsp 8 + .ra: .cfa -8 + ^
STACK CFI 4f81 .cfa: $rsp 16 +
STACK CFI INIT 4f90 5 .cfa: $rsp 8 + .ra: .cfa -8 + ^
STACK CFI INIT 5d40 2eb .cfa: $rsp 8 + .ra: .cfa -8 + ^
STACK CFI 5d42 .cfa: $rsp 16 +
STACK CFI 5d44 .cfa: $rsp 24 +
STACK CFI 5d46 .cfa: $rsp 32 +
STACK CFI 5d47 .cfa: $rsp 40 +
STACK CFI 5d48 $r12: .cfa -32 + ^ $r14: .cfa -24 + ^ $r15: .cfa -16 + ^ $rbx: .cfa -40 + ^ .cfa: $rsp 48 +
STACK CFI INIT 62c0 5 .cfa: $rsp 8 + .ra: .cfa -8 + ^
STACK CFI INIT 6600 5 .cfa: $rsp 8 + .ra: .cfa -8 + ^
STACK CFI INIT 6790 5 .cfa: $rsp 8 + .ra: .cfa -8 + ^
STACK CFI INIT 7e70 23 .cfa: $rsp 8 + .ra: .cfa -8 + ^
STACK CFI INIT 7ea0 8 .cfa: $rsp 8 + .ra: .cfa -8 + ^
STACK CFI INIT 7eb0 9 .cfa: $rsp 8 + .ra: .cfa -8 + ^
STACK CFI INIT 7ec0 1c .cfa: $rsp 8 + .ra: .cfa -8 + ^
STACK CFI INIT 8270 3d .cfa: $rsp 8 + .ra: .cfa -8 + ^
STACK CFI 8271 .cfa: $rsp 16 +
STACK CFI INIT 82b0 4 .cfa: $rsp 8 + .ra: .cfa -8 + ^
STACK CFI INIT 82c0 8 .cfa: $rsp 8 + .ra: .cfa -8 + ^
STACK CFI INIT 82d0 aa .cfa: $rsp 8 + .ra: .cfa -8 + ^
STACK CFI 82d1 .cfa: $rsp 16 +
STACK CFI 82d3 .cfa: $rsp 24 +
STACK CFI 82d5 .cfa: $rsp 32 +
STACK CFI 82d6 .cfa: $rsp 40 +
STACK CFI 82d7 $r14: .cfa -32 + ^ $r15: .cfa -24 + ^ $rbp: .cfa -16 + ^ $rbx: .cfa -40 + ^ .cfa: $rsp 48 +
STACK CFI INIT 8b90 4e .cfa: $rsp 8 + .ra: .cfa -8 + ^
STACK CFI 8b91 .cfa: $rsp 16 +
STACK CFI 8b92 .cfa: $rsp 24 +
STACK CFI 8b93 $rbp: .cfa -16 + ^ $rbx: .cfa -24 + ^ .cfa: $rsp 32 +
STACK CFI INIT 9030 150 .cfa: $rsp 8 + .ra: .cfa -8 + ^
STACK CFI 9031 .cfa: $rsp 16 +
STACK CFI 9033 .cfa: $rsp 24 +
STACK CFI 9035 .cfa: $rsp 32 +
STACK CFI 9037 .cfa: $rsp 40 +
STACK CFI 9039 .cfa: $rsp 48 +
STACK CFI 903a .cfa: $rsp 56 +
STACK CFI 903b $r12: .cfa -48 + ^ $r13: .cfa -40 + ^ $r14: .cfa -32 + ^ $r15: .cfa -24 + ^ $rbp: .cfa -16 + ^ $rbx: .cfa -56 + ^ .cfa: $rsp 64 +
STACK CFI INIT 93f0 1d9 .cfa: $rsp 8 + .ra: .cfa -8 + ^
STACK CFI INIT 99d0 27 .cfa: $rsp 8 + .ra: .cfa -8 + ^
STACK CFI INIT 9a00 d6 .cfa: $rsp 8 + .ra: .cfa -8 + ^
STACK CFI INIT a500 13 .cfa: $rsp 8 + .ra: .cfa -8 + ^
STACK CFI INIT a520 132 .cfa: $rsp 8 + .ra: .cfa -8 + ^
STACK CFI a521 .cfa: $rsp 16 +
STACK CFI a523 .cfa: $rsp 24 +
STACK CFI a525 .cfa: $rsp 32 +
STACK CFI a527 .cfa: $rsp 40 +
STACK CFI a529 .cfa: $rsp 48 +
STACK CFI a52a .cfa: $rsp 56 +
STACK CFI a52b $r12: .cfa -48 + ^ $r13: .cfa -40 + ^ $r14: .cfa -32 + ^ $r15: .cfa -24 + ^ $rbp: .cfa -16 + ^ $rbx: .cfa -56 + ^ .cfa: $rsp 64 +
STACK CFI INIT ad60 108 .cfa: $rsp 8 + .ra: .cfa -8 + ^
STACK CFI ad61 .cfa: $rsp 16 +
STACK CFI ad63 .cfa: $rsp 24 +
STACK CFI ad65 .cfa: $rsp 32 +
STACK CFI ad66 .cfa: $rsp 40 +
STACK CFI ad67 $r14: .cfa -32 + ^ $r15: .cfa -24 + ^ $rbp: .cfa -16 + ^ $rbx: .cfa -40 + ^ .cfa: $rsp 48 +
STACK CFI INIT bc00 162 .cfa: $rsp 8 + .ra: .cfa -8 + ^
STACK CFI bc01 .cfa: $rsp 16 +
STACK CFI bc03 .cfa: $rsp 24 +
STACK CFI bc05 .cfa: $rsp 32 +
STACK CFI bc07 .cfa: $rsp 40 +
STACK CFI bc09 .cfa: $rsp 48 +
STACK CFI bc0a .cfa: $rsp 56 +
STACK CFI bc0b $r12: .cfa -48 + ^ $r13: .cfa -40 + ^ $r14: .cfa -32 + ^ $r15: .cfa -24 + ^ $rbp: .cfa -16 + ^ $rbx: .cfa -56 + ^ .cfa: $rsp 64 +
STACK CFI INIT bd70 5 .cfa: $rsp 8 + .ra: .cfa -8 + ^
STACK CFI INIT bd80 16 .cfa: $rsp 8 + .ra: .cfa -8 + ^
STACK CFI INIT bda0 16 .cfa: $rsp 8 + .ra: .cfa -8 + ^
STACK CFI INIT bfe0 c5 .cfa: $rsp 8 + .ra: .cfa -8 + ^
STACK CFI INIT c0b0 c5 .cfa: $rsp 8 + .ra: .cfa -8 + ^
STACK CFI INIT c180 c0 .cfa: $rsp 8 + .ra: .cfa -8 + ^
STACK CFI INIT c240 c0 .cfa: $rsp 8 + .ra: .cfa -8 + ^
STACK CFI INIT c300 1 .cfa: $rsp 8 + .ra: .cfa -8 + ^
STACK CFI INIT c310 1 .cfa: $rsp 8 + .ra: .cfa -8 + ^
STACK CFI INIT c5a0 e .cfa: $rsp 8 + .ra: .cfa -8 + ^
STACK CFI INIT c7a0 3d .cfa: $rsp 8 + .ra: .cfa -8 + ^
STACK CFI c7a1 .cfa: $rsp 16 +
STACK CFI c7a2 .cfa: $rsp 24 +
STACK CFI c7a3 $rbp: .cfa -16 + ^ $rbx: .cfa -24 + ^ .cfa: $rsp 32 +
STACK CFI INIT c8d0 3d .cfa: $rsp 8 + .ra: .cfa -8 + ^
STACK CFI c8d1 .cfa: $rsp 16 +
STACK CFI c8d2 .cfa: $rsp 24 +
STACK CFI c8d3 $rbp: .cfa -16 + ^ $rbx: .cfa -24 + ^ .cfa: $rsp 32 +
STACK CFI INIT cfb0 f .cfa: $rsp 8 + .ra: .cfa -8 + ^
STACK CFI INIT cfc0 f .cfa: $rsp 8 + .ra: .cfa -8 + ^
STACK CFI INIT cfd0 22 .cfa: $rsp 8 + .ra: .cfa -8 + ^
STACK CFI INIT d000 35 .cfa: $rsp 8 + .ra: .cfa -8 + ^
STACK CFI INIT d040 48 .cfa: $rsp 8 + .ra: .cfa -8 + ^
STACK CFI INIT d090 f .cfa: $rsp 8 + .ra: .cfa -8 + ^
STACK CFI INIT d0a0 90 .cfa: $rsp 8 + .ra: .cfa -8 + ^
STACK CFI INIT d130 2a .cfa: $rsp 8 + .ra: .cfa -8 + ^
STACK CFI INIT d160 25 .cfa: $rsp 8 + .ra: .cfa -8 + ^
STACK CFI INIT d190 d8 .cfa: $rsp 8 + .ra: .cfa -8 + ^
STACK CFI INIT d270 5e .cfa: $rsp 8 + .ra: .cfa -8 + ^
STACK CFI INIT d370 2f .cfa: $rsp 8 + .ra: .cfa -8 + ^
STACK CFI INIT d3a0 2f .cfa: $rsp 8 + .ra: .cfa -8 + ^
STACK CFI INIT d3d0 17 .cfa: $rsp 8 + .ra: .cfa -8 + ^
STACK CFI d3d1 .cfa: $rsp 16 +
STACK CFI INIT d3f0 17 .cfa: $rsp 8 + .ra: .cfa -8 + ^
STACK CFI d3f1 .cfa: $rsp 16 +
STACK CFI INIT dbf0 5f .cfa: $rsp 8 + .ra: .cfa -8 + ^
STACK CFI dbf1 .cfa: $rsp 16 +
STACK CFI dbf2 .cfa: $rsp 24 +
STACK CFI dbf3 $rbp: .cfa -16 + ^ $rbx: .cfa -24 + ^ .cfa: $rsp 32 +
STACK CFI INIT dc50 34 .cfa: $rsp 8 + .ra: .cfa -8 + ^
STACK CFI INIT dc90 16d .cfa: $rsp 8 + .ra: .cfa -8 + ^
STACK CFI dc91 .cfa: $rsp 16 +
STACK CFI dc93 .cfa: $rsp 24 +
STACK CFI dc95 .cfa: $rsp 32 +
STACK CFI dc97 .cfa: $rsp 40 +
STACK CFI dc99 .cfa: $rsp 48 +
STACK CFI dc9a .cfa: $rsp 56 +
STACK CFI dc9b $r12: .cfa -48 + ^ $r13: .cfa -40 + ^ $r14: .cfa -32 + ^ $r15: .cfa -24 + ^ $rbp: .cfa -16 + ^ $rbx: .cfa -56 + ^ .cfa: $rsp 64 +
STACK CFI INIT e240 44 .cfa: $rsp 8 + .ra: .cfa -8 + ^
STACK CFI e241 .cfa: $rsp 16 +
STACK CFI e242 .cfa: $rsp 24 +
STACK CFI e243 $rbp: .cfa -16 + ^ $rbx: .cfa -24 + ^ .cfa: $rsp 32 +
STACK CFI INIT e290 1a .cfa: $rsp 8 + .ra: .cfa -8 + ^
STACK CFI INIT e320 34 .cfa: $rsp 8 + .ra: .cfa -8 + ^
STACK CFI e321 .cfa: $rsp 16 +
STACK CFI e322 .cfa: $rsp 24 +
STACK CFI e323 $rbp: .cfa -16 + ^ $rbx: .cfa -24 + ^ .cfa: $rsp 32 +
STACK CFI INIT e360 1c .cfa: $rsp 8 + .ra: .cfa -8 + ^
STACK CFI INIT e380 e .cfa: $rsp 8 + .ra: .cfa -8 + ^
STACK CFI INIT e390 17 .cfa: $rsp 8 + .ra: .cfa -8 + ^
STACK CFI INIT e3b0 a7 .cfa: $rsp 8 + .ra: .cfa -8 + ^
STACK CFI e3b2 .cfa: $rsp 16 +
STACK CFI e3b3 .cfa: $rsp 24 +
STACK CFI e3b4 $r14: .cfa -16 + ^ $rbx: .cfa -24 + ^ .cfa: $rsp 32 +
STACK CFI INIT e460 16 .cfa: $rsp 8 + .ra: .cfa -8 + ^
STACK CFI INIT e480 13 .cfa: $rsp 8 + .ra: .cfa -8 + ^
STACK CFI INIT e5c0 3f .cfa: $rsp 8 + .ra: .cfa -8 + ^
STACK CFI e5c1 .cfa: $rsp 16 +
STACK CFI e5c2 .cfa: $rsp 24 +
STACK CFI e5c3 $rbp: .cfa -16 + ^ $rbx: .cfa -24 + ^ .cfa: $rsp 32 +
STACK CFI INIT e600 3f .cfa: $rsp 8 + .ra: .cfa -8 + ^
STACK CFI e601 .cfa: $rsp 16 +
STACK CFI e602 .cfa: $rsp 24 +
STACK CFI e603 $rbp: .cfa -16 + ^ $rbx: .cfa -24 + ^ .cfa: $rsp 32 +
STACK CFI INIT e640 a .cfa: $rsp 8 + .ra: .cfa -8 + ^
STACK CFI INIT e650 a .cfa: $rsp 8 + .ra: .cfa -8 + ^
STACK CFI INIT e660 23 .cfa: $rsp 8 + .ra: .cfa -8 + ^
STACK CFI e661 .cfa: $rsp 16 +
STACK CFI INIT e690 23 .cfa: $rsp 8 + .ra: .cfa -8 + ^
STACK CFI e691 .cfa: $rsp 16 +
STACK CFI INIT e6c0 5f .cfa: $rsp 8 + .ra: .cfa -8 + ^
STACK CFI e6c1 .cfa: $rsp 16 +
STACK CFI INIT e720 4b .cfa: $rsp 8 + .ra: .cfa -8 + ^
STACK CFI e722 .cfa: $rsp 16 +
STACK CFI e723 .cfa: $rsp 24 +
STACK CFI e724 $r14: .cfa -16 + ^ $rbx: .cfa -24 + ^ .cfa: $rsp 32 +
STACK CFI INIT e770 4b .cfa: $rsp 8 + .ra: .cfa -8 + ^
STACK CFI e772 .cfa: $rsp 16 +
STACK CFI e773 .cfa: $rsp 24 +
STACK CFI e774 $r14: .cfa -16 + ^ $rbx: .cfa -24 + ^ .cfa: $rsp 32 +
STACK CFI INIT e7c0 a .cfa: $rsp 8 + .ra: .cfa -8 + ^
STACK CFI INIT e7d0 a .cfa: $rsp 8 + .ra: .cfa -8 + ^
STACK CFI INIT e7e0 40 .cfa: $rsp 8 + .ra: .cfa -8 + ^
STACK CFI e7e1 .cfa: $rsp 16 +
